Archive member included to satisfy reference by file (symbol)

c:/program files/microchip/xc32/v4.60/bin/bin/../../lib/gcc/pic32c/8.3.1/../../../../pic32c/lib/thumb/v6-m/nofp\libpic32c.a(data_init.o)
                              build/SAMD21_IOT_WG_ICM42688/debug/_ext/1832905403/startup_xc32.o (__pic32c_data_initialization)
c:/program files/microchip/xc32/v4.60/bin/bin/../../lib/gcc/pic32c/8.3.1/../../../../pic32c/lib/thumb/v6-m/nofp\libc-size-musl.a(memcpy.o)
                              build/SAMD21_IOT_WG_ICM42688/debug/_ext/11470383/plib_nvmctrl.o (memcpy)
c:/program files/microchip/xc32/v4.60/bin/bin/../../lib/gcc/pic32c/8.3.1/../../../../pic32c/lib/thumb/v6-m/nofp\libc-size-musl.a(memset.o)
                              build/SAMD21_IOT_WG_ICM42688/debug/_ext/2048461350/icm42688_sensor.o (memset)
c:/program files/microchip/xc32/v4.60/bin/bin/../../lib/gcc/pic32c/8.3.1/../../../../pic32c/lib/thumb/v6-m/nofp\libm-fast-emfloat.a(modff.o)
                              build/SAMD21_IOT_WG_ICM42688/debug/_ext/26920679/stats_percentile_presorted.o (modff)
c:/program files/microchip/xc32/v4.60/bin/bin/../../lib/gcc/pic32c/8.3.1/../../../../pic32c/lib/thumb/v6-m/nofp\libm-fast-emfloat.a(cos.o)
                              build/SAMD21_IOT_WG_ICM42688/debug/_ext/26920679/utils_array.o (cos)
c:/program files/microchip/xc32/v4.60/bin/bin/../../lib/gcc/pic32c/8.3.1/../../../../pic32c/lib/thumb/v6-m/nofp\libm-fast-emfloat.a(sqrt.o)
                              build/SAMD21_IOT_WG_ICM42688/debug/_ext/26920679/std.o (sqrt)
c:/program files/microchip/xc32/v4.60/bin/bin/../../lib/gcc/pic32c/8.3.1/../../../../pic32c/lib/thumb/v6-m/nofp\libm-fast-emfloat.a(pow.o)
                              build/SAMD21_IOT_WG_ICM42688/debug/_ext/1341251756/Icm426xxSelfTest.o (pow)
c:/program files/microchip/xc32/v4.60/bin/bin/../../lib/gcc/pic32c/8.3.1/../../../../pic32c/lib/thumb/v6-m/nofp\libm-fast-emfloat.a(__SEGGER_RTL_float64_SinCos.o)
                              c:/program files/microchip/xc32/v4.60/bin/bin/../../lib/gcc/pic32c/8.3.1/../../../../pic32c/lib/thumb/v6-m/nofp\libm-fast-emfloat.a(cos.o) (__SEGGER_RTL_float64_SinCos)
c:/program files/microchip/xc32/v4.60/bin/bin/../../lib/gcc/pic32c/8.3.1/../../../../pic32c/lib/thumb/v6-m/nofp\libm-fast-emfloat.a(__SEGGER_RTL_kahan_aT2.o)
                              c:/program files/microchip/xc32/v4.60/bin/bin/../../lib/gcc/pic32c/8.3.1/../../../../pic32c/lib/thumb/v6-m/nofp\libm-fast-emfloat.a(sqrt.o) (__SEGGER_RTL_kahan_aT2)
c:/program files/microchip/xc32/v4.60/bin/bin/../../lib/gcc/pic32c/8.3.1/../../../../pic32c/lib/thumb/v6-m/nofp\libm-fast-emfloat.a(__aeabi_fadd.o)
                              build/SAMD21_IOT_WG_ICM42688/debug/_ext/26920679/calc_area.o (__aeabi_fadd)
c:/program files/microchip/xc32/v4.60/bin/bin/../../lib/gcc/pic32c/8.3.1/../../../../pic32c/lib/thumb/v6-m/nofp\libm-fast-emfloat.a(__aeabi_dadd.o)
                              build/SAMD21_IOT_WG_ICM42688/debug/_ext/1341251756/Icm426xxSelfTest.o (__aeabi_dadd)
c:/program files/microchip/xc32/v4.60/bin/bin/../../lib/gcc/pic32c/8.3.1/../../../../pic32c/lib/thumb/v6-m/nofp\libm-fast-emfloat.a(__aeabi_fsub.o)
                              build/SAMD21_IOT_WG_ICM42688/debug/_ext/26920679/calc_area.o (__aeabi_fsub)
c:/program files/microchip/xc32/v4.60/bin/bin/../../lib/gcc/pic32c/8.3.1/../../../../pic32c/lib/thumb/v6-m/nofp\libm-fast-emfloat.a(__aeabi_dsub.o)
                              build/SAMD21_IOT_WG_ICM42688/debug/_ext/26920679/utils_array.o (__aeabi_dsub)
c:/program files/microchip/xc32/v4.60/bin/bin/../../lib/gcc/pic32c/8.3.1/../../../../pic32c/lib/thumb/v6-m/nofp\libm-fast-emfloat.a(__aeabi_fmul.o)
                              build/SAMD21_IOT_WG_ICM42688/debug/_ext/26920679/ma_symmetric.o (__aeabi_fmul)
c:/program files/microchip/xc32/v4.60/bin/bin/../../lib/gcc/pic32c/8.3.1/../../../../pic32c/lib/thumb/v6-m/nofp\libm-fast-emfloat.a(__aeabi_dmul_aux.o)
                              build/SAMD21_IOT_WG_ICM42688/debug/_ext/1341251756/Icm426xxSelfTest.o (__aeabi_dmul)
c:/program files/microchip/xc32/v4.60/bin/bin/../../lib/gcc/pic32c/8.3.1/../../../../pic32c/lib/thumb/v6-m/nofp\libm-fast-emfloat.a(__aeabi_fdiv.o)
                              build/SAMD21_IOT_WG_ICM42688/debug/_ext/1341251756/Icm426xxSelfTest.o (__aeabi_fdiv)
c:/program files/microchip/xc32/v4.60/bin/bin/../../lib/gcc/pic32c/8.3.1/../../../../pic32c/lib/thumb/v6-m/nofp\libm-fast-emfloat.a(__aeabi_ddiv.o)
                              build/SAMD21_IOT_WG_ICM42688/debug/_ext/26920679/ma_symmetric.o (__aeabi_ddiv)
c:/program files/microchip/xc32/v4.60/bin/bin/../../lib/gcc/pic32c/8.3.1/../../../../pic32c/lib/thumb/v6-m/nofp\libm-fast-emfloat.a(__aeabi_fcmple.o)
                              build/SAMD21_IOT_WG_ICM42688/debug/_ext/1341251756/Icm426xxSelfTest.o (__aeabi_fcmple)
c:/program files/microchip/xc32/v4.60/bin/bin/../../lib/gcc/pic32c/8.3.1/../../../../pic32c/lib/thumb/v6-m/nofp\libm-fast-emfloat.a(__aeabi_fcmpeq.o)
                              build/SAMD21_IOT_WG_ICM42688/debug/_ext/26920679/fg_stats_skewness.o (__aeabi_fcmpeq)
c:/program files/microchip/xc32/v4.60/bin/bin/../../lib/gcc/pic32c/8.3.1/../../../../pic32c/lib/thumb/v6-m/nofp\libm-fast-emfloat.a(__aeabi_dcmpeq.o)
                              c:/program files/microchip/xc32/v4.60/bin/bin/../../lib/gcc/pic32c/8.3.1/../../../../pic32c/lib/thumb/v6-m/nofp\libm-fast-emfloat.a(pow.o) (__aeabi_dcmpeq)
c:/program files/microchip/xc32/v4.60/bin/bin/../../lib/gcc/pic32c/8.3.1/../../../../pic32c/lib/thumb/v6-m/nofp\libm-fast-emfloat.a(__aeabi_fcmpge.o)
                              build/SAMD21_IOT_WG_ICM42688/debug/_ext/1341251756/Icm426xxSelfTest.o (__aeabi_fcmpge)
c:/program files/microchip/xc32/v4.60/bin/bin/../../lib/gcc/pic32c/8.3.1/../../../../pic32c/lib/thumb/v6-m/nofp\libm-fast-emfloat.a(__aeabi_fcmpgt.o)
                              build/SAMD21_IOT_WG_ICM42688/debug/_ext/26920679/max_min_high_low_freq.o (__aeabi_fcmpgt)
c:/program files/microchip/xc32/v4.60/bin/bin/../../lib/gcc/pic32c/8.3.1/../../../../pic32c/lib/thumb/v6-m/nofp\libm-fast-emfloat.a(__aeabi_dcmpgt.o)
                              build/SAMD21_IOT_WG_ICM42688/debug/_ext/26920679/utils_buffer_pass_threshold.o (__aeabi_dcmpgt)
c:/program files/microchip/xc32/v4.60/bin/bin/../../lib/gcc/pic32c/8.3.1/../../../../pic32c/lib/thumb/v6-m/nofp\libm-fast-emfloat.a(__aeabi_fcmplt.o)
                              build/SAMD21_IOT_WG_ICM42688/debug/_ext/26920679/calc_area.o (__aeabi_fcmplt)
c:/program files/microchip/xc32/v4.60/bin/bin/../../lib/gcc/pic32c/8.3.1/../../../../pic32c/lib/thumb/v6-m/nofp\libm-fast-emfloat.a(__aeabi_dcmplt.o)
                              c:/program files/microchip/xc32/v4.60/bin/bin/../../lib/gcc/pic32c/8.3.1/../../../../pic32c/lib/thumb/v6-m/nofp\libm-fast-emfloat.a(pow.o) (__aeabi_dcmplt)
c:/program files/microchip/xc32/v4.60/bin/bin/../../lib/gcc/pic32c/8.3.1/../../../../pic32c/lib/thumb/v6-m/nofp\libm-fast-emfloat.a(__aeabi_f2iz.o)
                              build/SAMD21_IOT_WG_ICM42688/debug/_ext/26920679/fftr_utils.o (__aeabi_f2iz)
c:/program files/microchip/xc32/v4.60/bin/bin/../../lib/gcc/pic32c/8.3.1/../../../../pic32c/lib/thumb/v6-m/nofp\libm-fast-emfloat.a(__aeabi_d2iz.o)
                              build/SAMD21_IOT_WG_ICM42688/debug/_ext/26920679/std.o (__aeabi_d2iz)
c:/program files/microchip/xc32/v4.60/bin/bin/../../lib/gcc/pic32c/8.3.1/../../../../pic32c/lib/thumb/v6-m/nofp\libm-fast-emfloat.a(__aeabi_f2uiz.o)
                              build/SAMD21_IOT_WG_ICM42688/debug/_ext/26920679/tr_min_max_scale.o (__aeabi_f2uiz)
c:/program files/microchip/xc32/v4.60/bin/bin/../../lib/gcc/pic32c/8.3.1/../../../../pic32c/lib/thumb/v6-m/nofp\libm-fast-emfloat.a(__aeabi_d2uiz.o)
                              c:/program files/microchip/xc32/v4.60/bin/bin/../../lib/gcc/pic32c/8.3.1/../../../../pic32c/lib/thumb/v6-m/nofp\libm-fast-emfloat.a(__aeabi_d2iz.o) (.L__aeabi_d2uiz_fast_entry)
c:/program files/microchip/xc32/v4.60/bin/bin/../../lib/gcc/pic32c/8.3.1/../../../../pic32c/lib/thumb/v6-m/nofp\libm-fast-emfloat.a(__aeabi_i2f.o)
                              build/SAMD21_IOT_WG_ICM42688/debug/_ext/26920679/calc_area.o (__aeabi_i2f)
c:/program files/microchip/xc32/v4.60/bin/bin/../../lib/gcc/pic32c/8.3.1/../../../../pic32c/lib/thumb/v6-m/nofp\libm-fast-emfloat.a(__aeabi_i2d.o)
                              build/SAMD21_IOT_WG_ICM42688/debug/_ext/1341251756/Icm426xxSelfTest.o (__aeabi_i2d)
c:/program files/microchip/xc32/v4.60/bin/bin/../../lib/gcc/pic32c/8.3.1/../../../../pic32c/lib/thumb/v6-m/nofp\libm-fast-emfloat.a(__aeabi_l2f.o)
                              build/SAMD21_IOT_WG_ICM42688/debug/_ext/26920679/mean.o (__aeabi_l2f)
c:/program files/microchip/xc32/v4.60/bin/bin/../../lib/gcc/pic32c/8.3.1/../../../../pic32c/lib/thumb/v6-m/nofp\libm-fast-emfloat.a(__aeabi_ui2f.o)
                              build/SAMD21_IOT_WG_ICM42688/debug/_ext/1341251756/Icm426xxSelfTest.o (__aeabi_ui2f)
c:/program files/microchip/xc32/v4.60/bin/bin/../../lib/gcc/pic32c/8.3.1/../../../../pic32c/lib/thumb/v6-m/nofp\libm-fast-emfloat.a(__aeabi_ui2d.o)
                              c:/program files/microchip/xc32/v4.60/bin/bin/../../lib/gcc/pic32c/8.3.1/../../../../pic32c/lib/thumb/v6-m/nofp\libm-fast-emfloat.a(__aeabi_i2d.o) (__aeabi_ui2d)
c:/program files/microchip/xc32/v4.60/bin/bin/../../lib/gcc/pic32c/8.3.1/../../../../pic32c/lib/thumb/v6-m/nofp\libm-fast-emfloat.a(__aeabi_ul2f.o)
                              c:/program files/microchip/xc32/v4.60/bin/bin/../../lib/gcc/pic32c/8.3.1/../../../../pic32c/lib/thumb/v6-m/nofp\libm-fast-emfloat.a(__aeabi_l2f.o) (__aeabi_ul2f)
c:/program files/microchip/xc32/v4.60/bin/bin/../../lib/gcc/pic32c/8.3.1/../../../../pic32c/lib/thumb/v6-m/nofp\libm-fast-emfloat.a(__aeabi_f2d.o)
                              build/SAMD21_IOT_WG_ICM42688/debug/_ext/26920679/fg_stats_skewness.o (__aeabi_f2d)
c:/program files/microchip/xc32/v4.60/bin/bin/../../lib/gcc/pic32c/8.3.1/../../../../pic32c/lib/thumb/v6-m/nofp\libm-fast-emfloat.a(__aeabi_d2f.o)
                              build/SAMD21_IOT_WG_ICM42688/debug/_ext/26920679/fg_stats_skewness.o (__aeabi_d2f)
c:/program files/microchip/xc32/v4.60/bin/bin/../../lib/gcc/pic32c/8.3.1/../../../../pic32c/lib/thumb/v6-m/nofp\libm-fast-emfloat.a(__SEGGER_RTL_float64_PolyEvalP.o)
                              c:/program files/microchip/xc32/v4.60/bin/bin/../../lib/gcc/pic32c/8.3.1/../../../../pic32c/lib/thumb/v6-m/nofp\libm-fast-emfloat.a(cos.o) (__SEGGER_RTL_float64_PolyEvalP)
c:/program files/microchip/xc32/v4.60/bin/bin/../../lib/gcc/pic32c/8.3.1/../../../../pic32c/lib/thumb/v6-m/nofp\libm-fast-emfloat.a(ldexp.o)
                              c:/program files/microchip/xc32/v4.60/bin/bin/../../lib/gcc/pic32c/8.3.1/../../../../pic32c/lib/thumb/v6-m/nofp\libm-fast-emfloat.a(sqrt.o) (ldexp)
c:/program files/microchip/xc32/v4.60/bin/bin/../../lib/gcc/pic32c/8.3.1/../../../../pic32c/lib/thumb/v6-m/nofp\libm-fast-emfloat.a(log.o)
                              c:/program files/microchip/xc32/v4.60/bin/bin/../../lib/gcc/pic32c/8.3.1/../../../../pic32c/lib/thumb/v6-m/nofp\libm-fast-emfloat.a(pow.o) (log)
c:/program files/microchip/xc32/v4.60/bin/bin/../../lib/gcc/pic32c/8.3.1/../../../../pic32c/lib/thumb/v6-m/nofp\libm-fast-emfloat.a(exp.o)
                              c:/program files/microchip/xc32/v4.60/bin/bin/../../lib/gcc/pic32c/8.3.1/../../../../pic32c/lib/thumb/v6-m/nofp\libm-fast-emfloat.a(pow.o) (exp)
c:/program files/microchip/xc32/v4.60/bin/bin/../../lib/gcc/pic32c/8.3.1/../../../../pic32c/lib/thumb/v6-m/nofp\libm-fast-emfloat.a(__SEGGER_RTL_float64_Log.o)
                              c:/program files/microchip/xc32/v4.60/bin/bin/../../lib/gcc/pic32c/8.3.1/../../../../pic32c/lib/thumb/v6-m/nofp\libm-fast-emfloat.a(log.o) (__SEGGER_RTL_float64_Log)
c:/program files/microchip/xc32/v4.60/bin/bin/../../lib/gcc/pic32c/8.3.1/../../../../pic32c/lib/thumb/v6-m/nofp\libm-fast-emfloat.a(__SEGGER_RTL_float64_PolyEvalQ.o)
                              c:/program files/microchip/xc32/v4.60/bin/bin/../../lib/gcc/pic32c/8.3.1/../../../../pic32c/lib/thumb/v6-m/nofp\libm-fast-emfloat.a(log.o) (__SEGGER_RTL_float64_PolyEvalQ)
c:/program files/microchip/xc32/v4.60/bin/bin/../../lib/gcc/pic32c/8.3.1/../../../../pic32c/lib/thumb/v6-m/nofp\libm-fast-emfloat.a(frexp.o)
                              c:/program files/microchip/xc32/v4.60/bin/bin/../../lib/gcc/pic32c/8.3.1/../../../../pic32c/lib/thumb/v6-m/nofp\libm-fast-emfloat.a(log.o) (frexp)
c:/program files/microchip/xc32/v4.60/bin/bin/../../lib/gcc/pic32c/8.3.1/../../../../pic32c/lib/thumb/v6-m/nofp\libg-musl.a(__libc_start_main.o)
                              build/SAMD21_IOT_WG_ICM42688/debug/_ext/1832905403/startup_xc32.o (__libc_init_array)
c:/program files/microchip/xc32/v4.60/bin/bin/../../lib/gcc/pic32c/8.3.1/../../../../pic32c/lib/thumb/v6-m/nofp\libg-musl.a(__errno_location.o)
                              c:/program files/microchip/xc32/v4.60/bin/bin/../../lib/gcc/pic32c/8.3.1/../../../../pic32c/lib/thumb/v6-m/nofp\libm-fast-emfloat.a(cos.o) (__errno_val)
c:/program files/microchip/xc32/v4.60/bin/bin/../../lib/gcc/pic32c/8.3.1/../../../../pic32c/lib/thumb/v6-m/nofp\libg-musl.a(libc.o)
                              c:/program files/microchip/xc32/v4.60/bin/bin/../../lib/gcc/pic32c/8.3.1/../../../../pic32c/lib/thumb/v6-m/nofp\libg-musl.a(__libc_start_main.o) (__progname_full)
c:/program files/microchip/xc32/v4.60/bin/bin/../../lib/gcc/pic32c/8.3.1/../../../../pic32c/lib/thumb/v6-m/nofp\libg-musl.a(__sio_printf_cdeEfFgGnpsxX.o)
                              (_printf_cdeEfFgGnpsxX)
c:/program files/microchip/xc32/v4.60/bin/bin/../../lib/gcc/pic32c/8.3.1/../../../../pic32c/lib/thumb/v6-m/nofp\libg-musl.a(__sio_sprintf_cdeEfFgGnpsxX.o)
                              (_sprintf_cdeEfFgGnpsxX)
c:/program files/microchip/xc32/v4.60/bin/bin/../../lib/gcc/pic32c/8.3.1/../../../../pic32c/lib/thumb/v6-m/nofp\libg-musl.a(__fmt_d.o)
                              c:/program files/microchip/xc32/v4.60/bin/bin/../../lib/gcc/pic32c/8.3.1/../../../../pic32c/lib/thumb/v6-m/nofp\libg-musl.a(__sio_printf_cdeEfFgGnpsxX.o) (__fmt_d_needed)
c:/program files/microchip/xc32/v4.60/bin/bin/../../lib/gcc/pic32c/8.3.1/../../../../pic32c/lib/thumb/v6-m/nofp\libg-musl.a(__fmt_fp.o)
                              c:/program files/microchip/xc32/v4.60/bin/bin/../../lib/gcc/pic32c/8.3.1/../../../../pic32c/lib/thumb/v6-m/nofp\libg-musl.a(__sio_printf_cdeEfFgGnpsxX.o) (__fmt_f_needed)
c:/program files/microchip/xc32/v4.60/bin/bin/../../lib/gcc/pic32c/8.3.1/../../../../pic32c/lib/thumb/v6-m/nofp\libg-musl.a(__fmt_s.o)
                              c:/program files/microchip/xc32/v4.60/bin/bin/../../lib/gcc/pic32c/8.3.1/../../../../pic32c/lib/thumb/v6-m/nofp\libg-musl.a(__sio_printf_cdeEfFgGnpsxX.o) (__fmt_s_needed)
c:/program files/microchip/xc32/v4.60/bin/bin/../../lib/gcc/pic32c/8.3.1/../../../../pic32c/lib/thumb/v6-m/nofp\libg-musl.a(__fmt_x.o)
                              c:/program files/microchip/xc32/v4.60/bin/bin/../../lib/gcc/pic32c/8.3.1/../../../../pic32c/lib/thumb/v6-m/nofp\libg-musl.a(__sio_printf_cdeEfFgGnpsxX.o) (__fmt_x_needed)
c:/program files/microchip/xc32/v4.60/bin/bin/../../lib/gcc/pic32c/8.3.1/../../../../pic32c/lib/thumb/v6-m/nofp\libg-musl.a(__pop_float.o)
                              c:/program files/microchip/xc32/v4.60/bin/bin/../../lib/gcc/pic32c/8.3.1/../../../../pic32c/lib/thumb/v6-m/nofp\libg-musl.a(__sio_printf_cdeEfFgGnpsxX.o) (__pop_float_needed)
c:/program files/microchip/xc32/v4.60/bin/bin/../../lib/gcc/pic32c/8.3.1/../../../../pic32c/lib/thumb/v6-m/nofp\libg-musl.a(__pop_int.o)
                              c:/program files/microchip/xc32/v4.60/bin/bin/../../lib/gcc/pic32c/8.3.1/../../../../pic32c/lib/thumb/v6-m/nofp\libg-musl.a(__sio_printf_cdeEfFgGnpsxX.o) (__pop_int_needed)
c:/program files/microchip/xc32/v4.60/bin/bin/../../lib/gcc/pic32c/8.3.1/../../../../pic32c/lib/thumb/v6-m/nofp\libg-musl.a(__pop_ptr.o)
                              c:/program files/microchip/xc32/v4.60/bin/bin/../../lib/gcc/pic32c/8.3.1/../../../../pic32c/lib/thumb/v6-m/nofp\libg-musl.a(__sio_printf_cdeEfFgGnpsxX.o) (__pop_ptr_needed)
c:/program files/microchip/xc32/v4.60/bin/bin/../../lib/gcc/pic32c/8.3.1/../../../../pic32c/lib/thumb/v6-m/nofp\libg-musl.a(__printf_core.o)
                              c:/program files/microchip/xc32/v4.60/bin/bin/../../lib/gcc/pic32c/8.3.1/../../../../pic32c/lib/thumb/v6-m/nofp\libg-musl.a(__fmt_d.o) (__pad)
c:/program files/microchip/xc32/v4.60/bin/bin/../../lib/gcc/pic32c/8.3.1/../../../../pic32c/lib/thumb/v6-m/nofp\libg-musl.a(stdin.o)
                              build/SAMD21_IOT_WG_ICM42688/debug/_ext/1832905403/initialization.o (_stdin)
c:/program files/microchip/xc32/v4.60/bin/bin/../../lib/gcc/pic32c/8.3.1/../../../../pic32c/lib/thumb/v6-m/nofp\libg-musl.a(stdout.o)
                              build/SAMD21_IOT_WG_ICM42688/debug/_ext/1832905403/initialization.o (_stdout)
c:/program files/microchip/xc32/v4.60/bin/bin/../../lib/gcc/pic32c/8.3.1/../../../../pic32c/lib/thumb/v6-m/nofp\libg-musl.a(putchar.o)
                              build/SAMD21_IOT_WG_ICM42688/debug/_ext/1360937237/main.o (putchar)
c:/program files/microchip/xc32/v4.60/bin/bin/../../lib/gcc/pic32c/8.3.1/../../../../pic32c/lib/thumb/v6-m/nofp\libg-musl.a(puts.o)
                              build/SAMD21_IOT_WG_ICM42688/debug/_ext/1360937237/main.o (puts)
c:/program files/microchip/xc32/v4.60/bin/bin/../../lib/gcc/pic32c/8.3.1/../../../../pic32c/lib/thumb/v6-m/nofp\libg-musl.a(setbuf.o)
                              build/SAMD21_IOT_WG_ICM42688/debug/_ext/1832905403/initialization.o (setbuf)
c:/program files/microchip/xc32/v4.60/bin/bin/../../lib/gcc/pic32c/8.3.1/../../../../pic32c/lib/thumb/v6-m/nofp\libg-musl.a(atoi.o)
                              c:/program files/microchip/xc32/v4.60/bin/bin/../../lib/gcc/pic32c/8.3.1/../../../../pic32c/lib/thumb/v6-m/nofp\libg-musl.a(__printf_core.o) (atoi)
c:/program files/microchip/xc32/v4.60/bin/bin/../../lib/gcc/pic32c/8.3.1/../../../../pic32c/lib/thumb/v6-m/nofp\libg-musl.a(tolower.o)
                              c:/program files/microchip/xc32/v4.60/bin/bin/../../lib/gcc/pic32c/8.3.1/../../../../pic32c/lib/thumb/v6-m/nofp\libg-musl.a(__fmt_fp.o) (tolower)
c:/program files/microchip/xc32/v4.60/bin/bin/../../lib/gcc/pic32c/8.3.1/../../../../pic32c/lib/thumb/v6-m/nofp\libg-musl.a(toupper.o)
                              c:/program files/microchip/xc32/v4.60/bin/bin/../../lib/gcc/pic32c/8.3.1/../../../../pic32c/lib/thumb/v6-m/nofp\libg-musl.a(__fmt_x.o) (toupper)
c:/program files/microchip/xc32/v4.60/bin/bin/../../lib/gcc/pic32c/8.3.1/../../../../pic32c/lib/thumb/v6-m/nofp\libg-musl.a(__environ.o)
                              c:/program files/microchip/xc32/v4.60/bin/bin/../../lib/gcc/pic32c/8.3.1/../../../../pic32c/lib/thumb/v6-m/nofp\libg-musl.a(__libc_start_main.o) (__environ)
c:/program files/microchip/xc32/v4.60/bin/bin/../../lib/gcc/pic32c/8.3.1/../../../../pic32c/lib/thumb/v6-m/nofp\libg-musl.a(__int_vfprintf.o)
                              c:/program files/microchip/xc32/v4.60/bin/bin/../../lib/gcc/pic32c/8.3.1/../../../../pic32c/lib/thumb/v6-m/nofp\libg-musl.a(__sio_printf_cdeEfFgGnpsxX.o) (__vfprintf)
c:/program files/microchip/xc32/v4.60/bin/bin/../../lib/gcc/pic32c/8.3.1/../../../../pic32c/lib/thumb/v6-m/nofp\libg-musl.a(__int_vsprintf.o)
                              c:/program files/microchip/xc32/v4.60/bin/bin/../../lib/gcc/pic32c/8.3.1/../../../../pic32c/lib/thumb/v6-m/nofp\libg-musl.a(__sio_sprintf_cdeEfFgGnpsxX.o) (__vsprintf)
c:/program files/microchip/xc32/v4.60/bin/bin/../../lib/gcc/pic32c/8.3.1/../../../../pic32c/lib/thumb/v6-m/nofp\libg-musl.a(fputs.o)
                              c:/program files/microchip/xc32/v4.60/bin/bin/../../lib/gcc/pic32c/8.3.1/../../../../pic32c/lib/thumb/v6-m/nofp\libg-musl.a(puts.o) (fputs)
c:/program files/microchip/xc32/v4.60/bin/bin/../../lib/gcc/pic32c/8.3.1/../../../../pic32c/lib/thumb/v6-m/nofp\libg-musl.a(__cvt_u.o)
                              c:/program files/microchip/xc32/v4.60/bin/bin/../../lib/gcc/pic32c/8.3.1/../../../../pic32c/lib/thumb/v6-m/nofp\libg-musl.a(__fmt_d.o) (__cvt_u)
c:/program files/microchip/xc32/v4.60/bin/bin/../../lib/gcc/pic32c/8.3.1/../../../../pic32c/lib/thumb/v6-m/nofp\libg-musl.a(__io_init_needed.o)
                              c:/program files/microchip/xc32/v4.60/bin/bin/../../lib/gcc/pic32c/8.3.1/../../../../pic32c/lib/thumb/v6-m/nofp\libg-musl.a(stdout.o) (__io_init_needed)
c:/program files/microchip/xc32/v4.60/bin/bin/../../lib/gcc/pic32c/8.3.1/../../../../pic32c/lib/thumb/v6-m/nofp\libg-musl.a(__io_rw_needed.o)
                              c:/program files/microchip/xc32/v4.60/bin/bin/../../lib/gcc/pic32c/8.3.1/../../../../pic32c/lib/thumb/v6-m/nofp\libg-musl.a(stdin.o) (__io_rw_needed)
c:/program files/microchip/xc32/v4.60/bin/bin/../../lib/gcc/pic32c/8.3.1/../../../../pic32c/lib/thumb/v6-m/nofp\libg-musl.a(__stdio_read.o)
                              c:/program files/microchip/xc32/v4.60/bin/bin/../../lib/gcc/pic32c/8.3.1/../../../../pic32c/lib/thumb/v6-m/nofp\libg-musl.a(stdin.o) (__stdio_read)
c:/program files/microchip/xc32/v4.60/bin/bin/../../lib/gcc/pic32c/8.3.1/../../../../pic32c/lib/thumb/v6-m/nofp\libg-musl.a(__towrite_rw.o)
                              c:/program files/microchip/xc32/v4.60/bin/bin/../../lib/gcc/pic32c/8.3.1/../../../../pic32c/lib/thumb/v6-m/nofp\libg-musl.a(__io_rw_needed.o) (__towrite_rw_needed)
c:/program files/microchip/xc32/v4.60/bin/bin/../../lib/gcc/pic32c/8.3.1/../../../../pic32c/lib/thumb/v6-m/nofp\libg-musl.a(fwrite.o)
                              c:/program files/microchip/xc32/v4.60/bin/bin/../../lib/gcc/pic32c/8.3.1/../../../../pic32c/lib/thumb/v6-m/nofp\libg-musl.a(fputs.o) (fwrite)
c:/program files/microchip/xc32/v4.60/bin/bin/../../lib/gcc/pic32c/8.3.1/../../../../pic32c/lib/thumb/v6-m/nofp\libg-musl.a(putc.o)
                              c:/program files/microchip/xc32/v4.60/bin/bin/../../lib/gcc/pic32c/8.3.1/../../../../pic32c/lib/thumb/v6-m/nofp\libg-musl.a(putchar.o) (fputc)
c:/program files/microchip/xc32/v4.60/bin/bin/../../lib/gcc/pic32c/8.3.1/../../../../pic32c/lib/thumb/v6-m/nofp\libg-musl.a(setvbuf.o)
                              c:/program files/microchip/xc32/v4.60/bin/bin/../../lib/gcc/pic32c/8.3.1/../../../../pic32c/lib/thumb/v6-m/nofp\libg-musl.a(setbuf.o) (setvbuf)
c:/program files/microchip/xc32/v4.60/bin/bin/../../lib/gcc/pic32c/8.3.1/../../../../pic32c/lib/thumb/v6-m/nofp\libg-musl.a(readv.o)
                              c:/program files/microchip/xc32/v4.60/bin/bin/../../lib/gcc/pic32c/8.3.1/../../../../pic32c/lib/thumb/v6-m/nofp\libg-musl.a(__stdio_read.o) (readv)
c:/program files/microchip/xc32/v4.60/bin/bin/../../lib/gcc/pic32c/8.3.1/../../../../pic32c/lib/thumb/v6-m/nofp\libg-musl.a(__int_vsnprintf.o)
                              c:/program files/microchip/xc32/v4.60/bin/bin/../../lib/gcc/pic32c/8.3.1/../../../../pic32c/lib/thumb/v6-m/nofp\libg-musl.a(__int_vsprintf.o) (__vsnprintf)
c:/program files/microchip/xc32/v4.60/bin/bin/../../lib/gcc/pic32c/8.3.1/../../../../pic32c/lib/thumb/v6-m/nofp\libg-musl.a(__fopen_rw.o)
                              c:/program files/microchip/xc32/v4.60/bin/bin/../../lib/gcc/pic32c/8.3.1/../../../../pic32c/lib/thumb/v6-m/nofp\libg-musl.a(__io_rw_needed.o) (__fopen_rw_needed)
c:/program files/microchip/xc32/v4.60/bin/bin/../../lib/gcc/pic32c/8.3.1/../../../../pic32c/lib/thumb/v6-m/nofp\libg-musl.a(__ftello_rw.o)
                              c:/program files/microchip/xc32/v4.60/bin/bin/../../lib/gcc/pic32c/8.3.1/../../../../pic32c/lib/thumb/v6-m/nofp\libg-musl.a(__io_rw_needed.o) (__ftello_adj_rw_needed)
c:/program files/microchip/xc32/v4.60/bin/bin/../../lib/gcc/pic32c/8.3.1/../../../../pic32c/lib/thumb/v6-m/nofp\libg-musl.a(__init_stdio.o)
                              c:/program files/microchip/xc32/v4.60/bin/bin/../../lib/gcc/pic32c/8.3.1/../../../../pic32c/lib/thumb/v6-m/nofp\libg-musl.a(__io_init_needed.o) (__init_stdio_needed)
c:/program files/microchip/xc32/v4.60/bin/bin/../../lib/gcc/pic32c/8.3.1/../../../../pic32c/lib/thumb/v6-m/nofp\libg-musl.a(__io_buf_needed.o)
                              c:/program files/microchip/xc32/v4.60/bin/bin/../../lib/gcc/pic32c/8.3.1/../../../../pic32c/lib/thumb/v6-m/nofp\libg-musl.a(__io_rw_needed.o) (__io_buf_needed)
c:/program files/microchip/xc32/v4.60/bin/bin/../../lib/gcc/pic32c/8.3.1/../../../../pic32c/lib/thumb/v6-m/nofp\libg-musl.a(__io_file_needed.o)
                              c:/program files/microchip/xc32/v4.60/bin/bin/../../lib/gcc/pic32c/8.3.1/../../../../pic32c/lib/thumb/v6-m/nofp\libg-musl.a(__io_init_needed.o) (__io_file_needed)
c:/program files/microchip/xc32/v4.60/bin/bin/../../lib/gcc/pic32c/8.3.1/../../../../pic32c/lib/thumb/v6-m/nofp\libg-musl.a(__io_std_needed.o)
                              c:/program files/microchip/xc32/v4.60/bin/bin/../../lib/gcc/pic32c/8.3.1/../../../../pic32c/lib/thumb/v6-m/nofp\libg-musl.a(__io_buf_needed.o) (__io_std_needed)
c:/program files/microchip/xc32/v4.60/bin/bin/../../lib/gcc/pic32c/8.3.1/../../../../pic32c/lib/thumb/v6-m/nofp\libg-musl.a(__out.o)
                              c:/program files/microchip/xc32/v4.60/bin/bin/../../lib/gcc/pic32c/8.3.1/../../../../pic32c/lib/thumb/v6-m/nofp\libg-musl.a(__fopen_rw.o) (__stdio_write_unbuffered)
c:/program files/microchip/xc32/v4.60/bin/bin/../../lib/gcc/pic32c/8.3.1/../../../../pic32c/lib/thumb/v6-m/nofp\libg-musl.a(__putc.o)
                              c:/program files/microchip/xc32/v4.60/bin/bin/../../lib/gcc/pic32c/8.3.1/../../../../pic32c/lib/thumb/v6-m/nofp\libg-musl.a(__io_buf_needed.o) (__putc_needed)
c:/program files/microchip/xc32/v4.60/bin/bin/../../lib/gcc/pic32c/8.3.1/../../../../pic32c/lib/thumb/v6-m/nofp\libg-musl.a(__stderr.o)
                              c:/program files/microchip/xc32/v4.60/bin/bin/../../lib/gcc/pic32c/8.3.1/../../../../pic32c/lib/thumb/v6-m/nofp\libg-musl.a(__io_std_needed.o) (__init_stderr_needed)
c:/program files/microchip/xc32/v4.60/bin/bin/../../lib/gcc/pic32c/8.3.1/../../../../pic32c/lib/thumb/v6-m/nofp\libg-musl.a(__stdio_close.o)
                              c:/program files/microchip/xc32/v4.60/bin/bin/../../lib/gcc/pic32c/8.3.1/../../../../pic32c/lib/thumb/v6-m/nofp\libg-musl.a(__fopen_rw.o) (__stdio_close_rw)
c:/program files/microchip/xc32/v4.60/bin/bin/../../lib/gcc/pic32c/8.3.1/../../../../pic32c/lib/thumb/v6-m/nofp\libg-musl.a(__stdio_exit.o)
                              c:/program files/microchip/xc32/v4.60/bin/bin/../../lib/gcc/pic32c/8.3.1/../../../../pic32c/lib/thumb/v6-m/nofp\libg-musl.a(__io_buf_needed.o) (__stdio_exit_needed)
c:/program files/microchip/xc32/v4.60/bin/bin/../../lib/gcc/pic32c/8.3.1/../../../../pic32c/lib/thumb/v6-m/nofp\libg-musl.a(__stdio_write.o)
                              c:/program files/microchip/xc32/v4.60/bin/bin/../../lib/gcc/pic32c/8.3.1/../../../../pic32c/lib/thumb/v6-m/nofp\libg-musl.a(setvbuf.o) (__stdio_write_buffered)
c:/program files/microchip/xc32/v4.60/bin/bin/../../lib/gcc/pic32c/8.3.1/../../../../pic32c/lib/thumb/v6-m/nofp\libg-musl.a(__stdout.o)
                              c:/program files/microchip/xc32/v4.60/bin/bin/../../lib/gcc/pic32c/8.3.1/../../../../pic32c/lib/thumb/v6-m/nofp\libg-musl.a(__io_std_needed.o) (__init_stdout_needed)
c:/program files/microchip/xc32/v4.60/bin/bin/../../lib/gcc/pic32c/8.3.1/../../../../pic32c/lib/thumb/v6-m/nofp\libg-musl.a(__towrite.o)
                              c:/program files/microchip/xc32/v4.60/bin/bin/../../lib/gcc/pic32c/8.3.1/../../../../pic32c/lib/thumb/v6-m/nofp\libg-musl.a(__stdio_write.o) (__towrite)
c:/program files/microchip/xc32/v4.60/bin/bin/../../lib/gcc/pic32c/8.3.1/../../../../pic32c/lib/thumb/v6-m/nofp\libg-musl.a(writev.o)
                              c:/program files/microchip/xc32/v4.60/bin/bin/../../lib/gcc/pic32c/8.3.1/../../../../pic32c/lib/thumb/v6-m/nofp\libg-musl.a(__stdio_write.o) (writev)
c:/program files/microchip/xc32/v4.60/bin/bin/../../lib/gcc/pic32c/8.3.1/../../../../pic32c/lib/thumb/v6-m/nofp\libg-musl.a(__overflow.o)
                              c:/program files/microchip/xc32/v4.60/bin/bin/../../lib/gcc/pic32c/8.3.1/../../../../pic32c/lib/thumb/v6-m/nofp\libg-musl.a(__putc.o) (__overflow)
c:/program files/microchip/xc32/v4.60/bin/bin/../../lib/gcc/pic32c/8.3.1/../../../../pic32c/lib/thumb/v6-m/nofp\libg-musl.a(__fclose.o)
                              c:/program files/microchip/xc32/v4.60/bin/bin/../../lib/gcc/pic32c/8.3.1/../../../../pic32c/lib/thumb/v6-m/nofp\libg-musl.a(__io_buf_needed.o) (__fclose_needed)
c:/program files/microchip/xc32/v4.60/bin/bin/../../lib/gcc/pic32c/8.3.1/../../../../pic32c/lib/thumb/v6-m/nofp\libg-musl.a(__fopen.o)
                              c:/program files/microchip/xc32/v4.60/bin/bin/../../lib/gcc/pic32c/8.3.1/../../../../pic32c/lib/thumb/v6-m/nofp\libg-musl.a(__io_std_needed.o) (__fopen_needed)
c:/program files/microchip/xc32/v4.60/bin/bin/../../lib/gcc/pic32c/8.3.1/../../../../pic32c/lib/thumb/v6-m/nofp\libg-musl.a(__fseeko.o)
                              c:/program files/microchip/xc32/v4.60/bin/bin/../../lib/gcc/pic32c/8.3.1/../../../../pic32c/lib/thumb/v6-m/nofp\libg-musl.a(__io_buf_needed.o) (__fseeko_needed)
c:/program files/microchip/xc32/v4.60/bin/bin/../../lib/gcc/pic32c/8.3.1/../../../../pic32c/lib/thumb/v6-m/nofp\libg-musl.a(__ftello.o)
                              c:/program files/microchip/xc32/v4.60/bin/bin/../../lib/gcc/pic32c/8.3.1/../../../../pic32c/lib/thumb/v6-m/nofp\libg-musl.a(__io_buf_needed.o) (__ftello_adj_needed)
c:/program files/microchip/xc32/v4.60/bin/bin/../../lib/gcc/pic32c/8.3.1/../../../../pic32c/lib/thumb/v6-m/nofp\libg-musl.a(__fwrite.o)
                              c:/program files/microchip/xc32/v4.60/bin/bin/../../lib/gcc/pic32c/8.3.1/../../../../pic32c/lib/thumb/v6-m/nofp\libg-musl.a(__io_std_needed.o) (__fwrite_needed)
c:/program files/microchip/xc32/v4.60/bin/bin/../../lib/gcc/pic32c/8.3.1/../../../../pic32c/lib/thumb/v6-m/nofp\libm-fast-emfloat.a(fma.o)
                              c:/program files/microchip/xc32/v4.60/bin/bin/../../lib/gcc/pic32c/8.3.1/../../../../pic32c/lib/thumb/v6-m/nofp\libg-musl.a(__fmt_fp.o) (fma)
c:/program files/microchip/xc32/v4.60/bin/bin/../../lib/gcc/pic32c/8.3.1/../../../../pic32c/lib/thumb/v6-m/nofp\libm-fast-emfloat.a(floor.o)
                              c:/program files/microchip/xc32/v4.60/bin/bin/../../lib/gcc/pic32c/8.3.1/../../../../pic32c/lib/thumb/v6-m/nofp\libg-musl.a(__fmt_fp.o) (floor)
c:/program files/microchip/xc32/v4.60/bin/bin/../../lib/gcc/pic32c/8.3.1/../../../../pic32c/lib/thumb/v6-m/nofp\libm-fast-emfloat.a(__aeabi_dcmple.o)
                              c:/program files/microchip/xc32/v4.60/bin/bin/../../lib/gcc/pic32c/8.3.1/../../../../pic32c/lib/thumb/v6-m/nofp\libg-musl.a(__fmt_fp.o) (__aeabi_dcmple)
c:/program files/microchip/xc32/v4.60/bin/bin/../../lib/gcc/pic32c/8.3.1/thumb/v6-m/nofp\libgcc.a(_udivsi3.o)
                              build/SAMD21_IOT_WG_ICM42688/debug/_ext/1014017276/plib_sercom0_spi_master.o (__aeabi_uidiv)
c:/program files/microchip/xc32/v4.60/bin/bin/../../lib/gcc/pic32c/8.3.1/thumb/v6-m/nofp\libgcc.a(_divsi3.o)
                              build/SAMD21_IOT_WG_ICM42688/debug/_ext/1341251756/Icm426xxSelfTest.o (__aeabi_idiv)
c:/program files/microchip/xc32/v4.60/bin/bin/../../lib/gcc/pic32c/8.3.1/thumb/v6-m/nofp\libgcc.a(_dvmd_tls.o)
                              c:/program files/microchip/xc32/v4.60/bin/bin/../../lib/gcc/pic32c/8.3.1/thumb/v6-m/nofp\libgcc.a(_udivsi3.o) (__aeabi_idiv0)
c:/program files/microchip/xc32/v4.60/bin/bin/../../lib/gcc/pic32c/8.3.1/thumb/v6-m/nofp\libgcc.a(_aeabi_ldivmod.o)
                              build/SAMD21_IOT_WG_ICM42688/debug/_ext/177673482/plib_sercom5_usart.o (__aeabi_ldivmod)
c:/program files/microchip/xc32/v4.60/bin/bin/../../lib/gcc/pic32c/8.3.1/thumb/v6-m/nofp\libgcc.a(_aeabi_uldivmod.o)
                              build/SAMD21_IOT_WG_ICM42688/debug/_ext/177673482/plib_sercom5_usart.o (__aeabi_uldivmod)
c:/program files/microchip/xc32/v4.60/bin/bin/../../lib/gcc/pic32c/8.3.1/thumb/v6-m/nofp\libgcc.a(_muldi3.o)
                              build/SAMD21_IOT_WG_ICM42688/debug/_ext/26920679/fixlog.o (__aeabi_lmul)
c:/program files/microchip/xc32/v4.60/bin/bin/../../lib/gcc/pic32c/8.3.1/thumb/v6-m/nofp\libgcc.a(_udivmoddi4.o)
                              c:/program files/microchip/xc32/v4.60/bin/bin/../../lib/gcc/pic32c/8.3.1/thumb/v6-m/nofp\libgcc.a(_aeabi_uldivmod.o) (__udivmoddi4)
c:/program files/microchip/xc32/v4.60/bin/bin/../../lib/gcc/pic32c/8.3.1/thumb/v6-m/nofp\libgcc.a(bpabi.o)
                              c:/program files/microchip/xc32/v4.60/bin/bin/../../lib/gcc/pic32c/8.3.1/thumb/v6-m/nofp\libgcc.a(_aeabi_ldivmod.o) (__gnu_ldivmod_helper)
c:/program files/microchip/xc32/v4.60/bin/bin/../../lib/gcc/pic32c/8.3.1/thumb/v6-m/nofp\libgcc.a(_lshrdi3.o)
                              c:/program files/microchip/xc32/v4.60/bin/bin/../../lib/gcc/pic32c/8.3.1/thumb/v6-m/nofp\libgcc.a(_udivmoddi4.o) (__aeabi_llsr)
c:/program files/microchip/xc32/v4.60/bin/bin/../../lib/gcc/pic32c/8.3.1/thumb/v6-m/nofp\libgcc.a(_ashldi3.o)
                              c:/program files/microchip/xc32/v4.60/bin/bin/../../lib/gcc/pic32c/8.3.1/thumb/v6-m/nofp\libgcc.a(_udivmoddi4.o) (__aeabi_llsl)
c:/program files/microchip/xc32/v4.60/bin/bin/../../lib/gcc/pic32c/8.3.1/thumb/v6-m/nofp\libgcc.a(_clzdi2.o)
                              c:/program files/microchip/xc32/v4.60/bin/bin/../../lib/gcc/pic32c/8.3.1/thumb/v6-m/nofp\libgcc.a(_udivmoddi4.o) (__clzdi2)
c:/program files/microchip/xc32/v4.60/bin/bin/../../lib/gcc/pic32c/8.3.1/thumb/v6-m/nofp\libgcc.a(_divdi3.o)
                              c:/program files/microchip/xc32/v4.60/bin/bin/../../lib/gcc/pic32c/8.3.1/thumb/v6-m/nofp\libgcc.a(bpabi.o) (__divdi3)
c:/program files/microchip/xc32/v4.60/bin/bin/../../lib/gcc/pic32c/8.3.1/thumb/v6-m/nofp\libgcc.a(_clzsi2.o)
                              c:/program files/microchip/xc32/v4.60/bin/bin/../../lib/gcc/pic32c/8.3.1/thumb/v6-m/nofp\libgcc.a(_clzdi2.o) (__clzsi2)
c:/program files/microchip/xc32/v4.60/bin/bin/../../lib/gcc/pic32c/8.3.1/../../../../pic32c/lib/thumb/v6-m/nofp\libpic32c.a(close.o)
                              c:/program files/microchip/xc32/v4.60/bin/bin/../../lib/gcc/pic32c/8.3.1/../../../../pic32c/lib/thumb/v6-m/nofp\libg-musl.a(__stdio_close.o) (close)
c:/program files/microchip/xc32/v4.60/bin/bin/../../lib/gcc/pic32c/8.3.1/../../../../pic32c/lib/thumb/v6-m/nofp\libpic32c.a(lseek.o)
                              c:/program files/microchip/xc32/v4.60/bin/bin/../../lib/gcc/pic32c/8.3.1/../../../../pic32c/lib/thumb/v6-m/nofp\libg-musl.a(__stdio_close.o) (lseek)
c:/program files/microchip/xc32/v4.60/bin/bin/../../lib/gcc/pic32c/8.3.1/../../../../pic32c/lib/thumb/v6-m/nofp\libpic32c.a(read.o)
                              c:/program files/microchip/xc32/v4.60/bin/bin/../../lib/gcc/pic32c/8.3.1/../../../../pic32c/lib/thumb/v6-m/nofp\libg-musl.a(readv.o) (read)
c:/program files/microchip/xc32/v4.60/bin/bin/../../lib/gcc/pic32c/8.3.1/../../../../pic32c/lib/thumb/v6-m/nofp\libpic32c.a(write.o)
                              c:/program files/microchip/xc32/v4.60/bin/bin/../../lib/gcc/pic32c/8.3.1/../../../../pic32c/lib/thumb/v6-m/nofp\libg-musl.a(fwrite.o) (write)
c:/program files/microchip/xc32/v4.60/bin/bin/../../lib/gcc/pic32c/8.3.1/../../../../pic32c/lib/thumb/v6-m/nofp\libc-size-musl.a(strlen.o)
                              c:/program files/microchip/xc32/v4.60/bin/bin/../../lib/gcc/pic32c/8.3.1/../../../../pic32c/lib/thumb/v6-m/nofp\libg-musl.a(__fmt_fp.o) (strlen)
c:/program files/microchip/xc32/v4.60/bin/bin/../../lib/gcc/pic32c/8.3.1/../../../../pic32c/lib/thumb/v6-m/nofp\libc-size-musl.a(strcpy.o)
                              c:/program files/microchip/xc32/v4.60/bin/bin/../../lib/gcc/pic32c/8.3.1/../../../../pic32c/lib/thumb/v6-m/nofp\libg-musl.a(__fmt_fp.o) (strcpy)
c:/program files/microchip/xc32/v4.60/bin/bin/../../lib/gcc/pic32c/8.3.1/../../../../pic32c/lib/thumb/v6-m/nofp\libc-size-musl.a(stpcpy.o)
                              c:/program files/microchip/xc32/v4.60/bin/bin/../../lib/gcc/pic32c/8.3.1/../../../../pic32c/lib/thumb/v6-m/nofp\libc-size-musl.a(strcpy.o) (__stpcpy)
c:/program files/microchip/xc32/v4.60/bin/bin/../../lib/gcc/pic32c/8.3.1/../../../../pic32c/lib/thumb/v6-m/nofp\liblmalloc-musl.a(lite_malloc.o)
                              c:/program files/microchip/xc32/v4.60/bin/bin/../../lib/gcc/pic32c/8.3.1/../../../../pic32c/lib/thumb/v6-m/nofp\libg-musl.a(setvbuf.o) (malloc)
c:/program files/microchip/xc32/v4.60/bin/bin/../../lib/gcc/pic32c/8.3.1/../../../../pic32c/lib/thumb/v6-m/nofp\liblmalloc-musl.a(lite_free.o)
                              c:/program files/microchip/xc32/v4.60/bin/bin/../../lib/gcc/pic32c/8.3.1/../../../../pic32c/lib/thumb/v6-m/nofp\liblmalloc-musl.a(lite_malloc.o) (__init_search_fl)
c:/program files/microchip/xc32/v4.60/bin/bin/../../lib/gcc/pic32c/8.3.1/../../../../pic32c/lib/thumb/v6-m/nofp\libg-musl.a(expand_heap.o)
                              c:/program files/microchip/xc32/v4.60/bin/bin/../../lib/gcc/pic32c/8.3.1/../../../../pic32c/lib/thumb/v6-m/nofp\liblmalloc-musl.a(lite_malloc.o) (__expand_heap)
c:/program files/microchip/xc32/v4.60/bin/bin/../../lib/gcc/pic32c/8.3.1/../../../../pic32c/lib/thumb/v6-m/nofp\libpic32c.a(sbrk.o)
                              c:/program files/microchip/xc32/v4.60/bin/bin/../../lib/gcc/pic32c/8.3.1/../../../../pic32c/lib/thumb/v6-m/nofp\liblmalloc-musl.a(lite_malloc.o) (_get_heap_left_space)
c:/program files/microchip/xc32/v4.60/bin/bin/../../lib/gcc/pic32c/8.3.1/../../../../pic32c/lib/thumb/v6-m/nofp\libpic32c.a(pic32_data_init_clear.o)
                              (__dinit_clear_needed)
c:/program files/microchip/xc32/v4.60/bin/bin/../../lib/gcc/pic32c/8.3.1/../../../../pic32c/lib/thumb/v6-m/nofp\libpic32c.a(pic32_data_init_copy.o)
                              (__dinit_copy_needed)

Microchip PIC32 Memory-Usage Report

ROM Program-Memory Usage
section                    address  length [bytes]      (dec)  Description
-------                 ----------  -------------------------  -----------
.vectors                         0           0xb0         176   
.text                         0xb0           0x20          32  App's exec code 
.ARM.exidx                    0xd0           0x10          16   
.text                         0xe0         0x2250        8784  App's exec code 
.dinit                      0x2330         0x1b40        6976   
.text                       0x3e70          0xcd0        3280  App's exec code 
.text.__fmt_fp              0x4b40          0x4c0        1216   
.text.pow                   0x5000          0x460        1120   
.text                       0x5460          0x45c        1116  App's exec code 
.text                       0x58bc          0x3f8        1016  App's exec code 
.text                       0x5cb4          0x3ac         940  App's exec code 
.text.__printf_core         0x6060          0x33c         828   
.text                       0x639c          0x2e4         740  App's exec code 
.text                       0x6680          0x288         648  App's exec code 
.text                       0x6908          0x26c         620  App's exec code 
.text                       0x6b74          0x260         608  App's exec code 
.text                       0x6dd4          0x228         552  App's exec code 
.text                       0x6ffc          0x220         544  App's exec code 
.text.exp                   0x721c          0x20c         524   
.text                       0x7428          0x1fc         508  App's exec code 
.rodata.str1.4              0x7624          0x1e4         484   
.text.log                   0x7808          0x1dc         476   
.text.__aeabi_dadd          0x79e4          0x1c8         456   
.text                       0x7bac          0x1bc         444  App's exec code 
.text                       0x7d68          0x18c         396  App's exec code 
.text.__aeabi_dmul_aux      0x7ef4          0x18a         394   
.text.Dummy_Handler         0x807e            0x2           2   
.rodata.str1.4              0x8080          0x158         344   
.text.__aeabi_fadd          0x81d8          0x13a         314   
.text.__fmt_x               0x8312          0x132         306   
.text                       0x8444          0x130         304  App's exec code 
.text                       0x8574          0x11c         284  App's exec code 
.text.sqrt                  0x8690          0x118         280   
.text                       0x87a8          0x10c         268  App's exec code 
.rodata.__SEGGER_RTL_ka     0x88b4          0x100         256   
.text                       0x89b4           0xf8         248  App's exec code 
.text                       0x8aac           0xf4         244  App's exec code 
.text                       0x8ba0           0xe2         226  App's exec code 
.text                       0x8c82            0x2           2  App's exec code 
.text                       0x8c84           0xd8         216  App's exec code 
.text                       0x8d5c           0xd4         212  App's exec code 
.text.__SEGGER_RTL_floa     0x8e30           0xd4         212   
.text                       0x8f04           0xd0         208  App's exec code 
.text                       0x8fd4           0xc4         196  App's exec code 
.text.__aeabi_ddiv          0x9098           0xc4         196   
.text.__pop_int             0x915c           0xbe         190   
.text.__aeabi_fmul          0x921a           0xb6         182   
.text                       0x92d0           0xb4         180  App's exec code 
.text.floor                 0x9384           0xb4         180   
.text.__fmt_d               0x9438           0xb2         178   
.text.__dummy_init_tls      0x94ea            0x2           2   
.text                       0x94ec           0xa8         168  App's exec code 
.text                       0x9594           0xa4         164  App's exec code 
.text                       0x9638           0x98         152  App's exec code 
.text                       0x96d0           0x98         152  App's exec code 
.text                       0x9768           0x94         148  App's exec code 
.text.__aeabi_fdiv          0x97fc           0x94         148   
.text                       0x9890           0x8c         140  App's exec code 
.text.__write_buffered      0x991c           0x82         130   
.text.__dummy               0x999e            0x2           2   
.text                       0x99a0           0x80         128  App's exec code 
.text.__SEGGER_RTL_floa     0x9a20           0x80         128   
.text.__simple_search_f     0x9aa0           0x80         128   
.text                       0x9b20           0x7c         124  App's exec code 
.text.__stdio_write_buf     0x9b9c           0x7c         124   
.text.__pad                 0x9c18           0x7a         122   
.text.__dummy               0x9c92            0x2           2   
.text                       0x9c94           0x78         120  App's exec code 
.text.__cvt_u               0x9d0c           0x76         118   
.text.__pop_ptr             0x9d82           0x68         104   
.text.__dummy               0x9dea            0x2           2   
.text                       0x9dec           0x64         100  App's exec code 
.text                       0x9e50           0x64         100  App's exec code 
.text.__stdio_read          0x9eb4           0x64         100   
.text.__simple_malloc       0x9f18           0x64         100   
.text.__aeabi_d2f           0x9f7c           0x62          98   
.text                       0x9fe0           0x60          96  App's exec code 
.text.__libc_start_init     0xa040           0x5c          92   
.text.__stdio_close_rw      0xa09c           0x5c          92   
.text                       0xa0f8           0x58          88  App's exec code 
.text                       0xa150           0x54          84  App's exec code 
.text.ldexp                 0xa1a4           0x54          84   
.text.__fmt_s               0xa1f8           0x50          80   
.text.setvbuf               0xa248           0x50          80   
.text.__vsnprintf           0xa298           0x50          80   
.text._sbrk                 0xa2e8           0x50          80   
.text.__overflow            0xa338           0x4e          78   
.rodata                     0xa388           0x4c          76  Read-only const 
.text                       0xa3d4           0x4c          76  App's exec code 
.text                       0xa420           0x48          72  App's exec code 
.text.Reset_Handler         0xa468           0x48          72   
.text                       0xa4b0           0x48          72  App's exec code 
.text                       0xa4f8           0x48          72  App's exec code 
.text                       0xa540           0x48          72  App's exec code 
.text.__aeabi_f2d           0xa588           0x44          68   
.text.__aeabi_dcmple        0xa5cc           0x44          68   
.text                       0xa610           0x44          68  App's exec code 
.rodata                     0xa654           0x40          64  Read-only const 
.text.frexp                 0xa694           0x40          64   
.text.atoi                  0xa6d4           0x40          64   
.text                       0xa714           0x40          64  App's exec code 
.text.__aeabi_dcmpgt        0xa754           0x3e          62   
.text.__aeabi_dcmplt        0xa792           0x3e          62   
.text.__aeabi_f2iz          0xa7d0           0x3e          62   
.text                       0xa810           0x3c          60  App's exec code 
.text.__out                 0xa84c           0x3c          60   
.text.__putc                0xa888           0x3c          60   
.text                       0xa8c4           0x3c          60  App's exec code 
.text.write                 0xa900           0x3c          60   
.text                       0xa93c           0x38          56  App's exec code 
.text.__pic32c_data_ini     0xa974           0x38          56   
.text.__putc_unbuffered     0xa9ac           0x36          54   
.text.modff                 0xa9e4           0x34          52   
.text.__aeabi_d2iz          0xaa18           0x34          52   
.text.__fmt_state           0xaa4c           0x34          52   
.text                       0xaa80           0x34          52  App's exec code 
.text._sbrk_init            0xaab4           0x34          52   
.text.__aeabi_fcmple        0xaae8           0x32          50   
.text.__aeabi_fcmpge        0xab1a           0x32          50   
.text.__aeabi_ul2f          0xab4c           0x30          48   
.text.__aeabi_dcmpeq        0xab7c           0x2e          46   
.text.__aeabi_fcmpgt        0xabaa           0x2e          46   
.text.__aeabi_fcmplt        0xabd8           0x2e          46   
.text.__aeabi_d2uiz         0xac06           0x2e          46   
.text.fwrite                0xac34           0x2e          46   
.text.__pop_float           0xac62           0x2a          42   
.text.__towrite_rw          0xac8c           0x2a          42   
.text.read                  0xacb6           0x2a          42   
.rodata.__SEGGER_RTL_fl     0xace0           0x28          40   
.text.puts                  0xad08           0x28          40   
.text.__readv               0xad30           0x28          40   
.text.__writev              0xad58           0x28          40   
.text.__aeabi_i2f           0xad80           0x26          38   
.text                       0xada8           0x24          36  App's exec code 
.text.__aeabi_f2uiz         0xadcc           0x24          36   
.text.fputs                 0xadf0           0x22          34   
.text                       0xae14           0x20          32  App's exec code 
.text.__aeabi_l2f           0xae34           0x20          32   
.text.__wrap_printf         0xae54           0x20          32   
.text._get_heap_left_sp     0xae74           0x20          32   
.text.__aeabi_fcmpeq        0xae94           0x1e          30   
.text.__aeabi_ui2f          0xaeb2           0x1e          30   
.text.__dinit_copy          0xaed0           0x1e          30   
.text.__aeabi_i2d           0xaef0           0x1c          28   
.text.__aeabi_ui2d          0xaf0c           0x1c          28   
.text.__init_search_fl      0xaf28           0x1c          28   
.text.__towrite             0xaf44           0x1a          26   
.text.__vfprintf            0xaf5e           0x18          24   
.text                       0xaf78           0x18          24  App's exec code 
.text                       0xaf90           0x18          24  App's exec code 
.text                       0xafa8           0x18          24  App's exec code 
.text.strlen                0xafc0           0x18          24   
.text.__wrap_sprintf        0xafd8           0x16          22   
.rodata                     0xafee           0x16          22  Read-only const 
.text.__expand_heap         0xb004           0x16          22   
.rodata                     0xb01c           0x14          20  Read-only const 
.text.memcpy                0xb030           0x14          20   
.text.memset                0xb044           0x14          20   
.text.__init_stdout         0xb058           0x14          20   
.text.putchar               0xb06c           0x14          20   
.text.__vsprintf            0xb080           0x14          20   
.text.__fwrite              0xb094           0x14          20   
.text.stpcpy                0xb0a8           0x14          20   
.text.setbuf                0xb0bc           0x12          18   
.text.__dinit_clear         0xb0ce           0x12          18   
.text                       0xb0e0           0x10          16  App's exec code 
.text                       0xb0f0           0x10          16  App's exec code 
.text.__aeabi_fsub          0xb100           0x10          16   
.text.__aeabi_dsub          0xb110           0x10          16   
.rodata.str1.1              0xb120           0x10          16   
.text.__init_stdio          0xb130           0x10          16   
.text.fma                   0xb140           0x10          16   
.text.tolower               0xb150            0xe          14   
.text.toupper               0xb15e            0xe          14   
.text.strcpy                0xb16c            0xc          12   
.text.__fwrite_min          0xb178            0xa          10   
.text                       0xb184            0x8           8  App's exec code 
.rodata.str1.4              0xb18c            0x8           8   
.rodata.str1.1              0xb194            0x8           8   
.text.putc                  0xb19c            0x8           8   
.text.__get_stdout          0xb1a4            0x8           8   
.rodata.str1.1              0xb1ac            0x7           7   
.text.close                 0xb1b4            0x6           6   
.text                       0xb1bc            0x4           4  App's exec code 
.text.__dummy_decompres     0xb1c0            0x4           4   
.text.__dummy_fmt3          0xb1c4            0x4           4   
.text.__dummy_fmt4          0xb1c8            0x4           4   
.text.__dummy               0xb1cc            0x4           4   
.text                       0xb1d0            0x4           4  App's exec code 
.text.lseek                 0xb1d4            0x4           4   
      Total ROM used  :      0xb1c1       45505  17.4% of 0x40000
        --------------------------------------------------------------------------
         Total Program Memory used  :      0xb1c1       45505  17.4% of 0x40000
        --------------------------------------------------------------------------


RAM Data-Memory Usage
section                    address  length [bytes]      (dec)  Description
-------                 ----------  -------------------------  -----------
.bss                    0x20000000          0xae0        2784  Uninitialized data 
.bss                    0x20000ae0          0x84c        2124  Uninitialized data 
.bss                    0x2000132c          0x408        1032  Uninitialized data 
.bss                    0x20001734          0x200         512  Uninitialized data 
.bss                    0x20001934           0xc0         192  Uninitialized data 
.bss                    0x200019f4           0x50          80  Uninitialized data 
.bss                    0x20001a44           0x3c          60  Uninitialized data 
.bss                    0x20001a80           0x1c          28  Uninitialized data 
.bss                    0x20001a9c           0x10          16  Uninitialized data 
.bss                    0x20001aac            0xc          12  Uninitialized data 
.bss                    0x20001ab8            0xc          12  Uninitialized data 
.bss                    0x20001ac4            0x8           8  Uninitialized data 
.bss                    0x20001acc            0x8           8  Uninitialized data 
.bss                    0x20001ad4            0x4           4  Uninitialized data 
.bss                    0x20001ad8            0x4           4  Uninitialized data 
.bss                    0x20001adc            0x4           4  Uninitialized data 
.bss                    0x20001ae0            0x4           4  Uninitialized data 
.bss                    0x20001ae4            0x4           4  Uninitialized data 
.data                   0x20001ae8         0x1882        6274  Initialized data 
.data                   0x2000336a            0x1           1  Initialized data 
.data                   0x2000336c           0x6c         108  Initialized data 
.data                   0x200033d8           0x64         100  Initialized data 
.data                   0x2000343c           0x60          96  Initialized data 
.data                   0x2000349c           0x28          40  Initialized data 
.data                   0x200034c4           0x20          32  Initialized data 
.data                   0x200034e4            0x4           4  Initialized data 
         Total RAM used  :      0x34e7       13543  41.3% of 0x8000
        --------------------------------------------------------------------------
            Total Data Memory used  :      0x34e7       13543  41.3% of 0x8000
        --------------------------------------------------------------------------


Dynamic Data-Memory Reservation
section                    address  length [bytes]      (dec)  Description
-------                 ----------  -------------------------  -----------
heap                    0x200034f0          0x200         512  Reserved for heap 
stack                   0x20003708         0x48f0       18672  Reserved for stack 

        --------------------------------------------------------------------------

Microchip PIC32 Memory-Usage Report By Module

        text        data         bss         dec         hex    basename                                  filename
--------------------------------------------------------------------------------
        8868           0           0        8868        22a4    Icm426xxDriver_HL.o                   build/SAMD21_IOT_WG_ICM42688/debug/_ext/1341251756/Icm426xxDriver_HL.o
        6976           0           0        6976        1b40    data_init                             data_init
           0        6274           0        6274        1882    tree_ensemble_trained_models.o        build/SAMD21_IOT_WG_ICM42688/debug/_ext/26920679/tree_ensemble_trained_models.o
        3280          40        2124        5444        1544    kb.o                                  build/SAMD21_IOT_WG_ICM42688/debug/_ext/26920679/kb.o
        1360           1        2784        4145        1031    main.o                                build/SAMD21_IOT_WG_ICM42688/debug/_ext/1360937237/main.o
        1600           0           0        1600         640    kb_output.o                           build/SAMD21_IOT_WG_ICM42688/debug/_ext/26920679/kb_output.o
        1232           0           0        1232         4d0    __fmt_fp.o                            libg-musl.a
           4         108        1032        1144         478    stdin.o                               libg-musl.a
        1120           0           0        1120         460    pow.o                                 libm-fast-emfloat.a
        1040           0           0        1040         410    __printf_core.o                       libg-musl.a
         940           0           0         940         3ac    ma_symmetric.o                        build/SAMD21_IOT_WG_ICM42688/debug/_ext/26920679/ma_symmetric.o
         620         100          60         780         30c    kb_pipeline.o                         build/SAMD21_IOT_WG_ICM42688/debug/_ext/26920679/kb_pipeline.o
         740           0           0         740         2e4    plib_sercom5_usart.o                  build/SAMD21_IOT_WG_ICM42688/debug/_ext/177673482/plib_sercom5_usart.o
         648           0           0         648         288    rb.o                                  build/SAMD21_IOT_WG_ICM42688/debug/_ext/26920679/rb.o
         608           0           0         608         260    plib_sercom0_spi_master.o             build/SAMD21_IOT_WG_ICM42688/debug/_ext/1014017276/plib_sercom0_spi_master.o
          84           0         512         596         254    sml_recognition_run.o                 build/SAMD21_IOT_WG_ICM42688/debug/_ext/741007211/sml_recognition_run.o
         552           0           4         556         22c    icm42688_sensor.o                     build/SAMD21_IOT_WG_ICM42688/debug/_ext/2048461350/icm42688_sensor.o
         544           0           0         544         220    stat_moment.o                         build/SAMD21_IOT_WG_ICM42688/debug/_ext/26920679/stat_moment.o
         524           0           0         524         20c    exp.o                                 libm-fast-emfloat.a
         508           0           0         508         1fc    ringbuffer.o                          build/SAMD21_IOT_WG_ICM42688/debug/_ext/1360937237/ringbuffer.o
         508           0           0         508         1fc    Icm426xxTransport.o                   build/SAMD21_IOT_WG_ICM42688/debug/_ext/1341251756/Icm426xxTransport.o
         476           0           0         476         1dc    log.o                                 libm-fast-emfloat.a
         268           0         192         460         1cc    plib_eic.o                            build/SAMD21_IOT_WG_ICM42688/debug/_ext/503204096/plib_eic.o
         456           0           0         456         1c8    __aeabi_dadd.o                        libm-fast-emfloat.a
         396           0          16         412         19c    tree_ensemble.o                       build/SAMD21_IOT_WG_ICM42688/debug/_ext/26920679/tree_ensemble.o
         394           0           0         394         18a    __aeabi_dmul_aux.o                    libm-fast-emfloat.a
         314           0           0         314         13a    __aeabi_fadd.o                        libm-fast-emfloat.a
         312           0           0         312         138    _divdi3.o                             libgcc.a
         306           0           0         306         132    __fmt_x.o                             libg-musl.a
         284           0           8         292         124    plib_tc3.o                            build/SAMD21_IOT_WG_ICM42688/debug/_ext/399410062/plib_tc3.o
         280           0           0         280         118    sqrt.o                                libm-fast-emfloat.a
         248           0          12         260         104    plib_systick.o                        build/SAMD21_IOT_WG_ICM42688/debug/_ext/223004715/plib_systick.o
         256           0           0         256         100    __SEGGER_RTL_kahan_aT2.o              libm-fast-emfloat.a
         254           0           0         254          fe    __stdio_write.o                       libg-musl.a
         244           0           0         244          f4    plib_port.o                           build/SAMD21_IOT_WG_ICM42688/debug/_ext/1580876256/plib_port.o
         234           0           0         234          ea    _udivmoddi4.o                         libgcc.a
         216           0           0         216          d8    tr_min_max_scale.o                    build/SAMD21_IOT_WG_ICM42688/debug/_ext/26920679/tr_min_max_scale.o
         212           0           0         212          d4    __SEGGER_RTL_float64_PolyEvalP.o      libm-fast-emfloat.a
         212           0           0         212          d4    plib_nvmctrl.o                        build/SAMD21_IOT_WG_ICM42688/debug/_ext/11470383/plib_nvmctrl.o
         208           0           0         208          d0    stats_percentile_presorted.o          build/SAMD21_IOT_WG_ICM42688/debug/_ext/26920679/stats_percentile_presorted.o
         196           0           0         196          c4    __aeabi_ddiv.o                        libm-fast-emfloat.a
         196           0           0         196          c4    plib_clock.o                          build/SAMD21_IOT_WG_ICM42688/debug/_ext/1750425231/plib_clock.o
         190           0           0         190          be    __pop_int.o                           libg-musl.a
         182           0           0         182          b6    __aeabi_fmul.o                        libm-fast-emfloat.a
         180           0           0         180          b4    floor.o                               libm-fast-emfloat.a
         180           0           0         180          b4    mean.o                                build/SAMD21_IOT_WG_ICM42688/debug/_ext/26920679/mean.o
         178           0           0         178          b2    __fmt_d.o                             libg-musl.a
         178           0           0         178          b2    interrupts.o                          build/SAMD21_IOT_WG_ICM42688/debug/_ext/1832905403/interrupts.o
         164           0          12         176          b0    sbrk.o                                libpic32c.a
         168           0           0         168          a8    _divsi3.o                             libgcc.a
         164           0           0         164          a4    fg_stats_skewness.o                   build/SAMD21_IOT_WG_ICM42688/debug/_ext/26920679/fg_stats_skewness.o
         156           0           4         160          a0    lite_free.o                           liblmalloc-musl.a
         152           0           0         152          98    fg_area_absolute_area_high_frequency.obuild/SAMD21_IOT_WG_ICM42688/debug/_ext/26920679/fg_area_absolute_area_high_frequency.o
         152           0           0         152          98    fg_area_total_area_low_frequency.o    build/SAMD21_IOT_WG_ICM42688/debug/_ext/26920679/fg_area_total_area_low_frequency.o
         148           0           0         148          94    sortarray.o                           build/SAMD21_IOT_WG_ICM42688/debug/_ext/26920679/sortarray.o
         148           0           0         148          94    __aeabi_fdiv.o                        libm-fast-emfloat.a
         140           0           0         140          8c    _udivsi3.o                            libgcc.a
         128           0           0         128          80    __SEGGER_RTL_float64_PolyEvalQ.o      libm-fast-emfloat.a
         128           0           0         128          80    plib_nvic.o                           build/SAMD21_IOT_WG_ICM42688/debug/_ext/1580823105/plib_nvic.o
         124           0           0         124          7c    fg_stats_abs_mean.o                   build/SAMD21_IOT_WG_ICM42688/debug/_ext/26920679/fg_stats_abs_mean.o
         120           0           0         120          78    utils_buffer_cumsum.o                 build/SAMD21_IOT_WG_ICM42688/debug/_ext/26920679/utils_buffer_cumsum.o
         118           0           0         118          76    __cvt_u.o                             libg-musl.a
          80           0          28         108          6c    crtbegin.o                            c:/program files/microchip/xc32/v4.60/bin/bin/../../lib/gcc/pic32c/8.3.1/thumb/v6-m/nofp/crtbegin.o
         100           4           0         104          68    lite_malloc.o                         liblmalloc-musl.a
         104           0           0         104          68    __pop_ptr.o                           libg-musl.a
           8          96           0         104          68    __stdout.o                            libg-musl.a
         100           0           0         100          64    __stdio_read.o                        libg-musl.a
         100           0           0         100          64    utils_model_cross_difference.o        build/SAMD21_IOT_WG_ICM42688/debug/_ext/26920679/utils_model_cross_difference.o
         100           0           0         100          64    fg_stats_pct075.o                     build/SAMD21_IOT_WG_ICM42688/debug/_ext/26920679/fg_stats_pct075.o
          98           0           0          98          62    __aeabi_d2f.o                         libm-fast-emfloat.a
          96           0           0          96          60    fg_cross_peak_location_difference.o   build/SAMD21_IOT_WG_ICM42688/debug/_ext/26920679/fg_cross_peak_location_difference.o
          96           0           0          96          60    initialization.o                      build/SAMD21_IOT_WG_ICM42688/debug/_ext/1832905403/initialization.o
          94           0           0          94          5e    __libc_start_main.o                   libg-musl.a
          92           0           0          92          5c    __stdio_close.o                       libg-musl.a
          87           0           0          87          57    __fmt_s.o                             libg-musl.a
          82           0           4          86          56    data_init.o                           libpic32c.a
          84           0           0          84          54    ldexp.o                               libm-fast-emfloat.a
          80           0           0          80          50    __int_vsnprintf.o                     libg-musl.a
          80           0           0          80          50    setvbuf.o                             libg-musl.a
           0           0          80          80          50    libc.o                                libg-musl.a
          78           0           0          78          4e    __overflow.o                          libg-musl.a
          76           0           0          76          4c    save_sensor_data.o                    build/SAMD21_IOT_WG_ICM42688/debug/_ext/26920679/save_sensor_data.o
          74           0           0          74          4a    startup_xc32.o                        build/SAMD21_IOT_WG_ICM42688/debug/_ext/1832905403/startup_xc32.o
          72           0           0          72          48    _aeabi_ldivmod.o                      libgcc.a
          72           0           0          72          48    sorted_copy.o                         build/SAMD21_IOT_WG_ICM42688/debug/_ext/26920679/sorted_copy.o
          72           0           0          72          48    tr_sensor_magnitude.o                 build/SAMD21_IOT_WG_ICM42688/debug/_ext/26920679/tr_sensor_magnitude.o
          70           0           0          70          46    __out.o                               libg-musl.a
          68           0           0          68          44    _muldi3.o                             libgcc.a
          68           0           0          68          44    __aeabi_f2d.o                         libm-fast-emfloat.a
          68           0           0          68          44    __aeabi_dcmple.o                      libm-fast-emfloat.a
          64           0           0          64          40    _aeabi_uldivmod.o                     libgcc.a
          64           0           0          64          40    frexp.o                               libm-fast-emfloat.a
          64           0           0          64          40    atoi.o                                libg-musl.a
          62           0           0          62          3e    putc.o                                libg-musl.a
          62           0           0          62          3e    __aeabi_dcmplt.o                      libm-fast-emfloat.a
          62           0           0          62          3e    __aeabi_dcmpgt.o                      libm-fast-emfloat.a
          62           0           0          62          3e    __aeabi_f2iz.o                        libm-fast-emfloat.a
          60           0           0          60          3c    _clzsi2.o                             libgcc.a
          60           0           0          60          3c    __putc.o                              libg-musl.a
          60           0           0          60          3c    write.o                               libpic32c.a
          20          32           8          60          3c    stdout.o                              libg-musl.a
          60           0           0          60          3c    utils_buffer_argmax.o                 build/SAMD21_IOT_WG_ICM42688/debug/_ext/26920679/utils_buffer_argmax.o
          56           0           0          56          38    xc32_monitor.o                        build/SAMD21_IOT_WG_ICM42688/debug/_ext/1357625803/xc32_monitor.o
          52           0           0          52          34    modff.o                               libm-fast-emfloat.a
          52           0           0          52          34    __aeabi_d2iz.o                        libm-fast-emfloat.a
          52           0           0          52          34    bpabi.o                               libgcc.a
          50           0           0          50          32    __aeabi_fcmple.o                      libm-fast-emfloat.a
          50           0           0          50          32    __aeabi_fcmpge.o                      libm-fast-emfloat.a
          48           0           0          48          30    __aeabi_ul2f.o                        libm-fast-emfloat.a
          46           0           0          46          2e    __aeabi_fcmplt.o                      libm-fast-emfloat.a
          46           0           0          46          2e    __aeabi_dcmpeq.o                      libm-fast-emfloat.a
          46           0           0          46          2e    fwrite.o                              libg-musl.a
          46           0           0          46          2e    __aeabi_fcmpgt.o                      libm-fast-emfloat.a
          46           0           0          46          2e    __aeabi_d2uiz.o                       libm-fast-emfloat.a
          42           0           0          42          2a    __towrite_rw.o                        libg-musl.a
          42           0           0          42          2a    read.o                                libpic32c.a
          42           0           0          42          2a    __pop_float.o                         libg-musl.a
          40           0           0          40          28    readv.o                               libg-musl.a
          40           0           0          40          28    puts.o                                libg-musl.a
          40           0           0          40          28    writev.o                              libg-musl.a
          40           0           0          40          28    __SEGGER_RTL_float64_Log.o            libm-fast-emfloat.a
          38           0           0          38          26    __aeabi_i2f.o                         libm-fast-emfloat.a
          36           0           0          36          24    __aeabi_f2uiz.o                       libm-fast-emfloat.a
          36           0           0          36          24    sg_windowing.o                        build/SAMD21_IOT_WG_ICM42688/debug/_ext/26920679/sg_windowing.o
          34           0           0          34          22    fputs.o                               libg-musl.a
          32           0           0          32          20    __sio_printf_cdeEfFgGnpsxX.o          libg-musl.a
          32           0           0          32          20    __aeabi_l2f.o                         libm-fast-emfloat.a
          32           0           0          32          20    utils_tr_sensor.o                     build/SAMD21_IOT_WG_ICM42688/debug/_ext/26920679/utils_tr_sensor.o
          30           0           0          30          1e    __aeabi_ui2f.o                        libm-fast-emfloat.a
          30           0           0          30          1e    __aeabi_fcmpeq.o                      libm-fast-emfloat.a
          30           0           0          30          1e    pic32_data_init_copy.o                libpic32c.a
          28           0           0          28          1c    __aeabi_i2d.o                         libm-fast-emfloat.a
          28           0           0          28          1c    __aeabi_ui2d.o                        libm-fast-emfloat.a
          26           0           0          26          1a    __towrite.o                           libg-musl.a
          24           0           0          24          18    _lshrdi3.o                            libgcc.a
          24           0           0          24          18    __int_vfprintf.o                      libg-musl.a
          24           0           0          24          18    _ashldi3.o                            libgcc.a
          24           0           0          24          18    strlen.o                              libc-size-musl.a
          24           0           0          24          18    _clzdi2.o                             libgcc.a
          22           0           0          22          16    expand_heap.o                         libg-musl.a
          22           0           0          22          16    __sio_sprintf_cdeEfFgGnpsxX.o         libg-musl.a
          20           0           0          20          14    stpcpy.o                              libc-size-musl.a
          20           0           0          20          14    __fwrite.o                            libg-musl.a
          20           0           0          20          14    memcpy.o                              libc-size-musl.a
          20           0           0          20          14    putchar.o                             libg-musl.a
          20           0           0          20          14    __int_vsprintf.o                      libg-musl.a
          20           0           0          20          14    memset.o                              libc-size-musl.a
          18           0           0          18          12    __init_stdio.o                        libg-musl.a
          18           0           0          18          12    setbuf.o                              libg-musl.a
          18           0           0          18          12    pic32_data_init_clear.o               libpic32c.a
          16           0           0          16          10    utils_buffer_abssum.o                 build/SAMD21_IOT_WG_ICM42688/debug/_ext/26920679/utils_buffer_abssum.o
          16           0           0          16          10    fg_cross_p2p_difference.o             build/SAMD21_IOT_WG_ICM42688/debug/_ext/26920679/fg_cross_p2p_difference.o
          16           0           0          16          10    __aeabi_dsub.o                        libm-fast-emfloat.a
          16           0           0          16          10    crtn.o                                c:/program files/microchip/xc32/v4.60/bin/bin/../../lib/gcc/pic32c/8.3.1/thumb/v6-m/nofp/crtn.o
          16           0           0          16          10    fma.o                                 libm-fast-emfloat.a
          16           0           0          16          10    __aeabi_fsub.o                        libm-fast-emfloat.a
          14           0           0          14           e    tolower.o                             libg-musl.a
          14           0           0          14           e    toupper.o                             libg-musl.a
          12           0           0          12           c    strcpy.o                              libc-size-musl.a
           8           0           0           8           8    crti.o                                c:/program files/microchip/xc32/v4.60/bin/bin/../../lib/gcc/pic32c/8.3.1/thumb/v6-m/nofp/crti.o
           8           0           0           8           8    exceptions.o                          build/SAMD21_IOT_WG_ICM42688/debug/_ext/1832905403/exceptions.o
           6           0           0           6           6    close.o                               libpic32c.a
           0           0           4           4           4    __errno_location.o                    libg-musl.a
           4           0           0           4           4    lseek.o                               libpic32c.a
           4           0           0           4           4    _dvmd_tls.o                           libgcc.a
           4           0           0           4           4    plib_evsys.o                          build/SAMD21_IOT_WG_ICM42688/debug/_ext/1752574717/plib_evsys.o
           0           0           4           4           4    __environ.o                           libg-musl.a
           2           0           0           2           2    __stderr.o                            libg-musl.a
--------------------------------------------------------------------------------
       45513        6655        6888       59056        e6b0    dist/SAMD21_IOT_WG_ICM42688/debug/samd21-iot-mplabml-wand.X.debug.elf


Discarded input sections

 .text          0x0000000000000000        0x0 c:/program files/microchip/xc32/v4.60/bin/bin/../../lib/gcc/pic32c/8.3.1/thumb/v6-m/nofp/crti.o
 .data          0x0000000000000000        0x0 c:/program files/microchip/xc32/v4.60/bin/bin/../../lib/gcc/pic32c/8.3.1/thumb/v6-m/nofp/crti.o
 .bss           0x0000000000000000        0x0 c:/program files/microchip/xc32/v4.60/bin/bin/../../lib/gcc/pic32c/8.3.1/thumb/v6-m/nofp/crti.o
 .xc_stack_usage.hdr
                0x0000000000000000        0xe c:/program files/microchip/xc32/v4.60/bin/bin/../../lib/gcc/pic32c/8.3.1/thumb/v6-m/nofp/crti.o
 .xc_stack_usage
                0x0000000000000000       0x26 c:/program files/microchip/xc32/v4.60/bin/bin/../../lib/gcc/pic32c/8.3.1/thumb/v6-m/nofp/crti.o
 .data          0x0000000000000000        0x4 c:/program files/microchip/xc32/v4.60/bin/bin/../../lib/gcc/pic32c/8.3.1/thumb/v6-m/nofp/crtbegin.o
 .xc_stack_usage
                0x0000000000000000       0x3c c:/program files/microchip/xc32/v4.60/bin/bin/../../lib/gcc/pic32c/8.3.1/thumb/v6-m/nofp/crtbegin.o
 .xc_stack_usage.hdr
                0x0000000000000000        0xe c:/program files/microchip/xc32/v4.60/bin/bin/../../lib/gcc/pic32c/8.3.1/thumb/v6-m/nofp/crtbegin.o
 .data          0x0000000000000000        0x0 build/SAMD21_IOT_WG_ICM42688/debug/_ext/2048461350/icm42688_sensor.o
 .data          0x0000000000000000        0x0 build/SAMD21_IOT_WG_ICM42688/debug/_ext/1750425231/plib_clock.o
 .bss           0x0000000000000000        0x0 build/SAMD21_IOT_WG_ICM42688/debug/_ext/1750425231/plib_clock.o
 .data          0x0000000000000000        0x0 build/SAMD21_IOT_WG_ICM42688/debug/_ext/503204096/plib_eic.o
 .data          0x0000000000000000        0x0 build/SAMD21_IOT_WG_ICM42688/debug/_ext/1752574717/plib_evsys.o
 .bss           0x0000000000000000        0x0 build/SAMD21_IOT_WG_ICM42688/debug/_ext/1752574717/plib_evsys.o
 .data          0x0000000000000000        0x0 build/SAMD21_IOT_WG_ICM42688/debug/_ext/1580823105/plib_nvic.o
 .bss           0x0000000000000000        0x0 build/SAMD21_IOT_WG_ICM42688/debug/_ext/1580823105/plib_nvic.o
 .data          0x0000000000000000        0x0 build/SAMD21_IOT_WG_ICM42688/debug/_ext/11470383/plib_nvmctrl.o
 .bss           0x0000000000000000        0x0 build/SAMD21_IOT_WG_ICM42688/debug/_ext/11470383/plib_nvmctrl.o
 .data          0x0000000000000000        0x0 build/SAMD21_IOT_WG_ICM42688/debug/_ext/1580876256/plib_port.o
 .bss           0x0000000000000000        0x0 build/SAMD21_IOT_WG_ICM42688/debug/_ext/1580876256/plib_port.o
 .data          0x0000000000000000        0x0 build/SAMD21_IOT_WG_ICM42688/debug/_ext/1014017276/plib_sercom0_spi_master.o
 .bss           0x0000000000000000        0x0 build/SAMD21_IOT_WG_ICM42688/debug/_ext/1014017276/plib_sercom0_spi_master.o
 .data          0x0000000000000000        0x0 build/SAMD21_IOT_WG_ICM42688/debug/_ext/177673482/plib_sercom5_usart.o
 .bss           0x0000000000000000        0x0 build/SAMD21_IOT_WG_ICM42688/debug/_ext/177673482/plib_sercom5_usart.o
 .data          0x0000000000000000        0x0 build/SAMD21_IOT_WG_ICM42688/debug/_ext/223004715/plib_systick.o
 .data          0x0000000000000000        0x0 build/SAMD21_IOT_WG_ICM42688/debug/_ext/399410062/plib_tc3.o
 .data          0x0000000000000000        0x0 build/SAMD21_IOT_WG_ICM42688/debug/_ext/1357625803/xc32_monitor.o
 .bss           0x0000000000000000        0x0 build/SAMD21_IOT_WG_ICM42688/debug/_ext/1357625803/xc32_monitor.o
 .data          0x0000000000000000        0x0 build/SAMD21_IOT_WG_ICM42688/debug/_ext/1832905403/initialization.o
 .bss           0x0000000000000000        0x0 build/SAMD21_IOT_WG_ICM42688/debug/_ext/1832905403/initialization.o
 .text          0x0000000000000000        0x0 build/SAMD21_IOT_WG_ICM42688/debug/_ext/1832905403/interrupts.o
 .data          0x0000000000000000        0x0 build/SAMD21_IOT_WG_ICM42688/debug/_ext/1832905403/interrupts.o
 .bss           0x0000000000000000        0x0 build/SAMD21_IOT_WG_ICM42688/debug/_ext/1832905403/interrupts.o
 .data          0x0000000000000000        0x0 build/SAMD21_IOT_WG_ICM42688/debug/_ext/1832905403/exceptions.o
 .bss           0x0000000000000000        0x0 build/SAMD21_IOT_WG_ICM42688/debug/_ext/1832905403/exceptions.o
 .data          0x0000000000000000        0x0 build/SAMD21_IOT_WG_ICM42688/debug/_ext/1832905403/startup_xc32.o
 .bss           0x0000000000000000        0x0 build/SAMD21_IOT_WG_ICM42688/debug/_ext/1832905403/startup_xc32.o
 .text          0x0000000000000000        0x4 build/SAMD21_IOT_WG_ICM42688/debug/_ext/1832905403/libc_syscalls.o
 .data          0x0000000000000000        0x0 build/SAMD21_IOT_WG_ICM42688/debug/_ext/1832905403/libc_syscalls.o
 .bss           0x0000000000000000        0x0 build/SAMD21_IOT_WG_ICM42688/debug/_ext/1832905403/libc_syscalls.o
 .debug_info    0x0000000000000000       0xa0 build/SAMD21_IOT_WG_ICM42688/debug/_ext/1832905403/libc_syscalls.o
 .debug_abbrev  0x0000000000000000       0x58 build/SAMD21_IOT_WG_ICM42688/debug/_ext/1832905403/libc_syscalls.o
 .debug_aranges
                0x0000000000000000       0x20 build/SAMD21_IOT_WG_ICM42688/debug/_ext/1832905403/libc_syscalls.o
 .debug_line    0x0000000000000000       0x6d build/SAMD21_IOT_WG_ICM42688/debug/_ext/1832905403/libc_syscalls.o
 .debug_str     0x0000000000000000      0x291 build/SAMD21_IOT_WG_ICM42688/debug/_ext/1832905403/libc_syscalls.o
 .comment       0x0000000000000000       0x2c build/SAMD21_IOT_WG_ICM42688/debug/_ext/1832905403/libc_syscalls.o
 .debug_frame   0x0000000000000000       0x20 build/SAMD21_IOT_WG_ICM42688/debug/_ext/1832905403/libc_syscalls.o
 .ARM.attributes
                0x0000000000000000       0x2c build/SAMD21_IOT_WG_ICM42688/debug/_ext/1832905403/libc_syscalls.o
 .data          0x0000000000000000        0x0 build/SAMD21_IOT_WG_ICM42688/debug/_ext/1341251756/Icm426xxDriver_HL.o
 .bss           0x0000000000000000        0x0 build/SAMD21_IOT_WG_ICM42688/debug/_ext/1341251756/Icm426xxDriver_HL.o
 .text          0x0000000000000000      0xd64 build/SAMD21_IOT_WG_ICM42688/debug/_ext/1341251756/Icm426xxDriver_HL_apex.o
 .data          0x0000000000000000        0x0 build/SAMD21_IOT_WG_ICM42688/debug/_ext/1341251756/Icm426xxDriver_HL_apex.o
 .bss           0x0000000000000000        0x0 build/SAMD21_IOT_WG_ICM42688/debug/_ext/1341251756/Icm426xxDriver_HL_apex.o
 .debug_info    0x0000000000000000     0x2d26 build/SAMD21_IOT_WG_ICM42688/debug/_ext/1341251756/Icm426xxDriver_HL_apex.o
 .debug_abbrev  0x0000000000000000      0x37d build/SAMD21_IOT_WG_ICM42688/debug/_ext/1341251756/Icm426xxDriver_HL_apex.o
 .debug_loc     0x0000000000000000     0x1d25 build/SAMD21_IOT_WG_ICM42688/debug/_ext/1341251756/Icm426xxDriver_HL_apex.o
 .debug_aranges
                0x0000000000000000       0x20 build/SAMD21_IOT_WG_ICM42688/debug/_ext/1341251756/Icm426xxDriver_HL_apex.o
 .debug_ranges  0x0000000000000000       0x30 build/SAMD21_IOT_WG_ICM42688/debug/_ext/1341251756/Icm426xxDriver_HL_apex.o
 .debug_line    0x0000000000000000     0x10ab build/SAMD21_IOT_WG_ICM42688/debug/_ext/1341251756/Icm426xxDriver_HL_apex.o
 .debug_str     0x0000000000000000     0x2bde build/SAMD21_IOT_WG_ICM42688/debug/_ext/1341251756/Icm426xxDriver_HL_apex.o
 .comment       0x0000000000000000       0x2c build/SAMD21_IOT_WG_ICM42688/debug/_ext/1341251756/Icm426xxDriver_HL_apex.o
 .debug_frame   0x0000000000000000      0x3c8 build/SAMD21_IOT_WG_ICM42688/debug/_ext/1341251756/Icm426xxDriver_HL_apex.o
 .ARM.attributes
                0x0000000000000000       0x2c build/SAMD21_IOT_WG_ICM42688/debug/_ext/1341251756/Icm426xxDriver_HL_apex.o
 .text          0x0000000000000000      0xa4c build/SAMD21_IOT_WG_ICM42688/debug/_ext/1341251756/Icm426xxSelfTest.o
 .data          0x0000000000000000        0x0 build/SAMD21_IOT_WG_ICM42688/debug/_ext/1341251756/Icm426xxSelfTest.o
 .bss           0x0000000000000000        0x0 build/SAMD21_IOT_WG_ICM42688/debug/_ext/1341251756/Icm426xxSelfTest.o
 .debug_info    0x0000000000000000     0x1ae7 build/SAMD21_IOT_WG_ICM42688/debug/_ext/1341251756/Icm426xxSelfTest.o
 .debug_abbrev  0x0000000000000000      0x3f3 build/SAMD21_IOT_WG_ICM42688/debug/_ext/1341251756/Icm426xxSelfTest.o
 .debug_loc     0x0000000000000000     0x1352 build/SAMD21_IOT_WG_ICM42688/debug/_ext/1341251756/Icm426xxSelfTest.o
 .debug_aranges
                0x0000000000000000       0x20 build/SAMD21_IOT_WG_ICM42688/debug/_ext/1341251756/Icm426xxSelfTest.o
 .debug_ranges  0x0000000000000000      0x120 build/SAMD21_IOT_WG_ICM42688/debug/_ext/1341251756/Icm426xxSelfTest.o
 .debug_line    0x0000000000000000      0xb01 build/SAMD21_IOT_WG_ICM42688/debug/_ext/1341251756/Icm426xxSelfTest.o
 .debug_str     0x0000000000000000     0x1566 build/SAMD21_IOT_WG_ICM42688/debug/_ext/1341251756/Icm426xxSelfTest.o
 .comment       0x0000000000000000       0x2c build/SAMD21_IOT_WG_ICM42688/debug/_ext/1341251756/Icm426xxSelfTest.o
 .debug_frame   0x0000000000000000       0xc0 build/SAMD21_IOT_WG_ICM42688/debug/_ext/1341251756/Icm426xxSelfTest.o
 .ARM.attributes
                0x0000000000000000       0x2c build/SAMD21_IOT_WG_ICM42688/debug/_ext/1341251756/Icm426xxSelfTest.o
 .data          0x0000000000000000        0x0 build/SAMD21_IOT_WG_ICM42688/debug/_ext/1341251756/Icm426xxTransport.o
 .bss           0x0000000000000000        0x0 build/SAMD21_IOT_WG_ICM42688/debug/_ext/1341251756/Icm426xxTransport.o
 .data          0x0000000000000000        0x0 build/SAMD21_IOT_WG_ICM42688/debug/_ext/1360937237/ringbuffer.o
 .bss           0x0000000000000000        0x0 build/SAMD21_IOT_WG_ICM42688/debug/_ext/1360937237/ringbuffer.o
 .text          0x0000000000000000       0x90 build/SAMD21_IOT_WG_ICM42688/debug/_ext/1360937237/ws2812.o
 .data          0x0000000000000000        0x3 build/SAMD21_IOT_WG_ICM42688/debug/_ext/1360937237/ws2812.o
 .bss           0x0000000000000000        0x8 build/SAMD21_IOT_WG_ICM42688/debug/_ext/1360937237/ws2812.o
 .debug_info    0x0000000000000000      0x603 build/SAMD21_IOT_WG_ICM42688/debug/_ext/1360937237/ws2812.o
 .debug_abbrev  0x0000000000000000      0x2a4 build/SAMD21_IOT_WG_ICM42688/debug/_ext/1360937237/ws2812.o
 .debug_loc     0x0000000000000000      0x28e build/SAMD21_IOT_WG_ICM42688/debug/_ext/1360937237/ws2812.o
 .debug_aranges
                0x0000000000000000       0x20 build/SAMD21_IOT_WG_ICM42688/debug/_ext/1360937237/ws2812.o
 .debug_ranges  0x0000000000000000       0x88 build/SAMD21_IOT_WG_ICM42688/debug/_ext/1360937237/ws2812.o
 .debug_line    0x0000000000000000      0x27f build/SAMD21_IOT_WG_ICM42688/debug/_ext/1360937237/ws2812.o
 .debug_str     0x0000000000000000      0x631 build/SAMD21_IOT_WG_ICM42688/debug/_ext/1360937237/ws2812.o
 .comment       0x0000000000000000       0x2c build/SAMD21_IOT_WG_ICM42688/debug/_ext/1360937237/ws2812.o
 .debug_frame   0x0000000000000000       0x40 build/SAMD21_IOT_WG_ICM42688/debug/_ext/1360937237/ws2812.o
 .ARM.attributes
                0x0000000000000000       0x2c build/SAMD21_IOT_WG_ICM42688/debug/_ext/1360937237/ws2812.o
 .text          0x0000000000000000       0x54 build/SAMD21_IOT_WG_ICM42688/debug/_ext/26920679/array_contains.o
 .data          0x0000000000000000        0x0 build/SAMD21_IOT_WG_ICM42688/debug/_ext/26920679/array_contains.o
 .bss           0x0000000000000000        0x0 build/SAMD21_IOT_WG_ICM42688/debug/_ext/26920679/array_contains.o
 .debug_info    0x0000000000000000      0x172 build/SAMD21_IOT_WG_ICM42688/debug/_ext/26920679/array_contains.o
 .debug_abbrev  0x0000000000000000       0xb5 build/SAMD21_IOT_WG_ICM42688/debug/_ext/26920679/array_contains.o
 .debug_loc     0x0000000000000000      0x1c1 build/SAMD21_IOT_WG_ICM42688/debug/_ext/26920679/array_contains.o
 .debug_aranges
                0x0000000000000000       0x20 build/SAMD21_IOT_WG_ICM42688/debug/_ext/26920679/array_contains.o
 .debug_line    0x0000000000000000      0x118 build/SAMD21_IOT_WG_ICM42688/debug/_ext/26920679/array_contains.o
 .debug_str     0x0000000000000000      0x2f3 build/SAMD21_IOT_WG_ICM42688/debug/_ext/26920679/array_contains.o
 .comment       0x0000000000000000       0x2c build/SAMD21_IOT_WG_ICM42688/debug/_ext/26920679/array_contains.o
 .debug_frame   0x0000000000000000       0x38 build/SAMD21_IOT_WG_ICM42688/debug/_ext/26920679/array_contains.o
 .ARM.attributes
                0x0000000000000000       0x2c build/SAMD21_IOT_WG_ICM42688/debug/_ext/26920679/array_contains.o
 .text          0x0000000000000000      0x128 build/SAMD21_IOT_WG_ICM42688/debug/_ext/26920679/calc_area.o
 .data          0x0000000000000000        0x0 build/SAMD21_IOT_WG_ICM42688/debug/_ext/26920679/calc_area.o
 .bss           0x0000000000000000        0x0 build/SAMD21_IOT_WG_ICM42688/debug/_ext/26920679/calc_area.o
 .debug_info    0x0000000000000000      0x2ee build/SAMD21_IOT_WG_ICM42688/debug/_ext/26920679/calc_area.o
 .debug_abbrev  0x0000000000000000      0x137 build/SAMD21_IOT_WG_ICM42688/debug/_ext/26920679/calc_area.o
 .debug_loc     0x0000000000000000      0x3e1 build/SAMD21_IOT_WG_ICM42688/debug/_ext/26920679/calc_area.o
 .debug_aranges
                0x0000000000000000       0x20 build/SAMD21_IOT_WG_ICM42688/debug/_ext/26920679/calc_area.o
 .debug_ranges  0x0000000000000000       0x20 build/SAMD21_IOT_WG_ICM42688/debug/_ext/26920679/calc_area.o
 .debug_line    0x0000000000000000      0x1db build/SAMD21_IOT_WG_ICM42688/debug/_ext/26920679/calc_area.o
 .debug_str     0x0000000000000000      0x391 build/SAMD21_IOT_WG_ICM42688/debug/_ext/26920679/calc_area.o
 .comment       0x0000000000000000       0x2c build/SAMD21_IOT_WG_ICM42688/debug/_ext/26920679/calc_area.o
 .debug_frame   0x0000000000000000       0x3c build/SAMD21_IOT_WG_ICM42688/debug/_ext/26920679/calc_area.o
 .ARM.attributes
                0x0000000000000000       0x2c build/SAMD21_IOT_WG_ICM42688/debug/_ext/26920679/calc_area.o
 .text          0x0000000000000000       0x70 build/SAMD21_IOT_WG_ICM42688/debug/_ext/26920679/column_to_row_complex.o
 .data          0x0000000000000000        0x0 build/SAMD21_IOT_WG_ICM42688/debug/_ext/26920679/column_to_row_complex.o
 .bss           0x0000000000000000        0x0 build/SAMD21_IOT_WG_ICM42688/debug/_ext/26920679/column_to_row_complex.o
 .debug_info    0x0000000000000000      0x230 build/SAMD21_IOT_WG_ICM42688/debug/_ext/26920679/column_to_row_complex.o
 .debug_abbrev  0x0000000000000000       0xff build/SAMD21_IOT_WG_ICM42688/debug/_ext/26920679/column_to_row_complex.o
 .debug_loc     0x0000000000000000      0x1b4 build/SAMD21_IOT_WG_ICM42688/debug/_ext/26920679/column_to_row_complex.o
 .debug_aranges
                0x0000000000000000       0x20 build/SAMD21_IOT_WG_ICM42688/debug/_ext/26920679/column_to_row_complex.o
 .debug_line    0x0000000000000000      0x13c build/SAMD21_IOT_WG_ICM42688/debug/_ext/26920679/column_to_row_complex.o
 .debug_str     0x0000000000000000      0x340 build/SAMD21_IOT_WG_ICM42688/debug/_ext/26920679/column_to_row_complex.o
 .comment       0x0000000000000000       0x2c build/SAMD21_IOT_WG_ICM42688/debug/_ext/26920679/column_to_row_complex.o
 .debug_frame   0x0000000000000000       0x38 build/SAMD21_IOT_WG_ICM42688/debug/_ext/26920679/column_to_row_complex.o
 .ARM.attributes
                0x0000000000000000       0x2c build/SAMD21_IOT_WG_ICM42688/debug/_ext/26920679/column_to_row_complex.o
 .text          0x0000000000000000      0x168 build/SAMD21_IOT_WG_ICM42688/debug/_ext/26920679/crossing_rate.o
 .data          0x0000000000000000        0x0 build/SAMD21_IOT_WG_ICM42688/debug/_ext/26920679/crossing_rate.o
 .bss           0x0000000000000000        0x0 build/SAMD21_IOT_WG_ICM42688/debug/_ext/26920679/crossing_rate.o
 .debug_info    0x0000000000000000      0x545 build/SAMD21_IOT_WG_ICM42688/debug/_ext/26920679/crossing_rate.o
 .debug_abbrev  0x0000000000000000       0xe8 build/SAMD21_IOT_WG_ICM42688/debug/_ext/26920679/crossing_rate.o
 .debug_loc     0x0000000000000000      0x877 build/SAMD21_IOT_WG_ICM42688/debug/_ext/26920679/crossing_rate.o
 .debug_aranges
                0x0000000000000000       0x20 build/SAMD21_IOT_WG_ICM42688/debug/_ext/26920679/crossing_rate.o
 .debug_ranges  0x0000000000000000       0xa0 build/SAMD21_IOT_WG_ICM42688/debug/_ext/26920679/crossing_rate.o
 .debug_line    0x0000000000000000      0x2d3 build/SAMD21_IOT_WG_ICM42688/debug/_ext/26920679/crossing_rate.o
 .debug_str     0x0000000000000000      0x454 build/SAMD21_IOT_WG_ICM42688/debug/_ext/26920679/crossing_rate.o
 .comment       0x0000000000000000       0x2c build/SAMD21_IOT_WG_ICM42688/debug/_ext/26920679/crossing_rate.o
 .debug_frame   0x0000000000000000       0xc8 build/SAMD21_IOT_WG_ICM42688/debug/_ext/26920679/crossing_rate.o
 .ARM.attributes
                0x0000000000000000       0x2c build/SAMD21_IOT_WG_ICM42688/debug/_ext/26920679/crossing_rate.o
 .text          0x0000000000000000       0x10 build/SAMD21_IOT_WG_ICM42688/debug/_ext/26920679/dsp_dtw_distance.o
 .data          0x0000000000000000        0x0 build/SAMD21_IOT_WG_ICM42688/debug/_ext/26920679/dsp_dtw_distance.o
 .bss           0x0000000000000000        0x0 build/SAMD21_IOT_WG_ICM42688/debug/_ext/26920679/dsp_dtw_distance.o
 .debug_info    0x0000000000000000      0x1ab build/SAMD21_IOT_WG_ICM42688/debug/_ext/26920679/dsp_dtw_distance.o
 .debug_abbrev  0x0000000000000000       0xef build/SAMD21_IOT_WG_ICM42688/debug/_ext/26920679/dsp_dtw_distance.o
 .debug_loc     0x0000000000000000       0x25 build/SAMD21_IOT_WG_ICM42688/debug/_ext/26920679/dsp_dtw_distance.o
 .debug_aranges
                0x0000000000000000       0x20 build/SAMD21_IOT_WG_ICM42688/debug/_ext/26920679/dsp_dtw_distance.o
 .debug_line    0x0000000000000000       0xc3 build/SAMD21_IOT_WG_ICM42688/debug/_ext/26920679/dsp_dtw_distance.o
 .debug_str     0x0000000000000000      0x31d build/SAMD21_IOT_WG_ICM42688/debug/_ext/26920679/dsp_dtw_distance.o
 .comment       0x0000000000000000       0x2c build/SAMD21_IOT_WG_ICM42688/debug/_ext/26920679/dsp_dtw_distance.o
 .debug_frame   0x0000000000000000       0x50 build/SAMD21_IOT_WG_ICM42688/debug/_ext/26920679/dsp_dtw_distance.o
 .ARM.attributes
                0x0000000000000000       0x2c build/SAMD21_IOT_WG_ICM42688/debug/_ext/26920679/dsp_dtw_distance.o
 .text          0x0000000000000000       0x34 build/SAMD21_IOT_WG_ICM42688/debug/_ext/26920679/dsp_l1_distance.o
 .data          0x0000000000000000        0x0 build/SAMD21_IOT_WG_ICM42688/debug/_ext/26920679/dsp_l1_distance.o
 .bss           0x0000000000000000        0x0 build/SAMD21_IOT_WG_ICM42688/debug/_ext/26920679/dsp_l1_distance.o
 .debug_info    0x0000000000000000      0x160 build/SAMD21_IOT_WG_ICM42688/debug/_ext/26920679/dsp_l1_distance.o
 .debug_abbrev  0x0000000000000000       0xc8 build/SAMD21_IOT_WG_ICM42688/debug/_ext/26920679/dsp_l1_distance.o
 .debug_loc     0x0000000000000000      0x180 build/SAMD21_IOT_WG_ICM42688/debug/_ext/26920679/dsp_l1_distance.o
 .debug_aranges
                0x0000000000000000       0x20 build/SAMD21_IOT_WG_ICM42688/debug/_ext/26920679/dsp_l1_distance.o
 .debug_line    0x0000000000000000      0x106 build/SAMD21_IOT_WG_ICM42688/debug/_ext/26920679/dsp_l1_distance.o
 .debug_str     0x0000000000000000      0x2f0 build/SAMD21_IOT_WG_ICM42688/debug/_ext/26920679/dsp_l1_distance.o
 .comment       0x0000000000000000       0x2c build/SAMD21_IOT_WG_ICM42688/debug/_ext/26920679/dsp_l1_distance.o
 .debug_frame   0x0000000000000000       0x34 build/SAMD21_IOT_WG_ICM42688/debug/_ext/26920679/dsp_l1_distance.o
 .ARM.attributes
                0x0000000000000000       0x2c build/SAMD21_IOT_WG_ICM42688/debug/_ext/26920679/dsp_l1_distance.o
 .text          0x0000000000000000       0x4c build/SAMD21_IOT_WG_ICM42688/debug/_ext/26920679/dsp_lsup_distance.o
 .data          0x0000000000000000        0x0 build/SAMD21_IOT_WG_ICM42688/debug/_ext/26920679/dsp_lsup_distance.o
 .bss           0x0000000000000000        0x0 build/SAMD21_IOT_WG_ICM42688/debug/_ext/26920679/dsp_lsup_distance.o
 .debug_info    0x0000000000000000      0x184 build/SAMD21_IOT_WG_ICM42688/debug/_ext/26920679/dsp_lsup_distance.o
 .debug_abbrev  0x0000000000000000       0xf0 build/SAMD21_IOT_WG_ICM42688/debug/_ext/26920679/dsp_lsup_distance.o
 .debug_loc     0x0000000000000000      0x180 build/SAMD21_IOT_WG_ICM42688/debug/_ext/26920679/dsp_lsup_distance.o
 .debug_aranges
                0x0000000000000000       0x20 build/SAMD21_IOT_WG_ICM42688/debug/_ext/26920679/dsp_lsup_distance.o
 .debug_line    0x0000000000000000      0x10c build/SAMD21_IOT_WG_ICM42688/debug/_ext/26920679/dsp_lsup_distance.o
 .debug_str     0x0000000000000000      0x30d build/SAMD21_IOT_WG_ICM42688/debug/_ext/26920679/dsp_lsup_distance.o
 .comment       0x0000000000000000       0x2c build/SAMD21_IOT_WG_ICM42688/debug/_ext/26920679/dsp_lsup_distance.o
 .debug_frame   0x0000000000000000       0x38 build/SAMD21_IOT_WG_ICM42688/debug/_ext/26920679/dsp_lsup_distance.o
 .ARM.attributes
                0x0000000000000000       0x2c build/SAMD21_IOT_WG_ICM42688/debug/_ext/26920679/dsp_lsup_distance.o
 .text          0x0000000000000000      0x218 build/SAMD21_IOT_WG_ICM42688/debug/_ext/26920679/fftr.o
 .data          0x0000000000000000        0x0 build/SAMD21_IOT_WG_ICM42688/debug/_ext/26920679/fftr.o
 .bss           0x0000000000000000        0x0 build/SAMD21_IOT_WG_ICM42688/debug/_ext/26920679/fftr.o
 .rodata        0x0000000000000000      0x400 build/SAMD21_IOT_WG_ICM42688/debug/_ext/26920679/fftr.o
 .debug_info    0x0000000000000000      0x697 build/SAMD21_IOT_WG_ICM42688/debug/_ext/26920679/fftr.o
 .debug_abbrev  0x0000000000000000      0x202 build/SAMD21_IOT_WG_ICM42688/debug/_ext/26920679/fftr.o
 .debug_loc     0x0000000000000000      0x69c build/SAMD21_IOT_WG_ICM42688/debug/_ext/26920679/fftr.o
 .debug_aranges
                0x0000000000000000       0x20 build/SAMD21_IOT_WG_ICM42688/debug/_ext/26920679/fftr.o
 .debug_ranges  0x0000000000000000      0x1c0 build/SAMD21_IOT_WG_ICM42688/debug/_ext/26920679/fftr.o
 .debug_line    0x0000000000000000      0x34c build/SAMD21_IOT_WG_ICM42688/debug/_ext/26920679/fftr.o
 .debug_str     0x0000000000000000      0x3f1 build/SAMD21_IOT_WG_ICM42688/debug/_ext/26920679/fftr.o
 .comment       0x0000000000000000       0x2c build/SAMD21_IOT_WG_ICM42688/debug/_ext/26920679/fftr.o
 .debug_frame   0x0000000000000000       0x4c build/SAMD21_IOT_WG_ICM42688/debug/_ext/26920679/fftr.o
 .ARM.attributes
                0x0000000000000000       0x2c build/SAMD21_IOT_WG_ICM42688/debug/_ext/26920679/fftr.o
 .text          0x0000000000000000      0x1c4 build/SAMD21_IOT_WG_ICM42688/debug/_ext/26920679/fftr_utils.o
 .data          0x0000000000000000        0x0 build/SAMD21_IOT_WG_ICM42688/debug/_ext/26920679/fftr_utils.o
 .bss           0x0000000000000000        0x2 build/SAMD21_IOT_WG_ICM42688/debug/_ext/26920679/fftr_utils.o
 .debug_info    0x0000000000000000      0x56e build/SAMD21_IOT_WG_ICM42688/debug/_ext/26920679/fftr_utils.o
 .debug_abbrev  0x0000000000000000      0x1b1 build/SAMD21_IOT_WG_ICM42688/debug/_ext/26920679/fftr_utils.o
 .debug_loc     0x0000000000000000      0x497 build/SAMD21_IOT_WG_ICM42688/debug/_ext/26920679/fftr_utils.o
 .debug_aranges
                0x0000000000000000       0x20 build/SAMD21_IOT_WG_ICM42688/debug/_ext/26920679/fftr_utils.o
 .debug_line    0x0000000000000000      0x2e5 build/SAMD21_IOT_WG_ICM42688/debug/_ext/26920679/fftr_utils.o
 .debug_str     0x0000000000000000      0x3c7 build/SAMD21_IOT_WG_ICM42688/debug/_ext/26920679/fftr_utils.o
 .comment       0x0000000000000000       0x2c build/SAMD21_IOT_WG_ICM42688/debug/_ext/26920679/fftr_utils.o
 .debug_frame   0x0000000000000000       0xb4 build/SAMD21_IOT_WG_ICM42688/debug/_ext/26920679/fftr_utils.o
 .ARM.attributes
                0x0000000000000000       0x2c build/SAMD21_IOT_WG_ICM42688/debug/_ext/26920679/fftr_utils.o
 .data          0x0000000000000000        0x0 build/SAMD21_IOT_WG_ICM42688/debug/_ext/26920679/fg_area_absolute_area_high_frequency.o
 .bss           0x0000000000000000        0x0 build/SAMD21_IOT_WG_ICM42688/debug/_ext/26920679/fg_area_absolute_area_high_frequency.o
 .data          0x0000000000000000        0x0 build/SAMD21_IOT_WG_ICM42688/debug/_ext/26920679/fg_area_total_area_low_frequency.o
 .bss           0x0000000000000000        0x0 build/SAMD21_IOT_WG_ICM42688/debug/_ext/26920679/fg_area_total_area_low_frequency.o
 .data          0x0000000000000000        0x0 build/SAMD21_IOT_WG_ICM42688/debug/_ext/26920679/fg_cross_p2p_difference.o
 .bss           0x0000000000000000        0x0 build/SAMD21_IOT_WG_ICM42688/debug/_ext/26920679/fg_cross_p2p_difference.o
 .data          0x0000000000000000        0x0 build/SAMD21_IOT_WG_ICM42688/debug/_ext/26920679/fg_cross_peak_location_difference.o
 .bss           0x0000000000000000        0x0 build/SAMD21_IOT_WG_ICM42688/debug/_ext/26920679/fg_cross_peak_location_difference.o
 .data          0x0000000000000000        0x0 build/SAMD21_IOT_WG_ICM42688/debug/_ext/26920679/fg_stats_abs_mean.o
 .bss           0x0000000000000000        0x0 build/SAMD21_IOT_WG_ICM42688/debug/_ext/26920679/fg_stats_abs_mean.o
 .data          0x0000000000000000        0x0 build/SAMD21_IOT_WG_ICM42688/debug/_ext/26920679/fg_stats_pct075.o
 .bss           0x0000000000000000        0x0 build/SAMD21_IOT_WG_ICM42688/debug/_ext/26920679/fg_stats_pct075.o
 .data          0x0000000000000000        0x0 build/SAMD21_IOT_WG_ICM42688/debug/_ext/26920679/fg_stats_skewness.o
 .bss           0x0000000000000000        0x0 build/SAMD21_IOT_WG_ICM42688/debug/_ext/26920679/fg_stats_skewness.o
 .text          0x0000000000000000       0x90 build/SAMD21_IOT_WG_ICM42688/debug/_ext/26920679/fixlog.o
 .data          0x0000000000000000        0x0 build/SAMD21_IOT_WG_ICM42688/debug/_ext/26920679/fixlog.o
 .bss           0x0000000000000000        0x0 build/SAMD21_IOT_WG_ICM42688/debug/_ext/26920679/fixlog.o
 .rodata        0x0000000000000000      0x6c0 build/SAMD21_IOT_WG_ICM42688/debug/_ext/26920679/fixlog.o
 .debug_info    0x0000000000000000      0x2b2 build/SAMD21_IOT_WG_ICM42688/debug/_ext/26920679/fixlog.o
 .debug_abbrev  0x0000000000000000      0x1f1 build/SAMD21_IOT_WG_ICM42688/debug/_ext/26920679/fixlog.o
 .debug_loc     0x0000000000000000      0x1f9 build/SAMD21_IOT_WG_ICM42688/debug/_ext/26920679/fixlog.o
 .debug_aranges
                0x0000000000000000       0x20 build/SAMD21_IOT_WG_ICM42688/debug/_ext/26920679/fixlog.o
 .debug_line    0x0000000000000000      0x187 build/SAMD21_IOT_WG_ICM42688/debug/_ext/26920679/fixlog.o
 .debug_str     0x0000000000000000      0x315 build/SAMD21_IOT_WG_ICM42688/debug/_ext/26920679/fixlog.o
 .comment       0x0000000000000000       0x2c build/SAMD21_IOT_WG_ICM42688/debug/_ext/26920679/fixlog.o
 .debug_frame   0x0000000000000000       0x70 build/SAMD21_IOT_WG_ICM42688/debug/_ext/26920679/fixlog.o
 .ARM.attributes
                0x0000000000000000       0x2c build/SAMD21_IOT_WG_ICM42688/debug/_ext/26920679/fixlog.o
 .text          0x0000000000000000      0x4b0 build/SAMD21_IOT_WG_ICM42688/debug/_ext/26920679/imfcc.o
 .data          0x0000000000000000        0x0 build/SAMD21_IOT_WG_ICM42688/debug/_ext/26920679/imfcc.o
 .bss           0x0000000000000000        0x0 build/SAMD21_IOT_WG_ICM42688/debug/_ext/26920679/imfcc.o
 .rodata        0x0000000000000000      0x9d4 build/SAMD21_IOT_WG_ICM42688/debug/_ext/26920679/imfcc.o
 .debug_info    0x0000000000000000      0x9ce build/SAMD21_IOT_WG_ICM42688/debug/_ext/26920679/imfcc.o
 .debug_abbrev  0x0000000000000000      0x28e build/SAMD21_IOT_WG_ICM42688/debug/_ext/26920679/imfcc.o
 .debug_loc     0x0000000000000000      0xea8 build/SAMD21_IOT_WG_ICM42688/debug/_ext/26920679/imfcc.o
 .debug_aranges
                0x0000000000000000       0x20 build/SAMD21_IOT_WG_ICM42688/debug/_ext/26920679/imfcc.o
 .debug_ranges  0x0000000000000000       0x98 build/SAMD21_IOT_WG_ICM42688/debug/_ext/26920679/imfcc.o
 .debug_line    0x0000000000000000      0x51d build/SAMD21_IOT_WG_ICM42688/debug/_ext/26920679/imfcc.o
 .debug_str     0x0000000000000000      0x499 build/SAMD21_IOT_WG_ICM42688/debug/_ext/26920679/imfcc.o
 .comment       0x0000000000000000       0x2c build/SAMD21_IOT_WG_ICM42688/debug/_ext/26920679/imfcc.o
 .debug_frame   0x0000000000000000      0x110 build/SAMD21_IOT_WG_ICM42688/debug/_ext/26920679/imfcc.o
 .ARM.attributes
                0x0000000000000000       0x2c build/SAMD21_IOT_WG_ICM42688/debug/_ext/26920679/imfcc.o
 .data          0x0000000000000000        0x0 build/SAMD21_IOT_WG_ICM42688/debug/_ext/26920679/kb_output.o
 .bss           0x0000000000000000        0x0 build/SAMD21_IOT_WG_ICM42688/debug/_ext/26920679/kb_output.o
 .text          0x0000000000000000      0x3d4 build/SAMD21_IOT_WG_ICM42688/debug/_ext/26920679/kb_post_processing.o
 .data          0x0000000000000000        0x0 build/SAMD21_IOT_WG_ICM42688/debug/_ext/26920679/kb_post_processing.o
 .bss           0x0000000000000000        0x0 build/SAMD21_IOT_WG_ICM42688/debug/_ext/26920679/kb_post_processing.o
 .debug_info    0x0000000000000000      0xb33 build/SAMD21_IOT_WG_ICM42688/debug/_ext/26920679/kb_post_processing.o
 .debug_abbrev  0x0000000000000000      0x29b build/SAMD21_IOT_WG_ICM42688/debug/_ext/26920679/kb_post_processing.o
 .debug_loc     0x0000000000000000      0xfe1 build/SAMD21_IOT_WG_ICM42688/debug/_ext/26920679/kb_post_processing.o
 .debug_aranges
                0x0000000000000000       0x20 build/SAMD21_IOT_WG_ICM42688/debug/_ext/26920679/kb_post_processing.o
 .debug_ranges  0x0000000000000000      0x210 build/SAMD21_IOT_WG_ICM42688/debug/_ext/26920679/kb_post_processing.o
 .debug_line    0x0000000000000000      0x5e8 build/SAMD21_IOT_WG_ICM42688/debug/_ext/26920679/kb_post_processing.o
 .debug_str     0x0000000000000000      0x43c build/SAMD21_IOT_WG_ICM42688/debug/_ext/26920679/kb_post_processing.o
 .comment       0x0000000000000000       0x2c build/SAMD21_IOT_WG_ICM42688/debug/_ext/26920679/kb_post_processing.o
 .debug_frame   0x0000000000000000      0x1ac build/SAMD21_IOT_WG_ICM42688/debug/_ext/26920679/kb_post_processing.o
 .ARM.attributes
                0x0000000000000000       0x2c build/SAMD21_IOT_WG_ICM42688/debug/_ext/26920679/kb_post_processing.o
 .text          0x0000000000000000      0x1ec build/SAMD21_IOT_WG_ICM42688/debug/_ext/26920679/max_min_high_low_freq.o
 .data          0x0000000000000000        0x0 build/SAMD21_IOT_WG_ICM42688/debug/_ext/26920679/max_min_high_low_freq.o
 .bss           0x0000000000000000        0x0 build/SAMD21_IOT_WG_ICM42688/debug/_ext/26920679/max_min_high_low_freq.o
 .debug_info    0x0000000000000000      0x324 build/SAMD21_IOT_WG_ICM42688/debug/_ext/26920679/max_min_high_low_freq.o
 .debug_abbrev  0x0000000000000000      0x144 build/SAMD21_IOT_WG_ICM42688/debug/_ext/26920679/max_min_high_low_freq.o
 .debug_loc     0x0000000000000000      0x487 build/SAMD21_IOT_WG_ICM42688/debug/_ext/26920679/max_min_high_low_freq.o
 .debug_aranges
                0x0000000000000000       0x20 build/SAMD21_IOT_WG_ICM42688/debug/_ext/26920679/max_min_high_low_freq.o
 .debug_ranges  0x0000000000000000       0x18 build/SAMD21_IOT_WG_ICM42688/debug/_ext/26920679/max_min_high_low_freq.o
 .debug_line    0x0000000000000000      0x2af build/SAMD21_IOT_WG_ICM42688/debug/_ext/26920679/max_min_high_low_freq.o
 .debug_str     0x0000000000000000      0x383 build/SAMD21_IOT_WG_ICM42688/debug/_ext/26920679/max_min_high_low_freq.o
 .comment       0x0000000000000000       0x2c build/SAMD21_IOT_WG_ICM42688/debug/_ext/26920679/max_min_high_low_freq.o
 .debug_frame   0x0000000000000000       0x3c build/SAMD21_IOT_WG_ICM42688/debug/_ext/26920679/max_min_high_low_freq.o
 .ARM.attributes
                0x0000000000000000       0x2c build/SAMD21_IOT_WG_ICM42688/debug/_ext/26920679/max_min_high_low_freq.o
 .data          0x0000000000000000        0x0 build/SAMD21_IOT_WG_ICM42688/debug/_ext/26920679/ma_symmetric.o
 .bss           0x0000000000000000        0x0 build/SAMD21_IOT_WG_ICM42688/debug/_ext/26920679/ma_symmetric.o
 .data          0x0000000000000000        0x0 build/SAMD21_IOT_WG_ICM42688/debug/_ext/26920679/mean.o
 .bss           0x0000000000000000        0x0 build/SAMD21_IOT_WG_ICM42688/debug/_ext/26920679/mean.o
 .text          0x0000000000000000      0x154 build/SAMD21_IOT_WG_ICM42688/debug/_ext/26920679/ratio_diff_impl.o
 .data          0x0000000000000000        0x0 build/SAMD21_IOT_WG_ICM42688/debug/_ext/26920679/ratio_diff_impl.o
 .bss           0x0000000000000000        0x0 build/SAMD21_IOT_WG_ICM42688/debug/_ext/26920679/ratio_diff_impl.o
 .debug_info    0x0000000000000000      0x265 build/SAMD21_IOT_WG_ICM42688/debug/_ext/26920679/ratio_diff_impl.o
 .debug_abbrev  0x0000000000000000      0x101 build/SAMD21_IOT_WG_ICM42688/debug/_ext/26920679/ratio_diff_impl.o
 .debug_loc     0x0000000000000000      0x414 build/SAMD21_IOT_WG_ICM42688/debug/_ext/26920679/ratio_diff_impl.o
 .debug_aranges
                0x0000000000000000       0x20 build/SAMD21_IOT_WG_ICM42688/debug/_ext/26920679/ratio_diff_impl.o
 .debug_line    0x0000000000000000      0x1e1 build/SAMD21_IOT_WG_ICM42688/debug/_ext/26920679/ratio_diff_impl.o
 .debug_str     0x0000000000000000      0x344 build/SAMD21_IOT_WG_ICM42688/debug/_ext/26920679/ratio_diff_impl.o
 .comment       0x0000000000000000       0x2c build/SAMD21_IOT_WG_ICM42688/debug/_ext/26920679/ratio_diff_impl.o
 .debug_frame   0x0000000000000000       0x3c build/SAMD21_IOT_WG_ICM42688/debug/_ext/26920679/ratio_diff_impl.o
 .ARM.attributes
                0x0000000000000000       0x2c build/SAMD21_IOT_WG_ICM42688/debug/_ext/26920679/ratio_diff_impl.o
 .data          0x0000000000000000        0x0 build/SAMD21_IOT_WG_ICM42688/debug/_ext/26920679/rb.o
 .bss           0x0000000000000000        0x0 build/SAMD21_IOT_WG_ICM42688/debug/_ext/26920679/rb.o
 .data          0x0000000000000000        0x0 build/SAMD21_IOT_WG_ICM42688/debug/_ext/26920679/save_sensor_data.o
 .bss           0x0000000000000000        0x0 build/SAMD21_IOT_WG_ICM42688/debug/_ext/26920679/save_sensor_data.o
 .text          0x0000000000000000       0x58 build/SAMD21_IOT_WG_ICM42688/debug/_ext/26920679/sf_downsample_by_averaging.o
 .data          0x0000000000000000        0x0 build/SAMD21_IOT_WG_ICM42688/debug/_ext/26920679/sf_downsample_by_averaging.o
 .bss           0x0000000000000000        0x0 build/SAMD21_IOT_WG_ICM42688/debug/_ext/26920679/sf_downsample_by_averaging.o
 .debug_info    0x0000000000000000      0x2c3 build/SAMD21_IOT_WG_ICM42688/debug/_ext/26920679/sf_downsample_by_averaging.o
 .debug_abbrev  0x0000000000000000      0x10e build/SAMD21_IOT_WG_ICM42688/debug/_ext/26920679/sf_downsample_by_averaging.o
 .debug_loc     0x0000000000000000      0x189 build/SAMD21_IOT_WG_ICM42688/debug/_ext/26920679/sf_downsample_by_averaging.o
 .debug_aranges
                0x0000000000000000       0x20 build/SAMD21_IOT_WG_ICM42688/debug/_ext/26920679/sf_downsample_by_averaging.o
 .debug_line    0x0000000000000000      0x135 build/SAMD21_IOT_WG_ICM42688/debug/_ext/26920679/sf_downsample_by_averaging.o
 .debug_str     0x0000000000000000      0x383 build/SAMD21_IOT_WG_ICM42688/debug/_ext/26920679/sf_downsample_by_averaging.o
 .comment       0x0000000000000000       0x2c build/SAMD21_IOT_WG_ICM42688/debug/_ext/26920679/sf_downsample_by_averaging.o
 .debug_frame   0x0000000000000000       0x34 build/SAMD21_IOT_WG_ICM42688/debug/_ext/26920679/sf_downsample_by_averaging.o
 .ARM.attributes
                0x0000000000000000       0x2c build/SAMD21_IOT_WG_ICM42688/debug/_ext/26920679/sf_downsample_by_averaging.o
 .text          0x0000000000000000       0x20 build/SAMD21_IOT_WG_ICM42688/debug/_ext/26920679/sf_downsample_by_decimation.o
 .data          0x0000000000000000        0x0 build/SAMD21_IOT_WG_ICM42688/debug/_ext/26920679/sf_downsample_by_decimation.o
 .bss           0x0000000000000000        0x0 build/SAMD21_IOT_WG_ICM42688/debug/_ext/26920679/sf_downsample_by_decimation.o
 .debug_info    0x0000000000000000      0x210 build/SAMD21_IOT_WG_ICM42688/debug/_ext/26920679/sf_downsample_by_decimation.o
 .debug_abbrev  0x0000000000000000       0xb7 build/SAMD21_IOT_WG_ICM42688/debug/_ext/26920679/sf_downsample_by_decimation.o
 .debug_loc     0x0000000000000000       0xb2 build/SAMD21_IOT_WG_ICM42688/debug/_ext/26920679/sf_downsample_by_decimation.o
 .debug_aranges
                0x0000000000000000       0x20 build/SAMD21_IOT_WG_ICM42688/debug/_ext/26920679/sf_downsample_by_decimation.o
 .debug_line    0x0000000000000000      0x108 build/SAMD21_IOT_WG_ICM42688/debug/_ext/26920679/sf_downsample_by_decimation.o
 .debug_str     0x0000000000000000      0x35d build/SAMD21_IOT_WG_ICM42688/debug/_ext/26920679/sf_downsample_by_decimation.o
 .comment       0x0000000000000000       0x2c build/SAMD21_IOT_WG_ICM42688/debug/_ext/26920679/sf_downsample_by_decimation.o
 .debug_frame   0x0000000000000000       0x20 build/SAMD21_IOT_WG_ICM42688/debug/_ext/26920679/sf_downsample_by_decimation.o
 .ARM.attributes
                0x0000000000000000       0x2c build/SAMD21_IOT_WG_ICM42688/debug/_ext/26920679/sf_downsample_by_decimation.o
 .data          0x0000000000000000        0x0 build/SAMD21_IOT_WG_ICM42688/debug/_ext/26920679/sg_windowing.o
 .bss           0x0000000000000000        0x0 build/SAMD21_IOT_WG_ICM42688/debug/_ext/26920679/sg_windowing.o
 .data          0x0000000000000000        0x0 build/SAMD21_IOT_WG_ICM42688/debug/_ext/26920679/sortarray.o
 .bss           0x0000000000000000        0x0 build/SAMD21_IOT_WG_ICM42688/debug/_ext/26920679/sortarray.o
 .data          0x0000000000000000        0x0 build/SAMD21_IOT_WG_ICM42688/debug/_ext/26920679/sorted_copy.o
 .bss           0x0000000000000000        0x0 build/SAMD21_IOT_WG_ICM42688/debug/_ext/26920679/sorted_copy.o
 .data          0x0000000000000000        0x0 build/SAMD21_IOT_WG_ICM42688/debug/_ext/26920679/stats_percentile_presorted.o
 .bss           0x0000000000000000        0x0 build/SAMD21_IOT_WG_ICM42688/debug/_ext/26920679/stats_percentile_presorted.o
 .text          0x0000000000000000       0x50 build/SAMD21_IOT_WG_ICM42688/debug/_ext/26920679/stat_mean.o
 .data          0x0000000000000000        0x0 build/SAMD21_IOT_WG_ICM42688/debug/_ext/26920679/stat_mean.o
 .bss           0x0000000000000000        0x0 build/SAMD21_IOT_WG_ICM42688/debug/_ext/26920679/stat_mean.o
 .debug_info    0x0000000000000000      0x1dd build/SAMD21_IOT_WG_ICM42688/debug/_ext/26920679/stat_mean.o
 .debug_abbrev  0x0000000000000000       0xdf build/SAMD21_IOT_WG_ICM42688/debug/_ext/26920679/stat_mean.o
 .debug_loc     0x0000000000000000      0x168 build/SAMD21_IOT_WG_ICM42688/debug/_ext/26920679/stat_mean.o
 .debug_aranges
                0x0000000000000000       0x20 build/SAMD21_IOT_WG_ICM42688/debug/_ext/26920679/stat_mean.o
 .debug_line    0x0000000000000000       0xfc build/SAMD21_IOT_WG_ICM42688/debug/_ext/26920679/stat_mean.o
 .debug_str     0x0000000000000000      0x306 build/SAMD21_IOT_WG_ICM42688/debug/_ext/26920679/stat_mean.o
 .comment       0x0000000000000000       0x2c build/SAMD21_IOT_WG_ICM42688/debug/_ext/26920679/stat_mean.o
 .debug_frame   0x0000000000000000       0x38 build/SAMD21_IOT_WG_ICM42688/debug/_ext/26920679/stat_mean.o
 .ARM.attributes
                0x0000000000000000       0x2c build/SAMD21_IOT_WG_ICM42688/debug/_ext/26920679/stat_mean.o
 .data          0x0000000000000000        0x0 build/SAMD21_IOT_WG_ICM42688/debug/_ext/26920679/stat_moment.o
 .bss           0x0000000000000000        0x0 build/SAMD21_IOT_WG_ICM42688/debug/_ext/26920679/stat_moment.o
 .text          0x0000000000000000      0x170 build/SAMD21_IOT_WG_ICM42688/debug/_ext/26920679/std.o
 .data          0x0000000000000000        0x0 build/SAMD21_IOT_WG_ICM42688/debug/_ext/26920679/std.o
 .bss           0x0000000000000000        0x0 build/SAMD21_IOT_WG_ICM42688/debug/_ext/26920679/std.o
 .debug_info    0x0000000000000000      0x46d build/SAMD21_IOT_WG_ICM42688/debug/_ext/26920679/std.o
 .debug_abbrev  0x0000000000000000      0x154 build/SAMD21_IOT_WG_ICM42688/debug/_ext/26920679/std.o
 .debug_loc     0x0000000000000000      0x56c build/SAMD21_IOT_WG_ICM42688/debug/_ext/26920679/std.o
 .debug_aranges
                0x0000000000000000       0x20 build/SAMD21_IOT_WG_ICM42688/debug/_ext/26920679/std.o
 .debug_line    0x0000000000000000      0x21e build/SAMD21_IOT_WG_ICM42688/debug/_ext/26920679/std.o
 .debug_str     0x0000000000000000      0x343 build/SAMD21_IOT_WG_ICM42688/debug/_ext/26920679/std.o
 .comment       0x0000000000000000       0x2c build/SAMD21_IOT_WG_ICM42688/debug/_ext/26920679/std.o
 .debug_frame   0x0000000000000000       0xa4 build/SAMD21_IOT_WG_ICM42688/debug/_ext/26920679/std.o
 .ARM.attributes
                0x0000000000000000       0x2c build/SAMD21_IOT_WG_ICM42688/debug/_ext/26920679/std.o
 .text          0x0000000000000000       0x3c build/SAMD21_IOT_WG_ICM42688/debug/_ext/26920679/st_absolute_average.o
 .data          0x0000000000000000        0x0 build/SAMD21_IOT_WG_ICM42688/debug/_ext/26920679/st_absolute_average.o
 .bss           0x0000000000000000        0x0 build/SAMD21_IOT_WG_ICM42688/debug/_ext/26920679/st_absolute_average.o
 .debug_info    0x0000000000000000      0x18c build/SAMD21_IOT_WG_ICM42688/debug/_ext/26920679/st_absolute_average.o
 .debug_abbrev  0x0000000000000000       0xcb build/SAMD21_IOT_WG_ICM42688/debug/_ext/26920679/st_absolute_average.o
 .debug_loc     0x0000000000000000      0x167 build/SAMD21_IOT_WG_ICM42688/debug/_ext/26920679/st_absolute_average.o
 .debug_aranges
                0x0000000000000000       0x20 build/SAMD21_IOT_WG_ICM42688/debug/_ext/26920679/st_absolute_average.o
 .debug_line    0x0000000000000000      0x10a build/SAMD21_IOT_WG_ICM42688/debug/_ext/26920679/st_absolute_average.o
 .debug_str     0x0000000000000000      0x307 build/SAMD21_IOT_WG_ICM42688/debug/_ext/26920679/st_absolute_average.o
 .comment       0x0000000000000000       0x2c build/SAMD21_IOT_WG_ICM42688/debug/_ext/26920679/st_absolute_average.o
 .debug_frame   0x0000000000000000       0x30 build/SAMD21_IOT_WG_ICM42688/debug/_ext/26920679/st_absolute_average.o
 .ARM.attributes
                0x0000000000000000       0x2c build/SAMD21_IOT_WG_ICM42688/debug/_ext/26920679/st_absolute_average.o
 .text          0x0000000000000000       0x38 build/SAMD21_IOT_WG_ICM42688/debug/_ext/26920679/st_average.o
 .data          0x0000000000000000        0x0 build/SAMD21_IOT_WG_ICM42688/debug/_ext/26920679/st_average.o
 .bss           0x0000000000000000        0x0 build/SAMD21_IOT_WG_ICM42688/debug/_ext/26920679/st_average.o
 .debug_info    0x0000000000000000      0x18c build/SAMD21_IOT_WG_ICM42688/debug/_ext/26920679/st_average.o
 .debug_abbrev  0x0000000000000000       0xcb build/SAMD21_IOT_WG_ICM42688/debug/_ext/26920679/st_average.o
 .debug_loc     0x0000000000000000      0x167 build/SAMD21_IOT_WG_ICM42688/debug/_ext/26920679/st_average.o
 .debug_aranges
                0x0000000000000000       0x20 build/SAMD21_IOT_WG_ICM42688/debug/_ext/26920679/st_average.o
 .debug_line    0x0000000000000000       0xfe build/SAMD21_IOT_WG_ICM42688/debug/_ext/26920679/st_average.o
 .debug_str     0x0000000000000000      0x2fa build/SAMD21_IOT_WG_ICM42688/debug/_ext/26920679/st_average.o
 .comment       0x0000000000000000       0x2c build/SAMD21_IOT_WG_ICM42688/debug/_ext/26920679/st_average.o
 .debug_frame   0x0000000000000000       0x30 build/SAMD21_IOT_WG_ICM42688/debug/_ext/26920679/st_average.o
 .ARM.attributes
                0x0000000000000000       0x2c build/SAMD21_IOT_WG_ICM42688/debug/_ext/26920679/st_average.o
 .text          0x0000000000000000       0x98 build/SAMD21_IOT_WG_ICM42688/debug/_ext/26920679/st_high_pass_filter.o
 .data          0x0000000000000000        0x0 build/SAMD21_IOT_WG_ICM42688/debug/_ext/26920679/st_high_pass_filter.o
 .bss           0x0000000000000000        0x0 build/SAMD21_IOT_WG_ICM42688/debug/_ext/26920679/st_high_pass_filter.o
 .debug_info    0x0000000000000000      0x2a3 build/SAMD21_IOT_WG_ICM42688/debug/_ext/26920679/st_high_pass_filter.o
 .debug_abbrev  0x0000000000000000       0xed build/SAMD21_IOT_WG_ICM42688/debug/_ext/26920679/st_high_pass_filter.o
 .debug_loc     0x0000000000000000      0x1f4 build/SAMD21_IOT_WG_ICM42688/debug/_ext/26920679/st_high_pass_filter.o
 .debug_aranges
                0x0000000000000000       0x20 build/SAMD21_IOT_WG_ICM42688/debug/_ext/26920679/st_high_pass_filter.o
 .debug_line    0x0000000000000000      0x154 build/SAMD21_IOT_WG_ICM42688/debug/_ext/26920679/st_high_pass_filter.o
 .debug_str     0x0000000000000000      0x357 build/SAMD21_IOT_WG_ICM42688/debug/_ext/26920679/st_high_pass_filter.o
 .comment       0x0000000000000000       0x2c build/SAMD21_IOT_WG_ICM42688/debug/_ext/26920679/st_high_pass_filter.o
 .debug_frame   0x0000000000000000       0x38 build/SAMD21_IOT_WG_ICM42688/debug/_ext/26920679/st_high_pass_filter.o
 .ARM.attributes
                0x0000000000000000       0x2c build/SAMD21_IOT_WG_ICM42688/debug/_ext/26920679/st_high_pass_filter.o
 .text          0x0000000000000000       0xf4 build/SAMD21_IOT_WG_ICM42688/debug/_ext/26920679/st_moving_average.o
 .data          0x0000000000000000        0x0 build/SAMD21_IOT_WG_ICM42688/debug/_ext/26920679/st_moving_average.o
 .bss           0x0000000000000000        0x0 build/SAMD21_IOT_WG_ICM42688/debug/_ext/26920679/st_moving_average.o
 .debug_info    0x0000000000000000      0x4a7 build/SAMD21_IOT_WG_ICM42688/debug/_ext/26920679/st_moving_average.o
 .debug_abbrev  0x0000000000000000      0x1cf build/SAMD21_IOT_WG_ICM42688/debug/_ext/26920679/st_moving_average.o
 .debug_loc     0x0000000000000000      0x499 build/SAMD21_IOT_WG_ICM42688/debug/_ext/26920679/st_moving_average.o
 .debug_aranges
                0x0000000000000000       0x20 build/SAMD21_IOT_WG_ICM42688/debug/_ext/26920679/st_moving_average.o
 .debug_ranges  0x0000000000000000       0x78 build/SAMD21_IOT_WG_ICM42688/debug/_ext/26920679/st_moving_average.o
 .debug_line    0x0000000000000000      0x1db build/SAMD21_IOT_WG_ICM42688/debug/_ext/26920679/st_moving_average.o
 .debug_str     0x0000000000000000      0x39f build/SAMD21_IOT_WG_ICM42688/debug/_ext/26920679/st_moving_average.o
 .comment       0x0000000000000000       0x2c build/SAMD21_IOT_WG_ICM42688/debug/_ext/26920679/st_moving_average.o
 .debug_frame   0x0000000000000000       0x74 build/SAMD21_IOT_WG_ICM42688/debug/_ext/26920679/st_moving_average.o
 .ARM.attributes
                0x0000000000000000       0x2c build/SAMD21_IOT_WG_ICM42688/debug/_ext/26920679/st_moving_average.o
 .text          0x0000000000000000       0x4c build/SAMD21_IOT_WG_ICM42688/debug/_ext/26920679/sum.o
 .data          0x0000000000000000        0x0 build/SAMD21_IOT_WG_ICM42688/debug/_ext/26920679/sum.o
 .bss           0x0000000000000000        0x0 build/SAMD21_IOT_WG_ICM42688/debug/_ext/26920679/sum.o
 .debug_info    0x0000000000000000      0x2a1 build/SAMD21_IOT_WG_ICM42688/debug/_ext/26920679/sum.o
 .debug_abbrev  0x0000000000000000      0x12a build/SAMD21_IOT_WG_ICM42688/debug/_ext/26920679/sum.o
 .debug_loc     0x0000000000000000      0x2f4 build/SAMD21_IOT_WG_ICM42688/debug/_ext/26920679/sum.o
 .debug_aranges
                0x0000000000000000       0x20 build/SAMD21_IOT_WG_ICM42688/debug/_ext/26920679/sum.o
 .debug_ranges  0x0000000000000000       0x20 build/SAMD21_IOT_WG_ICM42688/debug/_ext/26920679/sum.o
 .debug_line    0x0000000000000000      0x132 build/SAMD21_IOT_WG_ICM42688/debug/_ext/26920679/sum.o
 .debug_str     0x0000000000000000      0x300 build/SAMD21_IOT_WG_ICM42688/debug/_ext/26920679/sum.o
 .comment       0x0000000000000000       0x2c build/SAMD21_IOT_WG_ICM42688/debug/_ext/26920679/sum.o
 .debug_frame   0x0000000000000000       0x48 build/SAMD21_IOT_WG_ICM42688/debug/_ext/26920679/sum.o
 .ARM.attributes
                0x0000000000000000       0x2c build/SAMD21_IOT_WG_ICM42688/debug/_ext/26920679/sum.o
 .data          0x0000000000000000        0x0 build/SAMD21_IOT_WG_ICM42688/debug/_ext/26920679/tree_ensemble.o
 .text          0x0000000000000000        0x0 build/SAMD21_IOT_WG_ICM42688/debug/_ext/26920679/tree_ensemble_trained_models.o
 .bss           0x0000000000000000        0x0 build/SAMD21_IOT_WG_ICM42688/debug/_ext/26920679/tree_ensemble_trained_models.o
 .data          0x0000000000000000        0x0 build/SAMD21_IOT_WG_ICM42688/debug/_ext/26920679/tr_min_max_scale.o
 .bss           0x0000000000000000        0x0 build/SAMD21_IOT_WG_ICM42688/debug/_ext/26920679/tr_min_max_scale.o
 .data          0x0000000000000000        0x0 build/SAMD21_IOT_WG_ICM42688/debug/_ext/26920679/tr_sensor_magnitude.o
 .bss           0x0000000000000000        0x0 build/SAMD21_IOT_WG_ICM42688/debug/_ext/26920679/tr_sensor_magnitude.o
 .text          0x0000000000000000      0x37c build/SAMD21_IOT_WG_ICM42688/debug/_ext/26920679/utils_array.o
 .data          0x0000000000000000        0x0 build/SAMD21_IOT_WG_ICM42688/debug/_ext/26920679/utils_array.o
 .bss           0x0000000000000000      0x404 build/SAMD21_IOT_WG_ICM42688/debug/_ext/26920679/utils_array.o
 .debug_info    0x0000000000000000      0x57a build/SAMD21_IOT_WG_ICM42688/debug/_ext/26920679/utils_array.o
 .debug_abbrev  0x0000000000000000      0x201 build/SAMD21_IOT_WG_ICM42688/debug/_ext/26920679/utils_array.o
 .debug_loc     0x0000000000000000      0x856 build/SAMD21_IOT_WG_ICM42688/debug/_ext/26920679/utils_array.o
 .debug_aranges
                0x0000000000000000       0x20 build/SAMD21_IOT_WG_ICM42688/debug/_ext/26920679/utils_array.o
 .debug_line    0x0000000000000000      0x3c2 build/SAMD21_IOT_WG_ICM42688/debug/_ext/26920679/utils_array.o
 .debug_str     0x0000000000000000      0x397 build/SAMD21_IOT_WG_ICM42688/debug/_ext/26920679/utils_array.o
 .comment       0x0000000000000000       0x2c build/SAMD21_IOT_WG_ICM42688/debug/_ext/26920679/utils_array.o
 .debug_frame   0x0000000000000000       0xe8 build/SAMD21_IOT_WG_ICM42688/debug/_ext/26920679/utils_array.o
 .ARM.attributes
                0x0000000000000000       0x2c build/SAMD21_IOT_WG_ICM42688/debug/_ext/26920679/utils_array.o
 .text          0x0000000000000000       0x74 build/SAMD21_IOT_WG_ICM42688/debug/_ext/26920679/utils_array_max_uint8.o
 .data          0x0000000000000000        0x0 build/SAMD21_IOT_WG_ICM42688/debug/_ext/26920679/utils_array_max_uint8.o
 .bss           0x0000000000000000        0x0 build/SAMD21_IOT_WG_ICM42688/debug/_ext/26920679/utils_array_max_uint8.o
 .debug_info    0x0000000000000000      0x166 build/SAMD21_IOT_WG_ICM42688/debug/_ext/26920679/utils_array_max_uint8.o
 .debug_abbrev  0x0000000000000000       0xa7 build/SAMD21_IOT_WG_ICM42688/debug/_ext/26920679/utils_array_max_uint8.o
 .debug_loc     0x0000000000000000      0x2f1 build/SAMD21_IOT_WG_ICM42688/debug/_ext/26920679/utils_array_max_uint8.o
 .debug_aranges
                0x0000000000000000       0x20 build/SAMD21_IOT_WG_ICM42688/debug/_ext/26920679/utils_array_max_uint8.o
 .debug_line    0x0000000000000000      0x12e build/SAMD21_IOT_WG_ICM42688/debug/_ext/26920679/utils_array_max_uint8.o
 .debug_str     0x0000000000000000      0x2f4 build/SAMD21_IOT_WG_ICM42688/debug/_ext/26920679/utils_array_max_uint8.o
 .comment       0x0000000000000000       0x2c build/SAMD21_IOT_WG_ICM42688/debug/_ext/26920679/utils_array_max_uint8.o
 .debug_frame   0x0000000000000000       0x34 build/SAMD21_IOT_WG_ICM42688/debug/_ext/26920679/utils_array_max_uint8.o
 .ARM.attributes
                0x0000000000000000       0x2c build/SAMD21_IOT_WG_ICM42688/debug/_ext/26920679/utils_array_max_uint8.o
 .text          0x0000000000000000        0xc build/SAMD21_IOT_WG_ICM42688/debug/_ext/26920679/utils_bitwise_abs_val.o
 .data          0x0000000000000000        0x0 build/SAMD21_IOT_WG_ICM42688/debug/_ext/26920679/utils_bitwise_abs_val.o
 .bss           0x0000000000000000        0x0 build/SAMD21_IOT_WG_ICM42688/debug/_ext/26920679/utils_bitwise_abs_val.o
 .debug_info    0x0000000000000000       0xe7 build/SAMD21_IOT_WG_ICM42688/debug/_ext/26920679/utils_bitwise_abs_val.o
 .debug_abbrev  0x0000000000000000       0x8c build/SAMD21_IOT_WG_ICM42688/debug/_ext/26920679/utils_bitwise_abs_val.o
 .debug_loc     0x0000000000000000       0x3a build/SAMD21_IOT_WG_ICM42688/debug/_ext/26920679/utils_bitwise_abs_val.o
 .debug_aranges
                0x0000000000000000       0x20 build/SAMD21_IOT_WG_ICM42688/debug/_ext/26920679/utils_bitwise_abs_val.o
 .debug_line    0x0000000000000000       0xc9 build/SAMD21_IOT_WG_ICM42688/debug/_ext/26920679/utils_bitwise_abs_val.o
 .debug_str     0x0000000000000000      0x2c7 build/SAMD21_IOT_WG_ICM42688/debug/_ext/26920679/utils_bitwise_abs_val.o
 .comment       0x0000000000000000       0x2c build/SAMD21_IOT_WG_ICM42688/debug/_ext/26920679/utils_bitwise_abs_val.o
 .debug_frame   0x0000000000000000       0x20 build/SAMD21_IOT_WG_ICM42688/debug/_ext/26920679/utils_bitwise_abs_val.o
 .ARM.attributes
                0x0000000000000000       0x2c build/SAMD21_IOT_WG_ICM42688/debug/_ext/26920679/utils_bitwise_abs_val.o
 .text          0x0000000000000000       0x24 build/SAMD21_IOT_WG_ICM42688/debug/_ext/26920679/utils_buffer_absmean.o
 .data          0x0000000000000000        0x0 build/SAMD21_IOT_WG_ICM42688/debug/_ext/26920679/utils_buffer_absmean.o
 .bss           0x0000000000000000        0x0 build/SAMD21_IOT_WG_ICM42688/debug/_ext/26920679/utils_buffer_absmean.o
 .debug_info    0x0000000000000000      0x1f1 build/SAMD21_IOT_WG_ICM42688/debug/_ext/26920679/utils_buffer_absmean.o
 .debug_abbrev  0x0000000000000000       0xce build/SAMD21_IOT_WG_ICM42688/debug/_ext/26920679/utils_buffer_absmean.o
 .debug_loc     0x0000000000000000       0xcd build/SAMD21_IOT_WG_ICM42688/debug/_ext/26920679/utils_buffer_absmean.o
 .debug_aranges
                0x0000000000000000       0x20 build/SAMD21_IOT_WG_ICM42688/debug/_ext/26920679/utils_buffer_absmean.o
 .debug_line    0x0000000000000000       0xf6 build/SAMD21_IOT_WG_ICM42688/debug/_ext/26920679/utils_buffer_absmean.o
 .debug_str     0x0000000000000000      0x339 build/SAMD21_IOT_WG_ICM42688/debug/_ext/26920679/utils_buffer_absmean.o
 .comment       0x0000000000000000       0x2c build/SAMD21_IOT_WG_ICM42688/debug/_ext/26920679/utils_buffer_absmean.o
 .debug_frame   0x0000000000000000       0x2c build/SAMD21_IOT_WG_ICM42688/debug/_ext/26920679/utils_buffer_absmean.o
 .ARM.attributes
                0x0000000000000000       0x2c build/SAMD21_IOT_WG_ICM42688/debug/_ext/26920679/utils_buffer_absmean.o
 .data          0x0000000000000000        0x0 build/SAMD21_IOT_WG_ICM42688/debug/_ext/26920679/utils_buffer_abssum.o
 .bss           0x0000000000000000        0x0 build/SAMD21_IOT_WG_ICM42688/debug/_ext/26920679/utils_buffer_abssum.o
 .text          0x0000000000000000       0x10 build/SAMD21_IOT_WG_ICM42688/debug/_ext/26920679/utils_buffer_abs_max.o
 .data          0x0000000000000000        0x0 build/SAMD21_IOT_WG_ICM42688/debug/_ext/26920679/utils_buffer_abs_max.o
 .bss           0x0000000000000000        0x0 build/SAMD21_IOT_WG_ICM42688/debug/_ext/26920679/utils_buffer_abs_max.o
 .debug_info    0x0000000000000000      0x1e7 build/SAMD21_IOT_WG_ICM42688/debug/_ext/26920679/utils_buffer_abs_max.o
 .debug_abbrev  0x0000000000000000       0xce build/SAMD21_IOT_WG_ICM42688/debug/_ext/26920679/utils_buffer_abs_max.o
 .debug_loc     0x0000000000000000       0xc0 build/SAMD21_IOT_WG_ICM42688/debug/_ext/26920679/utils_buffer_abs_max.o
 .debug_aranges
                0x0000000000000000       0x20 build/SAMD21_IOT_WG_ICM42688/debug/_ext/26920679/utils_buffer_abs_max.o
 .debug_line    0x0000000000000000       0xdd build/SAMD21_IOT_WG_ICM42688/debug/_ext/26920679/utils_buffer_abs_max.o
 .debug_str     0x0000000000000000      0x322 build/SAMD21_IOT_WG_ICM42688/debug/_ext/26920679/utils_buffer_abs_max.o
 .comment       0x0000000000000000       0x2c build/SAMD21_IOT_WG_ICM42688/debug/_ext/26920679/utils_buffer_abs_max.o
 .debug_frame   0x0000000000000000       0x2c build/SAMD21_IOT_WG_ICM42688/debug/_ext/26920679/utils_buffer_abs_max.o
 .ARM.attributes
                0x0000000000000000       0x2c build/SAMD21_IOT_WG_ICM42688/debug/_ext/26920679/utils_buffer_abs_max.o
 .data          0x0000000000000000        0x0 build/SAMD21_IOT_WG_ICM42688/debug/_ext/26920679/utils_buffer_argmax.o
 .bss           0x0000000000000000        0x0 build/SAMD21_IOT_WG_ICM42688/debug/_ext/26920679/utils_buffer_argmax.o
 .text          0x0000000000000000       0x90 build/SAMD21_IOT_WG_ICM42688/debug/_ext/26920679/utils_buffer_autoscale.o
 .data          0x0000000000000000        0x0 build/SAMD21_IOT_WG_ICM42688/debug/_ext/26920679/utils_buffer_autoscale.o
 .bss           0x0000000000000000        0x0 build/SAMD21_IOT_WG_ICM42688/debug/_ext/26920679/utils_buffer_autoscale.o
 .debug_info    0x0000000000000000      0x237 build/SAMD21_IOT_WG_ICM42688/debug/_ext/26920679/utils_buffer_autoscale.o
 .debug_abbrev  0x0000000000000000       0xf4 build/SAMD21_IOT_WG_ICM42688/debug/_ext/26920679/utils_buffer_autoscale.o
 .debug_loc     0x0000000000000000      0x310 build/SAMD21_IOT_WG_ICM42688/debug/_ext/26920679/utils_buffer_autoscale.o
 .debug_aranges
                0x0000000000000000       0x20 build/SAMD21_IOT_WG_ICM42688/debug/_ext/26920679/utils_buffer_autoscale.o
 .debug_line    0x0000000000000000      0x154 build/SAMD21_IOT_WG_ICM42688/debug/_ext/26920679/utils_buffer_autoscale.o
 .debug_str     0x0000000000000000      0x33c build/SAMD21_IOT_WG_ICM42688/debug/_ext/26920679/utils_buffer_autoscale.o
 .comment       0x0000000000000000       0x2c build/SAMD21_IOT_WG_ICM42688/debug/_ext/26920679/utils_buffer_autoscale.o
 .debug_frame   0x0000000000000000       0x34 build/SAMD21_IOT_WG_ICM42688/debug/_ext/26920679/utils_buffer_autoscale.o
 .ARM.attributes
                0x0000000000000000       0x2c build/SAMD21_IOT_WG_ICM42688/debug/_ext/26920679/utils_buffer_autoscale.o
 .data          0x0000000000000000        0x0 build/SAMD21_IOT_WG_ICM42688/debug/_ext/26920679/utils_buffer_cumsum.o
 .bss           0x0000000000000000        0x0 build/SAMD21_IOT_WG_ICM42688/debug/_ext/26920679/utils_buffer_cumsum.o
 .text          0x0000000000000000       0x7c build/SAMD21_IOT_WG_ICM42688/debug/_ext/26920679/utils_buffer_max.o
 .data          0x0000000000000000        0x0 build/SAMD21_IOT_WG_ICM42688/debug/_ext/26920679/utils_buffer_max.o
 .bss           0x0000000000000000        0x0 build/SAMD21_IOT_WG_ICM42688/debug/_ext/26920679/utils_buffer_max.o
 .debug_info    0x0000000000000000      0x330 build/SAMD21_IOT_WG_ICM42688/debug/_ext/26920679/utils_buffer_max.o
 .debug_abbrev  0x0000000000000000      0x144 build/SAMD21_IOT_WG_ICM42688/debug/_ext/26920679/utils_buffer_max.o
 .debug_loc     0x0000000000000000      0x360 build/SAMD21_IOT_WG_ICM42688/debug/_ext/26920679/utils_buffer_max.o
 .debug_aranges
                0x0000000000000000       0x20 build/SAMD21_IOT_WG_ICM42688/debug/_ext/26920679/utils_buffer_max.o
 .debug_ranges  0x0000000000000000       0x18 build/SAMD21_IOT_WG_ICM42688/debug/_ext/26920679/utils_buffer_max.o
 .debug_line    0x0000000000000000      0x18e build/SAMD21_IOT_WG_ICM42688/debug/_ext/26920679/utils_buffer_max.o
 .debug_str     0x0000000000000000      0x338 build/SAMD21_IOT_WG_ICM42688/debug/_ext/26920679/utils_buffer_max.o
 .comment       0x0000000000000000       0x2c build/SAMD21_IOT_WG_ICM42688/debug/_ext/26920679/utils_buffer_max.o
 .debug_frame   0x0000000000000000       0x50 build/SAMD21_IOT_WG_ICM42688/debug/_ext/26920679/utils_buffer_max.o
 .ARM.attributes
                0x0000000000000000       0x2c build/SAMD21_IOT_WG_ICM42688/debug/_ext/26920679/utils_buffer_max.o
 .text          0x0000000000000000       0x24 build/SAMD21_IOT_WG_ICM42688/debug/_ext/26920679/utils_buffer_mean.o
 .data          0x0000000000000000        0x0 build/SAMD21_IOT_WG_ICM42688/debug/_ext/26920679/utils_buffer_mean.o
 .bss           0x0000000000000000        0x0 build/SAMD21_IOT_WG_ICM42688/debug/_ext/26920679/utils_buffer_mean.o
 .debug_info    0x0000000000000000      0x1f1 build/SAMD21_IOT_WG_ICM42688/debug/_ext/26920679/utils_buffer_mean.o
 .debug_abbrev  0x0000000000000000       0xce build/SAMD21_IOT_WG_ICM42688/debug/_ext/26920679/utils_buffer_mean.o
 .debug_loc     0x0000000000000000       0xcd build/SAMD21_IOT_WG_ICM42688/debug/_ext/26920679/utils_buffer_mean.o
 .debug_aranges
                0x0000000000000000       0x20 build/SAMD21_IOT_WG_ICM42688/debug/_ext/26920679/utils_buffer_mean.o
 .debug_line    0x0000000000000000       0xf3 build/SAMD21_IOT_WG_ICM42688/debug/_ext/26920679/utils_buffer_mean.o
 .debug_str     0x0000000000000000      0x32d build/SAMD21_IOT_WG_ICM42688/debug/_ext/26920679/utils_buffer_mean.o
 .comment       0x0000000000000000       0x2c build/SAMD21_IOT_WG_ICM42688/debug/_ext/26920679/utils_buffer_mean.o
 .debug_frame   0x0000000000000000       0x2c build/SAMD21_IOT_WG_ICM42688/debug/_ext/26920679/utils_buffer_mean.o
 .ARM.attributes
                0x0000000000000000       0x2c build/SAMD21_IOT_WG_ICM42688/debug/_ext/26920679/utils_buffer_mean.o
 .text          0x0000000000000000       0x34 build/SAMD21_IOT_WG_ICM42688/debug/_ext/26920679/utils_buffer_median.o
 .data          0x0000000000000000        0x0 build/SAMD21_IOT_WG_ICM42688/debug/_ext/26920679/utils_buffer_median.o
 .bss           0x0000000000000000        0x0 build/SAMD21_IOT_WG_ICM42688/debug/_ext/26920679/utils_buffer_median.o
 .debug_info    0x0000000000000000      0x203 build/SAMD21_IOT_WG_ICM42688/debug/_ext/26920679/utils_buffer_median.o
 .debug_abbrev  0x0000000000000000       0xe2 build/SAMD21_IOT_WG_ICM42688/debug/_ext/26920679/utils_buffer_median.o
 .debug_loc     0x0000000000000000      0x125 build/SAMD21_IOT_WG_ICM42688/debug/_ext/26920679/utils_buffer_median.o
 .debug_aranges
                0x0000000000000000       0x20 build/SAMD21_IOT_WG_ICM42688/debug/_ext/26920679/utils_buffer_median.o
 .debug_line    0x0000000000000000      0x114 build/SAMD21_IOT_WG_ICM42688/debug/_ext/26920679/utils_buffer_median.o
 .debug_str     0x0000000000000000      0x32b build/SAMD21_IOT_WG_ICM42688/debug/_ext/26920679/utils_buffer_median.o
 .comment       0x0000000000000000       0x2c build/SAMD21_IOT_WG_ICM42688/debug/_ext/26920679/utils_buffer_median.o
 .debug_frame   0x0000000000000000       0x28 build/SAMD21_IOT_WG_ICM42688/debug/_ext/26920679/utils_buffer_median.o
 .ARM.attributes
                0x0000000000000000       0x2c build/SAMD21_IOT_WG_ICM42688/debug/_ext/26920679/utils_buffer_median.o
 .text          0x0000000000000000       0x34 build/SAMD21_IOT_WG_ICM42688/debug/_ext/26920679/utils_buffer_min.o
 .data          0x0000000000000000        0x0 build/SAMD21_IOT_WG_ICM42688/debug/_ext/26920679/utils_buffer_min.o
 .bss           0x0000000000000000        0x0 build/SAMD21_IOT_WG_ICM42688/debug/_ext/26920679/utils_buffer_min.o
 .debug_info    0x0000000000000000      0x1fc build/SAMD21_IOT_WG_ICM42688/debug/_ext/26920679/utils_buffer_min.o
 .debug_abbrev  0x0000000000000000       0xcb build/SAMD21_IOT_WG_ICM42688/debug/_ext/26920679/utils_buffer_min.o
 .debug_loc     0x0000000000000000      0x14f build/SAMD21_IOT_WG_ICM42688/debug/_ext/26920679/utils_buffer_min.o
 .debug_aranges
                0x0000000000000000       0x20 build/SAMD21_IOT_WG_ICM42688/debug/_ext/26920679/utils_buffer_min.o
 .debug_line    0x0000000000000000       0xf6 build/SAMD21_IOT_WG_ICM42688/debug/_ext/26920679/utils_buffer_min.o
 .debug_str     0x0000000000000000      0x323 build/SAMD21_IOT_WG_ICM42688/debug/_ext/26920679/utils_buffer_min.o
 .comment       0x0000000000000000       0x2c build/SAMD21_IOT_WG_ICM42688/debug/_ext/26920679/utils_buffer_min.o
 .debug_frame   0x0000000000000000       0x2c build/SAMD21_IOT_WG_ICM42688/debug/_ext/26920679/utils_buffer_min.o
 .ARM.attributes
                0x0000000000000000       0x2c build/SAMD21_IOT_WG_ICM42688/debug/_ext/26920679/utils_buffer_min.o
 .text          0x0000000000000000       0x50 build/SAMD21_IOT_WG_ICM42688/debug/_ext/26920679/utils_buffer_min_max.o
 .data          0x0000000000000000        0x0 build/SAMD21_IOT_WG_ICM42688/debug/_ext/26920679/utils_buffer_min_max.o
 .bss           0x0000000000000000        0x0 build/SAMD21_IOT_WG_ICM42688/debug/_ext/26920679/utils_buffer_min_max.o
 .debug_info    0x0000000000000000      0x232 build/SAMD21_IOT_WG_ICM42688/debug/_ext/26920679/utils_buffer_min_max.o
 .debug_abbrev  0x0000000000000000       0xdc build/SAMD21_IOT_WG_ICM42688/debug/_ext/26920679/utils_buffer_min_max.o
 .debug_loc     0x0000000000000000      0x20a build/SAMD21_IOT_WG_ICM42688/debug/_ext/26920679/utils_buffer_min_max.o
 .debug_aranges
                0x0000000000000000       0x20 build/SAMD21_IOT_WG_ICM42688/debug/_ext/26920679/utils_buffer_min_max.o
 .debug_line    0x0000000000000000      0x122 build/SAMD21_IOT_WG_ICM42688/debug/_ext/26920679/utils_buffer_min_max.o
 .debug_str     0x0000000000000000      0x32e build/SAMD21_IOT_WG_ICM42688/debug/_ext/26920679/utils_buffer_min_max.o
 .comment       0x0000000000000000       0x2c build/SAMD21_IOT_WG_ICM42688/debug/_ext/26920679/utils_buffer_min_max.o
 .debug_frame   0x0000000000000000       0x30 build/SAMD21_IOT_WG_ICM42688/debug/_ext/26920679/utils_buffer_min_max.o
 .ARM.attributes
                0x0000000000000000       0x2c build/SAMD21_IOT_WG_ICM42688/debug/_ext/26920679/utils_buffer_min_max.o
 .text          0x0000000000000000      0x104 build/SAMD21_IOT_WG_ICM42688/debug/_ext/26920679/utils_buffer_pass_threshold.o
 .data          0x0000000000000000        0x0 build/SAMD21_IOT_WG_ICM42688/debug/_ext/26920679/utils_buffer_pass_threshold.o
 .bss           0x0000000000000000        0x0 build/SAMD21_IOT_WG_ICM42688/debug/_ext/26920679/utils_buffer_pass_threshold.o
 .debug_info    0x0000000000000000      0x300 build/SAMD21_IOT_WG_ICM42688/debug/_ext/26920679/utils_buffer_pass_threshold.o
 .debug_abbrev  0x0000000000000000       0xf8 build/SAMD21_IOT_WG_ICM42688/debug/_ext/26920679/utils_buffer_pass_threshold.o
 .debug_loc     0x0000000000000000      0x37e build/SAMD21_IOT_WG_ICM42688/debug/_ext/26920679/utils_buffer_pass_threshold.o
 .debug_aranges
                0x0000000000000000       0x20 build/SAMD21_IOT_WG_ICM42688/debug/_ext/26920679/utils_buffer_pass_threshold.o
 .debug_line    0x0000000000000000      0x181 build/SAMD21_IOT_WG_ICM42688/debug/_ext/26920679/utils_buffer_pass_threshold.o
 .debug_str     0x0000000000000000      0x3a4 build/SAMD21_IOT_WG_ICM42688/debug/_ext/26920679/utils_buffer_pass_threshold.o
 .comment       0x0000000000000000       0x2c build/SAMD21_IOT_WG_ICM42688/debug/_ext/26920679/utils_buffer_pass_threshold.o
 .debug_frame   0x0000000000000000       0x58 build/SAMD21_IOT_WG_ICM42688/debug/_ext/26920679/utils_buffer_pass_threshold.o
 .ARM.attributes
                0x0000000000000000       0x2c build/SAMD21_IOT_WG_ICM42688/debug/_ext/26920679/utils_buffer_pass_threshold.o
 .text          0x0000000000000000       0x14 build/SAMD21_IOT_WG_ICM42688/debug/_ext/26920679/utils_buffer_std.o
 .data          0x0000000000000000        0x0 build/SAMD21_IOT_WG_ICM42688/debug/_ext/26920679/utils_buffer_std.o
 .bss           0x0000000000000000        0x0 build/SAMD21_IOT_WG_ICM42688/debug/_ext/26920679/utils_buffer_std.o
 .debug_info    0x0000000000000000      0x208 build/SAMD21_IOT_WG_ICM42688/debug/_ext/26920679/utils_buffer_std.o
 .debug_abbrev  0x0000000000000000       0xef build/SAMD21_IOT_WG_ICM42688/debug/_ext/26920679/utils_buffer_std.o
 .debug_loc     0x0000000000000000       0xb4 build/SAMD21_IOT_WG_ICM42688/debug/_ext/26920679/utils_buffer_std.o
 .debug_aranges
                0x0000000000000000       0x20 build/SAMD21_IOT_WG_ICM42688/debug/_ext/26920679/utils_buffer_std.o
 .debug_line    0x0000000000000000      0x129 build/SAMD21_IOT_WG_ICM42688/debug/_ext/26920679/utils_buffer_std.o
 .debug_str     0x0000000000000000      0x335 build/SAMD21_IOT_WG_ICM42688/debug/_ext/26920679/utils_buffer_std.o
 .comment       0x0000000000000000       0x2c build/SAMD21_IOT_WG_ICM42688/debug/_ext/26920679/utils_buffer_std.o
 .debug_frame   0x0000000000000000       0x28 build/SAMD21_IOT_WG_ICM42688/debug/_ext/26920679/utils_buffer_std.o
 .ARM.attributes
                0x0000000000000000       0x2c build/SAMD21_IOT_WG_ICM42688/debug/_ext/26920679/utils_buffer_std.o
 .text          0x0000000000000000       0x78 build/SAMD21_IOT_WG_ICM42688/debug/_ext/26920679/utils_buffer_variance.o
 .data          0x0000000000000000        0x0 build/SAMD21_IOT_WG_ICM42688/debug/_ext/26920679/utils_buffer_variance.o
 .bss           0x0000000000000000        0x0 build/SAMD21_IOT_WG_ICM42688/debug/_ext/26920679/utils_buffer_variance.o
 .debug_info    0x0000000000000000      0x256 build/SAMD21_IOT_WG_ICM42688/debug/_ext/26920679/utils_buffer_variance.o
 .debug_abbrev  0x0000000000000000       0xff build/SAMD21_IOT_WG_ICM42688/debug/_ext/26920679/utils_buffer_variance.o
 .debug_loc     0x0000000000000000      0x1e1 build/SAMD21_IOT_WG_ICM42688/debug/_ext/26920679/utils_buffer_variance.o
 .debug_aranges
                0x0000000000000000       0x20 build/SAMD21_IOT_WG_ICM42688/debug/_ext/26920679/utils_buffer_variance.o
 .debug_ranges  0x0000000000000000       0x18 build/SAMD21_IOT_WG_ICM42688/debug/_ext/26920679/utils_buffer_variance.o
 .debug_line    0x0000000000000000      0x144 build/SAMD21_IOT_WG_ICM42688/debug/_ext/26920679/utils_buffer_variance.o
 .debug_str     0x0000000000000000      0x339 build/SAMD21_IOT_WG_ICM42688/debug/_ext/26920679/utils_buffer_variance.o
 .comment       0x0000000000000000       0x2c build/SAMD21_IOT_WG_ICM42688/debug/_ext/26920679/utils_buffer_variance.o
 .debug_frame   0x0000000000000000       0x3c build/SAMD21_IOT_WG_ICM42688/debug/_ext/26920679/utils_buffer_variance.o
 .ARM.attributes
                0x0000000000000000       0x2c build/SAMD21_IOT_WG_ICM42688/debug/_ext/26920679/utils_buffer_variance.o
 .text          0x0000000000000000      0x160 build/SAMD21_IOT_WG_ICM42688/debug/_ext/26920679/utils_model_crossing_rate.o
 .data          0x0000000000000000        0x0 build/SAMD21_IOT_WG_ICM42688/debug/_ext/26920679/utils_model_crossing_rate.o
 .bss           0x0000000000000000        0x0 build/SAMD21_IOT_WG_ICM42688/debug/_ext/26920679/utils_model_crossing_rate.o
 .rodata.str1.4
                0x0000000000000000       0x14 build/SAMD21_IOT_WG_ICM42688/debug/_ext/26920679/utils_model_crossing_rate.o
 .debug_info    0x0000000000000000      0x556 build/SAMD21_IOT_WG_ICM42688/debug/_ext/26920679/utils_model_crossing_rate.o
 .debug_abbrev  0x0000000000000000      0x1c8 build/SAMD21_IOT_WG_ICM42688/debug/_ext/26920679/utils_model_crossing_rate.o
 .debug_loc     0x0000000000000000      0x7d9 build/SAMD21_IOT_WG_ICM42688/debug/_ext/26920679/utils_model_crossing_rate.o
 .debug_aranges
                0x0000000000000000       0x20 build/SAMD21_IOT_WG_ICM42688/debug/_ext/26920679/utils_model_crossing_rate.o
 .debug_ranges  0x0000000000000000       0x70 build/SAMD21_IOT_WG_ICM42688/debug/_ext/26920679/utils_model_crossing_rate.o
 .debug_line    0x0000000000000000      0x319 build/SAMD21_IOT_WG_ICM42688/debug/_ext/26920679/utils_model_crossing_rate.o
 .debug_str     0x0000000000000000      0x526 build/SAMD21_IOT_WG_ICM42688/debug/_ext/26920679/utils_model_crossing_rate.o
 .comment       0x0000000000000000       0x2c build/SAMD21_IOT_WG_ICM42688/debug/_ext/26920679/utils_model_crossing_rate.o
 .debug_frame   0x0000000000000000       0x6c build/SAMD21_IOT_WG_ICM42688/debug/_ext/26920679/utils_model_crossing_rate.o
 .ARM.attributes
                0x0000000000000000       0x2c build/SAMD21_IOT_WG_ICM42688/debug/_ext/26920679/utils_model_crossing_rate.o
 .text          0x0000000000000000       0xdc build/SAMD21_IOT_WG_ICM42688/debug/_ext/26920679/utils_model_cross_column.o
 .data          0x0000000000000000        0x0 build/SAMD21_IOT_WG_ICM42688/debug/_ext/26920679/utils_model_cross_column.o
 .bss           0x0000000000000000        0x0 build/SAMD21_IOT_WG_ICM42688/debug/_ext/26920679/utils_model_cross_column.o
 .debug_info    0x0000000000000000      0x6f6 build/SAMD21_IOT_WG_ICM42688/debug/_ext/26920679/utils_model_cross_column.o
 .debug_abbrev  0x0000000000000000      0x11a build/SAMD21_IOT_WG_ICM42688/debug/_ext/26920679/utils_model_cross_column.o
 .debug_loc     0x0000000000000000      0x32f build/SAMD21_IOT_WG_ICM42688/debug/_ext/26920679/utils_model_cross_column.o
 .debug_aranges
                0x0000000000000000       0x20 build/SAMD21_IOT_WG_ICM42688/debug/_ext/26920679/utils_model_cross_column.o
 .debug_line    0x0000000000000000      0x1dd build/SAMD21_IOT_WG_ICM42688/debug/_ext/26920679/utils_model_cross_column.o
 .debug_str     0x0000000000000000      0x683 build/SAMD21_IOT_WG_ICM42688/debug/_ext/26920679/utils_model_cross_column.o
 .comment       0x0000000000000000       0x2c build/SAMD21_IOT_WG_ICM42688/debug/_ext/26920679/utils_model_cross_column.o
 .debug_frame   0x0000000000000000       0x3c build/SAMD21_IOT_WG_ICM42688/debug/_ext/26920679/utils_model_cross_column.o
 .ARM.attributes
                0x0000000000000000       0x2c build/SAMD21_IOT_WG_ICM42688/debug/_ext/26920679/utils_model_cross_column.o
 .data          0x0000000000000000        0x0 build/SAMD21_IOT_WG_ICM42688/debug/_ext/26920679/utils_model_cross_difference.o
 .bss           0x0000000000000000        0x0 build/SAMD21_IOT_WG_ICM42688/debug/_ext/26920679/utils_model_cross_difference.o
 .text          0x0000000000000000       0xc8 build/SAMD21_IOT_WG_ICM42688/debug/_ext/26920679/utils_model_mean_crossing_rate.o
 .data          0x0000000000000000        0x0 build/SAMD21_IOT_WG_ICM42688/debug/_ext/26920679/utils_model_mean_crossing_rate.o
 .bss           0x0000000000000000        0x0 build/SAMD21_IOT_WG_ICM42688/debug/_ext/26920679/utils_model_mean_crossing_rate.o
 .debug_info    0x0000000000000000      0x736 build/SAMD21_IOT_WG_ICM42688/debug/_ext/26920679/utils_model_mean_crossing_rate.o
 .debug_abbrev  0x0000000000000000      0x16d build/SAMD21_IOT_WG_ICM42688/debug/_ext/26920679/utils_model_mean_crossing_rate.o
 .debug_loc     0x0000000000000000      0x23e build/SAMD21_IOT_WG_ICM42688/debug/_ext/26920679/utils_model_mean_crossing_rate.o
 .debug_aranges
                0x0000000000000000       0x20 build/SAMD21_IOT_WG_ICM42688/debug/_ext/26920679/utils_model_mean_crossing_rate.o
 .debug_line    0x0000000000000000      0x199 build/SAMD21_IOT_WG_ICM42688/debug/_ext/26920679/utils_model_mean_crossing_rate.o
 .debug_str     0x0000000000000000      0x6bd build/SAMD21_IOT_WG_ICM42688/debug/_ext/26920679/utils_model_mean_crossing_rate.o
 .comment       0x0000000000000000       0x2c build/SAMD21_IOT_WG_ICM42688/debug/_ext/26920679/utils_model_mean_crossing_rate.o
 .debug_frame   0x0000000000000000       0x3c build/SAMD21_IOT_WG_ICM42688/debug/_ext/26920679/utils_model_mean_crossing_rate.o
 .ARM.attributes
                0x0000000000000000       0x2c build/SAMD21_IOT_WG_ICM42688/debug/_ext/26920679/utils_model_mean_crossing_rate.o
 .text          0x0000000000000000       0xf8 build/SAMD21_IOT_WG_ICM42688/debug/_ext/26920679/utils_model_pct_time_over_sigma.o
 .data          0x0000000000000000        0x0 build/SAMD21_IOT_WG_ICM42688/debug/_ext/26920679/utils_model_pct_time_over_sigma.o
 .bss           0x0000000000000000        0x0 build/SAMD21_IOT_WG_ICM42688/debug/_ext/26920679/utils_model_pct_time_over_sigma.o
 .debug_info    0x0000000000000000      0x76d build/SAMD21_IOT_WG_ICM42688/debug/_ext/26920679/utils_model_pct_time_over_sigma.o
 .debug_abbrev  0x0000000000000000      0x162 build/SAMD21_IOT_WG_ICM42688/debug/_ext/26920679/utils_model_pct_time_over_sigma.o
 .debug_loc     0x0000000000000000      0x2ef build/SAMD21_IOT_WG_ICM42688/debug/_ext/26920679/utils_model_pct_time_over_sigma.o
 .debug_aranges
                0x0000000000000000       0x20 build/SAMD21_IOT_WG_ICM42688/debug/_ext/26920679/utils_model_pct_time_over_sigma.o
 .debug_ranges  0x0000000000000000       0x38 build/SAMD21_IOT_WG_ICM42688/debug/_ext/26920679/utils_model_pct_time_over_sigma.o
 .debug_line    0x0000000000000000      0x1d3 build/SAMD21_IOT_WG_ICM42688/debug/_ext/26920679/utils_model_pct_time_over_sigma.o
 .debug_str     0x0000000000000000      0x69f build/SAMD21_IOT_WG_ICM42688/debug/_ext/26920679/utils_model_pct_time_over_sigma.o
 .comment       0x0000000000000000       0x2c build/SAMD21_IOT_WG_ICM42688/debug/_ext/26920679/utils_model_pct_time_over_sigma.o
 .debug_frame   0x0000000000000000       0x3c build/SAMD21_IOT_WG_ICM42688/debug/_ext/26920679/utils_model_pct_time_over_sigma.o
 .ARM.attributes
                0x0000000000000000       0x2c build/SAMD21_IOT_WG_ICM42688/debug/_ext/26920679/utils_model_pct_time_over_sigma.o
 .text          0x0000000000000000       0xb8 build/SAMD21_IOT_WG_ICM42688/debug/_ext/26920679/utils_model_pct_time_over_threshold.o
 .data          0x0000000000000000        0x0 build/SAMD21_IOT_WG_ICM42688/debug/_ext/26920679/utils_model_pct_time_over_threshold.o
 .bss           0x0000000000000000        0x0 build/SAMD21_IOT_WG_ICM42688/debug/_ext/26920679/utils_model_pct_time_over_threshold.o
 .debug_info    0x0000000000000000      0x714 build/SAMD21_IOT_WG_ICM42688/debug/_ext/26920679/utils_model_pct_time_over_threshold.o
 .debug_abbrev  0x0000000000000000      0x123 build/SAMD21_IOT_WG_ICM42688/debug/_ext/26920679/utils_model_pct_time_over_threshold.o
 .debug_loc     0x0000000000000000      0x33b build/SAMD21_IOT_WG_ICM42688/debug/_ext/26920679/utils_model_pct_time_over_threshold.o
 .debug_aranges
                0x0000000000000000       0x20 build/SAMD21_IOT_WG_ICM42688/debug/_ext/26920679/utils_model_pct_time_over_threshold.o
 .debug_line    0x0000000000000000      0x19f build/SAMD21_IOT_WG_ICM42688/debug/_ext/26920679/utils_model_pct_time_over_threshold.o
 .debug_str     0x0000000000000000      0x6a7 build/SAMD21_IOT_WG_ICM42688/debug/_ext/26920679/utils_model_pct_time_over_threshold.o
 .comment       0x0000000000000000       0x2c build/SAMD21_IOT_WG_ICM42688/debug/_ext/26920679/utils_model_pct_time_over_threshold.o
 .debug_frame   0x0000000000000000       0x3c build/SAMD21_IOT_WG_ICM42688/debug/_ext/26920679/utils_model_pct_time_over_threshold.o
 .ARM.attributes
                0x0000000000000000       0x2c build/SAMD21_IOT_WG_ICM42688/debug/_ext/26920679/utils_model_pct_time_over_threshold.o
 .text          0x0000000000000000       0xd4 build/SAMD21_IOT_WG_ICM42688/debug/_ext/26920679/utils_model_stats_max_min.o
 .data          0x0000000000000000        0x0 build/SAMD21_IOT_WG_ICM42688/debug/_ext/26920679/utils_model_stats_max_min.o
 .bss           0x0000000000000000        0x0 build/SAMD21_IOT_WG_ICM42688/debug/_ext/26920679/utils_model_stats_max_min.o
 .debug_info    0x0000000000000000      0x6fc build/SAMD21_IOT_WG_ICM42688/debug/_ext/26920679/utils_model_stats_max_min.o
 .debug_abbrev  0x0000000000000000      0x121 build/SAMD21_IOT_WG_ICM42688/debug/_ext/26920679/utils_model_stats_max_min.o
 .debug_loc     0x0000000000000000      0x25e build/SAMD21_IOT_WG_ICM42688/debug/_ext/26920679/utils_model_stats_max_min.o
 .debug_aranges
                0x0000000000000000       0x20 build/SAMD21_IOT_WG_ICM42688/debug/_ext/26920679/utils_model_stats_max_min.o
 .debug_ranges  0x0000000000000000       0x18 build/SAMD21_IOT_WG_ICM42688/debug/_ext/26920679/utils_model_stats_max_min.o
 .debug_line    0x0000000000000000      0x19b build/SAMD21_IOT_WG_ICM42688/debug/_ext/26920679/utils_model_stats_max_min.o
 .debug_str     0x0000000000000000      0x67f build/SAMD21_IOT_WG_ICM42688/debug/_ext/26920679/utils_model_stats_max_min.o
 .comment       0x0000000000000000       0x2c build/SAMD21_IOT_WG_ICM42688/debug/_ext/26920679/utils_model_stats_max_min.o
 .debug_frame   0x0000000000000000       0x3c build/SAMD21_IOT_WG_ICM42688/debug/_ext/26920679/utils_model_stats_max_min.o
 .ARM.attributes
                0x0000000000000000       0x2c build/SAMD21_IOT_WG_ICM42688/debug/_ext/26920679/utils_model_stats_max_min.o
 .text          0x0000000000000000       0xd0 build/SAMD21_IOT_WG_ICM42688/debug/_ext/26920679/utils_model_total_area.o
 .data          0x0000000000000000        0x0 build/SAMD21_IOT_WG_ICM42688/debug/_ext/26920679/utils_model_total_area.o
 .bss           0x0000000000000000        0x0 build/SAMD21_IOT_WG_ICM42688/debug/_ext/26920679/utils_model_total_area.o
 .debug_info    0x0000000000000000      0x6c4 build/SAMD21_IOT_WG_ICM42688/debug/_ext/26920679/utils_model_total_area.o
 .debug_abbrev  0x0000000000000000      0x129 build/SAMD21_IOT_WG_ICM42688/debug/_ext/26920679/utils_model_total_area.o
 .debug_loc     0x0000000000000000      0x27f build/SAMD21_IOT_WG_ICM42688/debug/_ext/26920679/utils_model_total_area.o
 .debug_aranges
                0x0000000000000000       0x20 build/SAMD21_IOT_WG_ICM42688/debug/_ext/26920679/utils_model_total_area.o
 .debug_line    0x0000000000000000      0x1a5 build/SAMD21_IOT_WG_ICM42688/debug/_ext/26920679/utils_model_total_area.o
 .debug_str     0x0000000000000000      0x673 build/SAMD21_IOT_WG_ICM42688/debug/_ext/26920679/utils_model_total_area.o
 .comment       0x0000000000000000       0x2c build/SAMD21_IOT_WG_ICM42688/debug/_ext/26920679/utils_model_total_area.o
 .debug_frame   0x0000000000000000       0x3c build/SAMD21_IOT_WG_ICM42688/debug/_ext/26920679/utils_model_total_area.o
 .ARM.attributes
                0x0000000000000000       0x2c build/SAMD21_IOT_WG_ICM42688/debug/_ext/26920679/utils_model_total_area.o
 .text          0x0000000000000000       0xd8 build/SAMD21_IOT_WG_ICM42688/debug/_ext/26920679/utils_model_total_energy.o
 .data          0x0000000000000000        0x0 build/SAMD21_IOT_WG_ICM42688/debug/_ext/26920679/utils_model_total_energy.o
 .bss           0x0000000000000000        0x0 build/SAMD21_IOT_WG_ICM42688/debug/_ext/26920679/utils_model_total_energy.o
 .debug_info    0x0000000000000000      0x6e2 build/SAMD21_IOT_WG_ICM42688/debug/_ext/26920679/utils_model_total_energy.o
 .debug_abbrev  0x0000000000000000      0x11a build/SAMD21_IOT_WG_ICM42688/debug/_ext/26920679/utils_model_total_energy.o
 .debug_loc     0x0000000000000000      0x315 build/SAMD21_IOT_WG_ICM42688/debug/_ext/26920679/utils_model_total_energy.o
 .debug_aranges
                0x0000000000000000       0x20 build/SAMD21_IOT_WG_ICM42688/debug/_ext/26920679/utils_model_total_energy.o
 .debug_line    0x0000000000000000      0x19e build/SAMD21_IOT_WG_ICM42688/debug/_ext/26920679/utils_model_total_energy.o
 .debug_str     0x0000000000000000      0x670 build/SAMD21_IOT_WG_ICM42688/debug/_ext/26920679/utils_model_total_energy.o
 .comment       0x0000000000000000       0x2c build/SAMD21_IOT_WG_ICM42688/debug/_ext/26920679/utils_model_total_energy.o
 .debug_frame   0x0000000000000000       0x3c build/SAMD21_IOT_WG_ICM42688/debug/_ext/26920679/utils_model_total_energy.o
 .ARM.attributes
                0x0000000000000000       0x2c build/SAMD21_IOT_WG_ICM42688/debug/_ext/26920679/utils_model_total_energy.o
 .data          0x0000000000000000        0x0 build/SAMD21_IOT_WG_ICM42688/debug/_ext/26920679/utils_tr_sensor.o
 .bss           0x0000000000000000        0x0 build/SAMD21_IOT_WG_ICM42688/debug/_ext/26920679/utils_tr_sensor.o
 .data          0x0000000000000000        0x0 build/SAMD21_IOT_WG_ICM42688/debug/_ext/741007211/sml_recognition_run.o
 .text          0x0000000000000000        0x0 c:/program files/microchip/xc32/v4.60/bin/bin/../../lib/gcc/pic32c/8.3.1/../../../../pic32c/lib/thumb/v6-m/nofp\libpic32c.a(data_init.o)
 .data          0x0000000000000000        0x0 c:/program files/microchip/xc32/v4.60/bin/bin/../../lib/gcc/pic32c/8.3.1/../../../../pic32c/lib/thumb/v6-m/nofp\libpic32c.a(data_init.o)
 .xc_stack_usage
                0x0000000000000000       0x68 c:/program files/microchip/xc32/v4.60/bin/bin/../../lib/gcc/pic32c/8.3.1/../../../../pic32c/lib/thumb/v6-m/nofp\libpic32c.a(data_init.o)
 .xc_stack_usage.hdr
                0x0000000000000000        0xe c:/program files/microchip/xc32/v4.60/bin/bin/../../lib/gcc/pic32c/8.3.1/../../../../pic32c/lib/thumb/v6-m/nofp\libpic32c.a(data_init.o)
 .text          0x0000000000000000        0x0 c:/program files/microchip/xc32/v4.60/bin/bin/../../lib/gcc/pic32c/8.3.1/../../../../pic32c/lib/thumb/v6-m/nofp\libc-size-musl.a(memcpy.o)
 .data          0x0000000000000000        0x0 c:/program files/microchip/xc32/v4.60/bin/bin/../../lib/gcc/pic32c/8.3.1/../../../../pic32c/lib/thumb/v6-m/nofp\libc-size-musl.a(memcpy.o)
 .bss           0x0000000000000000        0x0 c:/program files/microchip/xc32/v4.60/bin/bin/../../lib/gcc/pic32c/8.3.1/../../../../pic32c/lib/thumb/v6-m/nofp\libc-size-musl.a(memcpy.o)
 .xc_stack_usage
                0x0000000000000000       0x14 c:/program files/microchip/xc32/v4.60/bin/bin/../../lib/gcc/pic32c/8.3.1/../../../../pic32c/lib/thumb/v6-m/nofp\libc-size-musl.a(memcpy.o)
 .xc_stack_usage.hdr
                0x0000000000000000        0xe c:/program files/microchip/xc32/v4.60/bin/bin/../../lib/gcc/pic32c/8.3.1/../../../../pic32c/lib/thumb/v6-m/nofp\libc-size-musl.a(memcpy.o)
 .text          0x0000000000000000        0x0 c:/program files/microchip/xc32/v4.60/bin/bin/../../lib/gcc/pic32c/8.3.1/../../../../pic32c/lib/thumb/v6-m/nofp\libc-size-musl.a(memset.o)
 .data          0x0000000000000000        0x0 c:/program files/microchip/xc32/v4.60/bin/bin/../../lib/gcc/pic32c/8.3.1/../../../../pic32c/lib/thumb/v6-m/nofp\libc-size-musl.a(memset.o)
 .bss           0x0000000000000000        0x0 c:/program files/microchip/xc32/v4.60/bin/bin/../../lib/gcc/pic32c/8.3.1/../../../../pic32c/lib/thumb/v6-m/nofp\libc-size-musl.a(memset.o)
 .xc_stack_usage
                0x0000000000000000       0x14 c:/program files/microchip/xc32/v4.60/bin/bin/../../lib/gcc/pic32c/8.3.1/../../../../pic32c/lib/thumb/v6-m/nofp\libc-size-musl.a(memset.o)
 .xc_stack_usage.hdr
                0x0000000000000000        0xe c:/program files/microchip/xc32/v4.60/bin/bin/../../lib/gcc/pic32c/8.3.1/../../../../pic32c/lib/thumb/v6-m/nofp\libc-size-musl.a(memset.o)
 .xc_stack_usage.hdr
                0x0000000000000000        0xe c:/program files/microchip/xc32/v4.60/bin/bin/../../lib/gcc/pic32c/8.3.1/../../../../pic32c/lib/thumb/v6-m/nofp\libm-fast-emfloat.a(modff.o)
 .xc_stack_usage
                0x0000000000000000       0x13 c:/program files/microchip/xc32/v4.60/bin/bin/../../lib/gcc/pic32c/8.3.1/../../../../pic32c/lib/thumb/v6-m/nofp\libm-fast-emfloat.a(modff.o)
 .ARM.attributes
                0x0000000000000000       0x2c c:/program files/microchip/xc32/v4.60/bin/bin/../../lib/gcc/pic32c/8.3.1/../../../../pic32c/lib/thumb/v6-m/nofp\libm-fast-emfloat.a(cos.o)
 .comment       0x0000000000000000       0x2c c:/program files/microchip/xc32/v4.60/bin/bin/../../lib/gcc/pic32c/8.3.1/../../../../pic32c/lib/thumb/v6-m/nofp\libm-fast-emfloat.a(cos.o)
 .text.cos      0x0000000000000000      0x120 c:/program files/microchip/xc32/v4.60/bin/bin/../../lib/gcc/pic32c/8.3.1/../../../../pic32c/lib/thumb/v6-m/nofp\libm-fast-emfloat.a(cos.o)
 .xc_stack_usage.hdr
                0x0000000000000000        0xe c:/program files/microchip/xc32/v4.60/bin/bin/../../lib/gcc/pic32c/8.3.1/../../../../pic32c/lib/thumb/v6-m/nofp\libm-fast-emfloat.a(cos.o)
 .xc_stack_usage
                0x0000000000000000       0x11 c:/program files/microchip/xc32/v4.60/bin/bin/../../lib/gcc/pic32c/8.3.1/../../../../pic32c/lib/thumb/v6-m/nofp\libm-fast-emfloat.a(cos.o)
 .xc_stack_usage.hdr
                0x0000000000000000        0xe c:/program files/microchip/xc32/v4.60/bin/bin/../../lib/gcc/pic32c/8.3.1/../../../../pic32c/lib/thumb/v6-m/nofp\libm-fast-emfloat.a(sqrt.o)
 .xc_stack_usage
                0x0000000000000000       0x12 c:/program files/microchip/xc32/v4.60/bin/bin/../../lib/gcc/pic32c/8.3.1/../../../../pic32c/lib/thumb/v6-m/nofp\libm-fast-emfloat.a(sqrt.o)
 .xc_stack_usage.hdr
                0x0000000000000000        0xe c:/program files/microchip/xc32/v4.60/bin/bin/../../lib/gcc/pic32c/8.3.1/../../../../pic32c/lib/thumb/v6-m/nofp\libm-fast-emfloat.a(pow.o)
 .xc_stack_usage
                0x0000000000000000       0x11 c:/program files/microchip/xc32/v4.60/bin/bin/../../lib/gcc/pic32c/8.3.1/../../../../pic32c/lib/thumb/v6-m/nofp\libm-fast-emfloat.a(pow.o)
 .ARM.attributes
                0x0000000000000000       0x2c c:/program files/microchip/xc32/v4.60/bin/bin/../../lib/gcc/pic32c/8.3.1/../../../../pic32c/lib/thumb/v6-m/nofp\libm-fast-emfloat.a(__SEGGER_RTL_float64_SinCos.o)
 .comment       0x0000000000000000       0x2c c:/program files/microchip/xc32/v4.60/bin/bin/../../lib/gcc/pic32c/8.3.1/../../../../pic32c/lib/thumb/v6-m/nofp\libm-fast-emfloat.a(__SEGGER_RTL_float64_SinCos.o)
 .rodata.__SEGGER_RTL_float64_SinCos
                0x0000000000000000       0x40 c:/program files/microchip/xc32/v4.60/bin/bin/../../lib/gcc/pic32c/8.3.1/../../../../pic32c/lib/thumb/v6-m/nofp\libm-fast-emfloat.a(__SEGGER_RTL_float64_SinCos.o)
 .xc_stack_usage.hdr
                0x0000000000000000        0xe c:/program files/microchip/xc32/v4.60/bin/bin/../../lib/gcc/pic32c/8.3.1/../../../../pic32c/lib/thumb/v6-m/nofp\libm-fast-emfloat.a(__SEGGER_RTL_float64_SinCos.o)
 .xc_stack_usage
                0x0000000000000000        0x0 c:/program files/microchip/xc32/v4.60/bin/bin/../../lib/gcc/pic32c/8.3.1/../../../../pic32c/lib/thumb/v6-m/nofp\libm-fast-emfloat.a(__SEGGER_RTL_float64_SinCos.o)
 .xc_stack_usage.hdr
                0x0000000000000000        0xe c:/program files/microchip/xc32/v4.60/bin/bin/../../lib/gcc/pic32c/8.3.1/../../../../pic32c/lib/thumb/v6-m/nofp\libm-fast-emfloat.a(__SEGGER_RTL_kahan_aT2.o)
 .xc_stack_usage
                0x0000000000000000        0x0 c:/program files/microchip/xc32/v4.60/bin/bin/../../lib/gcc/pic32c/8.3.1/../../../../pic32c/lib/thumb/v6-m/nofp\libm-fast-emfloat.a(__SEGGER_RTL_kahan_aT2.o)
 .xc_stack_usage.hdr
                0x0000000000000000        0xe c:/program files/microchip/xc32/v4.60/bin/bin/../../lib/gcc/pic32c/8.3.1/../../../../pic32c/lib/thumb/v6-m/nofp\libm-fast-emfloat.a(__aeabi_fadd.o)
 .xc_stack_usage
                0x0000000000000000       0x41 c:/program files/microchip/xc32/v4.60/bin/bin/../../lib/gcc/pic32c/8.3.1/../../../../pic32c/lib/thumb/v6-m/nofp\libm-fast-emfloat.a(__aeabi_fadd.o)
 .xc_stack_usage.hdr
                0x0000000000000000        0xe c:/program files/microchip/xc32/v4.60/bin/bin/../../lib/gcc/pic32c/8.3.1/../../../../pic32c/lib/thumb/v6-m/nofp\libm-fast-emfloat.a(__aeabi_dadd.o)
 .xc_stack_usage
                0x0000000000000000       0x41 c:/program files/microchip/xc32/v4.60/bin/bin/../../lib/gcc/pic32c/8.3.1/../../../../pic32c/lib/thumb/v6-m/nofp\libm-fast-emfloat.a(__aeabi_dadd.o)
 .xc_stack_usage.hdr
                0x0000000000000000        0xe c:/program files/microchip/xc32/v4.60/bin/bin/../../lib/gcc/pic32c/8.3.1/../../../../pic32c/lib/thumb/v6-m/nofp\libm-fast-emfloat.a(__aeabi_fsub.o)
 .xc_stack_usage
                0x0000000000000000       0x1a c:/program files/microchip/xc32/v4.60/bin/bin/../../lib/gcc/pic32c/8.3.1/../../../../pic32c/lib/thumb/v6-m/nofp\libm-fast-emfloat.a(__aeabi_fsub.o)
 .xc_stack_usage.hdr
                0x0000000000000000        0xe c:/program files/microchip/xc32/v4.60/bin/bin/../../lib/gcc/pic32c/8.3.1/../../../../pic32c/lib/thumb/v6-m/nofp\libm-fast-emfloat.a(__aeabi_dsub.o)
 .xc_stack_usage
                0x0000000000000000       0x1a c:/program files/microchip/xc32/v4.60/bin/bin/../../lib/gcc/pic32c/8.3.1/../../../../pic32c/lib/thumb/v6-m/nofp\libm-fast-emfloat.a(__aeabi_dsub.o)
 .xc_stack_usage.hdr
                0x0000000000000000        0xe c:/program files/microchip/xc32/v4.60/bin/bin/../../lib/gcc/pic32c/8.3.1/../../../../pic32c/lib/thumb/v6-m/nofp\libm-fast-emfloat.a(__aeabi_fmul.o)
 .xc_stack_usage
                0x0000000000000000       0x1a c:/program files/microchip/xc32/v4.60/bin/bin/../../lib/gcc/pic32c/8.3.1/../../../../pic32c/lib/thumb/v6-m/nofp\libm-fast-emfloat.a(__aeabi_fmul.o)
 .xc_stack_usage.hdr
                0x0000000000000000        0xe c:/program files/microchip/xc32/v4.60/bin/bin/../../lib/gcc/pic32c/8.3.1/../../../../pic32c/lib/thumb/v6-m/nofp\libm-fast-emfloat.a(__aeabi_dmul_aux.o)
 .xc_stack_usage
                0x0000000000000000       0x38 c:/program files/microchip/xc32/v4.60/bin/bin/../../lib/gcc/pic32c/8.3.1/../../../../pic32c/lib/thumb/v6-m/nofp\libm-fast-emfloat.a(__aeabi_dmul_aux.o)
 .xc_stack_usage.hdr
                0x0000000000000000        0xe c:/program files/microchip/xc32/v4.60/bin/bin/../../lib/gcc/pic32c/8.3.1/../../../../pic32c/lib/thumb/v6-m/nofp\libm-fast-emfloat.a(__aeabi_fdiv.o)
 .xc_stack_usage
                0x0000000000000000       0x1a c:/program files/microchip/xc32/v4.60/bin/bin/../../lib/gcc/pic32c/8.3.1/../../../../pic32c/lib/thumb/v6-m/nofp\libm-fast-emfloat.a(__aeabi_fdiv.o)
 .xc_stack_usage.hdr
                0x0000000000000000        0xe c:/program files/microchip/xc32/v4.60/bin/bin/../../lib/gcc/pic32c/8.3.1/../../../../pic32c/lib/thumb/v6-m/nofp\libm-fast-emfloat.a(__aeabi_ddiv.o)
 .xc_stack_usage
                0x0000000000000000       0x1a c:/program files/microchip/xc32/v4.60/bin/bin/../../lib/gcc/pic32c/8.3.1/../../../../pic32c/lib/thumb/v6-m/nofp\libm-fast-emfloat.a(__aeabi_ddiv.o)
 .xc_stack_usage.hdr
                0x0000000000000000        0xe c:/program files/microchip/xc32/v4.60/bin/bin/../../lib/gcc/pic32c/8.3.1/../../../../pic32c/lib/thumb/v6-m/nofp\libm-fast-emfloat.a(__aeabi_fcmple.o)
 .xc_stack_usage
                0x0000000000000000       0x1c c:/program files/microchip/xc32/v4.60/bin/bin/../../lib/gcc/pic32c/8.3.1/../../../../pic32c/lib/thumb/v6-m/nofp\libm-fast-emfloat.a(__aeabi_fcmple.o)
 .xc_stack_usage.hdr
                0x0000000000000000        0xe c:/program files/microchip/xc32/v4.60/bin/bin/../../lib/gcc/pic32c/8.3.1/../../../../pic32c/lib/thumb/v6-m/nofp\libm-fast-emfloat.a(__aeabi_fcmpeq.o)
 .xc_stack_usage
                0x0000000000000000       0x1c c:/program files/microchip/xc32/v4.60/bin/bin/../../lib/gcc/pic32c/8.3.1/../../../../pic32c/lib/thumb/v6-m/nofp\libm-fast-emfloat.a(__aeabi_fcmpeq.o)
 .xc_stack_usage.hdr
                0x0000000000000000        0xe c:/program files/microchip/xc32/v4.60/bin/bin/../../lib/gcc/pic32c/8.3.1/../../../../pic32c/lib/thumb/v6-m/nofp\libm-fast-emfloat.a(__aeabi_dcmpeq.o)
 .xc_stack_usage
                0x0000000000000000       0x1c c:/program files/microchip/xc32/v4.60/bin/bin/../../lib/gcc/pic32c/8.3.1/../../../../pic32c/lib/thumb/v6-m/nofp\libm-fast-emfloat.a(__aeabi_dcmpeq.o)
 .xc_stack_usage.hdr
                0x0000000000000000        0xe c:/program files/microchip/xc32/v4.60/bin/bin/../../lib/gcc/pic32c/8.3.1/../../../../pic32c/lib/thumb/v6-m/nofp\libm-fast-emfloat.a(__aeabi_fcmpge.o)
 .xc_stack_usage
                0x0000000000000000       0x1c c:/program files/microchip/xc32/v4.60/bin/bin/../../lib/gcc/pic32c/8.3.1/../../../../pic32c/lib/thumb/v6-m/nofp\libm-fast-emfloat.a(__aeabi_fcmpge.o)
 .xc_stack_usage.hdr
                0x0000000000000000        0xe c:/program files/microchip/xc32/v4.60/bin/bin/../../lib/gcc/pic32c/8.3.1/../../../../pic32c/lib/thumb/v6-m/nofp\libm-fast-emfloat.a(__aeabi_fcmpgt.o)
 .xc_stack_usage
                0x0000000000000000       0x1c c:/program files/microchip/xc32/v4.60/bin/bin/../../lib/gcc/pic32c/8.3.1/../../../../pic32c/lib/thumb/v6-m/nofp\libm-fast-emfloat.a(__aeabi_fcmpgt.o)
 .xc_stack_usage.hdr
                0x0000000000000000        0xe c:/program files/microchip/xc32/v4.60/bin/bin/../../lib/gcc/pic32c/8.3.1/../../../../pic32c/lib/thumb/v6-m/nofp\libm-fast-emfloat.a(__aeabi_dcmpgt.o)
 .xc_stack_usage
                0x0000000000000000       0x1c c:/program files/microchip/xc32/v4.60/bin/bin/../../lib/gcc/pic32c/8.3.1/../../../../pic32c/lib/thumb/v6-m/nofp\libm-fast-emfloat.a(__aeabi_dcmpgt.o)
 .xc_stack_usage.hdr
                0x0000000000000000        0xe c:/program files/microchip/xc32/v4.60/bin/bin/../../lib/gcc/pic32c/8.3.1/../../../../pic32c/lib/thumb/v6-m/nofp\libm-fast-emfloat.a(__aeabi_fcmplt.o)
 .xc_stack_usage
                0x0000000000000000       0x1c c:/program files/microchip/xc32/v4.60/bin/bin/../../lib/gcc/pic32c/8.3.1/../../../../pic32c/lib/thumb/v6-m/nofp\libm-fast-emfloat.a(__aeabi_fcmplt.o)
 .xc_stack_usage.hdr
                0x0000000000000000        0xe c:/program files/microchip/xc32/v4.60/bin/bin/../../lib/gcc/pic32c/8.3.1/../../../../pic32c/lib/thumb/v6-m/nofp\libm-fast-emfloat.a(__aeabi_dcmplt.o)
 .xc_stack_usage
                0x0000000000000000       0x1c c:/program files/microchip/xc32/v4.60/bin/bin/../../lib/gcc/pic32c/8.3.1/../../../../pic32c/lib/thumb/v6-m/nofp\libm-fast-emfloat.a(__aeabi_dcmplt.o)
 .xc_stack_usage.hdr
                0x0000000000000000        0xe c:/program files/microchip/xc32/v4.60/bin/bin/../../lib/gcc/pic32c/8.3.1/../../../../pic32c/lib/thumb/v6-m/nofp\libm-fast-emfloat.a(__aeabi_f2iz.o)
 .xc_stack_usage
                0x0000000000000000       0x1a c:/program files/microchip/xc32/v4.60/bin/bin/../../lib/gcc/pic32c/8.3.1/../../../../pic32c/lib/thumb/v6-m/nofp\libm-fast-emfloat.a(__aeabi_f2iz.o)
 .xc_stack_usage.hdr
                0x0000000000000000        0xe c:/program files/microchip/xc32/v4.60/bin/bin/../../lib/gcc/pic32c/8.3.1/../../../../pic32c/lib/thumb/v6-m/nofp\libm-fast-emfloat.a(__aeabi_d2iz.o)
 .xc_stack_usage
                0x0000000000000000       0x1a c:/program files/microchip/xc32/v4.60/bin/bin/../../lib/gcc/pic32c/8.3.1/../../../../pic32c/lib/thumb/v6-m/nofp\libm-fast-emfloat.a(__aeabi_d2iz.o)
 .xc_stack_usage.hdr
                0x0000000000000000        0xe c:/program files/microchip/xc32/v4.60/bin/bin/../../lib/gcc/pic32c/8.3.1/../../../../pic32c/lib/thumb/v6-m/nofp\libm-fast-emfloat.a(__aeabi_f2uiz.o)
 .xc_stack_usage
                0x0000000000000000       0x1b c:/program files/microchip/xc32/v4.60/bin/bin/../../lib/gcc/pic32c/8.3.1/../../../../pic32c/lib/thumb/v6-m/nofp\libm-fast-emfloat.a(__aeabi_f2uiz.o)
 .xc_stack_usage.hdr
                0x0000000000000000        0xe c:/program files/microchip/xc32/v4.60/bin/bin/../../lib/gcc/pic32c/8.3.1/../../../../pic32c/lib/thumb/v6-m/nofp\libm-fast-emfloat.a(__aeabi_d2uiz.o)
 .xc_stack_usage
                0x0000000000000000       0x43 c:/program files/microchip/xc32/v4.60/bin/bin/../../lib/gcc/pic32c/8.3.1/../../../../pic32c/lib/thumb/v6-m/nofp\libm-fast-emfloat.a(__aeabi_d2uiz.o)
 .xc_stack_usage.hdr
                0x0000000000000000        0xe c:/program files/microchip/xc32/v4.60/bin/bin/../../lib/gcc/pic32c/8.3.1/../../../../pic32c/lib/thumb/v6-m/nofp\libm-fast-emfloat.a(__aeabi_i2f.o)
 .xc_stack_usage
                0x0000000000000000       0x19 c:/program files/microchip/xc32/v4.60/bin/bin/../../lib/gcc/pic32c/8.3.1/../../../../pic32c/lib/thumb/v6-m/nofp\libm-fast-emfloat.a(__aeabi_i2f.o)
 .xc_stack_usage.hdr
                0x0000000000000000        0xe c:/program files/microchip/xc32/v4.60/bin/bin/../../lib/gcc/pic32c/8.3.1/../../../../pic32c/lib/thumb/v6-m/nofp\libm-fast-emfloat.a(__aeabi_i2d.o)
 .xc_stack_usage
                0x0000000000000000       0x19 c:/program files/microchip/xc32/v4.60/bin/bin/../../lib/gcc/pic32c/8.3.1/../../../../pic32c/lib/thumb/v6-m/nofp\libm-fast-emfloat.a(__aeabi_i2d.o)
 .xc_stack_usage.hdr
                0x0000000000000000        0xe c:/program files/microchip/xc32/v4.60/bin/bin/../../lib/gcc/pic32c/8.3.1/../../../../pic32c/lib/thumb/v6-m/nofp\libm-fast-emfloat.a(__aeabi_l2f.o)
 .xc_stack_usage
                0x0000000000000000       0x19 c:/program files/microchip/xc32/v4.60/bin/bin/../../lib/gcc/pic32c/8.3.1/../../../../pic32c/lib/thumb/v6-m/nofp\libm-fast-emfloat.a(__aeabi_l2f.o)
 .xc_stack_usage.hdr
                0x0000000000000000        0xe c:/program files/microchip/xc32/v4.60/bin/bin/../../lib/gcc/pic32c/8.3.1/../../../../pic32c/lib/thumb/v6-m/nofp\libm-fast-emfloat.a(__aeabi_ui2f.o)
 .xc_stack_usage
                0x0000000000000000       0x1a c:/program files/microchip/xc32/v4.60/bin/bin/../../lib/gcc/pic32c/8.3.1/../../../../pic32c/lib/thumb/v6-m/nofp\libm-fast-emfloat.a(__aeabi_ui2f.o)
 .xc_stack_usage.hdr
                0x0000000000000000        0xe c:/program files/microchip/xc32/v4.60/bin/bin/../../lib/gcc/pic32c/8.3.1/../../../../pic32c/lib/thumb/v6-m/nofp\libm-fast-emfloat.a(__aeabi_ui2d.o)
 .xc_stack_usage
                0x0000000000000000       0x1a c:/program files/microchip/xc32/v4.60/bin/bin/../../lib/gcc/pic32c/8.3.1/../../../../pic32c/lib/thumb/v6-m/nofp\libm-fast-emfloat.a(__aeabi_ui2d.o)
 .xc_stack_usage.hdr
                0x0000000000000000        0xe c:/program files/microchip/xc32/v4.60/bin/bin/../../lib/gcc/pic32c/8.3.1/../../../../pic32c/lib/thumb/v6-m/nofp\libm-fast-emfloat.a(__aeabi_ul2f.o)
 .xc_stack_usage
                0x0000000000000000       0x1a c:/program files/microchip/xc32/v4.60/bin/bin/../../lib/gcc/pic32c/8.3.1/../../../../pic32c/lib/thumb/v6-m/nofp\libm-fast-emfloat.a(__aeabi_ul2f.o)
 .xc_stack_usage.hdr
                0x0000000000000000        0xe c:/program files/microchip/xc32/v4.60/bin/bin/../../lib/gcc/pic32c/8.3.1/../../../../pic32c/lib/thumb/v6-m/nofp\libm-fast-emfloat.a(__aeabi_f2d.o)
 .xc_stack_usage
                0x0000000000000000       0x19 c:/program files/microchip/xc32/v4.60/bin/bin/../../lib/gcc/pic32c/8.3.1/../../../../pic32c/lib/thumb/v6-m/nofp\libm-fast-emfloat.a(__aeabi_f2d.o)
 .xc_stack_usage.hdr
                0x0000000000000000        0xe c:/program files/microchip/xc32/v4.60/bin/bin/../../lib/gcc/pic32c/8.3.1/../../../../pic32c/lib/thumb/v6-m/nofp\libm-fast-emfloat.a(__aeabi_d2f.o)
 .xc_stack_usage
                0x0000000000000000       0x19 c:/program files/microchip/xc32/v4.60/bin/bin/../../lib/gcc/pic32c/8.3.1/../../../../pic32c/lib/thumb/v6-m/nofp\libm-fast-emfloat.a(__aeabi_d2f.o)
 .xc_stack_usage.hdr
                0x0000000000000000        0xe c:/program files/microchip/xc32/v4.60/bin/bin/../../lib/gcc/pic32c/8.3.1/../../../../pic32c/lib/thumb/v6-m/nofp\libm-fast-emfloat.a(__SEGGER_RTL_float64_PolyEvalP.o)
 .xc_stack_usage
                0x0000000000000000       0x2c c:/program files/microchip/xc32/v4.60/bin/bin/../../lib/gcc/pic32c/8.3.1/../../../../pic32c/lib/thumb/v6-m/nofp\libm-fast-emfloat.a(__SEGGER_RTL_float64_PolyEvalP.o)
 .xc_stack_usage.hdr
                0x0000000000000000        0xe c:/program files/microchip/xc32/v4.60/bin/bin/../../lib/gcc/pic32c/8.3.1/../../../../pic32c/lib/thumb/v6-m/nofp\libm-fast-emfloat.a(ldexp.o)
 .xc_stack_usage
                0x0000000000000000       0x13 c:/program files/microchip/xc32/v4.60/bin/bin/../../lib/gcc/pic32c/8.3.1/../../../../pic32c/lib/thumb/v6-m/nofp\libm-fast-emfloat.a(ldexp.o)
 .xc_stack_usage.hdr
                0x0000000000000000        0xe c:/program files/microchip/xc32/v4.60/bin/bin/../../lib/gcc/pic32c/8.3.1/../../../../pic32c/lib/thumb/v6-m/nofp\libm-fast-emfloat.a(log.o)
 .xc_stack_usage
                0x0000000000000000       0x11 c:/program files/microchip/xc32/v4.60/bin/bin/../../lib/gcc/pic32c/8.3.1/../../../../pic32c/lib/thumb/v6-m/nofp\libm-fast-emfloat.a(log.o)
 .xc_stack_usage.hdr
                0x0000000000000000        0xe c:/program files/microchip/xc32/v4.60/bin/bin/../../lib/gcc/pic32c/8.3.1/../../../../pic32c/lib/thumb/v6-m/nofp\libm-fast-emfloat.a(exp.o)
 .xc_stack_usage
                0x0000000000000000       0x11 c:/program files/microchip/xc32/v4.60/bin/bin/../../lib/gcc/pic32c/8.3.1/../../../../pic32c/lib/thumb/v6-m/nofp\libm-fast-emfloat.a(exp.o)
 .xc_stack_usage.hdr
                0x0000000000000000        0xe c:/program files/microchip/xc32/v4.60/bin/bin/../../lib/gcc/pic32c/8.3.1/../../../../pic32c/lib/thumb/v6-m/nofp\libm-fast-emfloat.a(__SEGGER_RTL_float64_Log.o)
 .xc_stack_usage
                0x0000000000000000        0x0 c:/program files/microchip/xc32/v4.60/bin/bin/../../lib/gcc/pic32c/8.3.1/../../../../pic32c/lib/thumb/v6-m/nofp\libm-fast-emfloat.a(__SEGGER_RTL_float64_Log.o)
 .xc_stack_usage.hdr
                0x0000000000000000        0xe c:/program files/microchip/xc32/v4.60/bin/bin/../../lib/gcc/pic32c/8.3.1/../../../../pic32c/lib/thumb/v6-m/nofp\libm-fast-emfloat.a(__SEGGER_RTL_float64_PolyEvalQ.o)
 .xc_stack_usage
                0x0000000000000000       0x2c c:/program files/microchip/xc32/v4.60/bin/bin/../../lib/gcc/pic32c/8.3.1/../../../../pic32c/lib/thumb/v6-m/nofp\libm-fast-emfloat.a(__SEGGER_RTL_float64_PolyEvalQ.o)
 .xc_stack_usage.hdr
                0x0000000000000000        0xe c:/program files/microchip/xc32/v4.60/bin/bin/../../lib/gcc/pic32c/8.3.1/../../../../pic32c/lib/thumb/v6-m/nofp\libm-fast-emfloat.a(frexp.o)
 .xc_stack_usage
                0x0000000000000000       0x13 c:/program files/microchip/xc32/v4.60/bin/bin/../../lib/gcc/pic32c/8.3.1/../../../../pic32c/lib/thumb/v6-m/nofp\libm-fast-emfloat.a(frexp.o)
 .text          0x0000000000000000        0x0 c:/program files/microchip/xc32/v4.60/bin/bin/../../lib/gcc/pic32c/8.3.1/../../../../pic32c/lib/thumb/v6-m/nofp\libg-musl.a(__libc_start_main.o)
 .data          0x0000000000000000        0x0 c:/program files/microchip/xc32/v4.60/bin/bin/../../lib/gcc/pic32c/8.3.1/../../../../pic32c/lib/thumb/v6-m/nofp\libg-musl.a(__libc_start_main.o)
 .bss           0x0000000000000000        0x0 c:/program files/microchip/xc32/v4.60/bin/bin/../../lib/gcc/pic32c/8.3.1/../../../../pic32c/lib/thumb/v6-m/nofp\libg-musl.a(__libc_start_main.o)
 .xc_stack_usage
                0x0000000000000000       0x34 c:/program files/microchip/xc32/v4.60/bin/bin/../../lib/gcc/pic32c/8.3.1/../../../../pic32c/lib/thumb/v6-m/nofp\libg-musl.a(__libc_start_main.o)
 .xc_stack_usage.hdr
                0x0000000000000000        0xe c:/program files/microchip/xc32/v4.60/bin/bin/../../lib/gcc/pic32c/8.3.1/../../../../pic32c/lib/thumb/v6-m/nofp\libg-musl.a(__libc_start_main.o)
 .text          0x0000000000000000        0x0 c:/program files/microchip/xc32/v4.60/bin/bin/../../lib/gcc/pic32c/8.3.1/../../../../pic32c/lib/thumb/v6-m/nofp\libg-musl.a(__errno_location.o)
 .data          0x0000000000000000        0x0 c:/program files/microchip/xc32/v4.60/bin/bin/../../lib/gcc/pic32c/8.3.1/../../../../pic32c/lib/thumb/v6-m/nofp\libg-musl.a(__errno_location.o)
 .xc_stack_usage.hdr
                0x0000000000000000        0xe c:/program files/microchip/xc32/v4.60/bin/bin/../../lib/gcc/pic32c/8.3.1/../../../../pic32c/lib/thumb/v6-m/nofp\libg-musl.a(__errno_location.o)
 .text          0x0000000000000000        0x0 c:/program files/microchip/xc32/v4.60/bin/bin/../../lib/gcc/pic32c/8.3.1/../../../../pic32c/lib/thumb/v6-m/nofp\libg-musl.a(libc.o)
 .data          0x0000000000000000        0x0 c:/program files/microchip/xc32/v4.60/bin/bin/../../lib/gcc/pic32c/8.3.1/../../../../pic32c/lib/thumb/v6-m/nofp\libg-musl.a(libc.o)
 .xc_stack_usage.hdr
                0x0000000000000000        0xe c:/program files/microchip/xc32/v4.60/bin/bin/../../lib/gcc/pic32c/8.3.1/../../../../pic32c/lib/thumb/v6-m/nofp\libg-musl.a(libc.o)
 .text          0x0000000000000000        0x0 c:/program files/microchip/xc32/v4.60/bin/bin/../../lib/gcc/pic32c/8.3.1/../../../../pic32c/lib/thumb/v6-m/nofp\libg-musl.a(__sio_printf_cdeEfFgGnpsxX.o)
 .data          0x0000000000000000        0x0 c:/program files/microchip/xc32/v4.60/bin/bin/../../lib/gcc/pic32c/8.3.1/../../../../pic32c/lib/thumb/v6-m/nofp\libg-musl.a(__sio_printf_cdeEfFgGnpsxX.o)
 .bss           0x0000000000000000        0x0 c:/program files/microchip/xc32/v4.60/bin/bin/../../lib/gcc/pic32c/8.3.1/../../../../pic32c/lib/thumb/v6-m/nofp\libg-musl.a(__sio_printf_cdeEfFgGnpsxX.o)
 .xc_stack_usage
                0x0000000000000000       0x43 c:/program files/microchip/xc32/v4.60/bin/bin/../../lib/gcc/pic32c/8.3.1/../../../../pic32c/lib/thumb/v6-m/nofp\libg-musl.a(__sio_printf_cdeEfFgGnpsxX.o)
 .text.__sio_printf_cdeEfFgGnpsxX
                0x0000000000000000       0x20 c:/program files/microchip/xc32/v4.60/bin/bin/../../lib/gcc/pic32c/8.3.1/../../../../pic32c/lib/thumb/v6-m/nofp\libg-musl.a(__sio_printf_cdeEfFgGnpsxX.o)
 .xc_stack_usage.hdr
                0x0000000000000000        0xe c:/program files/microchip/xc32/v4.60/bin/bin/../../lib/gcc/pic32c/8.3.1/../../../../pic32c/lib/thumb/v6-m/nofp\libg-musl.a(__sio_printf_cdeEfFgGnpsxX.o)
 .text          0x0000000000000000        0x0 c:/program files/microchip/xc32/v4.60/bin/bin/../../lib/gcc/pic32c/8.3.1/../../../../pic32c/lib/thumb/v6-m/nofp\libg-musl.a(__sio_sprintf_cdeEfFgGnpsxX.o)
 .data          0x0000000000000000        0x0 c:/program files/microchip/xc32/v4.60/bin/bin/../../lib/gcc/pic32c/8.3.1/../../../../pic32c/lib/thumb/v6-m/nofp\libg-musl.a(__sio_sprintf_cdeEfFgGnpsxX.o)
 .bss           0x0000000000000000        0x0 c:/program files/microchip/xc32/v4.60/bin/bin/../../lib/gcc/pic32c/8.3.1/../../../../pic32c/lib/thumb/v6-m/nofp\libg-musl.a(__sio_sprintf_cdeEfFgGnpsxX.o)
 .xc_stack_usage
                0x0000000000000000       0x45 c:/program files/microchip/xc32/v4.60/bin/bin/../../lib/gcc/pic32c/8.3.1/../../../../pic32c/lib/thumb/v6-m/nofp\libg-musl.a(__sio_sprintf_cdeEfFgGnpsxX.o)
 .text.__sio_sprintf_cdeEfFgGnpsxX
                0x0000000000000000       0x20 c:/program files/microchip/xc32/v4.60/bin/bin/../../lib/gcc/pic32c/8.3.1/../../../../pic32c/lib/thumb/v6-m/nofp\libg-musl.a(__sio_sprintf_cdeEfFgGnpsxX.o)
 .xc_stack_usage.hdr
                0x0000000000000000        0xe c:/program files/microchip/xc32/v4.60/bin/bin/../../lib/gcc/pic32c/8.3.1/../../../../pic32c/lib/thumb/v6-m/nofp\libg-musl.a(__sio_sprintf_cdeEfFgGnpsxX.o)
 .text          0x0000000000000000        0x0 c:/program files/microchip/xc32/v4.60/bin/bin/../../lib/gcc/pic32c/8.3.1/../../../../pic32c/lib/thumb/v6-m/nofp\libg-musl.a(__fmt_d.o)
 .data          0x0000000000000000        0x0 c:/program files/microchip/xc32/v4.60/bin/bin/../../lib/gcc/pic32c/8.3.1/../../../../pic32c/lib/thumb/v6-m/nofp\libg-musl.a(__fmt_d.o)
 .bss           0x0000000000000000        0x0 c:/program files/microchip/xc32/v4.60/bin/bin/../../lib/gcc/pic32c/8.3.1/../../../../pic32c/lib/thumb/v6-m/nofp\libg-musl.a(__fmt_d.o)
 .xc_stack_usage
                0x0000000000000000       0x15 c:/program files/microchip/xc32/v4.60/bin/bin/../../lib/gcc/pic32c/8.3.1/../../../../pic32c/lib/thumb/v6-m/nofp\libg-musl.a(__fmt_d.o)
 .xc_stack_usage.hdr
                0x0000000000000000        0xe c:/program files/microchip/xc32/v4.60/bin/bin/../../lib/gcc/pic32c/8.3.1/../../../../pic32c/lib/thumb/v6-m/nofp\libg-musl.a(__fmt_d.o)
 .text          0x0000000000000000        0x0 c:/program files/microchip/xc32/v4.60/bin/bin/../../lib/gcc/pic32c/8.3.1/../../../../pic32c/lib/thumb/v6-m/nofp\libg-musl.a(__fmt_fp.o)
 .data          0x0000000000000000        0x0 c:/program files/microchip/xc32/v4.60/bin/bin/../../lib/gcc/pic32c/8.3.1/../../../../pic32c/lib/thumb/v6-m/nofp\libg-musl.a(__fmt_fp.o)
 .bss           0x0000000000000000        0x0 c:/program files/microchip/xc32/v4.60/bin/bin/../../lib/gcc/pic32c/8.3.1/../../../../pic32c/lib/thumb/v6-m/nofp\libg-musl.a(__fmt_fp.o)
 .xc_stack_usage
                0x0000000000000000       0x16 c:/program files/microchip/xc32/v4.60/bin/bin/../../lib/gcc/pic32c/8.3.1/../../../../pic32c/lib/thumb/v6-m/nofp\libg-musl.a(__fmt_fp.o)
 .xc_stack_usage.hdr
                0x0000000000000000        0xe c:/program files/microchip/xc32/v4.60/bin/bin/../../lib/gcc/pic32c/8.3.1/../../../../pic32c/lib/thumb/v6-m/nofp\libg-musl.a(__fmt_fp.o)
 .text          0x0000000000000000        0x0 c:/program files/microchip/xc32/v4.60/bin/bin/../../lib/gcc/pic32c/8.3.1/../../../../pic32c/lib/thumb/v6-m/nofp\libg-musl.a(__fmt_s.o)
 .data          0x0000000000000000        0x0 c:/program files/microchip/xc32/v4.60/bin/bin/../../lib/gcc/pic32c/8.3.1/../../../../pic32c/lib/thumb/v6-m/nofp\libg-musl.a(__fmt_s.o)
 .bss           0x0000000000000000        0x0 c:/program files/microchip/xc32/v4.60/bin/bin/../../lib/gcc/pic32c/8.3.1/../../../../pic32c/lib/thumb/v6-m/nofp\libg-musl.a(__fmt_s.o)
 .xc_stack_usage
                0x0000000000000000       0x15 c:/program files/microchip/xc32/v4.60/bin/bin/../../lib/gcc/pic32c/8.3.1/../../../../pic32c/lib/thumb/v6-m/nofp\libg-musl.a(__fmt_s.o)
 .xc_stack_usage.hdr
                0x0000000000000000        0xe c:/program files/microchip/xc32/v4.60/bin/bin/../../lib/gcc/pic32c/8.3.1/../../../../pic32c/lib/thumb/v6-m/nofp\libg-musl.a(__fmt_s.o)
 .text          0x0000000000000000        0x0 c:/program files/microchip/xc32/v4.60/bin/bin/../../lib/gcc/pic32c/8.3.1/../../../../pic32c/lib/thumb/v6-m/nofp\libg-musl.a(__fmt_x.o)
 .data          0x0000000000000000        0x0 c:/program files/microchip/xc32/v4.60/bin/bin/../../lib/gcc/pic32c/8.3.1/../../../../pic32c/lib/thumb/v6-m/nofp\libg-musl.a(__fmt_x.o)
 .bss           0x0000000000000000        0x0 c:/program files/microchip/xc32/v4.60/bin/bin/../../lib/gcc/pic32c/8.3.1/../../../../pic32c/lib/thumb/v6-m/nofp\libg-musl.a(__fmt_x.o)
 .xc_stack_usage
                0x0000000000000000       0x15 c:/program files/microchip/xc32/v4.60/bin/bin/../../lib/gcc/pic32c/8.3.1/../../../../pic32c/lib/thumb/v6-m/nofp\libg-musl.a(__fmt_x.o)
 .xc_stack_usage.hdr
                0x0000000000000000        0xe c:/program files/microchip/xc32/v4.60/bin/bin/../../lib/gcc/pic32c/8.3.1/../../../../pic32c/lib/thumb/v6-m/nofp\libg-musl.a(__fmt_x.o)
 .text          0x0000000000000000        0x0 c:/program files/microchip/xc32/v4.60/bin/bin/../../lib/gcc/pic32c/8.3.1/../../../../pic32c/lib/thumb/v6-m/nofp\libg-musl.a(__pop_float.o)
 .data          0x0000000000000000        0x0 c:/program files/microchip/xc32/v4.60/bin/bin/../../lib/gcc/pic32c/8.3.1/../../../../pic32c/lib/thumb/v6-m/nofp\libg-musl.a(__pop_float.o)
 .bss           0x0000000000000000        0x0 c:/program files/microchip/xc32/v4.60/bin/bin/../../lib/gcc/pic32c/8.3.1/../../../../pic32c/lib/thumb/v6-m/nofp\libg-musl.a(__pop_float.o)
 .xc_stack_usage
                0x0000000000000000       0x19 c:/program files/microchip/xc32/v4.60/bin/bin/../../lib/gcc/pic32c/8.3.1/../../../../pic32c/lib/thumb/v6-m/nofp\libg-musl.a(__pop_float.o)
 .xc_stack_usage.hdr
                0x0000000000000000        0xe c:/program files/microchip/xc32/v4.60/bin/bin/../../lib/gcc/pic32c/8.3.1/../../../../pic32c/lib/thumb/v6-m/nofp\libg-musl.a(__pop_float.o)
 .text          0x0000000000000000        0x0 c:/program files/microchip/xc32/v4.60/bin/bin/../../lib/gcc/pic32c/8.3.1/../../../../pic32c/lib/thumb/v6-m/nofp\libg-musl.a(__pop_int.o)
 .data          0x0000000000000000        0x0 c:/program files/microchip/xc32/v4.60/bin/bin/../../lib/gcc/pic32c/8.3.1/../../../../pic32c/lib/thumb/v6-m/nofp\libg-musl.a(__pop_int.o)
 .bss           0x0000000000000000        0x0 c:/program files/microchip/xc32/v4.60/bin/bin/../../lib/gcc/pic32c/8.3.1/../../../../pic32c/lib/thumb/v6-m/nofp\libg-musl.a(__pop_int.o)
 .xc_stack_usage
                0x0000000000000000       0x17 c:/program files/microchip/xc32/v4.60/bin/bin/../../lib/gcc/pic32c/8.3.1/../../../../pic32c/lib/thumb/v6-m/nofp\libg-musl.a(__pop_int.o)
 .xc_stack_usage.hdr
                0x0000000000000000        0xe c:/program files/microchip/xc32/v4.60/bin/bin/../../lib/gcc/pic32c/8.3.1/../../../../pic32c/lib/thumb/v6-m/nofp\libg-musl.a(__pop_int.o)
 .text          0x0000000000000000        0x0 c:/program files/microchip/xc32/v4.60/bin/bin/../../lib/gcc/pic32c/8.3.1/../../../../pic32c/lib/thumb/v6-m/nofp\libg-musl.a(__pop_ptr.o)
 .data          0x0000000000000000        0x0 c:/program files/microchip/xc32/v4.60/bin/bin/../../lib/gcc/pic32c/8.3.1/../../../../pic32c/lib/thumb/v6-m/nofp\libg-musl.a(__pop_ptr.o)
 .bss           0x0000000000000000        0x0 c:/program files/microchip/xc32/v4.60/bin/bin/../../lib/gcc/pic32c/8.3.1/../../../../pic32c/lib/thumb/v6-m/nofp\libg-musl.a(__pop_ptr.o)
 .xc_stack_usage
                0x0000000000000000       0x17 c:/program files/microchip/xc32/v4.60/bin/bin/../../lib/gcc/pic32c/8.3.1/../../../../pic32c/lib/thumb/v6-m/nofp\libg-musl.a(__pop_ptr.o)
 .xc_stack_usage.hdr
                0x0000000000000000        0xe c:/program files/microchip/xc32/v4.60/bin/bin/../../lib/gcc/pic32c/8.3.1/../../../../pic32c/lib/thumb/v6-m/nofp\libg-musl.a(__pop_ptr.o)
 .text          0x0000000000000000        0x0 c:/program files/microchip/xc32/v4.60/bin/bin/../../lib/gcc/pic32c/8.3.1/../../../../pic32c/lib/thumb/v6-m/nofp\libg-musl.a(__printf_core.o)
 .data          0x0000000000000000        0x0 c:/program files/microchip/xc32/v4.60/bin/bin/../../lib/gcc/pic32c/8.3.1/../../../../pic32c/lib/thumb/v6-m/nofp\libg-musl.a(__printf_core.o)
 .bss           0x0000000000000000        0x0 c:/program files/microchip/xc32/v4.60/bin/bin/../../lib/gcc/pic32c/8.3.1/../../../../pic32c/lib/thumb/v6-m/nofp\libg-musl.a(__printf_core.o)
 .xc_stack_usage
                0x0000000000000000       0xaf c:/program files/microchip/xc32/v4.60/bin/bin/../../lib/gcc/pic32c/8.3.1/../../../../pic32c/lib/thumb/v6-m/nofp\libg-musl.a(__printf_core.o)
 .text.__string_out
                0x0000000000000000       0x2a c:/program files/microchip/xc32/v4.60/bin/bin/../../lib/gcc/pic32c/8.3.1/../../../../pic32c/lib/thumb/v6-m/nofp\libg-musl.a(__printf_core.o)
 .text.__dummy_fmts
                0x0000000000000000        0x4 c:/program files/microchip/xc32/v4.60/bin/bin/../../lib/gcc/pic32c/8.3.1/../../../../pic32c/lib/thumb/v6-m/nofp\libg-musl.a(__printf_core.o)
 .xc_stack_usage.hdr
                0x0000000000000000        0xe c:/program files/microchip/xc32/v4.60/bin/bin/../../lib/gcc/pic32c/8.3.1/../../../../pic32c/lib/thumb/v6-m/nofp\libg-musl.a(__printf_core.o)
 .text          0x0000000000000000        0x0 c:/program files/microchip/xc32/v4.60/bin/bin/../../lib/gcc/pic32c/8.3.1/../../../../pic32c/lib/thumb/v6-m/nofp\libg-musl.a(stdin.o)
 .xc_stack_usage
                0x0000000000000000       0x33 c:/program files/microchip/xc32/v4.60/bin/bin/../../lib/gcc/pic32c/8.3.1/../../../../pic32c/lib/thumb/v6-m/nofp\libg-musl.a(stdin.o)
 .xc_stack_usage.hdr
                0x0000000000000000        0xe c:/program files/microchip/xc32/v4.60/bin/bin/../../lib/gcc/pic32c/8.3.1/../../../../pic32c/lib/thumb/v6-m/nofp\libg-musl.a(stdin.o)
 .text          0x0000000000000000        0x0 c:/program files/microchip/xc32/v4.60/bin/bin/../../lib/gcc/pic32c/8.3.1/../../../../pic32c/lib/thumb/v6-m/nofp\libg-musl.a(stdout.o)
 .xc_stack_usage
                0x0000000000000000       0x51 c:/program files/microchip/xc32/v4.60/bin/bin/../../lib/gcc/pic32c/8.3.1/../../../../pic32c/lib/thumb/v6-m/nofp\libg-musl.a(stdout.o)
 .text.__dummy  0x0000000000000000        0x8 c:/program files/microchip/xc32/v4.60/bin/bin/../../lib/gcc/pic32c/8.3.1/../../../../pic32c/lib/thumb/v6-m/nofp\libg-musl.a(stdout.o)
 .xc_stack_usage.hdr
                0x0000000000000000        0xe c:/program files/microchip/xc32/v4.60/bin/bin/../../lib/gcc/pic32c/8.3.1/../../../../pic32c/lib/thumb/v6-m/nofp\libg-musl.a(stdout.o)
 .text          0x0000000000000000        0x0 c:/program files/microchip/xc32/v4.60/bin/bin/../../lib/gcc/pic32c/8.3.1/../../../../pic32c/lib/thumb/v6-m/nofp\libg-musl.a(putchar.o)
 .data          0x0000000000000000        0x0 c:/program files/microchip/xc32/v4.60/bin/bin/../../lib/gcc/pic32c/8.3.1/../../../../pic32c/lib/thumb/v6-m/nofp\libg-musl.a(putchar.o)
 .bss           0x0000000000000000        0x0 c:/program files/microchip/xc32/v4.60/bin/bin/../../lib/gcc/pic32c/8.3.1/../../../../pic32c/lib/thumb/v6-m/nofp\libg-musl.a(putchar.o)
 .xc_stack_usage
                0x0000000000000000       0x15 c:/program files/microchip/xc32/v4.60/bin/bin/../../lib/gcc/pic32c/8.3.1/../../../../pic32c/lib/thumb/v6-m/nofp\libg-musl.a(putchar.o)
 .xc_stack_usage.hdr
                0x0000000000000000        0xe c:/program files/microchip/xc32/v4.60/bin/bin/../../lib/gcc/pic32c/8.3.1/../../../../pic32c/lib/thumb/v6-m/nofp\libg-musl.a(putchar.o)
 .text          0x0000000000000000        0x0 c:/program files/microchip/xc32/v4.60/bin/bin/../../lib/gcc/pic32c/8.3.1/../../../../pic32c/lib/thumb/v6-m/nofp\libg-musl.a(puts.o)
 .data          0x0000000000000000        0x0 c:/program files/microchip/xc32/v4.60/bin/bin/../../lib/gcc/pic32c/8.3.1/../../../../pic32c/lib/thumb/v6-m/nofp\libg-musl.a(puts.o)
 .bss           0x0000000000000000        0x0 c:/program files/microchip/xc32/v4.60/bin/bin/../../lib/gcc/pic32c/8.3.1/../../../../pic32c/lib/thumb/v6-m/nofp\libg-musl.a(puts.o)
 .xc_stack_usage
                0x0000000000000000       0x12 c:/program files/microchip/xc32/v4.60/bin/bin/../../lib/gcc/pic32c/8.3.1/../../../../pic32c/lib/thumb/v6-m/nofp\libg-musl.a(puts.o)
 .xc_stack_usage.hdr
                0x0000000000000000        0xe c:/program files/microchip/xc32/v4.60/bin/bin/../../lib/gcc/pic32c/8.3.1/../../../../pic32c/lib/thumb/v6-m/nofp\libg-musl.a(puts.o)
 .text          0x0000000000000000        0x0 c:/program files/microchip/xc32/v4.60/bin/bin/../../lib/gcc/pic32c/8.3.1/../../../../pic32c/lib/thumb/v6-m/nofp\libg-musl.a(setbuf.o)
 .data          0x0000000000000000        0x0 c:/program files/microchip/xc32/v4.60/bin/bin/../../lib/gcc/pic32c/8.3.1/../../../../pic32c/lib/thumb/v6-m/nofp\libg-musl.a(setbuf.o)
 .bss           0x0000000000000000        0x0 c:/program files/microchip/xc32/v4.60/bin/bin/../../lib/gcc/pic32c/8.3.1/../../../../pic32c/lib/thumb/v6-m/nofp\libg-musl.a(setbuf.o)
 .xc_stack_usage
                0x0000000000000000       0x14 c:/program files/microchip/xc32/v4.60/bin/bin/../../lib/gcc/pic32c/8.3.1/../../../../pic32c/lib/thumb/v6-m/nofp\libg-musl.a(setbuf.o)
 .xc_stack_usage.hdr
                0x0000000000000000        0xe c:/program files/microchip/xc32/v4.60/bin/bin/../../lib/gcc/pic32c/8.3.1/../../../../pic32c/lib/thumb/v6-m/nofp\libg-musl.a(setbuf.o)
 .text          0x0000000000000000        0x0 c:/program files/microchip/xc32/v4.60/bin/bin/../../lib/gcc/pic32c/8.3.1/../../../../pic32c/lib/thumb/v6-m/nofp\libg-musl.a(atoi.o)
 .data          0x0000000000000000        0x0 c:/program files/microchip/xc32/v4.60/bin/bin/../../lib/gcc/pic32c/8.3.1/../../../../pic32c/lib/thumb/v6-m/nofp\libg-musl.a(atoi.o)
 .bss           0x0000000000000000        0x0 c:/program files/microchip/xc32/v4.60/bin/bin/../../lib/gcc/pic32c/8.3.1/../../../../pic32c/lib/thumb/v6-m/nofp\libg-musl.a(atoi.o)
 .xc_stack_usage
                0x0000000000000000       0x12 c:/program files/microchip/xc32/v4.60/bin/bin/../../lib/gcc/pic32c/8.3.1/../../../../pic32c/lib/thumb/v6-m/nofp\libg-musl.a(atoi.o)
 .xc_stack_usage.hdr
                0x0000000000000000        0xe c:/program files/microchip/xc32/v4.60/bin/bin/../../lib/gcc/pic32c/8.3.1/../../../../pic32c/lib/thumb/v6-m/nofp\libg-musl.a(atoi.o)
 .text          0x0000000000000000        0x0 c:/program files/microchip/xc32/v4.60/bin/bin/../../lib/gcc/pic32c/8.3.1/../../../../pic32c/lib/thumb/v6-m/nofp\libg-musl.a(tolower.o)
 .data          0x0000000000000000        0x0 c:/program files/microchip/xc32/v4.60/bin/bin/../../lib/gcc/pic32c/8.3.1/../../../../pic32c/lib/thumb/v6-m/nofp\libg-musl.a(tolower.o)
 .bss           0x0000000000000000        0x0 c:/program files/microchip/xc32/v4.60/bin/bin/../../lib/gcc/pic32c/8.3.1/../../../../pic32c/lib/thumb/v6-m/nofp\libg-musl.a(tolower.o)
 .xc_stack_usage
                0x0000000000000000       0x2e c:/program files/microchip/xc32/v4.60/bin/bin/../../lib/gcc/pic32c/8.3.1/../../../../pic32c/lib/thumb/v6-m/nofp\libg-musl.a(tolower.o)
 .text.__tolower_l
                0x0000000000000000        0x8 c:/program files/microchip/xc32/v4.60/bin/bin/../../lib/gcc/pic32c/8.3.1/../../../../pic32c/lib/thumb/v6-m/nofp\libg-musl.a(tolower.o)
 .xc_stack_usage.hdr
                0x0000000000000000        0xe c:/program files/microchip/xc32/v4.60/bin/bin/../../lib/gcc/pic32c/8.3.1/../../../../pic32c/lib/thumb/v6-m/nofp\libg-musl.a(tolower.o)
 .text          0x0000000000000000        0x0 c:/program files/microchip/xc32/v4.60/bin/bin/../../lib/gcc/pic32c/8.3.1/../../../../pic32c/lib/thumb/v6-m/nofp\libg-musl.a(toupper.o)
 .data          0x0000000000000000        0x0 c:/program files/microchip/xc32/v4.60/bin/bin/../../lib/gcc/pic32c/8.3.1/../../../../pic32c/lib/thumb/v6-m/nofp\libg-musl.a(toupper.o)
 .bss           0x0000000000000000        0x0 c:/program files/microchip/xc32/v4.60/bin/bin/../../lib/gcc/pic32c/8.3.1/../../../../pic32c/lib/thumb/v6-m/nofp\libg-musl.a(toupper.o)
 .xc_stack_usage
                0x0000000000000000       0x2e c:/program files/microchip/xc32/v4.60/bin/bin/../../lib/gcc/pic32c/8.3.1/../../../../pic32c/lib/thumb/v6-m/nofp\libg-musl.a(toupper.o)
 .text.__toupper_l
                0x0000000000000000        0x8 c:/program files/microchip/xc32/v4.60/bin/bin/../../lib/gcc/pic32c/8.3.1/../../../../pic32c/lib/thumb/v6-m/nofp\libg-musl.a(toupper.o)
 .xc_stack_usage.hdr
                0x0000000000000000        0xe c:/program files/microchip/xc32/v4.60/bin/bin/../../lib/gcc/pic32c/8.3.1/../../../../pic32c/lib/thumb/v6-m/nofp\libg-musl.a(toupper.o)
 .text          0x0000000000000000        0x0 c:/program files/microchip/xc32/v4.60/bin/bin/../../lib/gcc/pic32c/8.3.1/../../../../pic32c/lib/thumb/v6-m/nofp\libg-musl.a(__environ.o)
 .data          0x0000000000000000        0x0 c:/program files/microchip/xc32/v4.60/bin/bin/../../lib/gcc/pic32c/8.3.1/../../../../pic32c/lib/thumb/v6-m/nofp\libg-musl.a(__environ.o)
 .xc_stack_usage.hdr
                0x0000000000000000        0xe c:/program files/microchip/xc32/v4.60/bin/bin/../../lib/gcc/pic32c/8.3.1/../../../../pic32c/lib/thumb/v6-m/nofp\libg-musl.a(__environ.o)
 .text          0x0000000000000000        0x0 c:/program files/microchip/xc32/v4.60/bin/bin/../../lib/gcc/pic32c/8.3.1/../../../../pic32c/lib/thumb/v6-m/nofp\libg-musl.a(__int_vfprintf.o)
 .data          0x0000000000000000        0x0 c:/program files/microchip/xc32/v4.60/bin/bin/../../lib/gcc/pic32c/8.3.1/../../../../pic32c/lib/thumb/v6-m/nofp\libg-musl.a(__int_vfprintf.o)
 .bss           0x0000000000000000        0x0 c:/program files/microchip/xc32/v4.60/bin/bin/../../lib/gcc/pic32c/8.3.1/../../../../pic32c/lib/thumb/v6-m/nofp\libg-musl.a(__int_vfprintf.o)
 .xc_stack_usage
                0x0000000000000000       0x18 c:/program files/microchip/xc32/v4.60/bin/bin/../../lib/gcc/pic32c/8.3.1/../../../../pic32c/lib/thumb/v6-m/nofp\libg-musl.a(__int_vfprintf.o)
 .xc_stack_usage.hdr
                0x0000000000000000        0xe c:/program files/microchip/xc32/v4.60/bin/bin/../../lib/gcc/pic32c/8.3.1/../../../../pic32c/lib/thumb/v6-m/nofp\libg-musl.a(__int_vfprintf.o)
 .text          0x0000000000000000        0x0 c:/program files/microchip/xc32/v4.60/bin/bin/../../lib/gcc/pic32c/8.3.1/../../../../pic32c/lib/thumb/v6-m/nofp\libg-musl.a(__int_vsprintf.o)
 .data          0x0000000000000000        0x0 c:/program files/microchip/xc32/v4.60/bin/bin/../../lib/gcc/pic32c/8.3.1/../../../../pic32c/lib/thumb/v6-m/nofp\libg-musl.a(__int_vsprintf.o)
 .bss           0x0000000000000000        0x0 c:/program files/microchip/xc32/v4.60/bin/bin/../../lib/gcc/pic32c/8.3.1/../../../../pic32c/lib/thumb/v6-m/nofp\libg-musl.a(__int_vsprintf.o)
 .xc_stack_usage
                0x0000000000000000       0x18 c:/program files/microchip/xc32/v4.60/bin/bin/../../lib/gcc/pic32c/8.3.1/../../../../pic32c/lib/thumb/v6-m/nofp\libg-musl.a(__int_vsprintf.o)
 .xc_stack_usage.hdr
                0x0000000000000000        0xe c:/program files/microchip/xc32/v4.60/bin/bin/../../lib/gcc/pic32c/8.3.1/../../../../pic32c/lib/thumb/v6-m/nofp\libg-musl.a(__int_vsprintf.o)
 .text          0x0000000000000000        0x0 c:/program files/microchip/xc32/v4.60/bin/bin/../../lib/gcc/pic32c/8.3.1/../../../../pic32c/lib/thumb/v6-m/nofp\libg-musl.a(fputs.o)
 .data          0x0000000000000000        0x0 c:/program files/microchip/xc32/v4.60/bin/bin/../../lib/gcc/pic32c/8.3.1/../../../../pic32c/lib/thumb/v6-m/nofp\libg-musl.a(fputs.o)
 .bss           0x0000000000000000        0x0 c:/program files/microchip/xc32/v4.60/bin/bin/../../lib/gcc/pic32c/8.3.1/../../../../pic32c/lib/thumb/v6-m/nofp\libg-musl.a(fputs.o)
 .xc_stack_usage
                0x0000000000000000       0x13 c:/program files/microchip/xc32/v4.60/bin/bin/../../lib/gcc/pic32c/8.3.1/../../../../pic32c/lib/thumb/v6-m/nofp\libg-musl.a(fputs.o)
 .xc_stack_usage.hdr
                0x0000000000000000        0xe c:/program files/microchip/xc32/v4.60/bin/bin/../../lib/gcc/pic32c/8.3.1/../../../../pic32c/lib/thumb/v6-m/nofp\libg-musl.a(fputs.o)
 .text          0x0000000000000000        0x0 c:/program files/microchip/xc32/v4.60/bin/bin/../../lib/gcc/pic32c/8.3.1/../../../../pic32c/lib/thumb/v6-m/nofp\libg-musl.a(__cvt_u.o)
 .data          0x0000000000000000        0x0 c:/program files/microchip/xc32/v4.60/bin/bin/../../lib/gcc/pic32c/8.3.1/../../../../pic32c/lib/thumb/v6-m/nofp\libg-musl.a(__cvt_u.o)
 .bss           0x0000000000000000        0x0 c:/program files/microchip/xc32/v4.60/bin/bin/../../lib/gcc/pic32c/8.3.1/../../../../pic32c/lib/thumb/v6-m/nofp\libg-musl.a(__cvt_u.o)
 .xc_stack_usage
                0x0000000000000000       0x15 c:/program files/microchip/xc32/v4.60/bin/bin/../../lib/gcc/pic32c/8.3.1/../../../../pic32c/lib/thumb/v6-m/nofp\libg-musl.a(__cvt_u.o)
 .xc_stack_usage.hdr
                0x0000000000000000        0xe c:/program files/microchip/xc32/v4.60/bin/bin/../../lib/gcc/pic32c/8.3.1/../../../../pic32c/lib/thumb/v6-m/nofp\libg-musl.a(__cvt_u.o)
 .text          0x0000000000000000        0x0 c:/program files/microchip/xc32/v4.60/bin/bin/../../lib/gcc/pic32c/8.3.1/../../../../pic32c/lib/thumb/v6-m/nofp\libg-musl.a(__io_init_needed.o)
 .data          0x0000000000000000        0x0 c:/program files/microchip/xc32/v4.60/bin/bin/../../lib/gcc/pic32c/8.3.1/../../../../pic32c/lib/thumb/v6-m/nofp\libg-musl.a(__io_init_needed.o)
 .bss           0x0000000000000000        0x0 c:/program files/microchip/xc32/v4.60/bin/bin/../../lib/gcc/pic32c/8.3.1/../../../../pic32c/lib/thumb/v6-m/nofp\libg-musl.a(__io_init_needed.o)
 .xc_stack_usage
                0x0000000000000000       0x40 c:/program files/microchip/xc32/v4.60/bin/bin/../../lib/gcc/pic32c/8.3.1/../../../../pic32c/lib/thumb/v6-m/nofp\libg-musl.a(__io_init_needed.o)
 .xc_stack_usage.hdr
                0x0000000000000000        0xe c:/program files/microchip/xc32/v4.60/bin/bin/../../lib/gcc/pic32c/8.3.1/../../../../pic32c/lib/thumb/v6-m/nofp\libg-musl.a(__io_init_needed.o)
 .debug_info    0x0000000000000000       0xea c:/program files/microchip/xc32/v4.60/bin/bin/../../lib/gcc/pic32c/8.3.1/../../../../pic32c/lib/thumb/v6-m/nofp\libg-musl.a(__io_init_needed.o)
 .debug_abbrev  0x0000000000000000       0x81 c:/program files/microchip/xc32/v4.60/bin/bin/../../lib/gcc/pic32c/8.3.1/../../../../pic32c/lib/thumb/v6-m/nofp\libg-musl.a(__io_init_needed.o)
 .debug_loc     0x0000000000000000       0x40 c:/program files/microchip/xc32/v4.60/bin/bin/../../lib/gcc/pic32c/8.3.1/../../../../pic32c/lib/thumb/v6-m/nofp\libg-musl.a(__io_init_needed.o)
 .debug_aranges
                0x0000000000000000       0x28 c:/program files/microchip/xc32/v4.60/bin/bin/../../lib/gcc/pic32c/8.3.1/../../../../pic32c/lib/thumb/v6-m/nofp\libg-musl.a(__io_init_needed.o)
 .debug_ranges  0x0000000000000000       0x18 c:/program files/microchip/xc32/v4.60/bin/bin/../../lib/gcc/pic32c/8.3.1/../../../../pic32c/lib/thumb/v6-m/nofp\libg-musl.a(__io_init_needed.o)
 .debug_line    0x0000000000000000      0x137 c:/program files/microchip/xc32/v4.60/bin/bin/../../lib/gcc/pic32c/8.3.1/../../../../pic32c/lib/thumb/v6-m/nofp\libg-musl.a(__io_init_needed.o)
 .debug_str     0x0000000000000000      0x2d4 c:/program files/microchip/xc32/v4.60/bin/bin/../../lib/gcc/pic32c/8.3.1/../../../../pic32c/lib/thumb/v6-m/nofp\libg-musl.a(__io_init_needed.o)
 .comment       0x0000000000000000       0x2c c:/program files/microchip/xc32/v4.60/bin/bin/../../lib/gcc/pic32c/8.3.1/../../../../pic32c/lib/thumb/v6-m/nofp\libg-musl.a(__io_init_needed.o)
 .note.GNU-stack
                0x0000000000000000        0x0 c:/program files/microchip/xc32/v4.60/bin/bin/../../lib/gcc/pic32c/8.3.1/../../../../pic32c/lib/thumb/v6-m/nofp\libg-musl.a(__io_init_needed.o)
 .debug_frame   0x0000000000000000       0x40 c:/program files/microchip/xc32/v4.60/bin/bin/../../lib/gcc/pic32c/8.3.1/../../../../pic32c/lib/thumb/v6-m/nofp\libg-musl.a(__io_init_needed.o)
 .ARM.attributes
                0x0000000000000000       0x2e c:/program files/microchip/xc32/v4.60/bin/bin/../../lib/gcc/pic32c/8.3.1/../../../../pic32c/lib/thumb/v6-m/nofp\libg-musl.a(__io_init_needed.o)
 .text          0x0000000000000000        0x0 c:/program files/microchip/xc32/v4.60/bin/bin/../../lib/gcc/pic32c/8.3.1/../../../../pic32c/lib/thumb/v6-m/nofp\libg-musl.a(__io_rw_needed.o)
 .data          0x0000000000000000        0x0 c:/program files/microchip/xc32/v4.60/bin/bin/../../lib/gcc/pic32c/8.3.1/../../../../pic32c/lib/thumb/v6-m/nofp\libg-musl.a(__io_rw_needed.o)
 .bss           0x0000000000000000        0x0 c:/program files/microchip/xc32/v4.60/bin/bin/../../lib/gcc/pic32c/8.3.1/../../../../pic32c/lib/thumb/v6-m/nofp\libg-musl.a(__io_rw_needed.o)
 .xc_stack_usage
                0x0000000000000000       0x1c c:/program files/microchip/xc32/v4.60/bin/bin/../../lib/gcc/pic32c/8.3.1/../../../../pic32c/lib/thumb/v6-m/nofp\libg-musl.a(__io_rw_needed.o)
 .xc_stack_usage.hdr
                0x0000000000000000        0xe c:/program files/microchip/xc32/v4.60/bin/bin/../../lib/gcc/pic32c/8.3.1/../../../../pic32c/lib/thumb/v6-m/nofp\libg-musl.a(__io_rw_needed.o)
 .debug_info    0x0000000000000000       0xfd c:/program files/microchip/xc32/v4.60/bin/bin/../../lib/gcc/pic32c/8.3.1/../../../../pic32c/lib/thumb/v6-m/nofp\libg-musl.a(__io_rw_needed.o)
 .debug_abbrev  0x0000000000000000       0x67 c:/program files/microchip/xc32/v4.60/bin/bin/../../lib/gcc/pic32c/8.3.1/../../../../pic32c/lib/thumb/v6-m/nofp\libg-musl.a(__io_rw_needed.o)
 .debug_loc     0x0000000000000000       0x20 c:/program files/microchip/xc32/v4.60/bin/bin/../../lib/gcc/pic32c/8.3.1/../../../../pic32c/lib/thumb/v6-m/nofp\libg-musl.a(__io_rw_needed.o)
 .debug_aranges
                0x0000000000000000       0x20 c:/program files/microchip/xc32/v4.60/bin/bin/../../lib/gcc/pic32c/8.3.1/../../../../pic32c/lib/thumb/v6-m/nofp\libg-musl.a(__io_rw_needed.o)
 .debug_ranges  0x0000000000000000       0x10 c:/program files/microchip/xc32/v4.60/bin/bin/../../lib/gcc/pic32c/8.3.1/../../../../pic32c/lib/thumb/v6-m/nofp\libg-musl.a(__io_rw_needed.o)
 .debug_line    0x0000000000000000      0x12d c:/program files/microchip/xc32/v4.60/bin/bin/../../lib/gcc/pic32c/8.3.1/../../../../pic32c/lib/thumb/v6-m/nofp\libg-musl.a(__io_rw_needed.o)
 .debug_str     0x0000000000000000      0x2e3 c:/program files/microchip/xc32/v4.60/bin/bin/../../lib/gcc/pic32c/8.3.1/../../../../pic32c/lib/thumb/v6-m/nofp\libg-musl.a(__io_rw_needed.o)
 .comment       0x0000000000000000       0x2c c:/program files/microchip/xc32/v4.60/bin/bin/../../lib/gcc/pic32c/8.3.1/../../../../pic32c/lib/thumb/v6-m/nofp\libg-musl.a(__io_rw_needed.o)
 .note.GNU-stack
                0x0000000000000000        0x0 c:/program files/microchip/xc32/v4.60/bin/bin/../../lib/gcc/pic32c/8.3.1/../../../../pic32c/lib/thumb/v6-m/nofp\libg-musl.a(__io_rw_needed.o)
 .debug_frame   0x0000000000000000       0x28 c:/program files/microchip/xc32/v4.60/bin/bin/../../lib/gcc/pic32c/8.3.1/../../../../pic32c/lib/thumb/v6-m/nofp\libg-musl.a(__io_rw_needed.o)
 .ARM.attributes
                0x0000000000000000       0x2e c:/program files/microchip/xc32/v4.60/bin/bin/../../lib/gcc/pic32c/8.3.1/../../../../pic32c/lib/thumb/v6-m/nofp\libg-musl.a(__io_rw_needed.o)
 .text          0x0000000000000000        0x0 c:/program files/microchip/xc32/v4.60/bin/bin/../../lib/gcc/pic32c/8.3.1/../../../../pic32c/lib/thumb/v6-m/nofp\libg-musl.a(__stdio_read.o)
 .data          0x0000000000000000        0x0 c:/program files/microchip/xc32/v4.60/bin/bin/../../lib/gcc/pic32c/8.3.1/../../../../pic32c/lib/thumb/v6-m/nofp\libg-musl.a(__stdio_read.o)
 .bss           0x0000000000000000        0x0 c:/program files/microchip/xc32/v4.60/bin/bin/../../lib/gcc/pic32c/8.3.1/../../../../pic32c/lib/thumb/v6-m/nofp\libg-musl.a(__stdio_read.o)
 .xc_stack_usage
                0x0000000000000000       0x1a c:/program files/microchip/xc32/v4.60/bin/bin/../../lib/gcc/pic32c/8.3.1/../../../../pic32c/lib/thumb/v6-m/nofp\libg-musl.a(__stdio_read.o)
 .xc_stack_usage.hdr
                0x0000000000000000        0xe c:/program files/microchip/xc32/v4.60/bin/bin/../../lib/gcc/pic32c/8.3.1/../../../../pic32c/lib/thumb/v6-m/nofp\libg-musl.a(__stdio_read.o)
 .text          0x0000000000000000        0x0 c:/program files/microchip/xc32/v4.60/bin/bin/../../lib/gcc/pic32c/8.3.1/../../../../pic32c/lib/thumb/v6-m/nofp\libg-musl.a(__towrite_rw.o)
 .data          0x0000000000000000        0x0 c:/program files/microchip/xc32/v4.60/bin/bin/../../lib/gcc/pic32c/8.3.1/../../../../pic32c/lib/thumb/v6-m/nofp\libg-musl.a(__towrite_rw.o)
 .bss           0x0000000000000000        0x0 c:/program files/microchip/xc32/v4.60/bin/bin/../../lib/gcc/pic32c/8.3.1/../../../../pic32c/lib/thumb/v6-m/nofp\libg-musl.a(__towrite_rw.o)
 .xc_stack_usage
                0x0000000000000000       0x1a c:/program files/microchip/xc32/v4.60/bin/bin/../../lib/gcc/pic32c/8.3.1/../../../../pic32c/lib/thumb/v6-m/nofp\libg-musl.a(__towrite_rw.o)
 .xc_stack_usage.hdr
                0x0000000000000000        0xe c:/program files/microchip/xc32/v4.60/bin/bin/../../lib/gcc/pic32c/8.3.1/../../../../pic32c/lib/thumb/v6-m/nofp\libg-musl.a(__towrite_rw.o)
 .text          0x0000000000000000        0x0 c:/program files/microchip/xc32/v4.60/bin/bin/../../lib/gcc/pic32c/8.3.1/../../../../pic32c/lib/thumb/v6-m/nofp\libg-musl.a(fwrite.o)
 .data          0x0000000000000000        0x0 c:/program files/microchip/xc32/v4.60/bin/bin/../../lib/gcc/pic32c/8.3.1/../../../../pic32c/lib/thumb/v6-m/nofp\libg-musl.a(fwrite.o)
 .bss           0x0000000000000000        0x0 c:/program files/microchip/xc32/v4.60/bin/bin/../../lib/gcc/pic32c/8.3.1/../../../../pic32c/lib/thumb/v6-m/nofp\libg-musl.a(fwrite.o)
 .xc_stack_usage
                0x0000000000000000       0x2e c:/program files/microchip/xc32/v4.60/bin/bin/../../lib/gcc/pic32c/8.3.1/../../../../pic32c/lib/thumb/v6-m/nofp\libg-musl.a(fwrite.o)
 .text.__fwrite_min
                0x0000000000000000        0xa c:/program files/microchip/xc32/v4.60/bin/bin/../../lib/gcc/pic32c/8.3.1/../../../../pic32c/lib/thumb/v6-m/nofp\libg-musl.a(fwrite.o)
 .xc_stack_usage.hdr
                0x0000000000000000        0xe c:/program files/microchip/xc32/v4.60/bin/bin/../../lib/gcc/pic32c/8.3.1/../../../../pic32c/lib/thumb/v6-m/nofp\libg-musl.a(fwrite.o)
 .text          0x0000000000000000        0x0 c:/program files/microchip/xc32/v4.60/bin/bin/../../lib/gcc/pic32c/8.3.1/../../../../pic32c/lib/thumb/v6-m/nofp\libg-musl.a(putc.o)
 .data          0x0000000000000000        0x0 c:/program files/microchip/xc32/v4.60/bin/bin/../../lib/gcc/pic32c/8.3.1/../../../../pic32c/lib/thumb/v6-m/nofp\libg-musl.a(putc.o)
 .bss           0x0000000000000000        0x0 c:/program files/microchip/xc32/v4.60/bin/bin/../../lib/gcc/pic32c/8.3.1/../../../../pic32c/lib/thumb/v6-m/nofp\libg-musl.a(putc.o)
 .xc_stack_usage
                0x0000000000000000       0x4f c:/program files/microchip/xc32/v4.60/bin/bin/../../lib/gcc/pic32c/8.3.1/../../../../pic32c/lib/thumb/v6-m/nofp\libg-musl.a(putc.o)
 .xc_stack_usage.hdr
                0x0000000000000000        0xe c:/program files/microchip/xc32/v4.60/bin/bin/../../lib/gcc/pic32c/8.3.1/../../../../pic32c/lib/thumb/v6-m/nofp\libg-musl.a(putc.o)
 .text          0x0000000000000000        0x0 c:/program files/microchip/xc32/v4.60/bin/bin/../../lib/gcc/pic32c/8.3.1/../../../../pic32c/lib/thumb/v6-m/nofp\libg-musl.a(setvbuf.o)
 .data          0x0000000000000000        0x0 c:/program files/microchip/xc32/v4.60/bin/bin/../../lib/gcc/pic32c/8.3.1/../../../../pic32c/lib/thumb/v6-m/nofp\libg-musl.a(setvbuf.o)
 .bss           0x0000000000000000        0x0 c:/program files/microchip/xc32/v4.60/bin/bin/../../lib/gcc/pic32c/8.3.1/../../../../pic32c/lib/thumb/v6-m/nofp\libg-musl.a(setvbuf.o)
 .xc_stack_usage
                0x0000000000000000       0x36 c:/program files/microchip/xc32/v4.60/bin/bin/../../lib/gcc/pic32c/8.3.1/../../../../pic32c/lib/thumb/v6-m/nofp\libg-musl.a(setvbuf.o)
 .xc_stack_usage.hdr
                0x0000000000000000        0xe c:/program files/microchip/xc32/v4.60/bin/bin/../../lib/gcc/pic32c/8.3.1/../../../../pic32c/lib/thumb/v6-m/nofp\libg-musl.a(setvbuf.o)
 .text          0x0000000000000000        0x0 c:/program files/microchip/xc32/v4.60/bin/bin/../../lib/gcc/pic32c/8.3.1/../../../../pic32c/lib/thumb/v6-m/nofp\libg-musl.a(readv.o)
 .data          0x0000000000000000        0x0 c:/program files/microchip/xc32/v4.60/bin/bin/../../lib/gcc/pic32c/8.3.1/../../../../pic32c/lib/thumb/v6-m/nofp\libg-musl.a(readv.o)
 .bss           0x0000000000000000        0x0 c:/program files/microchip/xc32/v4.60/bin/bin/../../lib/gcc/pic32c/8.3.1/../../../../pic32c/lib/thumb/v6-m/nofp\libg-musl.a(readv.o)
 .xc_stack_usage
                0x0000000000000000       0x15 c:/program files/microchip/xc32/v4.60/bin/bin/../../lib/gcc/pic32c/8.3.1/../../../../pic32c/lib/thumb/v6-m/nofp\libg-musl.a(readv.o)
 .xc_stack_usage.hdr
                0x0000000000000000        0xe c:/program files/microchip/xc32/v4.60/bin/bin/../../lib/gcc/pic32c/8.3.1/../../../../pic32c/lib/thumb/v6-m/nofp\libg-musl.a(readv.o)
 .text          0x0000000000000000        0x0 c:/program files/microchip/xc32/v4.60/bin/bin/../../lib/gcc/pic32c/8.3.1/../../../../pic32c/lib/thumb/v6-m/nofp\libg-musl.a(__int_vsnprintf.o)
 .data          0x0000000000000000        0x0 c:/program files/microchip/xc32/v4.60/bin/bin/../../lib/gcc/pic32c/8.3.1/../../../../pic32c/lib/thumb/v6-m/nofp\libg-musl.a(__int_vsnprintf.o)
 .bss           0x0000000000000000        0x0 c:/program files/microchip/xc32/v4.60/bin/bin/../../lib/gcc/pic32c/8.3.1/../../../../pic32c/lib/thumb/v6-m/nofp\libg-musl.a(__int_vsnprintf.o)
 .xc_stack_usage
                0x0000000000000000       0x19 c:/program files/microchip/xc32/v4.60/bin/bin/../../lib/gcc/pic32c/8.3.1/../../../../pic32c/lib/thumb/v6-m/nofp\libg-musl.a(__int_vsnprintf.o)
 .xc_stack_usage.hdr
                0x0000000000000000        0xe c:/program files/microchip/xc32/v4.60/bin/bin/../../lib/gcc/pic32c/8.3.1/../../../../pic32c/lib/thumb/v6-m/nofp\libg-musl.a(__int_vsnprintf.o)
 .text          0x0000000000000000        0x0 c:/program files/microchip/xc32/v4.60/bin/bin/../../lib/gcc/pic32c/8.3.1/../../../../pic32c/lib/thumb/v6-m/nofp\libg-musl.a(__fopen_rw.o)
 .data          0x0000000000000000        0x0 c:/program files/microchip/xc32/v4.60/bin/bin/../../lib/gcc/pic32c/8.3.1/../../../../pic32c/lib/thumb/v6-m/nofp\libg-musl.a(__fopen_rw.o)
 .bss           0x0000000000000000        0x0 c:/program files/microchip/xc32/v4.60/bin/bin/../../lib/gcc/pic32c/8.3.1/../../../../pic32c/lib/thumb/v6-m/nofp\libg-musl.a(__fopen_rw.o)
 .xc_stack_usage
                0x0000000000000000       0x18 c:/program files/microchip/xc32/v4.60/bin/bin/../../lib/gcc/pic32c/8.3.1/../../../../pic32c/lib/thumb/v6-m/nofp\libg-musl.a(__fopen_rw.o)
 .text.__fopen_rw
                0x0000000000000000       0x4c c:/program files/microchip/xc32/v4.60/bin/bin/../../lib/gcc/pic32c/8.3.1/../../../../pic32c/lib/thumb/v6-m/nofp\libg-musl.a(__fopen_rw.o)
 .xc_stack_usage.hdr
                0x0000000000000000        0xe c:/program files/microchip/xc32/v4.60/bin/bin/../../lib/gcc/pic32c/8.3.1/../../../../pic32c/lib/thumb/v6-m/nofp\libg-musl.a(__fopen_rw.o)
 .debug_info    0x0000000000000000      0x3dc c:/program files/microchip/xc32/v4.60/bin/bin/../../lib/gcc/pic32c/8.3.1/../../../../pic32c/lib/thumb/v6-m/nofp\libg-musl.a(__fopen_rw.o)
 .debug_abbrev  0x0000000000000000      0x12c c:/program files/microchip/xc32/v4.60/bin/bin/../../lib/gcc/pic32c/8.3.1/../../../../pic32c/lib/thumb/v6-m/nofp\libg-musl.a(__fopen_rw.o)
 .debug_loc     0x0000000000000000       0x4f c:/program files/microchip/xc32/v4.60/bin/bin/../../lib/gcc/pic32c/8.3.1/../../../../pic32c/lib/thumb/v6-m/nofp\libg-musl.a(__fopen_rw.o)
 .debug_aranges
                0x0000000000000000       0x20 c:/program files/microchip/xc32/v4.60/bin/bin/../../lib/gcc/pic32c/8.3.1/../../../../pic32c/lib/thumb/v6-m/nofp\libg-musl.a(__fopen_rw.o)
 .debug_ranges  0x0000000000000000       0x10 c:/program files/microchip/xc32/v4.60/bin/bin/../../lib/gcc/pic32c/8.3.1/../../../../pic32c/lib/thumb/v6-m/nofp\libg-musl.a(__fopen_rw.o)
 .debug_line    0x0000000000000000      0x28e c:/program files/microchip/xc32/v4.60/bin/bin/../../lib/gcc/pic32c/8.3.1/../../../../pic32c/lib/thumb/v6-m/nofp\libg-musl.a(__fopen_rw.o)
 .debug_str     0x0000000000000000      0x355 c:/program files/microchip/xc32/v4.60/bin/bin/../../lib/gcc/pic32c/8.3.1/../../../../pic32c/lib/thumb/v6-m/nofp\libg-musl.a(__fopen_rw.o)
 .comment       0x0000000000000000       0x2c c:/program files/microchip/xc32/v4.60/bin/bin/../../lib/gcc/pic32c/8.3.1/../../../../pic32c/lib/thumb/v6-m/nofp\libg-musl.a(__fopen_rw.o)
 .note.GNU-stack
                0x0000000000000000        0x0 c:/program files/microchip/xc32/v4.60/bin/bin/../../lib/gcc/pic32c/8.3.1/../../../../pic32c/lib/thumb/v6-m/nofp\libg-musl.a(__fopen_rw.o)
 .debug_frame   0x0000000000000000       0x28 c:/program files/microchip/xc32/v4.60/bin/bin/../../lib/gcc/pic32c/8.3.1/../../../../pic32c/lib/thumb/v6-m/nofp\libg-musl.a(__fopen_rw.o)
 .ARM.attributes
                0x0000000000000000       0x2e c:/program files/microchip/xc32/v4.60/bin/bin/../../lib/gcc/pic32c/8.3.1/../../../../pic32c/lib/thumb/v6-m/nofp\libg-musl.a(__fopen_rw.o)
 .text          0x0000000000000000        0x0 c:/program files/microchip/xc32/v4.60/bin/bin/../../lib/gcc/pic32c/8.3.1/../../../../pic32c/lib/thumb/v6-m/nofp\libg-musl.a(__ftello_rw.o)
 .data          0x0000000000000000        0x0 c:/program files/microchip/xc32/v4.60/bin/bin/../../lib/gcc/pic32c/8.3.1/../../../../pic32c/lib/thumb/v6-m/nofp\libg-musl.a(__ftello_rw.o)
 .bss           0x0000000000000000        0x0 c:/program files/microchip/xc32/v4.60/bin/bin/../../lib/gcc/pic32c/8.3.1/../../../../pic32c/lib/thumb/v6-m/nofp\libg-musl.a(__ftello_rw.o)
 .xc_stack_usage
                0x0000000000000000       0x1d c:/program files/microchip/xc32/v4.60/bin/bin/../../lib/gcc/pic32c/8.3.1/../../../../pic32c/lib/thumb/v6-m/nofp\libg-musl.a(__ftello_rw.o)
 .text.__ftello_adj_rw
                0x0000000000000000       0x28 c:/program files/microchip/xc32/v4.60/bin/bin/../../lib/gcc/pic32c/8.3.1/../../../../pic32c/lib/thumb/v6-m/nofp\libg-musl.a(__ftello_rw.o)
 .xc_stack_usage.hdr
                0x0000000000000000        0xe c:/program files/microchip/xc32/v4.60/bin/bin/../../lib/gcc/pic32c/8.3.1/../../../../pic32c/lib/thumb/v6-m/nofp\libg-musl.a(__ftello_rw.o)
 .debug_info    0x0000000000000000      0x34a c:/program files/microchip/xc32/v4.60/bin/bin/../../lib/gcc/pic32c/8.3.1/../../../../pic32c/lib/thumb/v6-m/nofp\libg-musl.a(__ftello_rw.o)
 .debug_abbrev  0x0000000000000000      0x10b c:/program files/microchip/xc32/v4.60/bin/bin/../../lib/gcc/pic32c/8.3.1/../../../../pic32c/lib/thumb/v6-m/nofp\libg-musl.a(__ftello_rw.o)
 .debug_loc     0x0000000000000000       0x45 c:/program files/microchip/xc32/v4.60/bin/bin/../../lib/gcc/pic32c/8.3.1/../../../../pic32c/lib/thumb/v6-m/nofp\libg-musl.a(__ftello_rw.o)
 .debug_aranges
                0x0000000000000000       0x20 c:/program files/microchip/xc32/v4.60/bin/bin/../../lib/gcc/pic32c/8.3.1/../../../../pic32c/lib/thumb/v6-m/nofp\libg-musl.a(__ftello_rw.o)
 .debug_ranges  0x0000000000000000       0x10 c:/program files/microchip/xc32/v4.60/bin/bin/../../lib/gcc/pic32c/8.3.1/../../../../pic32c/lib/thumb/v6-m/nofp\libg-musl.a(__ftello_rw.o)
 .debug_line    0x0000000000000000      0x1d2 c:/program files/microchip/xc32/v4.60/bin/bin/../../lib/gcc/pic32c/8.3.1/../../../../pic32c/lib/thumb/v6-m/nofp\libg-musl.a(__ftello_rw.o)
 .debug_str     0x0000000000000000      0x33f c:/program files/microchip/xc32/v4.60/bin/bin/../../lib/gcc/pic32c/8.3.1/../../../../pic32c/lib/thumb/v6-m/nofp\libg-musl.a(__ftello_rw.o)
 .comment       0x0000000000000000       0x2c c:/program files/microchip/xc32/v4.60/bin/bin/../../lib/gcc/pic32c/8.3.1/../../../../pic32c/lib/thumb/v6-m/nofp\libg-musl.a(__ftello_rw.o)
 .note.GNU-stack
                0x0000000000000000        0x0 c:/program files/microchip/xc32/v4.60/bin/bin/../../lib/gcc/pic32c/8.3.1/../../../../pic32c/lib/thumb/v6-m/nofp\libg-musl.a(__ftello_rw.o)
 .debug_frame   0x0000000000000000       0x2c c:/program files/microchip/xc32/v4.60/bin/bin/../../lib/gcc/pic32c/8.3.1/../../../../pic32c/lib/thumb/v6-m/nofp\libg-musl.a(__ftello_rw.o)
 .ARM.attributes
                0x0000000000000000       0x2e c:/program files/microchip/xc32/v4.60/bin/bin/../../lib/gcc/pic32c/8.3.1/../../../../pic32c/lib/thumb/v6-m/nofp\libg-musl.a(__ftello_rw.o)
 .text          0x0000000000000000        0x0 c:/program files/microchip/xc32/v4.60/bin/bin/../../lib/gcc/pic32c/8.3.1/../../../../pic32c/lib/thumb/v6-m/nofp\libg-musl.a(__init_stdio.o)
 .data          0x0000000000000000        0x0 c:/program files/microchip/xc32/v4.60/bin/bin/../../lib/gcc/pic32c/8.3.1/../../../../pic32c/lib/thumb/v6-m/nofp\libg-musl.a(__init_stdio.o)
 .bss           0x0000000000000000        0x0 c:/program files/microchip/xc32/v4.60/bin/bin/../../lib/gcc/pic32c/8.3.1/../../../../pic32c/lib/thumb/v6-m/nofp\libg-musl.a(__init_stdio.o)
 .xc_stack_usage
                0x0000000000000000       0x2f c:/program files/microchip/xc32/v4.60/bin/bin/../../lib/gcc/pic32c/8.3.1/../../../../pic32c/lib/thumb/v6-m/nofp\libg-musl.a(__init_stdio.o)
 .xc_stack_usage.hdr
                0x0000000000000000        0xe c:/program files/microchip/xc32/v4.60/bin/bin/../../lib/gcc/pic32c/8.3.1/../../../../pic32c/lib/thumb/v6-m/nofp\libg-musl.a(__init_stdio.o)
 .text          0x0000000000000000        0x0 c:/program files/microchip/xc32/v4.60/bin/bin/../../lib/gcc/pic32c/8.3.1/../../../../pic32c/lib/thumb/v6-m/nofp\libg-musl.a(__io_buf_needed.o)
 .data          0x0000000000000000        0x0 c:/program files/microchip/xc32/v4.60/bin/bin/../../lib/gcc/pic32c/8.3.1/../../../../pic32c/lib/thumb/v6-m/nofp\libg-musl.a(__io_buf_needed.o)
 .bss           0x0000000000000000        0x0 c:/program files/microchip/xc32/v4.60/bin/bin/../../lib/gcc/pic32c/8.3.1/../../../../pic32c/lib/thumb/v6-m/nofp\libg-musl.a(__io_buf_needed.o)
 .xc_stack_usage
                0x0000000000000000       0x1d c:/program files/microchip/xc32/v4.60/bin/bin/../../lib/gcc/pic32c/8.3.1/../../../../pic32c/lib/thumb/v6-m/nofp\libg-musl.a(__io_buf_needed.o)
 .xc_stack_usage.hdr
                0x0000000000000000        0xe c:/program files/microchip/xc32/v4.60/bin/bin/../../lib/gcc/pic32c/8.3.1/../../../../pic32c/lib/thumb/v6-m/nofp\libg-musl.a(__io_buf_needed.o)
 .debug_info    0x0000000000000000      0x142 c:/program files/microchip/xc32/v4.60/bin/bin/../../lib/gcc/pic32c/8.3.1/../../../../pic32c/lib/thumb/v6-m/nofp\libg-musl.a(__io_buf_needed.o)
 .debug_abbrev  0x0000000000000000       0x67 c:/program files/microchip/xc32/v4.60/bin/bin/../../lib/gcc/pic32c/8.3.1/../../../../pic32c/lib/thumb/v6-m/nofp\libg-musl.a(__io_buf_needed.o)
 .debug_loc     0x0000000000000000       0x20 c:/program files/microchip/xc32/v4.60/bin/bin/../../lib/gcc/pic32c/8.3.1/../../../../pic32c/lib/thumb/v6-m/nofp\libg-musl.a(__io_buf_needed.o)
 .debug_aranges
                0x0000000000000000       0x20 c:/program files/microchip/xc32/v4.60/bin/bin/../../lib/gcc/pic32c/8.3.1/../../../../pic32c/lib/thumb/v6-m/nofp\libg-musl.a(__io_buf_needed.o)
 .debug_ranges  0x0000000000000000       0x10 c:/program files/microchip/xc32/v4.60/bin/bin/../../lib/gcc/pic32c/8.3.1/../../../../pic32c/lib/thumb/v6-m/nofp\libg-musl.a(__io_buf_needed.o)
 .debug_line    0x0000000000000000      0x131 c:/program files/microchip/xc32/v4.60/bin/bin/../../lib/gcc/pic32c/8.3.1/../../../../pic32c/lib/thumb/v6-m/nofp\libg-musl.a(__io_buf_needed.o)
 .debug_str     0x0000000000000000      0x30f c:/program files/microchip/xc32/v4.60/bin/bin/../../lib/gcc/pic32c/8.3.1/../../../../pic32c/lib/thumb/v6-m/nofp\libg-musl.a(__io_buf_needed.o)
 .comment       0x0000000000000000       0x2c c:/program files/microchip/xc32/v4.60/bin/bin/../../lib/gcc/pic32c/8.3.1/../../../../pic32c/lib/thumb/v6-m/nofp\libg-musl.a(__io_buf_needed.o)
 .note.GNU-stack
                0x0000000000000000        0x0 c:/program files/microchip/xc32/v4.60/bin/bin/../../lib/gcc/pic32c/8.3.1/../../../../pic32c/lib/thumb/v6-m/nofp\libg-musl.a(__io_buf_needed.o)
 .debug_frame   0x0000000000000000       0x28 c:/program files/microchip/xc32/v4.60/bin/bin/../../lib/gcc/pic32c/8.3.1/../../../../pic32c/lib/thumb/v6-m/nofp\libg-musl.a(__io_buf_needed.o)
 .ARM.attributes
                0x0000000000000000       0x2e c:/program files/microchip/xc32/v4.60/bin/bin/../../lib/gcc/pic32c/8.3.1/../../../../pic32c/lib/thumb/v6-m/nofp\libg-musl.a(__io_buf_needed.o)
 .text          0x0000000000000000        0x0 c:/program files/microchip/xc32/v4.60/bin/bin/../../lib/gcc/pic32c/8.3.1/../../../../pic32c/lib/thumb/v6-m/nofp\libg-musl.a(__io_file_needed.o)
 .data          0x0000000000000000        0x0 c:/program files/microchip/xc32/v4.60/bin/bin/../../lib/gcc/pic32c/8.3.1/../../../../pic32c/lib/thumb/v6-m/nofp\libg-musl.a(__io_file_needed.o)
 .bss           0x0000000000000000        0x0 c:/program files/microchip/xc32/v4.60/bin/bin/../../lib/gcc/pic32c/8.3.1/../../../../pic32c/lib/thumb/v6-m/nofp\libg-musl.a(__io_file_needed.o)
 .xc_stack_usage
                0x0000000000000000       0x1e c:/program files/microchip/xc32/v4.60/bin/bin/../../lib/gcc/pic32c/8.3.1/../../../../pic32c/lib/thumb/v6-m/nofp\libg-musl.a(__io_file_needed.o)
 .xc_stack_usage.hdr
                0x0000000000000000        0xe c:/program files/microchip/xc32/v4.60/bin/bin/../../lib/gcc/pic32c/8.3.1/../../../../pic32c/lib/thumb/v6-m/nofp\libg-musl.a(__io_file_needed.o)
 .debug_info    0x0000000000000000       0xb8 c:/program files/microchip/xc32/v4.60/bin/bin/../../lib/gcc/pic32c/8.3.1/../../../../pic32c/lib/thumb/v6-m/nofp\libg-musl.a(__io_file_needed.o)
 .debug_abbrev  0x0000000000000000       0x67 c:/program files/microchip/xc32/v4.60/bin/bin/../../lib/gcc/pic32c/8.3.1/../../../../pic32c/lib/thumb/v6-m/nofp\libg-musl.a(__io_file_needed.o)
 .debug_loc     0x0000000000000000       0x20 c:/program files/microchip/xc32/v4.60/bin/bin/../../lib/gcc/pic32c/8.3.1/../../../../pic32c/lib/thumb/v6-m/nofp\libg-musl.a(__io_file_needed.o)
 .debug_aranges
                0x0000000000000000       0x20 c:/program files/microchip/xc32/v4.60/bin/bin/../../lib/gcc/pic32c/8.3.1/../../../../pic32c/lib/thumb/v6-m/nofp\libg-musl.a(__io_file_needed.o)
 .debug_ranges  0x0000000000000000       0x10 c:/program files/microchip/xc32/v4.60/bin/bin/../../lib/gcc/pic32c/8.3.1/../../../../pic32c/lib/thumb/v6-m/nofp\libg-musl.a(__io_file_needed.o)
 .debug_line    0x0000000000000000       0xb6 c:/program files/microchip/xc32/v4.60/bin/bin/../../lib/gcc/pic32c/8.3.1/../../../../pic32c/lib/thumb/v6-m/nofp\libg-musl.a(__io_file_needed.o)
 .debug_str     0x0000000000000000      0x2a7 c:/program files/microchip/xc32/v4.60/bin/bin/../../lib/gcc/pic32c/8.3.1/../../../../pic32c/lib/thumb/v6-m/nofp\libg-musl.a(__io_file_needed.o)
 .comment       0x0000000000000000       0x2c c:/program files/microchip/xc32/v4.60/bin/bin/../../lib/gcc/pic32c/8.3.1/../../../../pic32c/lib/thumb/v6-m/nofp\libg-musl.a(__io_file_needed.o)
 .note.GNU-stack
                0x0000000000000000        0x0 c:/program files/microchip/xc32/v4.60/bin/bin/../../lib/gcc/pic32c/8.3.1/../../../../pic32c/lib/thumb/v6-m/nofp\libg-musl.a(__io_file_needed.o)
 .debug_frame   0x0000000000000000       0x28 c:/program files/microchip/xc32/v4.60/bin/bin/../../lib/gcc/pic32c/8.3.1/../../../../pic32c/lib/thumb/v6-m/nofp\libg-musl.a(__io_file_needed.o)
 .ARM.attributes
                0x0000000000000000       0x2e c:/program files/microchip/xc32/v4.60/bin/bin/../../lib/gcc/pic32c/8.3.1/../../../../pic32c/lib/thumb/v6-m/nofp\libg-musl.a(__io_file_needed.o)
 .text          0x0000000000000000        0x0 c:/program files/microchip/xc32/v4.60/bin/bin/../../lib/gcc/pic32c/8.3.1/../../../../pic32c/lib/thumb/v6-m/nofp\libg-musl.a(__io_std_needed.o)
 .data          0x0000000000000000        0x0 c:/program files/microchip/xc32/v4.60/bin/bin/../../lib/gcc/pic32c/8.3.1/../../../../pic32c/lib/thumb/v6-m/nofp\libg-musl.a(__io_std_needed.o)
 .bss           0x0000000000000000        0x0 c:/program files/microchip/xc32/v4.60/bin/bin/../../lib/gcc/pic32c/8.3.1/../../../../pic32c/lib/thumb/v6-m/nofp\libg-musl.a(__io_std_needed.o)
 .xc_stack_usage
                0x0000000000000000       0x1d c:/program files/microchip/xc32/v4.60/bin/bin/../../lib/gcc/pic32c/8.3.1/../../../../pic32c/lib/thumb/v6-m/nofp\libg-musl.a(__io_std_needed.o)
 .xc_stack_usage.hdr
                0x0000000000000000        0xe c:/program files/microchip/xc32/v4.60/bin/bin/../../lib/gcc/pic32c/8.3.1/../../../../pic32c/lib/thumb/v6-m/nofp\libg-musl.a(__io_std_needed.o)
 .debug_info    0x0000000000000000      0x12b c:/program files/microchip/xc32/v4.60/bin/bin/../../lib/gcc/pic32c/8.3.1/../../../../pic32c/lib/thumb/v6-m/nofp\libg-musl.a(__io_std_needed.o)
 .debug_abbrev  0x0000000000000000       0x67 c:/program files/microchip/xc32/v4.60/bin/bin/../../lib/gcc/pic32c/8.3.1/../../../../pic32c/lib/thumb/v6-m/nofp\libg-musl.a(__io_std_needed.o)
 .debug_loc     0x0000000000000000       0x20 c:/program files/microchip/xc32/v4.60/bin/bin/../../lib/gcc/pic32c/8.3.1/../../../../pic32c/lib/thumb/v6-m/nofp\libg-musl.a(__io_std_needed.o)
 .debug_aranges
                0x0000000000000000       0x20 c:/program files/microchip/xc32/v4.60/bin/bin/../../lib/gcc/pic32c/8.3.1/../../../../pic32c/lib/thumb/v6-m/nofp\libg-musl.a(__io_std_needed.o)
 .debug_ranges  0x0000000000000000       0x10 c:/program files/microchip/xc32/v4.60/bin/bin/../../lib/gcc/pic32c/8.3.1/../../../../pic32c/lib/thumb/v6-m/nofp\libg-musl.a(__io_std_needed.o)
 .debug_line    0x0000000000000000      0x130 c:/program files/microchip/xc32/v4.60/bin/bin/../../lib/gcc/pic32c/8.3.1/../../../../pic32c/lib/thumb/v6-m/nofp\libg-musl.a(__io_std_needed.o)
 .debug_str     0x0000000000000000      0x303 c:/program files/microchip/xc32/v4.60/bin/bin/../../lib/gcc/pic32c/8.3.1/../../../../pic32c/lib/thumb/v6-m/nofp\libg-musl.a(__io_std_needed.o)
 .comment       0x0000000000000000       0x2c c:/program files/microchip/xc32/v4.60/bin/bin/../../lib/gcc/pic32c/8.3.1/../../../../pic32c/lib/thumb/v6-m/nofp\libg-musl.a(__io_std_needed.o)
 .note.GNU-stack
                0x0000000000000000        0x0 c:/program files/microchip/xc32/v4.60/bin/bin/../../lib/gcc/pic32c/8.3.1/../../../../pic32c/lib/thumb/v6-m/nofp\libg-musl.a(__io_std_needed.o)
 .debug_frame   0x0000000000000000       0x28 c:/program files/microchip/xc32/v4.60/bin/bin/../../lib/gcc/pic32c/8.3.1/../../../../pic32c/lib/thumb/v6-m/nofp\libg-musl.a(__io_std_needed.o)
 .ARM.attributes
                0x0000000000000000       0x2e c:/program files/microchip/xc32/v4.60/bin/bin/../../lib/gcc/pic32c/8.3.1/../../../../pic32c/lib/thumb/v6-m/nofp\libg-musl.a(__io_std_needed.o)
 .text          0x0000000000000000        0x0 c:/program files/microchip/xc32/v4.60/bin/bin/../../lib/gcc/pic32c/8.3.1/../../../../pic32c/lib/thumb/v6-m/nofp\libg-musl.a(__out.o)
 .data          0x0000000000000000        0x0 c:/program files/microchip/xc32/v4.60/bin/bin/../../lib/gcc/pic32c/8.3.1/../../../../pic32c/lib/thumb/v6-m/nofp\libg-musl.a(__out.o)
 .bss           0x0000000000000000        0x0 c:/program files/microchip/xc32/v4.60/bin/bin/../../lib/gcc/pic32c/8.3.1/../../../../pic32c/lib/thumb/v6-m/nofp\libg-musl.a(__out.o)
 .xc_stack_usage
                0x0000000000000000       0x2d c:/program files/microchip/xc32/v4.60/bin/bin/../../lib/gcc/pic32c/8.3.1/../../../../pic32c/lib/thumb/v6-m/nofp\libg-musl.a(__out.o)
 .xc_stack_usage.hdr
                0x0000000000000000        0xe c:/program files/microchip/xc32/v4.60/bin/bin/../../lib/gcc/pic32c/8.3.1/../../../../pic32c/lib/thumb/v6-m/nofp\libg-musl.a(__out.o)
 .text          0x0000000000000000        0x0 c:/program files/microchip/xc32/v4.60/bin/bin/../../lib/gcc/pic32c/8.3.1/../../../../pic32c/lib/thumb/v6-m/nofp\libg-musl.a(__putc.o)
 .data          0x0000000000000000        0x0 c:/program files/microchip/xc32/v4.60/bin/bin/../../lib/gcc/pic32c/8.3.1/../../../../pic32c/lib/thumb/v6-m/nofp\libg-musl.a(__putc.o)
 .bss           0x0000000000000000        0x0 c:/program files/microchip/xc32/v4.60/bin/bin/../../lib/gcc/pic32c/8.3.1/../../../../pic32c/lib/thumb/v6-m/nofp\libg-musl.a(__putc.o)
 .xc_stack_usage
                0x0000000000000000       0x14 c:/program files/microchip/xc32/v4.60/bin/bin/../../lib/gcc/pic32c/8.3.1/../../../../pic32c/lib/thumb/v6-m/nofp\libg-musl.a(__putc.o)
 .xc_stack_usage.hdr
                0x0000000000000000        0xe c:/program files/microchip/xc32/v4.60/bin/bin/../../lib/gcc/pic32c/8.3.1/../../../../pic32c/lib/thumb/v6-m/nofp\libg-musl.a(__putc.o)
 .text          0x0000000000000000        0x0 c:/program files/microchip/xc32/v4.60/bin/bin/../../lib/gcc/pic32c/8.3.1/../../../../pic32c/lib/thumb/v6-m/nofp\libg-musl.a(__stderr.o)
 .data          0x0000000000000000       0x60 c:/program files/microchip/xc32/v4.60/bin/bin/../../lib/gcc/pic32c/8.3.1/../../../../pic32c/lib/thumb/v6-m/nofp\libg-musl.a(__stderr.o)
 .bss           0x0000000000000000        0x0 c:/program files/microchip/xc32/v4.60/bin/bin/../../lib/gcc/pic32c/8.3.1/../../../../pic32c/lib/thumb/v6-m/nofp\libg-musl.a(__stderr.o)
 .xc_stack_usage
                0x0000000000000000       0x50 c:/program files/microchip/xc32/v4.60/bin/bin/../../lib/gcc/pic32c/8.3.1/../../../../pic32c/lib/thumb/v6-m/nofp\libg-musl.a(__stderr.o)
 .text.__get_stderr
                0x0000000000000000        0x8 c:/program files/microchip/xc32/v4.60/bin/bin/../../lib/gcc/pic32c/8.3.1/../../../../pic32c/lib/thumb/v6-m/nofp\libg-musl.a(__stderr.o)
 .xc_stack_usage.hdr
                0x0000000000000000        0xe c:/program files/microchip/xc32/v4.60/bin/bin/../../lib/gcc/pic32c/8.3.1/../../../../pic32c/lib/thumb/v6-m/nofp\libg-musl.a(__stderr.o)
 .text          0x0000000000000000        0x0 c:/program files/microchip/xc32/v4.60/bin/bin/../../lib/gcc/pic32c/8.3.1/../../../../pic32c/lib/thumb/v6-m/nofp\libg-musl.a(__stdio_close.o)
 .data          0x0000000000000000        0x0 c:/program files/microchip/xc32/v4.60/bin/bin/../../lib/gcc/pic32c/8.3.1/../../../../pic32c/lib/thumb/v6-m/nofp\libg-musl.a(__stdio_close.o)
 .bss           0x0000000000000000        0x0 c:/program files/microchip/xc32/v4.60/bin/bin/../../lib/gcc/pic32c/8.3.1/../../../../pic32c/lib/thumb/v6-m/nofp\libg-musl.a(__stdio_close.o)
 .xc_stack_usage
                0x0000000000000000       0x39 c:/program files/microchip/xc32/v4.60/bin/bin/../../lib/gcc/pic32c/8.3.1/../../../../pic32c/lib/thumb/v6-m/nofp\libg-musl.a(__stdio_close.o)
 .text.__stdio_close
                0x0000000000000000       0x44 c:/program files/microchip/xc32/v4.60/bin/bin/../../lib/gcc/pic32c/8.3.1/../../../../pic32c/lib/thumb/v6-m/nofp\libg-musl.a(__stdio_close.o)
 .xc_stack_usage.hdr
                0x0000000000000000        0xe c:/program files/microchip/xc32/v4.60/bin/bin/../../lib/gcc/pic32c/8.3.1/../../../../pic32c/lib/thumb/v6-m/nofp\libg-musl.a(__stdio_close.o)
 .text          0x0000000000000000        0x0 c:/program files/microchip/xc32/v4.60/bin/bin/../../lib/gcc/pic32c/8.3.1/../../../../pic32c/lib/thumb/v6-m/nofp\libg-musl.a(__stdio_exit.o)
 .data          0x0000000000000000        0x0 c:/program files/microchip/xc32/v4.60/bin/bin/../../lib/gcc/pic32c/8.3.1/../../../../pic32c/lib/thumb/v6-m/nofp\libg-musl.a(__stdio_exit.o)
 .bss           0x0000000000000000        0x4 c:/program files/microchip/xc32/v4.60/bin/bin/../../lib/gcc/pic32c/8.3.1/../../../../pic32c/lib/thumb/v6-m/nofp\libg-musl.a(__stdio_exit.o)
 .xc_stack_usage
                0x0000000000000000       0x45 c:/program files/microchip/xc32/v4.60/bin/bin/../../lib/gcc/pic32c/8.3.1/../../../../pic32c/lib/thumb/v6-m/nofp\libg-musl.a(__stdio_exit.o)
 .text.__dummy  0x0000000000000000        0x2 c:/program files/microchip/xc32/v4.60/bin/bin/../../lib/gcc/pic32c/8.3.1/../../../../pic32c/lib/thumb/v6-m/nofp\libg-musl.a(__stdio_exit.o)
 .text.__dummy1
                0x0000000000000000        0x4 c:/program files/microchip/xc32/v4.60/bin/bin/../../lib/gcc/pic32c/8.3.1/../../../../pic32c/lib/thumb/v6-m/nofp\libg-musl.a(__stdio_exit.o)
 .text.__stdio_exit
                0x0000000000000000       0x34 c:/program files/microchip/xc32/v4.60/bin/bin/../../lib/gcc/pic32c/8.3.1/../../../../pic32c/lib/thumb/v6-m/nofp\libg-musl.a(__stdio_exit.o)
 .xc_stack_usage.hdr
                0x0000000000000000        0xe c:/program files/microchip/xc32/v4.60/bin/bin/../../lib/gcc/pic32c/8.3.1/../../../../pic32c/lib/thumb/v6-m/nofp\libg-musl.a(__stdio_exit.o)
 .debug_info    0x0000000000000000      0x2dd c:/program files/microchip/xc32/v4.60/bin/bin/../../lib/gcc/pic32c/8.3.1/../../../../pic32c/lib/thumb/v6-m/nofp\libg-musl.a(__stdio_exit.o)
 .debug_abbrev  0x0000000000000000      0x173 c:/program files/microchip/xc32/v4.60/bin/bin/../../lib/gcc/pic32c/8.3.1/../../../../pic32c/lib/thumb/v6-m/nofp\libg-musl.a(__stdio_exit.o)
 .debug_loc     0x0000000000000000       0x45 c:/program files/microchip/xc32/v4.60/bin/bin/../../lib/gcc/pic32c/8.3.1/../../../../pic32c/lib/thumb/v6-m/nofp\libg-musl.a(__stdio_exit.o)
 .debug_aranges
                0x0000000000000000       0x30 c:/program files/microchip/xc32/v4.60/bin/bin/../../lib/gcc/pic32c/8.3.1/../../../../pic32c/lib/thumb/v6-m/nofp\libg-musl.a(__stdio_exit.o)
 .debug_ranges  0x0000000000000000       0x20 c:/program files/microchip/xc32/v4.60/bin/bin/../../lib/gcc/pic32c/8.3.1/../../../../pic32c/lib/thumb/v6-m/nofp\libg-musl.a(__stdio_exit.o)
 .debug_line    0x0000000000000000      0x178 c:/program files/microchip/xc32/v4.60/bin/bin/../../lib/gcc/pic32c/8.3.1/../../../../pic32c/lib/thumb/v6-m/nofp\libg-musl.a(__stdio_exit.o)
 .debug_str     0x0000000000000000      0x32c c:/program files/microchip/xc32/v4.60/bin/bin/../../lib/gcc/pic32c/8.3.1/../../../../pic32c/lib/thumb/v6-m/nofp\libg-musl.a(__stdio_exit.o)
 .comment       0x0000000000000000       0x2c c:/program files/microchip/xc32/v4.60/bin/bin/../../lib/gcc/pic32c/8.3.1/../../../../pic32c/lib/thumb/v6-m/nofp\libg-musl.a(__stdio_exit.o)
 .note.GNU-stack
                0x0000000000000000        0x0 c:/program files/microchip/xc32/v4.60/bin/bin/../../lib/gcc/pic32c/8.3.1/../../../../pic32c/lib/thumb/v6-m/nofp\libg-musl.a(__stdio_exit.o)
 .debug_frame   0x0000000000000000       0x48 c:/program files/microchip/xc32/v4.60/bin/bin/../../lib/gcc/pic32c/8.3.1/../../../../pic32c/lib/thumb/v6-m/nofp\libg-musl.a(__stdio_exit.o)
 .ARM.attributes
                0x0000000000000000       0x2e c:/program files/microchip/xc32/v4.60/bin/bin/../../lib/gcc/pic32c/8.3.1/../../../../pic32c/lib/thumb/v6-m/nofp\libg-musl.a(__stdio_exit.o)
 .text          0x0000000000000000        0x0 c:/program files/microchip/xc32/v4.60/bin/bin/../../lib/gcc/pic32c/8.3.1/../../../../pic32c/lib/thumb/v6-m/nofp\libg-musl.a(__stdio_write.o)
 .data          0x0000000000000000        0x0 c:/program files/microchip/xc32/v4.60/bin/bin/../../lib/gcc/pic32c/8.3.1/../../../../pic32c/lib/thumb/v6-m/nofp\libg-musl.a(__stdio_write.o)
 .bss           0x0000000000000000        0x0 c:/program files/microchip/xc32/v4.60/bin/bin/../../lib/gcc/pic32c/8.3.1/../../../../pic32c/lib/thumb/v6-m/nofp\libg-musl.a(__stdio_write.o)
 .xc_stack_usage
                0x0000000000000000       0x42 c:/program files/microchip/xc32/v4.60/bin/bin/../../lib/gcc/pic32c/8.3.1/../../../../pic32c/lib/thumb/v6-m/nofp\libg-musl.a(__stdio_write.o)
 .xc_stack_usage.hdr
                0x0000000000000000        0xe c:/program files/microchip/xc32/v4.60/bin/bin/../../lib/gcc/pic32c/8.3.1/../../../../pic32c/lib/thumb/v6-m/nofp\libg-musl.a(__stdio_write.o)
 .text          0x0000000000000000        0x0 c:/program files/microchip/xc32/v4.60/bin/bin/../../lib/gcc/pic32c/8.3.1/../../../../pic32c/lib/thumb/v6-m/nofp\libg-musl.a(__stdout.o)
 .bss           0x0000000000000000        0x0 c:/program files/microchip/xc32/v4.60/bin/bin/../../lib/gcc/pic32c/8.3.1/../../../../pic32c/lib/thumb/v6-m/nofp\libg-musl.a(__stdout.o)
 .xc_stack_usage
                0x0000000000000000       0x50 c:/program files/microchip/xc32/v4.60/bin/bin/../../lib/gcc/pic32c/8.3.1/../../../../pic32c/lib/thumb/v6-m/nofp\libg-musl.a(__stdout.o)
 .text.__dummy  0x0000000000000000        0x2 c:/program files/microchip/xc32/v4.60/bin/bin/../../lib/gcc/pic32c/8.3.1/../../../../pic32c/lib/thumb/v6-m/nofp\libg-musl.a(__stdout.o)
 .xc_stack_usage.hdr
                0x0000000000000000        0xe c:/program files/microchip/xc32/v4.60/bin/bin/../../lib/gcc/pic32c/8.3.1/../../../../pic32c/lib/thumb/v6-m/nofp\libg-musl.a(__stdout.o)
 .text          0x0000000000000000        0x0 c:/program files/microchip/xc32/v4.60/bin/bin/../../lib/gcc/pic32c/8.3.1/../../../../pic32c/lib/thumb/v6-m/nofp\libg-musl.a(__towrite.o)
 .data          0x0000000000000000        0x0 c:/program files/microchip/xc32/v4.60/bin/bin/../../lib/gcc/pic32c/8.3.1/../../../../pic32c/lib/thumb/v6-m/nofp\libg-musl.a(__towrite.o)
 .bss           0x0000000000000000        0x0 c:/program files/microchip/xc32/v4.60/bin/bin/../../lib/gcc/pic32c/8.3.1/../../../../pic32c/lib/thumb/v6-m/nofp\libg-musl.a(__towrite.o)
 .xc_stack_usage
                0x0000000000000000       0x2c c:/program files/microchip/xc32/v4.60/bin/bin/../../lib/gcc/pic32c/8.3.1/../../../../pic32c/lib/thumb/v6-m/nofp\libg-musl.a(__towrite.o)
 .text.__dummy  0x0000000000000000        0x4 c:/program files/microchip/xc32/v4.60/bin/bin/../../lib/gcc/pic32c/8.3.1/../../../../pic32c/lib/thumb/v6-m/nofp\libg-musl.a(__towrite.o)
 .xc_stack_usage.hdr
                0x0000000000000000        0xe c:/program files/microchip/xc32/v4.60/bin/bin/../../lib/gcc/pic32c/8.3.1/../../../../pic32c/lib/thumb/v6-m/nofp\libg-musl.a(__towrite.o)
 .text          0x0000000000000000        0x0 c:/program files/microchip/xc32/v4.60/bin/bin/../../lib/gcc/pic32c/8.3.1/../../../../pic32c/lib/thumb/v6-m/nofp\libg-musl.a(writev.o)
 .data          0x0000000000000000        0x0 c:/program files/microchip/xc32/v4.60/bin/bin/../../lib/gcc/pic32c/8.3.1/../../../../pic32c/lib/thumb/v6-m/nofp\libg-musl.a(writev.o)
 .bss           0x0000000000000000        0x0 c:/program files/microchip/xc32/v4.60/bin/bin/../../lib/gcc/pic32c/8.3.1/../../../../pic32c/lib/thumb/v6-m/nofp\libg-musl.a(writev.o)
 .xc_stack_usage
                0x0000000000000000       0x16 c:/program files/microchip/xc32/v4.60/bin/bin/../../lib/gcc/pic32c/8.3.1/../../../../pic32c/lib/thumb/v6-m/nofp\libg-musl.a(writev.o)
 .xc_stack_usage.hdr
                0x0000000000000000        0xe c:/program files/microchip/xc32/v4.60/bin/bin/../../lib/gcc/pic32c/8.3.1/../../../../pic32c/lib/thumb/v6-m/nofp\libg-musl.a(writev.o)
 .text          0x0000000000000000        0x0 c:/program files/microchip/xc32/v4.60/bin/bin/../../lib/gcc/pic32c/8.3.1/../../../../pic32c/lib/thumb/v6-m/nofp\libg-musl.a(__overflow.o)
 .data          0x0000000000000000        0x0 c:/program files/microchip/xc32/v4.60/bin/bin/../../lib/gcc/pic32c/8.3.1/../../../../pic32c/lib/thumb/v6-m/nofp\libg-musl.a(__overflow.o)
 .bss           0x0000000000000000        0x0 c:/program files/microchip/xc32/v4.60/bin/bin/../../lib/gcc/pic32c/8.3.1/../../../../pic32c/lib/thumb/v6-m/nofp\libg-musl.a(__overflow.o)
 .xc_stack_usage
                0x0000000000000000       0x18 c:/program files/microchip/xc32/v4.60/bin/bin/../../lib/gcc/pic32c/8.3.1/../../../../pic32c/lib/thumb/v6-m/nofp\libg-musl.a(__overflow.o)
 .xc_stack_usage.hdr
                0x0000000000000000        0xe c:/program files/microchip/xc32/v4.60/bin/bin/../../lib/gcc/pic32c/8.3.1/../../../../pic32c/lib/thumb/v6-m/nofp\libg-musl.a(__overflow.o)
 .text          0x0000000000000000        0x0 c:/program files/microchip/xc32/v4.60/bin/bin/../../lib/gcc/pic32c/8.3.1/../../../../pic32c/lib/thumb/v6-m/nofp\libg-musl.a(__fclose.o)
 .data          0x0000000000000000        0x0 c:/program files/microchip/xc32/v4.60/bin/bin/../../lib/gcc/pic32c/8.3.1/../../../../pic32c/lib/thumb/v6-m/nofp\libg-musl.a(__fclose.o)
 .bss           0x0000000000000000        0x0 c:/program files/microchip/xc32/v4.60/bin/bin/../../lib/gcc/pic32c/8.3.1/../../../../pic32c/lib/thumb/v6-m/nofp\libg-musl.a(__fclose.o)
 .xc_stack_usage
                0x0000000000000000       0x16 c:/program files/microchip/xc32/v4.60/bin/bin/../../lib/gcc/pic32c/8.3.1/../../../../pic32c/lib/thumb/v6-m/nofp\libg-musl.a(__fclose.o)
 .text.__fclose
                0x0000000000000000       0x12 c:/program files/microchip/xc32/v4.60/bin/bin/../../lib/gcc/pic32c/8.3.1/../../../../pic32c/lib/thumb/v6-m/nofp\libg-musl.a(__fclose.o)
 .xc_stack_usage.hdr
                0x0000000000000000        0xe c:/program files/microchip/xc32/v4.60/bin/bin/../../lib/gcc/pic32c/8.3.1/../../../../pic32c/lib/thumb/v6-m/nofp\libg-musl.a(__fclose.o)
 .debug_info    0x0000000000000000      0x1ba c:/program files/microchip/xc32/v4.60/bin/bin/../../lib/gcc/pic32c/8.3.1/../../../../pic32c/lib/thumb/v6-m/nofp\libg-musl.a(__fclose.o)
 .debug_abbrev  0x0000000000000000       0xdd c:/program files/microchip/xc32/v4.60/bin/bin/../../lib/gcc/pic32c/8.3.1/../../../../pic32c/lib/thumb/v6-m/nofp\libg-musl.a(__fclose.o)
 .debug_loc     0x0000000000000000       0x77 c:/program files/microchip/xc32/v4.60/bin/bin/../../lib/gcc/pic32c/8.3.1/../../../../pic32c/lib/thumb/v6-m/nofp\libg-musl.a(__fclose.o)
 .debug_aranges
                0x0000000000000000       0x20 c:/program files/microchip/xc32/v4.60/bin/bin/../../lib/gcc/pic32c/8.3.1/../../../../pic32c/lib/thumb/v6-m/nofp\libg-musl.a(__fclose.o)
 .debug_ranges  0x0000000000000000       0x10 c:/program files/microchip/xc32/v4.60/bin/bin/../../lib/gcc/pic32c/8.3.1/../../../../pic32c/lib/thumb/v6-m/nofp\libg-musl.a(__fclose.o)
 .debug_line    0x0000000000000000      0x151 c:/program files/microchip/xc32/v4.60/bin/bin/../../lib/gcc/pic32c/8.3.1/../../../../pic32c/lib/thumb/v6-m/nofp\libg-musl.a(__fclose.o)
 .debug_str     0x0000000000000000      0x2c9 c:/program files/microchip/xc32/v4.60/bin/bin/../../lib/gcc/pic32c/8.3.1/../../../../pic32c/lib/thumb/v6-m/nofp\libg-musl.a(__fclose.o)
 .comment       0x0000000000000000       0x2c c:/program files/microchip/xc32/v4.60/bin/bin/../../lib/gcc/pic32c/8.3.1/../../../../pic32c/lib/thumb/v6-m/nofp\libg-musl.a(__fclose.o)
 .note.GNU-stack
                0x0000000000000000        0x0 c:/program files/microchip/xc32/v4.60/bin/bin/../../lib/gcc/pic32c/8.3.1/../../../../pic32c/lib/thumb/v6-m/nofp\libg-musl.a(__fclose.o)
 .debug_frame   0x0000000000000000       0x28 c:/program files/microchip/xc32/v4.60/bin/bin/../../lib/gcc/pic32c/8.3.1/../../../../pic32c/lib/thumb/v6-m/nofp\libg-musl.a(__fclose.o)
 .ARM.attributes
                0x0000000000000000       0x2e c:/program files/microchip/xc32/v4.60/bin/bin/../../lib/gcc/pic32c/8.3.1/../../../../pic32c/lib/thumb/v6-m/nofp\libg-musl.a(__fclose.o)
 .text          0x0000000000000000        0x0 c:/program files/microchip/xc32/v4.60/bin/bin/../../lib/gcc/pic32c/8.3.1/../../../../pic32c/lib/thumb/v6-m/nofp\libg-musl.a(__fopen.o)
 .data          0x0000000000000000        0x0 c:/program files/microchip/xc32/v4.60/bin/bin/../../lib/gcc/pic32c/8.3.1/../../../../pic32c/lib/thumb/v6-m/nofp\libg-musl.a(__fopen.o)
 .bss           0x0000000000000000        0x0 c:/program files/microchip/xc32/v4.60/bin/bin/../../lib/gcc/pic32c/8.3.1/../../../../pic32c/lib/thumb/v6-m/nofp\libg-musl.a(__fopen.o)
 .xc_stack_usage
                0x0000000000000000       0x43 c:/program files/microchip/xc32/v4.60/bin/bin/../../lib/gcc/pic32c/8.3.1/../../../../pic32c/lib/thumb/v6-m/nofp\libg-musl.a(__fopen.o)
 .text.__dummy  0x0000000000000000        0x4 c:/program files/microchip/xc32/v4.60/bin/bin/../../lib/gcc/pic32c/8.3.1/../../../../pic32c/lib/thumb/v6-m/nofp\libg-musl.a(__fopen.o)
 .text.__fopen_std
                0x0000000000000000       0x30 c:/program files/microchip/xc32/v4.60/bin/bin/../../lib/gcc/pic32c/8.3.1/../../../../pic32c/lib/thumb/v6-m/nofp\libg-musl.a(__fopen.o)
 .text.__fopen  0x0000000000000000        0x8 c:/program files/microchip/xc32/v4.60/bin/bin/../../lib/gcc/pic32c/8.3.1/../../../../pic32c/lib/thumb/v6-m/nofp\libg-musl.a(__fopen.o)
 .xc_stack_usage.hdr
                0x0000000000000000        0xe c:/program files/microchip/xc32/v4.60/bin/bin/../../lib/gcc/pic32c/8.3.1/../../../../pic32c/lib/thumb/v6-m/nofp\libg-musl.a(__fopen.o)
 .debug_info    0x0000000000000000      0x2e2 c:/program files/microchip/xc32/v4.60/bin/bin/../../lib/gcc/pic32c/8.3.1/../../../../pic32c/lib/thumb/v6-m/nofp\libg-musl.a(__fopen.o)
 .debug_abbrev  0x0000000000000000      0x17c c:/program files/microchip/xc32/v4.60/bin/bin/../../lib/gcc/pic32c/8.3.1/../../../../pic32c/lib/thumb/v6-m/nofp\libg-musl.a(__fopen.o)
 .debug_loc     0x0000000000000000       0x94 c:/program files/microchip/xc32/v4.60/bin/bin/../../lib/gcc/pic32c/8.3.1/../../../../pic32c/lib/thumb/v6-m/nofp\libg-musl.a(__fopen.o)
 .debug_aranges
                0x0000000000000000       0x30 c:/program files/microchip/xc32/v4.60/bin/bin/../../lib/gcc/pic32c/8.3.1/../../../../pic32c/lib/thumb/v6-m/nofp\libg-musl.a(__fopen.o)
 .debug_ranges  0x0000000000000000       0x20 c:/program files/microchip/xc32/v4.60/bin/bin/../../lib/gcc/pic32c/8.3.1/../../../../pic32c/lib/thumb/v6-m/nofp\libg-musl.a(__fopen.o)
 .debug_line    0x0000000000000000      0x21c c:/program files/microchip/xc32/v4.60/bin/bin/../../lib/gcc/pic32c/8.3.1/../../../../pic32c/lib/thumb/v6-m/nofp\libg-musl.a(__fopen.o)
 .debug_str     0x0000000000000000      0x306 c:/program files/microchip/xc32/v4.60/bin/bin/../../lib/gcc/pic32c/8.3.1/../../../../pic32c/lib/thumb/v6-m/nofp\libg-musl.a(__fopen.o)
 .comment       0x0000000000000000       0x2c c:/program files/microchip/xc32/v4.60/bin/bin/../../lib/gcc/pic32c/8.3.1/../../../../pic32c/lib/thumb/v6-m/nofp\libg-musl.a(__fopen.o)
 .note.GNU-stack
                0x0000000000000000        0x0 c:/program files/microchip/xc32/v4.60/bin/bin/../../lib/gcc/pic32c/8.3.1/../../../../pic32c/lib/thumb/v6-m/nofp\libg-musl.a(__fopen.o)
 .debug_frame   0x0000000000000000       0x50 c:/program files/microchip/xc32/v4.60/bin/bin/../../lib/gcc/pic32c/8.3.1/../../../../pic32c/lib/thumb/v6-m/nofp\libg-musl.a(__fopen.o)
 .ARM.attributes
                0x0000000000000000       0x2e c:/program files/microchip/xc32/v4.60/bin/bin/../../lib/gcc/pic32c/8.3.1/../../../../pic32c/lib/thumb/v6-m/nofp\libg-musl.a(__fopen.o)
 .text          0x0000000000000000        0x0 c:/program files/microchip/xc32/v4.60/bin/bin/../../lib/gcc/pic32c/8.3.1/../../../../pic32c/lib/thumb/v6-m/nofp\libg-musl.a(__fseeko.o)
 .data          0x0000000000000000        0x0 c:/program files/microchip/xc32/v4.60/bin/bin/../../lib/gcc/pic32c/8.3.1/../../../../pic32c/lib/thumb/v6-m/nofp\libg-musl.a(__fseeko.o)
 .bss           0x0000000000000000        0x0 c:/program files/microchip/xc32/v4.60/bin/bin/../../lib/gcc/pic32c/8.3.1/../../../../pic32c/lib/thumb/v6-m/nofp\libg-musl.a(__fseeko.o)
 .xc_stack_usage
                0x0000000000000000       0x16 c:/program files/microchip/xc32/v4.60/bin/bin/../../lib/gcc/pic32c/8.3.1/../../../../pic32c/lib/thumb/v6-m/nofp\libg-musl.a(__fseeko.o)
 .text.__fseeko
                0x0000000000000000        0x8 c:/program files/microchip/xc32/v4.60/bin/bin/../../lib/gcc/pic32c/8.3.1/../../../../pic32c/lib/thumb/v6-m/nofp\libg-musl.a(__fseeko.o)
 .xc_stack_usage.hdr
                0x0000000000000000        0xe c:/program files/microchip/xc32/v4.60/bin/bin/../../lib/gcc/pic32c/8.3.1/../../../../pic32c/lib/thumb/v6-m/nofp\libg-musl.a(__fseeko.o)
 .debug_info    0x0000000000000000      0x26a c:/program files/microchip/xc32/v4.60/bin/bin/../../lib/gcc/pic32c/8.3.1/../../../../pic32c/lib/thumb/v6-m/nofp\libg-musl.a(__fseeko.o)
 .debug_abbrev  0x0000000000000000       0xf8 c:/program files/microchip/xc32/v4.60/bin/bin/../../lib/gcc/pic32c/8.3.1/../../../../pic32c/lib/thumb/v6-m/nofp\libg-musl.a(__fseeko.o)
 .debug_loc     0x0000000000000000       0x8f c:/program files/microchip/xc32/v4.60/bin/bin/../../lib/gcc/pic32c/8.3.1/../../../../pic32c/lib/thumb/v6-m/nofp\libg-musl.a(__fseeko.o)
 .debug_aranges
                0x0000000000000000       0x20 c:/program files/microchip/xc32/v4.60/bin/bin/../../lib/gcc/pic32c/8.3.1/../../../../pic32c/lib/thumb/v6-m/nofp\libg-musl.a(__fseeko.o)
 .debug_ranges  0x0000000000000000       0x10 c:/program files/microchip/xc32/v4.60/bin/bin/../../lib/gcc/pic32c/8.3.1/../../../../pic32c/lib/thumb/v6-m/nofp\libg-musl.a(__fseeko.o)
 .debug_line    0x0000000000000000      0x13f c:/program files/microchip/xc32/v4.60/bin/bin/../../lib/gcc/pic32c/8.3.1/../../../../pic32c/lib/thumb/v6-m/nofp\libg-musl.a(__fseeko.o)
 .debug_str     0x0000000000000000      0x2e6 c:/program files/microchip/xc32/v4.60/bin/bin/../../lib/gcc/pic32c/8.3.1/../../../../pic32c/lib/thumb/v6-m/nofp\libg-musl.a(__fseeko.o)
 .comment       0x0000000000000000       0x2c c:/program files/microchip/xc32/v4.60/bin/bin/../../lib/gcc/pic32c/8.3.1/../../../../pic32c/lib/thumb/v6-m/nofp\libg-musl.a(__fseeko.o)
 .note.GNU-stack
                0x0000000000000000        0x0 c:/program files/microchip/xc32/v4.60/bin/bin/../../lib/gcc/pic32c/8.3.1/../../../../pic32c/lib/thumb/v6-m/nofp\libg-musl.a(__fseeko.o)
 .debug_frame   0x0000000000000000       0x28 c:/program files/microchip/xc32/v4.60/bin/bin/../../lib/gcc/pic32c/8.3.1/../../../../pic32c/lib/thumb/v6-m/nofp\libg-musl.a(__fseeko.o)
 .ARM.attributes
                0x0000000000000000       0x2e c:/program files/microchip/xc32/v4.60/bin/bin/../../lib/gcc/pic32c/8.3.1/../../../../pic32c/lib/thumb/v6-m/nofp\libg-musl.a(__fseeko.o)
 .text          0x0000000000000000        0x0 c:/program files/microchip/xc32/v4.60/bin/bin/../../lib/gcc/pic32c/8.3.1/../../../../pic32c/lib/thumb/v6-m/nofp\libg-musl.a(__ftello.o)
 .data          0x0000000000000000        0x0 c:/program files/microchip/xc32/v4.60/bin/bin/../../lib/gcc/pic32c/8.3.1/../../../../pic32c/lib/thumb/v6-m/nofp\libg-musl.a(__ftello.o)
 .bss           0x0000000000000000        0x0 c:/program files/microchip/xc32/v4.60/bin/bin/../../lib/gcc/pic32c/8.3.1/../../../../pic32c/lib/thumb/v6-m/nofp\libg-musl.a(__ftello.o)
 .xc_stack_usage
                0x0000000000000000       0x2f c:/program files/microchip/xc32/v4.60/bin/bin/../../lib/gcc/pic32c/8.3.1/../../../../pic32c/lib/thumb/v6-m/nofp\libg-musl.a(__ftello.o)
 .text.__dummy  0x0000000000000000       0x1a c:/program files/microchip/xc32/v4.60/bin/bin/../../lib/gcc/pic32c/8.3.1/../../../../pic32c/lib/thumb/v6-m/nofp\libg-musl.a(__ftello.o)
 .text.__ftello_adj
                0x0000000000000000        0x8 c:/program files/microchip/xc32/v4.60/bin/bin/../../lib/gcc/pic32c/8.3.1/../../../../pic32c/lib/thumb/v6-m/nofp\libg-musl.a(__ftello.o)
 .xc_stack_usage.hdr
                0x0000000000000000        0xe c:/program files/microchip/xc32/v4.60/bin/bin/../../lib/gcc/pic32c/8.3.1/../../../../pic32c/lib/thumb/v6-m/nofp\libg-musl.a(__ftello.o)
 .debug_info    0x0000000000000000      0x29a c:/program files/microchip/xc32/v4.60/bin/bin/../../lib/gcc/pic32c/8.3.1/../../../../pic32c/lib/thumb/v6-m/nofp\libg-musl.a(__ftello.o)
 .debug_abbrev  0x0000000000000000      0x100 c:/program files/microchip/xc32/v4.60/bin/bin/../../lib/gcc/pic32c/8.3.1/../../../../pic32c/lib/thumb/v6-m/nofp\libg-musl.a(__ftello.o)
 .debug_loc     0x0000000000000000       0xd4 c:/program files/microchip/xc32/v4.60/bin/bin/../../lib/gcc/pic32c/8.3.1/../../../../pic32c/lib/thumb/v6-m/nofp\libg-musl.a(__ftello.o)
 .debug_aranges
                0x0000000000000000       0x28 c:/program files/microchip/xc32/v4.60/bin/bin/../../lib/gcc/pic32c/8.3.1/../../../../pic32c/lib/thumb/v6-m/nofp\libg-musl.a(__ftello.o)
 .debug_ranges  0x0000000000000000       0x18 c:/program files/microchip/xc32/v4.60/bin/bin/../../lib/gcc/pic32c/8.3.1/../../../../pic32c/lib/thumb/v6-m/nofp\libg-musl.a(__ftello.o)
 .debug_line    0x0000000000000000      0x175 c:/program files/microchip/xc32/v4.60/bin/bin/../../lib/gcc/pic32c/8.3.1/../../../../pic32c/lib/thumb/v6-m/nofp\libg-musl.a(__ftello.o)
 .debug_str     0x0000000000000000      0x2eb c:/program files/microchip/xc32/v4.60/bin/bin/../../lib/gcc/pic32c/8.3.1/../../../../pic32c/lib/thumb/v6-m/nofp\libg-musl.a(__ftello.o)
 .comment       0x0000000000000000       0x2c c:/program files/microchip/xc32/v4.60/bin/bin/../../lib/gcc/pic32c/8.3.1/../../../../pic32c/lib/thumb/v6-m/nofp\libg-musl.a(__ftello.o)
 .note.GNU-stack
                0x0000000000000000        0x0 c:/program files/microchip/xc32/v4.60/bin/bin/../../lib/gcc/pic32c/8.3.1/../../../../pic32c/lib/thumb/v6-m/nofp\libg-musl.a(__ftello.o)
 .debug_frame   0x0000000000000000       0x40 c:/program files/microchip/xc32/v4.60/bin/bin/../../lib/gcc/pic32c/8.3.1/../../../../pic32c/lib/thumb/v6-m/nofp\libg-musl.a(__ftello.o)
 .ARM.attributes
                0x0000000000000000       0x2e c:/program files/microchip/xc32/v4.60/bin/bin/../../lib/gcc/pic32c/8.3.1/../../../../pic32c/lib/thumb/v6-m/nofp\libg-musl.a(__ftello.o)
 .text          0x0000000000000000        0x0 c:/program files/microchip/xc32/v4.60/bin/bin/../../lib/gcc/pic32c/8.3.1/../../../../pic32c/lib/thumb/v6-m/nofp\libg-musl.a(__fwrite.o)
 .data          0x0000000000000000        0x0 c:/program files/microchip/xc32/v4.60/bin/bin/../../lib/gcc/pic32c/8.3.1/../../../../pic32c/lib/thumb/v6-m/nofp\libg-musl.a(__fwrite.o)
 .bss           0x0000000000000000        0x0 c:/program files/microchip/xc32/v4.60/bin/bin/../../lib/gcc/pic32c/8.3.1/../../../../pic32c/lib/thumb/v6-m/nofp\libg-musl.a(__fwrite.o)
 .xc_stack_usage
                0x0000000000000000       0x36 c:/program files/microchip/xc32/v4.60/bin/bin/../../lib/gcc/pic32c/8.3.1/../../../../pic32c/lib/thumb/v6-m/nofp\libg-musl.a(__fwrite.o)
 .xc_stack_usage.hdr
                0x0000000000000000        0xe c:/program files/microchip/xc32/v4.60/bin/bin/../../lib/gcc/pic32c/8.3.1/../../../../pic32c/lib/thumb/v6-m/nofp\libg-musl.a(__fwrite.o)
 .xc_stack_usage.hdr
                0x0000000000000000        0xe c:/program files/microchip/xc32/v4.60/bin/bin/../../lib/gcc/pic32c/8.3.1/../../../../pic32c/lib/thumb/v6-m/nofp\libm-fast-emfloat.a(fma.o)
 .xc_stack_usage
                0x0000000000000000       0x11 c:/program files/microchip/xc32/v4.60/bin/bin/../../lib/gcc/pic32c/8.3.1/../../../../pic32c/lib/thumb/v6-m/nofp\libm-fast-emfloat.a(fma.o)
 .xc_stack_usage.hdr
                0x0000000000000000        0xe c:/program files/microchip/xc32/v4.60/bin/bin/../../lib/gcc/pic32c/8.3.1/../../../../pic32c/lib/thumb/v6-m/nofp\libm-fast-emfloat.a(floor.o)
 .xc_stack_usage
                0x0000000000000000       0x13 c:/program files/microchip/xc32/v4.60/bin/bin/../../lib/gcc/pic32c/8.3.1/../../../../pic32c/lib/thumb/v6-m/nofp\libm-fast-emfloat.a(floor.o)
 .xc_stack_usage.hdr
                0x0000000000000000        0xe c:/program files/microchip/xc32/v4.60/bin/bin/../../lib/gcc/pic32c/8.3.1/../../../../pic32c/lib/thumb/v6-m/nofp\libm-fast-emfloat.a(__aeabi_dcmple.o)
 .xc_stack_usage
                0x0000000000000000       0x1c c:/program files/microchip/xc32/v4.60/bin/bin/../../lib/gcc/pic32c/8.3.1/../../../../pic32c/lib/thumb/v6-m/nofp\libm-fast-emfloat.a(__aeabi_dcmple.o)
 .data          0x0000000000000000        0x0 c:/program files/microchip/xc32/v4.60/bin/bin/../../lib/gcc/pic32c/8.3.1/thumb/v6-m/nofp\libgcc.a(_udivsi3.o)
 .bss           0x0000000000000000        0x0 c:/program files/microchip/xc32/v4.60/bin/bin/../../lib/gcc/pic32c/8.3.1/thumb/v6-m/nofp\libgcc.a(_udivsi3.o)
 .xc_stack_usage.hdr
                0x0000000000000000        0xe c:/program files/microchip/xc32/v4.60/bin/bin/../../lib/gcc/pic32c/8.3.1/thumb/v6-m/nofp\libgcc.a(_udivsi3.o)
 .xc_stack_usage
                0x0000000000000000       0x35 c:/program files/microchip/xc32/v4.60/bin/bin/../../lib/gcc/pic32c/8.3.1/thumb/v6-m/nofp\libgcc.a(_udivsi3.o)
 .data          0x0000000000000000        0x0 c:/program files/microchip/xc32/v4.60/bin/bin/../../lib/gcc/pic32c/8.3.1/thumb/v6-m/nofp\libgcc.a(_divsi3.o)
 .bss           0x0000000000000000        0x0 c:/program files/microchip/xc32/v4.60/bin/bin/../../lib/gcc/pic32c/8.3.1/thumb/v6-m/nofp\libgcc.a(_divsi3.o)
 .xc_stack_usage.hdr
                0x0000000000000000        0xe c:/program files/microchip/xc32/v4.60/bin/bin/../../lib/gcc/pic32c/8.3.1/thumb/v6-m/nofp\libgcc.a(_divsi3.o)
 .xc_stack_usage
                0x0000000000000000       0x33 c:/program files/microchip/xc32/v4.60/bin/bin/../../lib/gcc/pic32c/8.3.1/thumb/v6-m/nofp\libgcc.a(_divsi3.o)
 .data          0x0000000000000000        0x0 c:/program files/microchip/xc32/v4.60/bin/bin/../../lib/gcc/pic32c/8.3.1/thumb/v6-m/nofp\libgcc.a(_dvmd_tls.o)
 .bss           0x0000000000000000        0x0 c:/program files/microchip/xc32/v4.60/bin/bin/../../lib/gcc/pic32c/8.3.1/thumb/v6-m/nofp\libgcc.a(_dvmd_tls.o)
 .xc_stack_usage.hdr
                0x0000000000000000        0xe c:/program files/microchip/xc32/v4.60/bin/bin/../../lib/gcc/pic32c/8.3.1/thumb/v6-m/nofp\libgcc.a(_dvmd_tls.o)
 .xc_stack_usage
                0x0000000000000000       0x36 c:/program files/microchip/xc32/v4.60/bin/bin/../../lib/gcc/pic32c/8.3.1/thumb/v6-m/nofp\libgcc.a(_dvmd_tls.o)
 .data          0x0000000000000000        0x0 c:/program files/microchip/xc32/v4.60/bin/bin/../../lib/gcc/pic32c/8.3.1/thumb/v6-m/nofp\libgcc.a(_aeabi_ldivmod.o)
 .bss           0x0000000000000000        0x0 c:/program files/microchip/xc32/v4.60/bin/bin/../../lib/gcc/pic32c/8.3.1/thumb/v6-m/nofp\libgcc.a(_aeabi_ldivmod.o)
 .xc_stack_usage.hdr
                0x0000000000000000        0xe c:/program files/microchip/xc32/v4.60/bin/bin/../../lib/gcc/pic32c/8.3.1/thumb/v6-m/nofp\libgcc.a(_aeabi_ldivmod.o)
 .xc_stack_usage
                0x0000000000000000       0x1d c:/program files/microchip/xc32/v4.60/bin/bin/../../lib/gcc/pic32c/8.3.1/thumb/v6-m/nofp\libgcc.a(_aeabi_ldivmod.o)
 .data          0x0000000000000000        0x0 c:/program files/microchip/xc32/v4.60/bin/bin/../../lib/gcc/pic32c/8.3.1/thumb/v6-m/nofp\libgcc.a(_aeabi_uldivmod.o)
 .bss           0x0000000000000000        0x0 c:/program files/microchip/xc32/v4.60/bin/bin/../../lib/gcc/pic32c/8.3.1/thumb/v6-m/nofp\libgcc.a(_aeabi_uldivmod.o)
 .xc_stack_usage.hdr
                0x0000000000000000        0xe c:/program files/microchip/xc32/v4.60/bin/bin/../../lib/gcc/pic32c/8.3.1/thumb/v6-m/nofp\libgcc.a(_aeabi_uldivmod.o)
 .xc_stack_usage
                0x0000000000000000       0x1e c:/program files/microchip/xc32/v4.60/bin/bin/../../lib/gcc/pic32c/8.3.1/thumb/v6-m/nofp\libgcc.a(_aeabi_uldivmod.o)
 .data          0x0000000000000000        0x0 c:/program files/microchip/xc32/v4.60/bin/bin/../../lib/gcc/pic32c/8.3.1/thumb/v6-m/nofp\libgcc.a(_muldi3.o)
 .bss           0x0000000000000000        0x0 c:/program files/microchip/xc32/v4.60/bin/bin/../../lib/gcc/pic32c/8.3.1/thumb/v6-m/nofp\libgcc.a(_muldi3.o)
 .xc_stack_usage
                0x0000000000000000       0x16 c:/program files/microchip/xc32/v4.60/bin/bin/../../lib/gcc/pic32c/8.3.1/thumb/v6-m/nofp\libgcc.a(_muldi3.o)
 .xc_stack_usage.hdr
                0x0000000000000000        0xe c:/program files/microchip/xc32/v4.60/bin/bin/../../lib/gcc/pic32c/8.3.1/thumb/v6-m/nofp\libgcc.a(_muldi3.o)
 .data          0x0000000000000000        0x0 c:/program files/microchip/xc32/v4.60/bin/bin/../../lib/gcc/pic32c/8.3.1/thumb/v6-m/nofp\libgcc.a(_udivmoddi4.o)
 .bss           0x0000000000000000        0x0 c:/program files/microchip/xc32/v4.60/bin/bin/../../lib/gcc/pic32c/8.3.1/thumb/v6-m/nofp\libgcc.a(_udivmoddi4.o)
 .xc_stack_usage
                0x0000000000000000       0x1a c:/program files/microchip/xc32/v4.60/bin/bin/../../lib/gcc/pic32c/8.3.1/thumb/v6-m/nofp\libgcc.a(_udivmoddi4.o)
 .ARM.extab     0x0000000000000000        0x0 c:/program files/microchip/xc32/v4.60/bin/bin/../../lib/gcc/pic32c/8.3.1/thumb/v6-m/nofp\libgcc.a(_udivmoddi4.o)
 .xc_stack_usage.hdr
                0x0000000000000000        0xe c:/program files/microchip/xc32/v4.60/bin/bin/../../lib/gcc/pic32c/8.3.1/thumb/v6-m/nofp\libgcc.a(_udivmoddi4.o)
 .data          0x0000000000000000        0x0 c:/program files/microchip/xc32/v4.60/bin/bin/../../lib/gcc/pic32c/8.3.1/thumb/v6-m/nofp\libgcc.a(bpabi.o)
 .bss           0x0000000000000000        0x0 c:/program files/microchip/xc32/v4.60/bin/bin/../../lib/gcc/pic32c/8.3.1/thumb/v6-m/nofp\libgcc.a(bpabi.o)
 .xc_stack_usage
                0x0000000000000000       0x22 c:/program files/microchip/xc32/v4.60/bin/bin/../../lib/gcc/pic32c/8.3.1/thumb/v6-m/nofp\libgcc.a(bpabi.o)
 .xc_stack_usage.hdr
                0x0000000000000000        0xe c:/program files/microchip/xc32/v4.60/bin/bin/../../lib/gcc/pic32c/8.3.1/thumb/v6-m/nofp\libgcc.a(bpabi.o)
 .data          0x0000000000000000        0x0 c:/program files/microchip/xc32/v4.60/bin/bin/../../lib/gcc/pic32c/8.3.1/thumb/v6-m/nofp\libgcc.a(_lshrdi3.o)
 .bss           0x0000000000000000        0x0 c:/program files/microchip/xc32/v4.60/bin/bin/../../lib/gcc/pic32c/8.3.1/thumb/v6-m/nofp\libgcc.a(_lshrdi3.o)
 .xc_stack_usage.hdr
                0x0000000000000000        0xe c:/program files/microchip/xc32/v4.60/bin/bin/../../lib/gcc/pic32c/8.3.1/thumb/v6-m/nofp\libgcc.a(_lshrdi3.o)
 .xc_stack_usage
                0x0000000000000000       0x17 c:/program files/microchip/xc32/v4.60/bin/bin/../../lib/gcc/pic32c/8.3.1/thumb/v6-m/nofp\libgcc.a(_lshrdi3.o)
 .data          0x0000000000000000        0x0 c:/program files/microchip/xc32/v4.60/bin/bin/../../lib/gcc/pic32c/8.3.1/thumb/v6-m/nofp\libgcc.a(_ashldi3.o)
 .bss           0x0000000000000000        0x0 c:/program files/microchip/xc32/v4.60/bin/bin/../../lib/gcc/pic32c/8.3.1/thumb/v6-m/nofp\libgcc.a(_ashldi3.o)
 .xc_stack_usage.hdr
                0x0000000000000000        0xe c:/program files/microchip/xc32/v4.60/bin/bin/../../lib/gcc/pic32c/8.3.1/thumb/v6-m/nofp\libgcc.a(_ashldi3.o)
 .xc_stack_usage
                0x0000000000000000       0x17 c:/program files/microchip/xc32/v4.60/bin/bin/../../lib/gcc/pic32c/8.3.1/thumb/v6-m/nofp\libgcc.a(_ashldi3.o)
 .data          0x0000000000000000        0x0 c:/program files/microchip/xc32/v4.60/bin/bin/../../lib/gcc/pic32c/8.3.1/thumb/v6-m/nofp\libgcc.a(_clzdi2.o)
 .bss           0x0000000000000000        0x0 c:/program files/microchip/xc32/v4.60/bin/bin/../../lib/gcc/pic32c/8.3.1/thumb/v6-m/nofp\libgcc.a(_clzdi2.o)
 .xc_stack_usage.hdr
                0x0000000000000000        0xe c:/program files/microchip/xc32/v4.60/bin/bin/../../lib/gcc/pic32c/8.3.1/thumb/v6-m/nofp\libgcc.a(_clzdi2.o)
 .xc_stack_usage
                0x0000000000000000       0x16 c:/program files/microchip/xc32/v4.60/bin/bin/../../lib/gcc/pic32c/8.3.1/thumb/v6-m/nofp\libgcc.a(_clzdi2.o)
 .data          0x0000000000000000        0x0 c:/program files/microchip/xc32/v4.60/bin/bin/../../lib/gcc/pic32c/8.3.1/thumb/v6-m/nofp\libgcc.a(_divdi3.o)
 .bss           0x0000000000000000        0x0 c:/program files/microchip/xc32/v4.60/bin/bin/../../lib/gcc/pic32c/8.3.1/thumb/v6-m/nofp\libgcc.a(_divdi3.o)
 .xc_stack_usage
                0x0000000000000000       0x16 c:/program files/microchip/xc32/v4.60/bin/bin/../../lib/gcc/pic32c/8.3.1/thumb/v6-m/nofp\libgcc.a(_divdi3.o)
 .ARM.extab     0x0000000000000000        0x0 c:/program files/microchip/xc32/v4.60/bin/bin/../../lib/gcc/pic32c/8.3.1/thumb/v6-m/nofp\libgcc.a(_divdi3.o)
 .xc_stack_usage.hdr
                0x0000000000000000        0xe c:/program files/microchip/xc32/v4.60/bin/bin/../../lib/gcc/pic32c/8.3.1/thumb/v6-m/nofp\libgcc.a(_divdi3.o)
 .data          0x0000000000000000        0x0 c:/program files/microchip/xc32/v4.60/bin/bin/../../lib/gcc/pic32c/8.3.1/thumb/v6-m/nofp\libgcc.a(_clzsi2.o)
 .bss           0x0000000000000000        0x0 c:/program files/microchip/xc32/v4.60/bin/bin/../../lib/gcc/pic32c/8.3.1/thumb/v6-m/nofp\libgcc.a(_clzsi2.o)
 .xc_stack_usage.hdr
                0x0000000000000000        0xe c:/program files/microchip/xc32/v4.60/bin/bin/../../lib/gcc/pic32c/8.3.1/thumb/v6-m/nofp\libgcc.a(_clzsi2.o)
 .xc_stack_usage
                0x0000000000000000       0x16 c:/program files/microchip/xc32/v4.60/bin/bin/../../lib/gcc/pic32c/8.3.1/thumb/v6-m/nofp\libgcc.a(_clzsi2.o)
 .text          0x0000000000000000        0x0 c:/program files/microchip/xc32/v4.60/bin/bin/../../lib/gcc/pic32c/8.3.1/../../../../pic32c/lib/thumb/v6-m/nofp\libpic32c.a(close.o)
 .data          0x0000000000000000        0x0 c:/program files/microchip/xc32/v4.60/bin/bin/../../lib/gcc/pic32c/8.3.1/../../../../pic32c/lib/thumb/v6-m/nofp\libpic32c.a(close.o)
 .bss           0x0000000000000000        0x0 c:/program files/microchip/xc32/v4.60/bin/bin/../../lib/gcc/pic32c/8.3.1/../../../../pic32c/lib/thumb/v6-m/nofp\libpic32c.a(close.o)
 .xc_stack_usage
                0x0000000000000000       0x13 c:/program files/microchip/xc32/v4.60/bin/bin/../../lib/gcc/pic32c/8.3.1/../../../../pic32c/lib/thumb/v6-m/nofp\libpic32c.a(close.o)
 .gnu.warning.closestub
                0x0000000000000000        0x0 c:/program files/microchip/xc32/v4.60/bin/bin/../../lib/gcc/pic32c/8.3.1/../../../../pic32c/lib/thumb/v6-m/nofp\libpic32c.a(close.o)
 .xc_stack_usage.hdr
                0x0000000000000000        0xe c:/program files/microchip/xc32/v4.60/bin/bin/../../lib/gcc/pic32c/8.3.1/../../../../pic32c/lib/thumb/v6-m/nofp\libpic32c.a(close.o)
 .text          0x0000000000000000        0x0 c:/program files/microchip/xc32/v4.60/bin/bin/../../lib/gcc/pic32c/8.3.1/../../../../pic32c/lib/thumb/v6-m/nofp\libpic32c.a(lseek.o)
 .data          0x0000000000000000        0x0 c:/program files/microchip/xc32/v4.60/bin/bin/../../lib/gcc/pic32c/8.3.1/../../../../pic32c/lib/thumb/v6-m/nofp\libpic32c.a(lseek.o)
 .bss           0x0000000000000000        0x0 c:/program files/microchip/xc32/v4.60/bin/bin/../../lib/gcc/pic32c/8.3.1/../../../../pic32c/lib/thumb/v6-m/nofp\libpic32c.a(lseek.o)
 .xc_stack_usage
                0x0000000000000000       0x13 c:/program files/microchip/xc32/v4.60/bin/bin/../../lib/gcc/pic32c/8.3.1/../../../../pic32c/lib/thumb/v6-m/nofp\libpic32c.a(lseek.o)
 .xc_stack_usage.hdr
                0x0000000000000000        0xe c:/program files/microchip/xc32/v4.60/bin/bin/../../lib/gcc/pic32c/8.3.1/../../../../pic32c/lib/thumb/v6-m/nofp\libpic32c.a(lseek.o)
 .text          0x0000000000000000        0x0 c:/program files/microchip/xc32/v4.60/bin/bin/../../lib/gcc/pic32c/8.3.1/../../../../pic32c/lib/thumb/v6-m/nofp\libpic32c.a(read.o)
 .data          0x0000000000000000        0x0 c:/program files/microchip/xc32/v4.60/bin/bin/../../lib/gcc/pic32c/8.3.1/../../../../pic32c/lib/thumb/v6-m/nofp\libpic32c.a(read.o)
 .bss           0x0000000000000000        0x0 c:/program files/microchip/xc32/v4.60/bin/bin/../../lib/gcc/pic32c/8.3.1/../../../../pic32c/lib/thumb/v6-m/nofp\libpic32c.a(read.o)
 .xc_stack_usage
                0x0000000000000000       0x12 c:/program files/microchip/xc32/v4.60/bin/bin/../../lib/gcc/pic32c/8.3.1/../../../../pic32c/lib/thumb/v6-m/nofp\libpic32c.a(read.o)
 .xc_stack_usage.hdr
                0x0000000000000000        0xe c:/program files/microchip/xc32/v4.60/bin/bin/../../lib/gcc/pic32c/8.3.1/../../../../pic32c/lib/thumb/v6-m/nofp\libpic32c.a(read.o)
 .text          0x0000000000000000        0x0 c:/program files/microchip/xc32/v4.60/bin/bin/../../lib/gcc/pic32c/8.3.1/../../../../pic32c/lib/thumb/v6-m/nofp\libpic32c.a(write.o)
 .data          0x0000000000000000        0x0 c:/program files/microchip/xc32/v4.60/bin/bin/../../lib/gcc/pic32c/8.3.1/../../../../pic32c/lib/thumb/v6-m/nofp\libpic32c.a(write.o)
 .bss           0x0000000000000000        0x0 c:/program files/microchip/xc32/v4.60/bin/bin/../../lib/gcc/pic32c/8.3.1/../../../../pic32c/lib/thumb/v6-m/nofp\libpic32c.a(write.o)
 .xc_stack_usage
                0x0000000000000000       0x13 c:/program files/microchip/xc32/v4.60/bin/bin/../../lib/gcc/pic32c/8.3.1/../../../../pic32c/lib/thumb/v6-m/nofp\libpic32c.a(write.o)
 .xc_stack_usage.hdr
                0x0000000000000000        0xe c:/program files/microchip/xc32/v4.60/bin/bin/../../lib/gcc/pic32c/8.3.1/../../../../pic32c/lib/thumb/v6-m/nofp\libpic32c.a(write.o)
 .text          0x0000000000000000        0x0 c:/program files/microchip/xc32/v4.60/bin/bin/../../lib/gcc/pic32c/8.3.1/../../../../pic32c/lib/thumb/v6-m/nofp\libc-size-musl.a(strlen.o)
 .data          0x0000000000000000        0x0 c:/program files/microchip/xc32/v4.60/bin/bin/../../lib/gcc/pic32c/8.3.1/../../../../pic32c/lib/thumb/v6-m/nofp\libc-size-musl.a(strlen.o)
 .bss           0x0000000000000000        0x0 c:/program files/microchip/xc32/v4.60/bin/bin/../../lib/gcc/pic32c/8.3.1/../../../../pic32c/lib/thumb/v6-m/nofp\libc-size-musl.a(strlen.o)
 .xc_stack_usage
                0x0000000000000000       0x14 c:/program files/microchip/xc32/v4.60/bin/bin/../../lib/gcc/pic32c/8.3.1/../../../../pic32c/lib/thumb/v6-m/nofp\libc-size-musl.a(strlen.o)
 .xc_stack_usage.hdr
                0x0000000000000000        0xe c:/program files/microchip/xc32/v4.60/bin/bin/../../lib/gcc/pic32c/8.3.1/../../../../pic32c/lib/thumb/v6-m/nofp\libc-size-musl.a(strlen.o)
 .text          0x0000000000000000        0x0 c:/program files/microchip/xc32/v4.60/bin/bin/../../lib/gcc/pic32c/8.3.1/../../../../pic32c/lib/thumb/v6-m/nofp\libc-size-musl.a(strcpy.o)
 .data          0x0000000000000000        0x0 c:/program files/microchip/xc32/v4.60/bin/bin/../../lib/gcc/pic32c/8.3.1/../../../../pic32c/lib/thumb/v6-m/nofp\libc-size-musl.a(strcpy.o)
 .bss           0x0000000000000000        0x0 c:/program files/microchip/xc32/v4.60/bin/bin/../../lib/gcc/pic32c/8.3.1/../../../../pic32c/lib/thumb/v6-m/nofp\libc-size-musl.a(strcpy.o)
 .xc_stack_usage
                0x0000000000000000       0x14 c:/program files/microchip/xc32/v4.60/bin/bin/../../lib/gcc/pic32c/8.3.1/../../../../pic32c/lib/thumb/v6-m/nofp\libc-size-musl.a(strcpy.o)
 .xc_stack_usage.hdr
                0x0000000000000000        0xe c:/program files/microchip/xc32/v4.60/bin/bin/../../lib/gcc/pic32c/8.3.1/../../../../pic32c/lib/thumb/v6-m/nofp\libc-size-musl.a(strcpy.o)
 .text          0x0000000000000000        0x0 c:/program files/microchip/xc32/v4.60/bin/bin/../../lib/gcc/pic32c/8.3.1/../../../../pic32c/lib/thumb/v6-m/nofp\libc-size-musl.a(stpcpy.o)
 .data          0x0000000000000000        0x0 c:/program files/microchip/xc32/v4.60/bin/bin/../../lib/gcc/pic32c/8.3.1/../../../../pic32c/lib/thumb/v6-m/nofp\libc-size-musl.a(stpcpy.o)
 .bss           0x0000000000000000        0x0 c:/program files/microchip/xc32/v4.60/bin/bin/../../lib/gcc/pic32c/8.3.1/../../../../pic32c/lib/thumb/v6-m/nofp\libc-size-musl.a(stpcpy.o)
 .xc_stack_usage
                0x0000000000000000       0x14 c:/program files/microchip/xc32/v4.60/bin/bin/../../lib/gcc/pic32c/8.3.1/../../../../pic32c/lib/thumb/v6-m/nofp\libc-size-musl.a(stpcpy.o)
 .xc_stack_usage.hdr
                0x0000000000000000        0xe c:/program files/microchip/xc32/v4.60/bin/bin/../../lib/gcc/pic32c/8.3.1/../../../../pic32c/lib/thumb/v6-m/nofp\libc-size-musl.a(stpcpy.o)
 .text          0x0000000000000000        0x0 c:/program files/microchip/xc32/v4.60/bin/bin/../../lib/gcc/pic32c/8.3.1/../../../../pic32c/lib/thumb/v6-m/nofp\liblmalloc-musl.a(lite_malloc.o)
 .bss           0x0000000000000000        0x0 c:/program files/microchip/xc32/v4.60/bin/bin/../../lib/gcc/pic32c/8.3.1/../../../../pic32c/lib/thumb/v6-m/nofp\liblmalloc-musl.a(lite_malloc.o)
 .xc_stack_usage
                0x0000000000000000       0x1d c:/program files/microchip/xc32/v4.60/bin/bin/../../lib/gcc/pic32c/8.3.1/../../../../pic32c/lib/thumb/v6-m/nofp\liblmalloc-musl.a(lite_malloc.o)
 .xc_stack_usage.hdr
                0x0000000000000000        0xe c:/program files/microchip/xc32/v4.60/bin/bin/../../lib/gcc/pic32c/8.3.1/../../../../pic32c/lib/thumb/v6-m/nofp\liblmalloc-musl.a(lite_malloc.o)
 .text          0x0000000000000000        0x0 c:/program files/microchip/xc32/v4.60/bin/bin/../../lib/gcc/pic32c/8.3.1/../../../../pic32c/lib/thumb/v6-m/nofp\liblmalloc-musl.a(lite_free.o)
 .data          0x0000000000000000        0x0 c:/program files/microchip/xc32/v4.60/bin/bin/../../lib/gcc/pic32c/8.3.1/../../../../pic32c/lib/thumb/v6-m/nofp\liblmalloc-musl.a(lite_free.o)
 .xc_stack_usage
                0x0000000000000000       0x59 c:/program files/microchip/xc32/v4.60/bin/bin/../../lib/gcc/pic32c/8.3.1/../../../../pic32c/lib/thumb/v6-m/nofp\liblmalloc-musl.a(lite_free.o)
 .text.__simple_free
                0x0000000000000000       0x40 c:/program files/microchip/xc32/v4.60/bin/bin/../../lib/gcc/pic32c/8.3.1/../../../../pic32c/lib/thumb/v6-m/nofp\liblmalloc-musl.a(lite_free.o)
 .xc_stack_usage.hdr
                0x0000000000000000        0xe c:/program files/microchip/xc32/v4.60/bin/bin/../../lib/gcc/pic32c/8.3.1/../../../../pic32c/lib/thumb/v6-m/nofp\liblmalloc-musl.a(lite_free.o)
 .text          0x0000000000000000        0x0 c:/program files/microchip/xc32/v4.60/bin/bin/../../lib/gcc/pic32c/8.3.1/../../../../pic32c/lib/thumb/v6-m/nofp\libg-musl.a(expand_heap.o)
 .data          0x0000000000000000        0x0 c:/program files/microchip/xc32/v4.60/bin/bin/../../lib/gcc/pic32c/8.3.1/../../../../pic32c/lib/thumb/v6-m/nofp\libg-musl.a(expand_heap.o)
 .bss           0x0000000000000000        0x0 c:/program files/microchip/xc32/v4.60/bin/bin/../../lib/gcc/pic32c/8.3.1/../../../../pic32c/lib/thumb/v6-m/nofp\libg-musl.a(expand_heap.o)
 .xc_stack_usage
                0x0000000000000000       0x1b c:/program files/microchip/xc32/v4.60/bin/bin/../../lib/gcc/pic32c/8.3.1/../../../../pic32c/lib/thumb/v6-m/nofp\libg-musl.a(expand_heap.o)
 .xc_stack_usage.hdr
                0x0000000000000000        0xe c:/program files/microchip/xc32/v4.60/bin/bin/../../lib/gcc/pic32c/8.3.1/../../../../pic32c/lib/thumb/v6-m/nofp\libg-musl.a(expand_heap.o)
 .text          0x0000000000000000        0x0 c:/program files/microchip/xc32/v4.60/bin/bin/../../lib/gcc/pic32c/8.3.1/../../../../pic32c/lib/thumb/v6-m/nofp\libpic32c.a(sbrk.o)
 .data          0x0000000000000000        0x0 c:/program files/microchip/xc32/v4.60/bin/bin/../../lib/gcc/pic32c/8.3.1/../../../../pic32c/lib/thumb/v6-m/nofp\libpic32c.a(sbrk.o)
 .xc_stack_usage
                0x0000000000000000       0x4d c:/program files/microchip/xc32/v4.60/bin/bin/../../lib/gcc/pic32c/8.3.1/../../../../pic32c/lib/thumb/v6-m/nofp\libpic32c.a(sbrk.o)
 .xc_stack_usage.hdr
                0x0000000000000000        0xe c:/program files/microchip/xc32/v4.60/bin/bin/../../lib/gcc/pic32c/8.3.1/../../../../pic32c/lib/thumb/v6-m/nofp\libpic32c.a(sbrk.o)
 .text          0x0000000000000000        0x0 c:/program files/microchip/xc32/v4.60/bin/bin/../../lib/gcc/pic32c/8.3.1/thumb/v6-m/nofp/crtend.o
 .data          0x0000000000000000        0x0 c:/program files/microchip/xc32/v4.60/bin/bin/../../lib/gcc/pic32c/8.3.1/thumb/v6-m/nofp/crtend.o
 .bss           0x0000000000000000        0x0 c:/program files/microchip/xc32/v4.60/bin/bin/../../lib/gcc/pic32c/8.3.1/thumb/v6-m/nofp/crtend.o
 .eh_frame      0x0000000000000000        0x4 c:/program files/microchip/xc32/v4.60/bin/bin/../../lib/gcc/pic32c/8.3.1/thumb/v6-m/nofp/crtend.o
 .xc_stack_usage.hdr
                0x0000000000000000        0xe c:/program files/microchip/xc32/v4.60/bin/bin/../../lib/gcc/pic32c/8.3.1/thumb/v6-m/nofp/crtend.o
 .comment       0x0000000000000000       0x2c c:/program files/microchip/xc32/v4.60/bin/bin/../../lib/gcc/pic32c/8.3.1/thumb/v6-m/nofp/crtend.o
 .ARM.attributes
                0x0000000000000000       0x2c c:/program files/microchip/xc32/v4.60/bin/bin/../../lib/gcc/pic32c/8.3.1/thumb/v6-m/nofp/crtend.o
 .text          0x0000000000000000        0x0 c:/program files/microchip/xc32/v4.60/bin/bin/../../lib/gcc/pic32c/8.3.1/thumb/v6-m/nofp/crtn.o
 .data          0x0000000000000000        0x0 c:/program files/microchip/xc32/v4.60/bin/bin/../../lib/gcc/pic32c/8.3.1/thumb/v6-m/nofp/crtn.o
 .bss           0x0000000000000000        0x0 c:/program files/microchip/xc32/v4.60/bin/bin/../../lib/gcc/pic32c/8.3.1/thumb/v6-m/nofp/crtn.o
 .xc_stack_usage.hdr
                0x0000000000000000        0xe c:/program files/microchip/xc32/v4.60/bin/bin/../../lib/gcc/pic32c/8.3.1/thumb/v6-m/nofp/crtn.o
 .text          0x0000000000000000        0x0 c:/program files/microchip/xc32/v4.60/bin/bin/../../lib/gcc/pic32c/8.3.1/../../../../pic32c/lib/thumb/v6-m/nofp\libpic32c.a(pic32_data_init_clear.o)
 .data          0x0000000000000000        0x0 c:/program files/microchip/xc32/v4.60/bin/bin/../../lib/gcc/pic32c/8.3.1/../../../../pic32c/lib/thumb/v6-m/nofp\libpic32c.a(pic32_data_init_clear.o)
 .bss           0x0000000000000000        0x0 c:/program files/microchip/xc32/v4.60/bin/bin/../../lib/gcc/pic32c/8.3.1/../../../../pic32c/lib/thumb/v6-m/nofp\libpic32c.a(pic32_data_init_clear.o)
 .xc_stack_usage
                0x0000000000000000       0x1b c:/program files/microchip/xc32/v4.60/bin/bin/../../lib/gcc/pic32c/8.3.1/../../../../pic32c/lib/thumb/v6-m/nofp\libpic32c.a(pic32_data_init_clear.o)
 .xc_stack_usage.hdr
                0x0000000000000000        0xe c:/program files/microchip/xc32/v4.60/bin/bin/../../lib/gcc/pic32c/8.3.1/../../../../pic32c/lib/thumb/v6-m/nofp\libpic32c.a(pic32_data_init_clear.o)
 .text          0x0000000000000000        0x0 c:/program files/microchip/xc32/v4.60/bin/bin/../../lib/gcc/pic32c/8.3.1/../../../../pic32c/lib/thumb/v6-m/nofp\libpic32c.a(pic32_data_init_copy.o)
 .data          0x0000000000000000        0x0 c:/program files/microchip/xc32/v4.60/bin/bin/../../lib/gcc/pic32c/8.3.1/../../../../pic32c/lib/thumb/v6-m/nofp\libpic32c.a(pic32_data_init_copy.o)
 .bss           0x0000000000000000        0x0 c:/program files/microchip/xc32/v4.60/bin/bin/../../lib/gcc/pic32c/8.3.1/../../../../pic32c/lib/thumb/v6-m/nofp\libpic32c.a(pic32_data_init_copy.o)
 .xc_stack_usage
                0x0000000000000000       0x1a c:/program files/microchip/xc32/v4.60/bin/bin/../../lib/gcc/pic32c/8.3.1/../../../../pic32c/lib/thumb/v6-m/nofp\libpic32c.a(pic32_data_init_copy.o)
 .xc_stack_usage.hdr
                0x0000000000000000        0xe c:/program files/microchip/xc32/v4.60/bin/bin/../../lib/gcc/pic32c/8.3.1/../../../../pic32c/lib/thumb/v6-m/nofp\libpic32c.a(pic32_data_init_copy.o)

Memory Configuration

Name             Origin             Length             Attributes
rom              0x0000000000000000 0x0000000000040000 xrl
ram              0x0000000020000000 0x0000000000008000 xw !r
config_00804000  0x0000000000804000 0x0000000000000004
config_00804004  0x0000000000804004 0x0000000000000004
*default*        0x0000000000000000 0xffffffffffffffff

Linker script and memory map

LOAD c:/program files/microchip/xc32/v4.60/bin/bin/../../lib/gcc/pic32c/8.3.1/thumb/v6-m/nofp/crti.o
LOAD c:/program files/microchip/xc32/v4.60/bin/bin/../../lib/gcc/pic32c/8.3.1/thumb/v6-m/nofp/crtbegin.o
LOAD build/SAMD21_IOT_WG_ICM42688/debug/_ext/2048461350/icm42688_sensor.o
LOAD build/SAMD21_IOT_WG_ICM42688/debug/_ext/1750425231/plib_clock.o
LOAD build/SAMD21_IOT_WG_ICM42688/debug/_ext/503204096/plib_eic.o
LOAD build/SAMD21_IOT_WG_ICM42688/debug/_ext/1752574717/plib_evsys.o
LOAD build/SAMD21_IOT_WG_ICM42688/debug/_ext/1580823105/plib_nvic.o
LOAD build/SAMD21_IOT_WG_ICM42688/debug/_ext/11470383/plib_nvmctrl.o
LOAD build/SAMD21_IOT_WG_ICM42688/debug/_ext/1580876256/plib_port.o
LOAD build/SAMD21_IOT_WG_ICM42688/debug/_ext/1014017276/plib_sercom0_spi_master.o
LOAD build/SAMD21_IOT_WG_ICM42688/debug/_ext/177673482/plib_sercom5_usart.o
LOAD build/SAMD21_IOT_WG_ICM42688/debug/_ext/223004715/plib_systick.o
LOAD build/SAMD21_IOT_WG_ICM42688/debug/_ext/399410062/plib_tc3.o
LOAD build/SAMD21_IOT_WG_ICM42688/debug/_ext/1357625803/xc32_monitor.o
LOAD build/SAMD21_IOT_WG_ICM42688/debug/_ext/1832905403/initialization.o
LOAD build/SAMD21_IOT_WG_ICM42688/debug/_ext/1832905403/interrupts.o
LOAD build/SAMD21_IOT_WG_ICM42688/debug/_ext/1832905403/exceptions.o
LOAD build/SAMD21_IOT_WG_ICM42688/debug/_ext/1832905403/startup_xc32.o
LOAD build/SAMD21_IOT_WG_ICM42688/debug/_ext/1832905403/libc_syscalls.o
LOAD build/SAMD21_IOT_WG_ICM42688/debug/_ext/1341251756/Icm426xxDriver_HL.o
LOAD build/SAMD21_IOT_WG_ICM42688/debug/_ext/1341251756/Icm426xxDriver_HL_apex.o
LOAD build/SAMD21_IOT_WG_ICM42688/debug/_ext/1341251756/Icm426xxSelfTest.o
LOAD build/SAMD21_IOT_WG_ICM42688/debug/_ext/1341251756/Icm426xxTransport.o
LOAD build/SAMD21_IOT_WG_ICM42688/debug/_ext/1360937237/main.o
LOAD build/SAMD21_IOT_WG_ICM42688/debug/_ext/1360937237/ringbuffer.o
LOAD build/SAMD21_IOT_WG_ICM42688/debug/_ext/1360937237/ws2812.o
LOAD build/SAMD21_IOT_WG_ICM42688/debug/_ext/26920679/array_contains.o
LOAD build/SAMD21_IOT_WG_ICM42688/debug/_ext/26920679/calc_area.o
LOAD build/SAMD21_IOT_WG_ICM42688/debug/_ext/26920679/column_to_row_complex.o
LOAD build/SAMD21_IOT_WG_ICM42688/debug/_ext/26920679/crossing_rate.o
LOAD build/SAMD21_IOT_WG_ICM42688/debug/_ext/26920679/dsp_dtw_distance.o
LOAD build/SAMD21_IOT_WG_ICM42688/debug/_ext/26920679/dsp_l1_distance.o
LOAD build/SAMD21_IOT_WG_ICM42688/debug/_ext/26920679/dsp_lsup_distance.o
LOAD build/SAMD21_IOT_WG_ICM42688/debug/_ext/26920679/fftr.o
LOAD build/SAMD21_IOT_WG_ICM42688/debug/_ext/26920679/fftr_utils.o
LOAD build/SAMD21_IOT_WG_ICM42688/debug/_ext/26920679/fg_area_absolute_area_high_frequency.o
LOAD build/SAMD21_IOT_WG_ICM42688/debug/_ext/26920679/fg_area_total_area_low_frequency.o
LOAD build/SAMD21_IOT_WG_ICM42688/debug/_ext/26920679/fg_cross_p2p_difference.o
LOAD build/SAMD21_IOT_WG_ICM42688/debug/_ext/26920679/fg_cross_peak_location_difference.o
LOAD build/SAMD21_IOT_WG_ICM42688/debug/_ext/26920679/fg_stats_abs_mean.o
LOAD build/SAMD21_IOT_WG_ICM42688/debug/_ext/26920679/fg_stats_pct075.o
LOAD build/SAMD21_IOT_WG_ICM42688/debug/_ext/26920679/fg_stats_skewness.o
LOAD build/SAMD21_IOT_WG_ICM42688/debug/_ext/26920679/fixlog.o
LOAD build/SAMD21_IOT_WG_ICM42688/debug/_ext/26920679/imfcc.o
LOAD build/SAMD21_IOT_WG_ICM42688/debug/_ext/26920679/kb.o
LOAD build/SAMD21_IOT_WG_ICM42688/debug/_ext/26920679/kb_output.o
LOAD build/SAMD21_IOT_WG_ICM42688/debug/_ext/26920679/kb_pipeline.o
LOAD build/SAMD21_IOT_WG_ICM42688/debug/_ext/26920679/kb_post_processing.o
LOAD build/SAMD21_IOT_WG_ICM42688/debug/_ext/26920679/max_min_high_low_freq.o
LOAD build/SAMD21_IOT_WG_ICM42688/debug/_ext/26920679/ma_symmetric.o
LOAD build/SAMD21_IOT_WG_ICM42688/debug/_ext/26920679/mean.o
LOAD build/SAMD21_IOT_WG_ICM42688/debug/_ext/26920679/ratio_diff_impl.o
LOAD build/SAMD21_IOT_WG_ICM42688/debug/_ext/26920679/rb.o
LOAD build/SAMD21_IOT_WG_ICM42688/debug/_ext/26920679/save_sensor_data.o
LOAD build/SAMD21_IOT_WG_ICM42688/debug/_ext/26920679/sf_downsample_by_averaging.o
LOAD build/SAMD21_IOT_WG_ICM42688/debug/_ext/26920679/sf_downsample_by_decimation.o
LOAD build/SAMD21_IOT_WG_ICM42688/debug/_ext/26920679/sg_windowing.o
LOAD build/SAMD21_IOT_WG_ICM42688/debug/_ext/26920679/sortarray.o
LOAD build/SAMD21_IOT_WG_ICM42688/debug/_ext/26920679/sorted_copy.o
LOAD build/SAMD21_IOT_WG_ICM42688/debug/_ext/26920679/stats_percentile_presorted.o
LOAD build/SAMD21_IOT_WG_ICM42688/debug/_ext/26920679/stat_mean.o
LOAD build/SAMD21_IOT_WG_ICM42688/debug/_ext/26920679/stat_moment.o
LOAD build/SAMD21_IOT_WG_ICM42688/debug/_ext/26920679/std.o
LOAD build/SAMD21_IOT_WG_ICM42688/debug/_ext/26920679/st_absolute_average.o
LOAD build/SAMD21_IOT_WG_ICM42688/debug/_ext/26920679/st_average.o
LOAD build/SAMD21_IOT_WG_ICM42688/debug/_ext/26920679/st_high_pass_filter.o
LOAD build/SAMD21_IOT_WG_ICM42688/debug/_ext/26920679/st_moving_average.o
LOAD build/SAMD21_IOT_WG_ICM42688/debug/_ext/26920679/sum.o
LOAD build/SAMD21_IOT_WG_ICM42688/debug/_ext/26920679/tree_ensemble.o
LOAD build/SAMD21_IOT_WG_ICM42688/debug/_ext/26920679/tree_ensemble_trained_models.o
LOAD build/SAMD21_IOT_WG_ICM42688/debug/_ext/26920679/tr_min_max_scale.o
LOAD build/SAMD21_IOT_WG_ICM42688/debug/_ext/26920679/tr_sensor_magnitude.o
LOAD build/SAMD21_IOT_WG_ICM42688/debug/_ext/26920679/utils_array.o
LOAD build/SAMD21_IOT_WG_ICM42688/debug/_ext/26920679/utils_array_max_uint8.o
LOAD build/SAMD21_IOT_WG_ICM42688/debug/_ext/26920679/utils_bitwise_abs_val.o
LOAD build/SAMD21_IOT_WG_ICM42688/debug/_ext/26920679/utils_buffer_absmean.o
LOAD build/SAMD21_IOT_WG_ICM42688/debug/_ext/26920679/utils_buffer_abssum.o
LOAD build/SAMD21_IOT_WG_ICM42688/debug/_ext/26920679/utils_buffer_abs_max.o
LOAD build/SAMD21_IOT_WG_ICM42688/debug/_ext/26920679/utils_buffer_argmax.o
LOAD build/SAMD21_IOT_WG_ICM42688/debug/_ext/26920679/utils_buffer_autoscale.o
LOAD build/SAMD21_IOT_WG_ICM42688/debug/_ext/26920679/utils_buffer_cumsum.o
LOAD build/SAMD21_IOT_WG_ICM42688/debug/_ext/26920679/utils_buffer_max.o
LOAD build/SAMD21_IOT_WG_ICM42688/debug/_ext/26920679/utils_buffer_mean.o
LOAD build/SAMD21_IOT_WG_ICM42688/debug/_ext/26920679/utils_buffer_median.o
LOAD build/SAMD21_IOT_WG_ICM42688/debug/_ext/26920679/utils_buffer_min.o
LOAD build/SAMD21_IOT_WG_ICM42688/debug/_ext/26920679/utils_buffer_min_max.o
LOAD build/SAMD21_IOT_WG_ICM42688/debug/_ext/26920679/utils_buffer_pass_threshold.o
LOAD build/SAMD21_IOT_WG_ICM42688/debug/_ext/26920679/utils_buffer_std.o
LOAD build/SAMD21_IOT_WG_ICM42688/debug/_ext/26920679/utils_buffer_variance.o
LOAD build/SAMD21_IOT_WG_ICM42688/debug/_ext/26920679/utils_model_crossing_rate.o
LOAD build/SAMD21_IOT_WG_ICM42688/debug/_ext/26920679/utils_model_cross_column.o
LOAD build/SAMD21_IOT_WG_ICM42688/debug/_ext/26920679/utils_model_cross_difference.o
LOAD build/SAMD21_IOT_WG_ICM42688/debug/_ext/26920679/utils_model_mean_crossing_rate.o
LOAD build/SAMD21_IOT_WG_ICM42688/debug/_ext/26920679/utils_model_pct_time_over_sigma.o
LOAD build/SAMD21_IOT_WG_ICM42688/debug/_ext/26920679/utils_model_pct_time_over_threshold.o
LOAD build/SAMD21_IOT_WG_ICM42688/debug/_ext/26920679/utils_model_stats_max_min.o
LOAD build/SAMD21_IOT_WG_ICM42688/debug/_ext/26920679/utils_model_total_area.o
LOAD build/SAMD21_IOT_WG_ICM42688/debug/_ext/26920679/utils_model_total_energy.o
LOAD build/SAMD21_IOT_WG_ICM42688/debug/_ext/26920679/utils_tr_sensor.o
LOAD build/SAMD21_IOT_WG_ICM42688/debug/_ext/741007211/sml_recognition_run.o
LOAD ..\mplabml\lib\libmplabml.a
                0x0000000000000001                __MPLAB_BUILD = 0x1
                0x0000000000040000                __rom_end = (ORIGIN (rom) + LENGTH (rom))
                0x0000000020008000                __ram_end = (ORIGIN (ram) + LENGTH (ram))

.config_00804000
                0x0000000000804000        0x4
 *(.config_00804000)
 .config_00804000
                0x0000000000804000        0x4 build/SAMD21_IOT_WG_ICM42688/debug/_ext/1832905403/initialization.o
                0x0000000000804000                __config_00804000

.config_00804004
                0x0000000000804004        0x4
 *(.config_00804004)
 .config_00804004
                0x0000000000804004        0x4 build/SAMD21_IOT_WG_ICM42688/debug/_ext/1832905403/initialization.o
                0x0000000000804004                __config_00804004

.vectors        0x0000000000000000       0xb0
                0x0000000000000000                . = ALIGN (0x4)
                0x0000000000000000                _sfixed = .
 *(.vectors .vectors.* .vectors_default .vectors_default.*)
 .vectors       0x0000000000000000       0xb0 build/SAMD21_IOT_WG_ICM42688/debug/_ext/1832905403/interrupts.o
                0x0000000000000000                exception_table
 *(.isr_vector)
 *(.reset*)
 *(.after_vectors)

.text           0x00000000000000b0       0x20
                0x00000000000000b0                . = ALIGN (0x4)
 *(.glue_7t)
 .glue_7t       0x00000000000000b0        0x0 linker stubs
 *(.glue_7)
 .glue_7        0x00000000000000b0        0x0 linker stubs
 *(.gnu.linkonce.r.*)
 *(.ARM.extab* .gnu.linkonce.armextab.*)
                0x00000000000000b0                . = ALIGN (0x4)
 *(.init)
 .init          0x00000000000000b0        0x4 c:/program files/microchip/xc32/v4.60/bin/bin/../../lib/gcc/pic32c/8.3.1/thumb/v6-m/nofp/crti.o
                0x00000000000000b0                _init
 .init          0x00000000000000b4        0x8 c:/program files/microchip/xc32/v4.60/bin/bin/../../lib/gcc/pic32c/8.3.1/thumb/v6-m/nofp/crtn.o
                0x00000000000000bc                . = ALIGN (0x4)
                0x00000000000000bc                __preinit_array_start = .
 *(.preinit_array)
                0x00000000000000bc                __preinit_array_end = .
                0x00000000000000bc                . = ALIGN (0x4)
                0x00000000000000bc                __init_array_start = .
 *(SORT_BY_NAME(.init_array.*))
 *(.init_array)
 .init_array    0x00000000000000bc        0x4 c:/program files/microchip/xc32/v4.60/bin/bin/../../lib/gcc/pic32c/8.3.1/thumb/v6-m/nofp/crtbegin.o
                0x00000000000000c0                __init_array_end = .
                0x00000000000000c0                . = ALIGN (0x4)
 *crtbegin.o(.ctors)
 *(EXCLUDE_FILE(*crtend.o) .ctors)
 *(SORT_BY_NAME(.ctors.*))
 *crtend.o(.ctors)
                0x00000000000000c0                . = ALIGN (0x4)
 *(.fini)
 .fini          0x00000000000000c0        0x4 c:/program files/microchip/xc32/v4.60/bin/bin/../../lib/gcc/pic32c/8.3.1/thumb/v6-m/nofp/crti.o
                0x00000000000000c0                _fini
 .fini          0x00000000000000c4        0x8 c:/program files/microchip/xc32/v4.60/bin/bin/../../lib/gcc/pic32c/8.3.1/thumb/v6-m/nofp/crtn.o
                0x00000000000000cc                . = ALIGN (0x4)
                0x00000000000000cc                __fini_array_start = .
 *(.fini_array)
 .fini_array    0x00000000000000cc        0x4 c:/program files/microchip/xc32/v4.60/bin/bin/../../lib/gcc/pic32c/8.3.1/thumb/v6-m/nofp/crtbegin.o
 *(SORT_BY_NAME(.fini_array.*))
                0x00000000000000d0                __fini_array_end = .
 *crtbegin.o(.dtors)
 *(EXCLUDE_FILE(*crtend.o) .dtors)
 *(SORT_BY_NAME(.dtors.*))
 *crtend.o(.dtors)
                0x00000000000000d0                . = ALIGN (0x4)
                0x00000000000000d0                _efixed = .
                [!provide]                        PROVIDE (__exidx_start = .)

.ARM.exidx      0x00000000000000d0       0x10
 *(.ARM.exidx* .gnu.linkonce.armexidx.*)
 .ARM.exidx     0x00000000000000d8        0x8 c:/program files/microchip/xc32/v4.60/bin/bin/../../lib/gcc/pic32c/8.3.1/thumb/v6-m/nofp\libgcc.a(_udivmoddi4.o)
 .ARM.exidx     0x00000000000000d0        0x8 c:/program files/microchip/xc32/v4.60/bin/bin/../../lib/gcc/pic32c/8.3.1/thumb/v6-m/nofp\libgcc.a(_divdi3.o)
                [!provide]                        PROVIDE (__exidx_end = .)
                0x00000000000000e0                . = ALIGN (0x4)
                0x00000000000000e0                _etext = .

.bss            0x0000000020000000        0x0
                0x0000000020000000                . = ALIGN (0x4)
                0x0000000020000000                __bss_start__ = .
                0x0000000020000000                _sbss = .
                0x0000000020000000                _szero = .
 *(COMMON)
                0x0000000020000000                . = ALIGN (0x4)
                0x0000000020000000                __bss_end__ = .
                0x0000000020000000                _ebss = .
                0x0000000020000000                _ezero = .
                0x0000000020000000                . = ALIGN (0x4)
                0x0000000020000000                _end = .
                0x0000000020007fff                _ram_end_ = ((ORIGIN (ram) + LENGTH (ram)) - 0x1)
                0x0000000000000001                __ICD2RAM = 0x1
                0x0000000000000001                __MPLAB_DEBUG = 0x1
                0x0000000000000001                __DEBUG = 0x1
                0x0000000000000200                _min_heap_size = 0x200
START GROUP
LOAD c:/program files/microchip/xc32/v4.60/bin/bin/../../lib/gcc/pic32c/8.3.1/../../../../pic32c/lib/thumb/v6-m/nofp\libpic32c.a
LOAD c:/program files/microchip/xc32/v4.60/bin/bin/../../lib/gcc/pic32c/8.3.1/../../../../pic32c/lib/thumb/v6-m/nofp\libc-size-musl.a
LOAD c:/program files/microchip/xc32/v4.60/bin/bin/../../lib/gcc/pic32c/8.3.1/../../../../pic32c/lib/thumb/v6-m/nofp\liblmalloc-musl.a
LOAD c:/program files/microchip/xc32/v4.60/bin/bin/../../lib/gcc/pic32c/8.3.1/../../../../pic32c/lib/thumb/v6-m/nofp\libm-fast-emfloat.a
LOAD c:/program files/microchip/xc32/v4.60/bin/bin/../../lib/gcc/pic32c/8.3.1/../../../../pic32c/lib/thumb/v6-m/nofp\libm-musl.a
LOAD c:/program files/microchip/xc32/v4.60/bin/bin/../../lib/gcc/pic32c/8.3.1/../../../../pic32c/lib/thumb/v6-m/nofp\libg-musl.a
LOAD c:/program files/microchip/xc32/v4.60/bin/bin/../../lib/gcc/pic32c/8.3.1/../../../../pic32c/lib/thumb/v6-m/nofp\libc-musl.a
LOAD c:/program files/microchip/xc32/v4.60/bin/bin/../../lib/gcc/pic32c/8.3.1/../../../../pic32c/lib/thumb/v6-m/nofp\libm-fast-emfloat.a
LOAD c:/program files/microchip/xc32/v4.60/bin/bin/../../lib/gcc/pic32c/8.3.1/../../../../pic32c/lib/thumb/v6-m/nofp\libm-musl.a
LOAD c:/program files/microchip/xc32/v4.60/bin/bin/../../lib/gcc/pic32c/8.3.1/thumb/v6-m/nofp\libgcc.a
END GROUP
LOAD c:/program files/microchip/xc32/v4.60/bin/bin/../../lib/gcc/pic32c/8.3.1/thumb/v6-m/nofp/crtend.o
LOAD c:/program files/microchip/xc32/v4.60/bin/bin/../../lib/gcc/pic32c/8.3.1/thumb/v6-m/nofp/crtn.o
OUTPUT(dist/SAMD21_IOT_WG_ICM42688/debug/samd21-iot-mplabml-wand.X.debug.elf elf32-littlearm)
LOAD data_init
LOAD stack

.ARM.attributes
                0x0000000000000000       0x2a
 .ARM.attributes
                0x0000000000000000       0x1e c:/program files/microchip/xc32/v4.60/bin/bin/../../lib/gcc/pic32c/8.3.1/thumb/v6-m/nofp/crti.o
 .ARM.attributes
                0x000000000000001e       0x2c c:/program files/microchip/xc32/v4.60/bin/bin/../../lib/gcc/pic32c/8.3.1/thumb/v6-m/nofp/crtbegin.o
 .ARM.attributes
                0x000000000000004a       0x2c build/SAMD21_IOT_WG_ICM42688/debug/_ext/2048461350/icm42688_sensor.o
 .ARM.attributes
                0x0000000000000076       0x2c build/SAMD21_IOT_WG_ICM42688/debug/_ext/1750425231/plib_clock.o
 .ARM.attributes
                0x00000000000000a2       0x2c build/SAMD21_IOT_WG_ICM42688/debug/_ext/503204096/plib_eic.o
 .ARM.attributes
                0x00000000000000ce       0x2c build/SAMD21_IOT_WG_ICM42688/debug/_ext/1752574717/plib_evsys.o
 .ARM.attributes
                0x00000000000000fa       0x2c build/SAMD21_IOT_WG_ICM42688/debug/_ext/1580823105/plib_nvic.o
 .ARM.attributes
                0x0000000000000126       0x2c build/SAMD21_IOT_WG_ICM42688/debug/_ext/11470383/plib_nvmctrl.o
 .ARM.attributes
                0x0000000000000152       0x2c build/SAMD21_IOT_WG_ICM42688/debug/_ext/1580876256/plib_port.o
 .ARM.attributes
                0x000000000000017e       0x2c build/SAMD21_IOT_WG_ICM42688/debug/_ext/1014017276/plib_sercom0_spi_master.o
 .ARM.attributes
                0x00000000000001aa       0x2c build/SAMD21_IOT_WG_ICM42688/debug/_ext/177673482/plib_sercom5_usart.o
 .ARM.attributes
                0x00000000000001d6       0x2c build/SAMD21_IOT_WG_ICM42688/debug/_ext/223004715/plib_systick.o
 .ARM.attributes
                0x0000000000000202       0x2c build/SAMD21_IOT_WG_ICM42688/debug/_ext/399410062/plib_tc3.o
 .ARM.attributes
                0x000000000000022e       0x2c build/SAMD21_IOT_WG_ICM42688/debug/_ext/1357625803/xc32_monitor.o
 .ARM.attributes
                0x000000000000025a       0x2c build/SAMD21_IOT_WG_ICM42688/debug/_ext/1832905403/initialization.o
 .ARM.attributes
                0x0000000000000286       0x2c build/SAMD21_IOT_WG_ICM42688/debug/_ext/1832905403/interrupts.o
 .ARM.attributes
                0x00000000000002b2       0x2c build/SAMD21_IOT_WG_ICM42688/debug/_ext/1832905403/exceptions.o
 .ARM.attributes
                0x00000000000002de       0x2c build/SAMD21_IOT_WG_ICM42688/debug/_ext/1832905403/startup_xc32.o
 .ARM.attributes
                0x000000000000030a       0x2c build/SAMD21_IOT_WG_ICM42688/debug/_ext/1341251756/Icm426xxDriver_HL.o
 .ARM.attributes
                0x0000000000000336       0x2c build/SAMD21_IOT_WG_ICM42688/debug/_ext/1341251756/Icm426xxTransport.o
 .ARM.attributes
                0x0000000000000362       0x2c build/SAMD21_IOT_WG_ICM42688/debug/_ext/1360937237/main.o
 .ARM.attributes
                0x000000000000038e       0x2c build/SAMD21_IOT_WG_ICM42688/debug/_ext/1360937237/ringbuffer.o
 .ARM.attributes
                0x00000000000003ba       0x2c build/SAMD21_IOT_WG_ICM42688/debug/_ext/26920679/fg_area_absolute_area_high_frequency.o
 .ARM.attributes
                0x00000000000003e6       0x2c build/SAMD21_IOT_WG_ICM42688/debug/_ext/26920679/fg_area_total_area_low_frequency.o
 .ARM.attributes
                0x0000000000000412       0x2c build/SAMD21_IOT_WG_ICM42688/debug/_ext/26920679/fg_cross_p2p_difference.o
 .ARM.attributes
                0x000000000000043e       0x2c build/SAMD21_IOT_WG_ICM42688/debug/_ext/26920679/fg_cross_peak_location_difference.o
 .ARM.attributes
                0x000000000000046a       0x2c build/SAMD21_IOT_WG_ICM42688/debug/_ext/26920679/fg_stats_abs_mean.o
 .ARM.attributes
                0x0000000000000496       0x2c build/SAMD21_IOT_WG_ICM42688/debug/_ext/26920679/fg_stats_pct075.o
 .ARM.attributes
                0x00000000000004c2       0x2c build/SAMD21_IOT_WG_ICM42688/debug/_ext/26920679/fg_stats_skewness.o
 .ARM.attributes
                0x00000000000004ee       0x2c build/SAMD21_IOT_WG_ICM42688/debug/_ext/26920679/kb.o
 .ARM.attributes
                0x000000000000051a       0x2c build/SAMD21_IOT_WG_ICM42688/debug/_ext/26920679/kb_output.o
 .ARM.attributes
                0x0000000000000546       0x2c build/SAMD21_IOT_WG_ICM42688/debug/_ext/26920679/kb_pipeline.o
 .ARM.attributes
                0x0000000000000572       0x2c build/SAMD21_IOT_WG_ICM42688/debug/_ext/26920679/ma_symmetric.o
 .ARM.attributes
                0x000000000000059e       0x2c build/SAMD21_IOT_WG_ICM42688/debug/_ext/26920679/mean.o
 .ARM.attributes
                0x00000000000005ca       0x2c build/SAMD21_IOT_WG_ICM42688/debug/_ext/26920679/rb.o
 .ARM.attributes
                0x00000000000005f6       0x2c build/SAMD21_IOT_WG_ICM42688/debug/_ext/26920679/save_sensor_data.o
 .ARM.attributes
                0x0000000000000622       0x2c build/SAMD21_IOT_WG_ICM42688/debug/_ext/26920679/sg_windowing.o
 .ARM.attributes
                0x000000000000064e       0x2c build/SAMD21_IOT_WG_ICM42688/debug/_ext/26920679/sortarray.o
 .ARM.attributes
                0x000000000000067a       0x2c build/SAMD21_IOT_WG_ICM42688/debug/_ext/26920679/sorted_copy.o
 .ARM.attributes
                0x00000000000006a6       0x2c build/SAMD21_IOT_WG_ICM42688/debug/_ext/26920679/stats_percentile_presorted.o
 .ARM.attributes
                0x00000000000006d2       0x2c build/SAMD21_IOT_WG_ICM42688/debug/_ext/26920679/stat_moment.o
 .ARM.attributes
                0x00000000000006fe       0x2c build/SAMD21_IOT_WG_ICM42688/debug/_ext/26920679/tree_ensemble.o
 .ARM.attributes
                0x000000000000072a       0x32 build/SAMD21_IOT_WG_ICM42688/debug/_ext/26920679/tree_ensemble_trained_models.o
 .ARM.attributes
                0x000000000000075c       0x2c build/SAMD21_IOT_WG_ICM42688/debug/_ext/26920679/tr_min_max_scale.o
 .ARM.attributes
                0x0000000000000788       0x2c build/SAMD21_IOT_WG_ICM42688/debug/_ext/26920679/tr_sensor_magnitude.o
 .ARM.attributes
                0x00000000000007b4       0x2c build/SAMD21_IOT_WG_ICM42688/debug/_ext/26920679/utils_buffer_abssum.o
 .ARM.attributes
                0x00000000000007e0       0x2c build/SAMD21_IOT_WG_ICM42688/debug/_ext/26920679/utils_buffer_argmax.o
 .ARM.attributes
                0x000000000000080c       0x2c build/SAMD21_IOT_WG_ICM42688/debug/_ext/26920679/utils_buffer_cumsum.o
 .ARM.attributes
                0x0000000000000838       0x2c build/SAMD21_IOT_WG_ICM42688/debug/_ext/26920679/utils_model_cross_difference.o
 .ARM.attributes
                0x0000000000000864       0x2c build/SAMD21_IOT_WG_ICM42688/debug/_ext/26920679/utils_tr_sensor.o
 .ARM.attributes
                0x0000000000000890       0x2c build/SAMD21_IOT_WG_ICM42688/debug/_ext/741007211/sml_recognition_run.o
 .ARM.attributes
                0x00000000000008bc       0x2c c:/program files/microchip/xc32/v4.60/bin/bin/../../lib/gcc/pic32c/8.3.1/../../../../pic32c/lib/thumb/v6-m/nofp\libpic32c.a(data_init.o)
 .ARM.attributes
                0x00000000000008e8       0x2e c:/program files/microchip/xc32/v4.60/bin/bin/../../lib/gcc/pic32c/8.3.1/../../../../pic32c/lib/thumb/v6-m/nofp\libc-size-musl.a(memcpy.o)
 .ARM.attributes
                0x0000000000000916       0x2e c:/program files/microchip/xc32/v4.60/bin/bin/../../lib/gcc/pic32c/8.3.1/../../../../pic32c/lib/thumb/v6-m/nofp\libc-size-musl.a(memset.o)
 .ARM.attributes
                0x0000000000000944       0x2c c:/program files/microchip/xc32/v4.60/bin/bin/../../lib/gcc/pic32c/8.3.1/../../../../pic32c/lib/thumb/v6-m/nofp\libm-fast-emfloat.a(modff.o)
 .ARM.attributes
                0x0000000000000970       0x2c c:/program files/microchip/xc32/v4.60/bin/bin/../../lib/gcc/pic32c/8.3.1/../../../../pic32c/lib/thumb/v6-m/nofp\libm-fast-emfloat.a(sqrt.o)
 .ARM.attributes
                0x000000000000099c       0x2c c:/program files/microchip/xc32/v4.60/bin/bin/../../lib/gcc/pic32c/8.3.1/../../../../pic32c/lib/thumb/v6-m/nofp\libm-fast-emfloat.a(pow.o)
 .ARM.attributes
                0x00000000000009c8       0x2c c:/program files/microchip/xc32/v4.60/bin/bin/../../lib/gcc/pic32c/8.3.1/../../../../pic32c/lib/thumb/v6-m/nofp\libm-fast-emfloat.a(__SEGGER_RTL_kahan_aT2.o)
 .ARM.attributes
                0x00000000000009f4       0x1c c:/program files/microchip/xc32/v4.60/bin/bin/../../lib/gcc/pic32c/8.3.1/../../../../pic32c/lib/thumb/v6-m/nofp\libm-fast-emfloat.a(__aeabi_fadd.o)
 .ARM.attributes
                0x0000000000000a10       0x1c c:/program files/microchip/xc32/v4.60/bin/bin/../../lib/gcc/pic32c/8.3.1/../../../../pic32c/lib/thumb/v6-m/nofp\libm-fast-emfloat.a(__aeabi_dadd.o)
 .ARM.attributes
                0x0000000000000a2c       0x1c c:/program files/microchip/xc32/v4.60/bin/bin/../../lib/gcc/pic32c/8.3.1/../../../../pic32c/lib/thumb/v6-m/nofp\libm-fast-emfloat.a(__aeabi_fsub.o)
 .ARM.attributes
                0x0000000000000a48       0x1c c:/program files/microchip/xc32/v4.60/bin/bin/../../lib/gcc/pic32c/8.3.1/../../../../pic32c/lib/thumb/v6-m/nofp\libm-fast-emfloat.a(__aeabi_dsub.o)
 .ARM.attributes
                0x0000000000000a64       0x1c c:/program files/microchip/xc32/v4.60/bin/bin/../../lib/gcc/pic32c/8.3.1/../../../../pic32c/lib/thumb/v6-m/nofp\libm-fast-emfloat.a(__aeabi_fmul.o)
 .ARM.attributes
                0x0000000000000a80       0x1c c:/program files/microchip/xc32/v4.60/bin/bin/../../lib/gcc/pic32c/8.3.1/../../../../pic32c/lib/thumb/v6-m/nofp\libm-fast-emfloat.a(__aeabi_dmul_aux.o)
 .ARM.attributes
                0x0000000000000a9c       0x1c c:/program files/microchip/xc32/v4.60/bin/bin/../../lib/gcc/pic32c/8.3.1/../../../../pic32c/lib/thumb/v6-m/nofp\libm-fast-emfloat.a(__aeabi_fdiv.o)
 .ARM.attributes
                0x0000000000000ab8       0x1c c:/program files/microchip/xc32/v4.60/bin/bin/../../lib/gcc/pic32c/8.3.1/../../../../pic32c/lib/thumb/v6-m/nofp\libm-fast-emfloat.a(__aeabi_ddiv.o)
 .ARM.attributes
                0x0000000000000ad4       0x1c c:/program files/microchip/xc32/v4.60/bin/bin/../../lib/gcc/pic32c/8.3.1/../../../../pic32c/lib/thumb/v6-m/nofp\libm-fast-emfloat.a(__aeabi_fcmple.o)
 .ARM.attributes
                0x0000000000000af0       0x1c c:/program files/microchip/xc32/v4.60/bin/bin/../../lib/gcc/pic32c/8.3.1/../../../../pic32c/lib/thumb/v6-m/nofp\libm-fast-emfloat.a(__aeabi_fcmpeq.o)
 .ARM.attributes
                0x0000000000000b0c       0x1c c:/program files/microchip/xc32/v4.60/bin/bin/../../lib/gcc/pic32c/8.3.1/../../../../pic32c/lib/thumb/v6-m/nofp\libm-fast-emfloat.a(__aeabi_dcmpeq.o)
 .ARM.attributes
                0x0000000000000b28       0x1c c:/program files/microchip/xc32/v4.60/bin/bin/../../lib/gcc/pic32c/8.3.1/../../../../pic32c/lib/thumb/v6-m/nofp\libm-fast-emfloat.a(__aeabi_fcmpge.o)
 .ARM.attributes
                0x0000000000000b44       0x1c c:/program files/microchip/xc32/v4.60/bin/bin/../../lib/gcc/pic32c/8.3.1/../../../../pic32c/lib/thumb/v6-m/nofp\libm-fast-emfloat.a(__aeabi_fcmpgt.o)
 .ARM.attributes
                0x0000000000000b60       0x1c c:/program files/microchip/xc32/v4.60/bin/bin/../../lib/gcc/pic32c/8.3.1/../../../../pic32c/lib/thumb/v6-m/nofp\libm-fast-emfloat.a(__aeabi_dcmpgt.o)
 .ARM.attributes
                0x0000000000000b7c       0x1c c:/program files/microchip/xc32/v4.60/bin/bin/../../lib/gcc/pic32c/8.3.1/../../../../pic32c/lib/thumb/v6-m/nofp\libm-fast-emfloat.a(__aeabi_fcmplt.o)
 .ARM.attributes
                0x0000000000000b98       0x1c c:/program files/microchip/xc32/v4.60/bin/bin/../../lib/gcc/pic32c/8.3.1/../../../../pic32c/lib/thumb/v6-m/nofp\libm-fast-emfloat.a(__aeabi_dcmplt.o)
 .ARM.attributes
                0x0000000000000bb4       0x1c c:/program files/microchip/xc32/v4.60/bin/bin/../../lib/gcc/pic32c/8.3.1/../../../../pic32c/lib/thumb/v6-m/nofp\libm-fast-emfloat.a(__aeabi_f2iz.o)
 .ARM.attributes
                0x0000000000000bd0       0x1c c:/program files/microchip/xc32/v4.60/bin/bin/../../lib/gcc/pic32c/8.3.1/../../../../pic32c/lib/thumb/v6-m/nofp\libm-fast-emfloat.a(__aeabi_d2iz.o)
 .ARM.attributes
                0x0000000000000bec       0x1c c:/program files/microchip/xc32/v4.60/bin/bin/../../lib/gcc/pic32c/8.3.1/../../../../pic32c/lib/thumb/v6-m/nofp\libm-fast-emfloat.a(__aeabi_f2uiz.o)
 .ARM.attributes
                0x0000000000000c08       0x1c c:/program files/microchip/xc32/v4.60/bin/bin/../../lib/gcc/pic32c/8.3.1/../../../../pic32c/lib/thumb/v6-m/nofp\libm-fast-emfloat.a(__aeabi_d2uiz.o)
 .ARM.attributes
                0x0000000000000c24       0x1c c:/program files/microchip/xc32/v4.60/bin/bin/../../lib/gcc/pic32c/8.3.1/../../../../pic32c/lib/thumb/v6-m/nofp\libm-fast-emfloat.a(__aeabi_i2f.o)
 .ARM.attributes
                0x0000000000000c40       0x1c c:/program files/microchip/xc32/v4.60/bin/bin/../../lib/gcc/pic32c/8.3.1/../../../../pic32c/lib/thumb/v6-m/nofp\libm-fast-emfloat.a(__aeabi_i2d.o)
 .ARM.attributes
                0x0000000000000c5c       0x1c c:/program files/microchip/xc32/v4.60/bin/bin/../../lib/gcc/pic32c/8.3.1/../../../../pic32c/lib/thumb/v6-m/nofp\libm-fast-emfloat.a(__aeabi_l2f.o)
 .ARM.attributes
                0x0000000000000c78       0x1c c:/program files/microchip/xc32/v4.60/bin/bin/../../lib/gcc/pic32c/8.3.1/../../../../pic32c/lib/thumb/v6-m/nofp\libm-fast-emfloat.a(__aeabi_ui2f.o)
 .ARM.attributes
                0x0000000000000c94       0x1c c:/program files/microchip/xc32/v4.60/bin/bin/../../lib/gcc/pic32c/8.3.1/../../../../pic32c/lib/thumb/v6-m/nofp\libm-fast-emfloat.a(__aeabi_ui2d.o)
 .ARM.attributes
                0x0000000000000cb0       0x1c c:/program files/microchip/xc32/v4.60/bin/bin/../../lib/gcc/pic32c/8.3.1/../../../../pic32c/lib/thumb/v6-m/nofp\libm-fast-emfloat.a(__aeabi_ul2f.o)
 .ARM.attributes
                0x0000000000000ccc       0x1c c:/program files/microchip/xc32/v4.60/bin/bin/../../lib/gcc/pic32c/8.3.1/../../../../pic32c/lib/thumb/v6-m/nofp\libm-fast-emfloat.a(__aeabi_f2d.o)
 .ARM.attributes
                0x0000000000000ce8       0x1c c:/program files/microchip/xc32/v4.60/bin/bin/../../lib/gcc/pic32c/8.3.1/../../../../pic32c/lib/thumb/v6-m/nofp\libm-fast-emfloat.a(__aeabi_d2f.o)
 .ARM.attributes
                0x0000000000000d04       0x2c c:/program files/microchip/xc32/v4.60/bin/bin/../../lib/gcc/pic32c/8.3.1/../../../../pic32c/lib/thumb/v6-m/nofp\libm-fast-emfloat.a(__SEGGER_RTL_float64_PolyEvalP.o)
 .ARM.attributes
                0x0000000000000d30       0x2c c:/program files/microchip/xc32/v4.60/bin/bin/../../lib/gcc/pic32c/8.3.1/../../../../pic32c/lib/thumb/v6-m/nofp\libm-fast-emfloat.a(ldexp.o)
 .ARM.attributes
                0x0000000000000d5c       0x2c c:/program files/microchip/xc32/v4.60/bin/bin/../../lib/gcc/pic32c/8.3.1/../../../../pic32c/lib/thumb/v6-m/nofp\libm-fast-emfloat.a(log.o)
 .ARM.attributes
                0x0000000000000d88       0x2c c:/program files/microchip/xc32/v4.60/bin/bin/../../lib/gcc/pic32c/8.3.1/../../../../pic32c/lib/thumb/v6-m/nofp\libm-fast-emfloat.a(exp.o)
 .ARM.attributes
                0x0000000000000db4       0x2c c:/program files/microchip/xc32/v4.60/bin/bin/../../lib/gcc/pic32c/8.3.1/../../../../pic32c/lib/thumb/v6-m/nofp\libm-fast-emfloat.a(__SEGGER_RTL_float64_Log.o)
 .ARM.attributes
                0x0000000000000de0       0x2c c:/program files/microchip/xc32/v4.60/bin/bin/../../lib/gcc/pic32c/8.3.1/../../../../pic32c/lib/thumb/v6-m/nofp\libm-fast-emfloat.a(__SEGGER_RTL_float64_PolyEvalQ.o)
 .ARM.attributes
                0x0000000000000e0c       0x2c c:/program files/microchip/xc32/v4.60/bin/bin/../../lib/gcc/pic32c/8.3.1/../../../../pic32c/lib/thumb/v6-m/nofp\libm-fast-emfloat.a(frexp.o)
 .ARM.attributes
                0x0000000000000e38       0x2e c:/program files/microchip/xc32/v4.60/bin/bin/../../lib/gcc/pic32c/8.3.1/../../../../pic32c/lib/thumb/v6-m/nofp\libg-musl.a(__libc_start_main.o)
 .ARM.attributes
                0x0000000000000e66       0x2e c:/program files/microchip/xc32/v4.60/bin/bin/../../lib/gcc/pic32c/8.3.1/../../../../pic32c/lib/thumb/v6-m/nofp\libg-musl.a(__errno_location.o)
 .ARM.attributes
                0x0000000000000e94       0x2e c:/program files/microchip/xc32/v4.60/bin/bin/../../lib/gcc/pic32c/8.3.1/../../../../pic32c/lib/thumb/v6-m/nofp\libg-musl.a(libc.o)
 .ARM.attributes
                0x0000000000000ec2       0x2e c:/program files/microchip/xc32/v4.60/bin/bin/../../lib/gcc/pic32c/8.3.1/../../../../pic32c/lib/thumb/v6-m/nofp\libg-musl.a(__sio_printf_cdeEfFgGnpsxX.o)
 .ARM.attributes
                0x0000000000000ef0       0x2e c:/program files/microchip/xc32/v4.60/bin/bin/../../lib/gcc/pic32c/8.3.1/../../../../pic32c/lib/thumb/v6-m/nofp\libg-musl.a(__sio_sprintf_cdeEfFgGnpsxX.o)
 .ARM.attributes
                0x0000000000000f1e       0x2e c:/program files/microchip/xc32/v4.60/bin/bin/../../lib/gcc/pic32c/8.3.1/../../../../pic32c/lib/thumb/v6-m/nofp\libg-musl.a(__fmt_d.o)
 .ARM.attributes
                0x0000000000000f4c       0x2e c:/program files/microchip/xc32/v4.60/bin/bin/../../lib/gcc/pic32c/8.3.1/../../../../pic32c/lib/thumb/v6-m/nofp\libg-musl.a(__fmt_fp.o)
 .ARM.attributes
                0x0000000000000f7a       0x2e c:/program files/microchip/xc32/v4.60/bin/bin/../../lib/gcc/pic32c/8.3.1/../../../../pic32c/lib/thumb/v6-m/nofp\libg-musl.a(__fmt_s.o)
 .ARM.attributes
                0x0000000000000fa8       0x2e c:/program files/microchip/xc32/v4.60/bin/bin/../../lib/gcc/pic32c/8.3.1/../../../../pic32c/lib/thumb/v6-m/nofp\libg-musl.a(__fmt_x.o)
 .ARM.attributes
                0x0000000000000fd6       0x2e c:/program files/microchip/xc32/v4.60/bin/bin/../../lib/gcc/pic32c/8.3.1/../../../../pic32c/lib/thumb/v6-m/nofp\libg-musl.a(__pop_float.o)
 .ARM.attributes
                0x0000000000001004       0x2e c:/program files/microchip/xc32/v4.60/bin/bin/../../lib/gcc/pic32c/8.3.1/../../../../pic32c/lib/thumb/v6-m/nofp\libg-musl.a(__pop_int.o)
 .ARM.attributes
                0x0000000000001032       0x2e c:/program files/microchip/xc32/v4.60/bin/bin/../../lib/gcc/pic32c/8.3.1/../../../../pic32c/lib/thumb/v6-m/nofp\libg-musl.a(__pop_ptr.o)
 .ARM.attributes
                0x0000000000001060       0x2e c:/program files/microchip/xc32/v4.60/bin/bin/../../lib/gcc/pic32c/8.3.1/../../../../pic32c/lib/thumb/v6-m/nofp\libg-musl.a(__printf_core.o)
 .ARM.attributes
                0x000000000000108e       0x2e c:/program files/microchip/xc32/v4.60/bin/bin/../../lib/gcc/pic32c/8.3.1/../../../../pic32c/lib/thumb/v6-m/nofp\libg-musl.a(stdin.o)
 .ARM.attributes
                0x00000000000010bc       0x2e c:/program files/microchip/xc32/v4.60/bin/bin/../../lib/gcc/pic32c/8.3.1/../../../../pic32c/lib/thumb/v6-m/nofp\libg-musl.a(stdout.o)
 .ARM.attributes
                0x00000000000010ea       0x2e c:/program files/microchip/xc32/v4.60/bin/bin/../../lib/gcc/pic32c/8.3.1/../../../../pic32c/lib/thumb/v6-m/nofp\libg-musl.a(putchar.o)
 .ARM.attributes
                0x0000000000001118       0x2e c:/program files/microchip/xc32/v4.60/bin/bin/../../lib/gcc/pic32c/8.3.1/../../../../pic32c/lib/thumb/v6-m/nofp\libg-musl.a(puts.o)
 .ARM.attributes
                0x0000000000001146       0x2e c:/program files/microchip/xc32/v4.60/bin/bin/../../lib/gcc/pic32c/8.3.1/../../../../pic32c/lib/thumb/v6-m/nofp\libg-musl.a(setbuf.o)
 .ARM.attributes
                0x0000000000001174       0x2e c:/program files/microchip/xc32/v4.60/bin/bin/../../lib/gcc/pic32c/8.3.1/../../../../pic32c/lib/thumb/v6-m/nofp\libg-musl.a(atoi.o)
 .ARM.attributes
                0x00000000000011a2       0x2e c:/program files/microchip/xc32/v4.60/bin/bin/../../lib/gcc/pic32c/8.3.1/../../../../pic32c/lib/thumb/v6-m/nofp\libg-musl.a(tolower.o)
 .ARM.attributes
                0x00000000000011d0       0x2e c:/program files/microchip/xc32/v4.60/bin/bin/../../lib/gcc/pic32c/8.3.1/../../../../pic32c/lib/thumb/v6-m/nofp\libg-musl.a(toupper.o)
 .ARM.attributes
                0x00000000000011fe       0x2e c:/program files/microchip/xc32/v4.60/bin/bin/../../lib/gcc/pic32c/8.3.1/../../../../pic32c/lib/thumb/v6-m/nofp\libg-musl.a(__environ.o)
 .ARM.attributes
                0x000000000000122c       0x2e c:/program files/microchip/xc32/v4.60/bin/bin/../../lib/gcc/pic32c/8.3.1/../../../../pic32c/lib/thumb/v6-m/nofp\libg-musl.a(__int_vfprintf.o)
 .ARM.attributes
                0x000000000000125a       0x2e c:/program files/microchip/xc32/v4.60/bin/bin/../../lib/gcc/pic32c/8.3.1/../../../../pic32c/lib/thumb/v6-m/nofp\libg-musl.a(__int_vsprintf.o)
 .ARM.attributes
                0x0000000000001288       0x2e c:/program files/microchip/xc32/v4.60/bin/bin/../../lib/gcc/pic32c/8.3.1/../../../../pic32c/lib/thumb/v6-m/nofp\libg-musl.a(fputs.o)
 .ARM.attributes
                0x00000000000012b6       0x2e c:/program files/microchip/xc32/v4.60/bin/bin/../../lib/gcc/pic32c/8.3.1/../../../../pic32c/lib/thumb/v6-m/nofp\libg-musl.a(__cvt_u.o)
 .ARM.attributes
                0x00000000000012e4       0x2e c:/program files/microchip/xc32/v4.60/bin/bin/../../lib/gcc/pic32c/8.3.1/../../../../pic32c/lib/thumb/v6-m/nofp\libg-musl.a(__stdio_read.o)
 .ARM.attributes
                0x0000000000001312       0x2e c:/program files/microchip/xc32/v4.60/bin/bin/../../lib/gcc/pic32c/8.3.1/../../../../pic32c/lib/thumb/v6-m/nofp\libg-musl.a(__towrite_rw.o)
 .ARM.attributes
                0x0000000000001340       0x2e c:/program files/microchip/xc32/v4.60/bin/bin/../../lib/gcc/pic32c/8.3.1/../../../../pic32c/lib/thumb/v6-m/nofp\libg-musl.a(fwrite.o)
 .ARM.attributes
                0x000000000000136e       0x2e c:/program files/microchip/xc32/v4.60/bin/bin/../../lib/gcc/pic32c/8.3.1/../../../../pic32c/lib/thumb/v6-m/nofp\libg-musl.a(putc.o)
 .ARM.attributes
                0x000000000000139c       0x2e c:/program files/microchip/xc32/v4.60/bin/bin/../../lib/gcc/pic32c/8.3.1/../../../../pic32c/lib/thumb/v6-m/nofp\libg-musl.a(setvbuf.o)
 .ARM.attributes
                0x00000000000013ca       0x2e c:/program files/microchip/xc32/v4.60/bin/bin/../../lib/gcc/pic32c/8.3.1/../../../../pic32c/lib/thumb/v6-m/nofp\libg-musl.a(readv.o)
 .ARM.attributes
                0x00000000000013f8       0x2e c:/program files/microchip/xc32/v4.60/bin/bin/../../lib/gcc/pic32c/8.3.1/../../../../pic32c/lib/thumb/v6-m/nofp\libg-musl.a(__int_vsnprintf.o)
 .ARM.attributes
                0x0000000000001426       0x2e c:/program files/microchip/xc32/v4.60/bin/bin/../../lib/gcc/pic32c/8.3.1/../../../../pic32c/lib/thumb/v6-m/nofp\libg-musl.a(__init_stdio.o)
 .ARM.attributes
                0x0000000000001454       0x2e c:/program files/microchip/xc32/v4.60/bin/bin/../../lib/gcc/pic32c/8.3.1/../../../../pic32c/lib/thumb/v6-m/nofp\libg-musl.a(__out.o)
 .ARM.attributes
                0x0000000000001482       0x2e c:/program files/microchip/xc32/v4.60/bin/bin/../../lib/gcc/pic32c/8.3.1/../../../../pic32c/lib/thumb/v6-m/nofp\libg-musl.a(__putc.o)
 .ARM.attributes
                0x00000000000014b0       0x2e c:/program files/microchip/xc32/v4.60/bin/bin/../../lib/gcc/pic32c/8.3.1/../../../../pic32c/lib/thumb/v6-m/nofp\libg-musl.a(__stderr.o)
 .ARM.attributes
                0x00000000000014de       0x2e c:/program files/microchip/xc32/v4.60/bin/bin/../../lib/gcc/pic32c/8.3.1/../../../../pic32c/lib/thumb/v6-m/nofp\libg-musl.a(__stdio_close.o)
 .ARM.attributes
                0x000000000000150c       0x2e c:/program files/microchip/xc32/v4.60/bin/bin/../../lib/gcc/pic32c/8.3.1/../../../../pic32c/lib/thumb/v6-m/nofp\libg-musl.a(__stdio_write.o)
 .ARM.attributes
                0x000000000000153a       0x2e c:/program files/microchip/xc32/v4.60/bin/bin/../../lib/gcc/pic32c/8.3.1/../../../../pic32c/lib/thumb/v6-m/nofp\libg-musl.a(__stdout.o)
 .ARM.attributes
                0x0000000000001568       0x2e c:/program files/microchip/xc32/v4.60/bin/bin/../../lib/gcc/pic32c/8.3.1/../../../../pic32c/lib/thumb/v6-m/nofp\libg-musl.a(__towrite.o)
 .ARM.attributes
                0x0000000000001596       0x2e c:/program files/microchip/xc32/v4.60/bin/bin/../../lib/gcc/pic32c/8.3.1/../../../../pic32c/lib/thumb/v6-m/nofp\libg-musl.a(writev.o)
 .ARM.attributes
                0x00000000000015c4       0x2e c:/program files/microchip/xc32/v4.60/bin/bin/../../lib/gcc/pic32c/8.3.1/../../../../pic32c/lib/thumb/v6-m/nofp\libg-musl.a(__overflow.o)
 .ARM.attributes
                0x00000000000015f2       0x2e c:/program files/microchip/xc32/v4.60/bin/bin/../../lib/gcc/pic32c/8.3.1/../../../../pic32c/lib/thumb/v6-m/nofp\libg-musl.a(__fwrite.o)
 .ARM.attributes
                0x0000000000001620       0x2c c:/program files/microchip/xc32/v4.60/bin/bin/../../lib/gcc/pic32c/8.3.1/../../../../pic32c/lib/thumb/v6-m/nofp\libm-fast-emfloat.a(fma.o)
 .ARM.attributes
                0x000000000000164c       0x2c c:/program files/microchip/xc32/v4.60/bin/bin/../../lib/gcc/pic32c/8.3.1/../../../../pic32c/lib/thumb/v6-m/nofp\libm-fast-emfloat.a(floor.o)
 .ARM.attributes
                0x0000000000001678       0x1c c:/program files/microchip/xc32/v4.60/bin/bin/../../lib/gcc/pic32c/8.3.1/../../../../pic32c/lib/thumb/v6-m/nofp\libm-fast-emfloat.a(__aeabi_dcmple.o)
 .ARM.attributes
                0x0000000000001694       0x1e c:/program files/microchip/xc32/v4.60/bin/bin/../../lib/gcc/pic32c/8.3.1/thumb/v6-m/nofp\libgcc.a(_udivsi3.o)
 .ARM.attributes
                0x00000000000016b2       0x1e c:/program files/microchip/xc32/v4.60/bin/bin/../../lib/gcc/pic32c/8.3.1/thumb/v6-m/nofp\libgcc.a(_divsi3.o)
 .ARM.attributes
                0x00000000000016d0       0x1e c:/program files/microchip/xc32/v4.60/bin/bin/../../lib/gcc/pic32c/8.3.1/thumb/v6-m/nofp\libgcc.a(_dvmd_tls.o)
 .ARM.attributes
                0x00000000000016ee       0x1e c:/program files/microchip/xc32/v4.60/bin/bin/../../lib/gcc/pic32c/8.3.1/thumb/v6-m/nofp\libgcc.a(_aeabi_ldivmod.o)
 .ARM.attributes
                0x000000000000170c       0x1e c:/program files/microchip/xc32/v4.60/bin/bin/../../lib/gcc/pic32c/8.3.1/thumb/v6-m/nofp\libgcc.a(_aeabi_uldivmod.o)
 .ARM.attributes
                0x000000000000172a       0x2c c:/program files/microchip/xc32/v4.60/bin/bin/../../lib/gcc/pic32c/8.3.1/thumb/v6-m/nofp\libgcc.a(_muldi3.o)
 .ARM.attributes
                0x0000000000001756       0x2c c:/program files/microchip/xc32/v4.60/bin/bin/../../lib/gcc/pic32c/8.3.1/thumb/v6-m/nofp\libgcc.a(_udivmoddi4.o)
 .ARM.attributes
                0x0000000000001782       0x2c c:/program files/microchip/xc32/v4.60/bin/bin/../../lib/gcc/pic32c/8.3.1/thumb/v6-m/nofp\libgcc.a(bpabi.o)
 .ARM.attributes
                0x00000000000017ae       0x1e c:/program files/microchip/xc32/v4.60/bin/bin/../../lib/gcc/pic32c/8.3.1/thumb/v6-m/nofp\libgcc.a(_lshrdi3.o)
 .ARM.attributes
                0x00000000000017cc       0x1e c:/program files/microchip/xc32/v4.60/bin/bin/../../lib/gcc/pic32c/8.3.1/thumb/v6-m/nofp\libgcc.a(_ashldi3.o)
 .ARM.attributes
                0x00000000000017ea       0x1e c:/program files/microchip/xc32/v4.60/bin/bin/../../lib/gcc/pic32c/8.3.1/thumb/v6-m/nofp\libgcc.a(_clzdi2.o)
 .ARM.attributes
                0x0000000000001808       0x2c c:/program files/microchip/xc32/v4.60/bin/bin/../../lib/gcc/pic32c/8.3.1/thumb/v6-m/nofp\libgcc.a(_divdi3.o)
 .ARM.attributes
                0x0000000000001834       0x1e c:/program files/microchip/xc32/v4.60/bin/bin/../../lib/gcc/pic32c/8.3.1/thumb/v6-m/nofp\libgcc.a(_clzsi2.o)
 .ARM.attributes
                0x0000000000001852       0x2c c:/program files/microchip/xc32/v4.60/bin/bin/../../lib/gcc/pic32c/8.3.1/../../../../pic32c/lib/thumb/v6-m/nofp\libpic32c.a(close.o)
 .ARM.attributes
                0x000000000000187e       0x2c c:/program files/microchip/xc32/v4.60/bin/bin/../../lib/gcc/pic32c/8.3.1/../../../../pic32c/lib/thumb/v6-m/nofp\libpic32c.a(lseek.o)
 .ARM.attributes
                0x00000000000018aa       0x2c c:/program files/microchip/xc32/v4.60/bin/bin/../../lib/gcc/pic32c/8.3.1/../../../../pic32c/lib/thumb/v6-m/nofp\libpic32c.a(read.o)
 .ARM.attributes
                0x00000000000018d6       0x2c c:/program files/microchip/xc32/v4.60/bin/bin/../../lib/gcc/pic32c/8.3.1/../../../../pic32c/lib/thumb/v6-m/nofp\libpic32c.a(write.o)
 .ARM.attributes
                0x0000000000001902       0x2e c:/program files/microchip/xc32/v4.60/bin/bin/../../lib/gcc/pic32c/8.3.1/../../../../pic32c/lib/thumb/v6-m/nofp\libc-size-musl.a(strlen.o)
 .ARM.attributes
                0x0000000000001930       0x2e c:/program files/microchip/xc32/v4.60/bin/bin/../../lib/gcc/pic32c/8.3.1/../../../../pic32c/lib/thumb/v6-m/nofp\libc-size-musl.a(strcpy.o)
 .ARM.attributes
                0x000000000000195e       0x2e c:/program files/microchip/xc32/v4.60/bin/bin/../../lib/gcc/pic32c/8.3.1/../../../../pic32c/lib/thumb/v6-m/nofp\libc-size-musl.a(stpcpy.o)
 .ARM.attributes
                0x000000000000198c       0x2e c:/program files/microchip/xc32/v4.60/bin/bin/../../lib/gcc/pic32c/8.3.1/../../../../pic32c/lib/thumb/v6-m/nofp\liblmalloc-musl.a(lite_malloc.o)
 .ARM.attributes
                0x00000000000019ba       0x2e c:/program files/microchip/xc32/v4.60/bin/bin/../../lib/gcc/pic32c/8.3.1/../../../../pic32c/lib/thumb/v6-m/nofp\liblmalloc-musl.a(lite_free.o)
 .ARM.attributes
                0x00000000000019e8       0x2e c:/program files/microchip/xc32/v4.60/bin/bin/../../lib/gcc/pic32c/8.3.1/../../../../pic32c/lib/thumb/v6-m/nofp\libg-musl.a(expand_heap.o)
 .ARM.attributes
                0x0000000000001a16       0x2c c:/program files/microchip/xc32/v4.60/bin/bin/../../lib/gcc/pic32c/8.3.1/../../../../pic32c/lib/thumb/v6-m/nofp\libpic32c.a(sbrk.o)
 .ARM.attributes
                0x0000000000001a42       0x1e c:/program files/microchip/xc32/v4.60/bin/bin/../../lib/gcc/pic32c/8.3.1/thumb/v6-m/nofp/crtn.o
 .ARM.attributes
                0x0000000000001a60       0x2c c:/program files/microchip/xc32/v4.60/bin/bin/../../lib/gcc/pic32c/8.3.1/../../../../pic32c/lib/thumb/v6-m/nofp\libpic32c.a(pic32_data_init_clear.o)
 .ARM.attributes
                0x0000000000001a8c       0x2c c:/program files/microchip/xc32/v4.60/bin/bin/../../lib/gcc/pic32c/8.3.1/../../../../pic32c/lib/thumb/v6-m/nofp\libpic32c.a(pic32_data_init_copy.o)

.comment        0x0000000000000000       0x2b
 .comment       0x0000000000000000       0x2b c:/program files/microchip/xc32/v4.60/bin/bin/../../lib/gcc/pic32c/8.3.1/thumb/v6-m/nofp/crtbegin.o
                                         0x2c (size before relaxing)
 .comment       0x000000000000002b       0x2c build/SAMD21_IOT_WG_ICM42688/debug/_ext/2048461350/icm42688_sensor.o
 .comment       0x000000000000002b       0x2c build/SAMD21_IOT_WG_ICM42688/debug/_ext/1750425231/plib_clock.o
 .comment       0x000000000000002b       0x2c build/SAMD21_IOT_WG_ICM42688/debug/_ext/503204096/plib_eic.o
 .comment       0x000000000000002b       0x2c build/SAMD21_IOT_WG_ICM42688/debug/_ext/1752574717/plib_evsys.o
 .comment       0x000000000000002b       0x2c build/SAMD21_IOT_WG_ICM42688/debug/_ext/1580823105/plib_nvic.o
 .comment       0x000000000000002b       0x2c build/SAMD21_IOT_WG_ICM42688/debug/_ext/11470383/plib_nvmctrl.o
 .comment       0x000000000000002b       0x2c build/SAMD21_IOT_WG_ICM42688/debug/_ext/1580876256/plib_port.o
 .comment       0x000000000000002b       0x2c build/SAMD21_IOT_WG_ICM42688/debug/_ext/1014017276/plib_sercom0_spi_master.o
 .comment       0x000000000000002b       0x2c build/SAMD21_IOT_WG_ICM42688/debug/_ext/177673482/plib_sercom5_usart.o
 .comment       0x000000000000002b       0x2c build/SAMD21_IOT_WG_ICM42688/debug/_ext/223004715/plib_systick.o
 .comment       0x000000000000002b       0x2c build/SAMD21_IOT_WG_ICM42688/debug/_ext/399410062/plib_tc3.o
 .comment       0x000000000000002b       0x2c build/SAMD21_IOT_WG_ICM42688/debug/_ext/1357625803/xc32_monitor.o
 .comment       0x000000000000002b       0x2c build/SAMD21_IOT_WG_ICM42688/debug/_ext/1832905403/initialization.o
 .comment       0x000000000000002b       0x2c build/SAMD21_IOT_WG_ICM42688/debug/_ext/1832905403/interrupts.o
 .comment       0x000000000000002b       0x2c build/SAMD21_IOT_WG_ICM42688/debug/_ext/1832905403/exceptions.o
 .comment       0x000000000000002b       0x2c build/SAMD21_IOT_WG_ICM42688/debug/_ext/1832905403/startup_xc32.o
 .comment       0x000000000000002b       0x2c build/SAMD21_IOT_WG_ICM42688/debug/_ext/1341251756/Icm426xxDriver_HL.o
 .comment       0x000000000000002b       0x2c build/SAMD21_IOT_WG_ICM42688/debug/_ext/1341251756/Icm426xxTransport.o
 .comment       0x000000000000002b       0x2c build/SAMD21_IOT_WG_ICM42688/debug/_ext/1360937237/main.o
 .comment       0x000000000000002b       0x2c build/SAMD21_IOT_WG_ICM42688/debug/_ext/1360937237/ringbuffer.o
 .comment       0x000000000000002b       0x2c build/SAMD21_IOT_WG_ICM42688/debug/_ext/26920679/fg_area_absolute_area_high_frequency.o
 .comment       0x000000000000002b       0x2c build/SAMD21_IOT_WG_ICM42688/debug/_ext/26920679/fg_area_total_area_low_frequency.o
 .comment       0x000000000000002b       0x2c build/SAMD21_IOT_WG_ICM42688/debug/_ext/26920679/fg_cross_p2p_difference.o
 .comment       0x000000000000002b       0x2c build/SAMD21_IOT_WG_ICM42688/debug/_ext/26920679/fg_cross_peak_location_difference.o
 .comment       0x000000000000002b       0x2c build/SAMD21_IOT_WG_ICM42688/debug/_ext/26920679/fg_stats_abs_mean.o
 .comment       0x000000000000002b       0x2c build/SAMD21_IOT_WG_ICM42688/debug/_ext/26920679/fg_stats_pct075.o
 .comment       0x000000000000002b       0x2c build/SAMD21_IOT_WG_ICM42688/debug/_ext/26920679/fg_stats_skewness.o
 .comment       0x000000000000002b       0x2c build/SAMD21_IOT_WG_ICM42688/debug/_ext/26920679/kb.o
 .comment       0x000000000000002b       0x2c build/SAMD21_IOT_WG_ICM42688/debug/_ext/26920679/kb_output.o
 .comment       0x000000000000002b       0x2c build/SAMD21_IOT_WG_ICM42688/debug/_ext/26920679/kb_pipeline.o
 .comment       0x000000000000002b       0x2c build/SAMD21_IOT_WG_ICM42688/debug/_ext/26920679/ma_symmetric.o
 .comment       0x000000000000002b       0x2c build/SAMD21_IOT_WG_ICM42688/debug/_ext/26920679/mean.o
 .comment       0x000000000000002b       0x2c build/SAMD21_IOT_WG_ICM42688/debug/_ext/26920679/rb.o
 .comment       0x000000000000002b       0x2c build/SAMD21_IOT_WG_ICM42688/debug/_ext/26920679/save_sensor_data.o
 .comment       0x000000000000002b       0x2c build/SAMD21_IOT_WG_ICM42688/debug/_ext/26920679/sg_windowing.o
 .comment       0x000000000000002b       0x2c build/SAMD21_IOT_WG_ICM42688/debug/_ext/26920679/sortarray.o
 .comment       0x000000000000002b       0x2c build/SAMD21_IOT_WG_ICM42688/debug/_ext/26920679/sorted_copy.o
 .comment       0x000000000000002b       0x2c build/SAMD21_IOT_WG_ICM42688/debug/_ext/26920679/stats_percentile_presorted.o
 .comment       0x000000000000002b       0x2c build/SAMD21_IOT_WG_ICM42688/debug/_ext/26920679/stat_moment.o
 .comment       0x000000000000002b       0x2c build/SAMD21_IOT_WG_ICM42688/debug/_ext/26920679/tree_ensemble.o
 .comment       0x000000000000002b       0x2c build/SAMD21_IOT_WG_ICM42688/debug/_ext/26920679/tree_ensemble_trained_models.o
 .comment       0x000000000000002b       0x2c build/SAMD21_IOT_WG_ICM42688/debug/_ext/26920679/tr_min_max_scale.o
 .comment       0x000000000000002b       0x2c build/SAMD21_IOT_WG_ICM42688/debug/_ext/26920679/tr_sensor_magnitude.o
 .comment       0x000000000000002b       0x2c build/SAMD21_IOT_WG_ICM42688/debug/_ext/26920679/utils_buffer_abssum.o
 .comment       0x000000000000002b       0x2c build/SAMD21_IOT_WG_ICM42688/debug/_ext/26920679/utils_buffer_argmax.o
 .comment       0x000000000000002b       0x2c build/SAMD21_IOT_WG_ICM42688/debug/_ext/26920679/utils_buffer_cumsum.o
 .comment       0x000000000000002b       0x2c build/SAMD21_IOT_WG_ICM42688/debug/_ext/26920679/utils_model_cross_difference.o
 .comment       0x000000000000002b       0x2c build/SAMD21_IOT_WG_ICM42688/debug/_ext/26920679/utils_tr_sensor.o
 .comment       0x000000000000002b       0x2c build/SAMD21_IOT_WG_ICM42688/debug/_ext/741007211/sml_recognition_run.o
 .comment       0x000000000000002b       0x2c c:/program files/microchip/xc32/v4.60/bin/bin/../../lib/gcc/pic32c/8.3.1/../../../../pic32c/lib/thumb/v6-m/nofp\libpic32c.a(data_init.o)
 .comment       0x000000000000002b       0x2c c:/program files/microchip/xc32/v4.60/bin/bin/../../lib/gcc/pic32c/8.3.1/../../../../pic32c/lib/thumb/v6-m/nofp\libc-size-musl.a(memcpy.o)
 .comment       0x000000000000002b       0x2c c:/program files/microchip/xc32/v4.60/bin/bin/../../lib/gcc/pic32c/8.3.1/../../../../pic32c/lib/thumb/v6-m/nofp\libc-size-musl.a(memset.o)
 .comment       0x000000000000002b       0x2c c:/program files/microchip/xc32/v4.60/bin/bin/../../lib/gcc/pic32c/8.3.1/../../../../pic32c/lib/thumb/v6-m/nofp\libm-fast-emfloat.a(modff.o)
 .comment       0x000000000000002b       0x2c c:/program files/microchip/xc32/v4.60/bin/bin/../../lib/gcc/pic32c/8.3.1/../../../../pic32c/lib/thumb/v6-m/nofp\libm-fast-emfloat.a(sqrt.o)
 .comment       0x000000000000002b       0x2c c:/program files/microchip/xc32/v4.60/bin/bin/../../lib/gcc/pic32c/8.3.1/../../../../pic32c/lib/thumb/v6-m/nofp\libm-fast-emfloat.a(pow.o)
 .comment       0x000000000000002b       0x2c c:/program files/microchip/xc32/v4.60/bin/bin/../../lib/gcc/pic32c/8.3.1/../../../../pic32c/lib/thumb/v6-m/nofp\libm-fast-emfloat.a(__SEGGER_RTL_kahan_aT2.o)
 .comment       0x000000000000002b       0x2c c:/program files/microchip/xc32/v4.60/bin/bin/../../lib/gcc/pic32c/8.3.1/../../../../pic32c/lib/thumb/v6-m/nofp\libm-fast-emfloat.a(__SEGGER_RTL_float64_PolyEvalP.o)
 .comment       0x000000000000002b       0x2c c:/program files/microchip/xc32/v4.60/bin/bin/../../lib/gcc/pic32c/8.3.1/../../../../pic32c/lib/thumb/v6-m/nofp\libm-fast-emfloat.a(ldexp.o)
 .comment       0x000000000000002b       0x2c c:/program files/microchip/xc32/v4.60/bin/bin/../../lib/gcc/pic32c/8.3.1/../../../../pic32c/lib/thumb/v6-m/nofp\libm-fast-emfloat.a(log.o)
 .comment       0x000000000000002b       0x2c c:/program files/microchip/xc32/v4.60/bin/bin/../../lib/gcc/pic32c/8.3.1/../../../../pic32c/lib/thumb/v6-m/nofp\libm-fast-emfloat.a(exp.o)
 .comment       0x000000000000002b       0x2c c:/program files/microchip/xc32/v4.60/bin/bin/../../lib/gcc/pic32c/8.3.1/../../../../pic32c/lib/thumb/v6-m/nofp\libm-fast-emfloat.a(__SEGGER_RTL_float64_Log.o)
 .comment       0x000000000000002b       0x2c c:/program files/microchip/xc32/v4.60/bin/bin/../../lib/gcc/pic32c/8.3.1/../../../../pic32c/lib/thumb/v6-m/nofp\libm-fast-emfloat.a(__SEGGER_RTL_float64_PolyEvalQ.o)
 .comment       0x000000000000002b       0x2c c:/program files/microchip/xc32/v4.60/bin/bin/../../lib/gcc/pic32c/8.3.1/../../../../pic32c/lib/thumb/v6-m/nofp\libm-fast-emfloat.a(frexp.o)
 .comment       0x000000000000002b       0x2c c:/program files/microchip/xc32/v4.60/bin/bin/../../lib/gcc/pic32c/8.3.1/../../../../pic32c/lib/thumb/v6-m/nofp\libg-musl.a(__libc_start_main.o)
 .comment       0x000000000000002b       0x2c c:/program files/microchip/xc32/v4.60/bin/bin/../../lib/gcc/pic32c/8.3.1/../../../../pic32c/lib/thumb/v6-m/nofp\libg-musl.a(__errno_location.o)
 .comment       0x000000000000002b       0x2c c:/program files/microchip/xc32/v4.60/bin/bin/../../lib/gcc/pic32c/8.3.1/../../../../pic32c/lib/thumb/v6-m/nofp\libg-musl.a(libc.o)
 .comment       0x000000000000002b       0x2c c:/program files/microchip/xc32/v4.60/bin/bin/../../lib/gcc/pic32c/8.3.1/../../../../pic32c/lib/thumb/v6-m/nofp\libg-musl.a(__sio_printf_cdeEfFgGnpsxX.o)
 .comment       0x000000000000002b       0x2c c:/program files/microchip/xc32/v4.60/bin/bin/../../lib/gcc/pic32c/8.3.1/../../../../pic32c/lib/thumb/v6-m/nofp\libg-musl.a(__sio_sprintf_cdeEfFgGnpsxX.o)
 .comment       0x000000000000002b       0x2c c:/program files/microchip/xc32/v4.60/bin/bin/../../lib/gcc/pic32c/8.3.1/../../../../pic32c/lib/thumb/v6-m/nofp\libg-musl.a(__fmt_d.o)
 .comment       0x000000000000002b       0x2c c:/program files/microchip/xc32/v4.60/bin/bin/../../lib/gcc/pic32c/8.3.1/../../../../pic32c/lib/thumb/v6-m/nofp\libg-musl.a(__fmt_fp.o)
 .comment       0x000000000000002b       0x2c c:/program files/microchip/xc32/v4.60/bin/bin/../../lib/gcc/pic32c/8.3.1/../../../../pic32c/lib/thumb/v6-m/nofp\libg-musl.a(__fmt_s.o)
 .comment       0x000000000000002b       0x2c c:/program files/microchip/xc32/v4.60/bin/bin/../../lib/gcc/pic32c/8.3.1/../../../../pic32c/lib/thumb/v6-m/nofp\libg-musl.a(__fmt_x.o)
 .comment       0x000000000000002b       0x2c c:/program files/microchip/xc32/v4.60/bin/bin/../../lib/gcc/pic32c/8.3.1/../../../../pic32c/lib/thumb/v6-m/nofp\libg-musl.a(__pop_float.o)
 .comment       0x000000000000002b       0x2c c:/program files/microchip/xc32/v4.60/bin/bin/../../lib/gcc/pic32c/8.3.1/../../../../pic32c/lib/thumb/v6-m/nofp\libg-musl.a(__pop_int.o)
 .comment       0x000000000000002b       0x2c c:/program files/microchip/xc32/v4.60/bin/bin/../../lib/gcc/pic32c/8.3.1/../../../../pic32c/lib/thumb/v6-m/nofp\libg-musl.a(__pop_ptr.o)
 .comment       0x000000000000002b       0x2c c:/program files/microchip/xc32/v4.60/bin/bin/../../lib/gcc/pic32c/8.3.1/../../../../pic32c/lib/thumb/v6-m/nofp\libg-musl.a(__printf_core.o)
 .comment       0x000000000000002b       0x2c c:/program files/microchip/xc32/v4.60/bin/bin/../../lib/gcc/pic32c/8.3.1/../../../../pic32c/lib/thumb/v6-m/nofp\libg-musl.a(stdin.o)
 .comment       0x000000000000002b       0x2c c:/program files/microchip/xc32/v4.60/bin/bin/../../lib/gcc/pic32c/8.3.1/../../../../pic32c/lib/thumb/v6-m/nofp\libg-musl.a(stdout.o)
 .comment       0x000000000000002b       0x2c c:/program files/microchip/xc32/v4.60/bin/bin/../../lib/gcc/pic32c/8.3.1/../../../../pic32c/lib/thumb/v6-m/nofp\libg-musl.a(putchar.o)
 .comment       0x000000000000002b       0x2c c:/program files/microchip/xc32/v4.60/bin/bin/../../lib/gcc/pic32c/8.3.1/../../../../pic32c/lib/thumb/v6-m/nofp\libg-musl.a(puts.o)
 .comment       0x000000000000002b       0x2c c:/program files/microchip/xc32/v4.60/bin/bin/../../lib/gcc/pic32c/8.3.1/../../../../pic32c/lib/thumb/v6-m/nofp\libg-musl.a(setbuf.o)
 .comment       0x000000000000002b       0x2c c:/program files/microchip/xc32/v4.60/bin/bin/../../lib/gcc/pic32c/8.3.1/../../../../pic32c/lib/thumb/v6-m/nofp\libg-musl.a(atoi.o)
 .comment       0x000000000000002b       0x2c c:/program files/microchip/xc32/v4.60/bin/bin/../../lib/gcc/pic32c/8.3.1/../../../../pic32c/lib/thumb/v6-m/nofp\libg-musl.a(tolower.o)
 .comment       0x000000000000002b       0x2c c:/program files/microchip/xc32/v4.60/bin/bin/../../lib/gcc/pic32c/8.3.1/../../../../pic32c/lib/thumb/v6-m/nofp\libg-musl.a(toupper.o)
 .comment       0x000000000000002b       0x2c c:/program files/microchip/xc32/v4.60/bin/bin/../../lib/gcc/pic32c/8.3.1/../../../../pic32c/lib/thumb/v6-m/nofp\libg-musl.a(__environ.o)
 .comment       0x000000000000002b       0x2c c:/program files/microchip/xc32/v4.60/bin/bin/../../lib/gcc/pic32c/8.3.1/../../../../pic32c/lib/thumb/v6-m/nofp\libg-musl.a(__int_vfprintf.o)
 .comment       0x000000000000002b       0x2c c:/program files/microchip/xc32/v4.60/bin/bin/../../lib/gcc/pic32c/8.3.1/../../../../pic32c/lib/thumb/v6-m/nofp\libg-musl.a(__int_vsprintf.o)
 .comment       0x000000000000002b       0x2c c:/program files/microchip/xc32/v4.60/bin/bin/../../lib/gcc/pic32c/8.3.1/../../../../pic32c/lib/thumb/v6-m/nofp\libg-musl.a(fputs.o)
 .comment       0x000000000000002b       0x2c c:/program files/microchip/xc32/v4.60/bin/bin/../../lib/gcc/pic32c/8.3.1/../../../../pic32c/lib/thumb/v6-m/nofp\libg-musl.a(__cvt_u.o)
 .comment       0x000000000000002b       0x2c c:/program files/microchip/xc32/v4.60/bin/bin/../../lib/gcc/pic32c/8.3.1/../../../../pic32c/lib/thumb/v6-m/nofp\libg-musl.a(__stdio_read.o)
 .comment       0x000000000000002b       0x2c c:/program files/microchip/xc32/v4.60/bin/bin/../../lib/gcc/pic32c/8.3.1/../../../../pic32c/lib/thumb/v6-m/nofp\libg-musl.a(__towrite_rw.o)
 .comment       0x000000000000002b       0x2c c:/program files/microchip/xc32/v4.60/bin/bin/../../lib/gcc/pic32c/8.3.1/../../../../pic32c/lib/thumb/v6-m/nofp\libg-musl.a(fwrite.o)
 .comment       0x000000000000002b       0x2c c:/program files/microchip/xc32/v4.60/bin/bin/../../lib/gcc/pic32c/8.3.1/../../../../pic32c/lib/thumb/v6-m/nofp\libg-musl.a(putc.o)
 .comment       0x000000000000002b       0x2c c:/program files/microchip/xc32/v4.60/bin/bin/../../lib/gcc/pic32c/8.3.1/../../../../pic32c/lib/thumb/v6-m/nofp\libg-musl.a(setvbuf.o)
 .comment       0x000000000000002b       0x2c c:/program files/microchip/xc32/v4.60/bin/bin/../../lib/gcc/pic32c/8.3.1/../../../../pic32c/lib/thumb/v6-m/nofp\libg-musl.a(readv.o)
 .comment       0x000000000000002b       0x2c c:/program files/microchip/xc32/v4.60/bin/bin/../../lib/gcc/pic32c/8.3.1/../../../../pic32c/lib/thumb/v6-m/nofp\libg-musl.a(__int_vsnprintf.o)
 .comment       0x000000000000002b       0x2c c:/program files/microchip/xc32/v4.60/bin/bin/../../lib/gcc/pic32c/8.3.1/../../../../pic32c/lib/thumb/v6-m/nofp\libg-musl.a(__init_stdio.o)
 .comment       0x000000000000002b       0x2c c:/program files/microchip/xc32/v4.60/bin/bin/../../lib/gcc/pic32c/8.3.1/../../../../pic32c/lib/thumb/v6-m/nofp\libg-musl.a(__out.o)
 .comment       0x000000000000002b       0x2c c:/program files/microchip/xc32/v4.60/bin/bin/../../lib/gcc/pic32c/8.3.1/../../../../pic32c/lib/thumb/v6-m/nofp\libg-musl.a(__putc.o)
 .comment       0x000000000000002b       0x2c c:/program files/microchip/xc32/v4.60/bin/bin/../../lib/gcc/pic32c/8.3.1/../../../../pic32c/lib/thumb/v6-m/nofp\libg-musl.a(__stderr.o)
 .comment       0x000000000000002b       0x2c c:/program files/microchip/xc32/v4.60/bin/bin/../../lib/gcc/pic32c/8.3.1/../../../../pic32c/lib/thumb/v6-m/nofp\libg-musl.a(__stdio_close.o)
 .comment       0x000000000000002b       0x2c c:/program files/microchip/xc32/v4.60/bin/bin/../../lib/gcc/pic32c/8.3.1/../../../../pic32c/lib/thumb/v6-m/nofp\libg-musl.a(__stdio_write.o)
 .comment       0x000000000000002b       0x2c c:/program files/microchip/xc32/v4.60/bin/bin/../../lib/gcc/pic32c/8.3.1/../../../../pic32c/lib/thumb/v6-m/nofp\libg-musl.a(__stdout.o)
 .comment       0x000000000000002b       0x2c c:/program files/microchip/xc32/v4.60/bin/bin/../../lib/gcc/pic32c/8.3.1/../../../../pic32c/lib/thumb/v6-m/nofp\libg-musl.a(__towrite.o)
 .comment       0x000000000000002b       0x2c c:/program files/microchip/xc32/v4.60/bin/bin/../../lib/gcc/pic32c/8.3.1/../../../../pic32c/lib/thumb/v6-m/nofp\libg-musl.a(writev.o)
 .comment       0x000000000000002b       0x2c c:/program files/microchip/xc32/v4.60/bin/bin/../../lib/gcc/pic32c/8.3.1/../../../../pic32c/lib/thumb/v6-m/nofp\libg-musl.a(__overflow.o)
 .comment       0x000000000000002b       0x2c c:/program files/microchip/xc32/v4.60/bin/bin/../../lib/gcc/pic32c/8.3.1/../../../../pic32c/lib/thumb/v6-m/nofp\libg-musl.a(__fwrite.o)
 .comment       0x000000000000002b       0x2c c:/program files/microchip/xc32/v4.60/bin/bin/../../lib/gcc/pic32c/8.3.1/../../../../pic32c/lib/thumb/v6-m/nofp\libm-fast-emfloat.a(fma.o)
 .comment       0x000000000000002b       0x2c c:/program files/microchip/xc32/v4.60/bin/bin/../../lib/gcc/pic32c/8.3.1/../../../../pic32c/lib/thumb/v6-m/nofp\libm-fast-emfloat.a(floor.o)
 .comment       0x000000000000002b       0x2c c:/program files/microchip/xc32/v4.60/bin/bin/../../lib/gcc/pic32c/8.3.1/thumb/v6-m/nofp\libgcc.a(_muldi3.o)
 .comment       0x000000000000002b       0x2c c:/program files/microchip/xc32/v4.60/bin/bin/../../lib/gcc/pic32c/8.3.1/thumb/v6-m/nofp\libgcc.a(_udivmoddi4.o)
 .comment       0x000000000000002b       0x2c c:/program files/microchip/xc32/v4.60/bin/bin/../../lib/gcc/pic32c/8.3.1/thumb/v6-m/nofp\libgcc.a(bpabi.o)
 .comment       0x000000000000002b       0x2c c:/program files/microchip/xc32/v4.60/bin/bin/../../lib/gcc/pic32c/8.3.1/thumb/v6-m/nofp\libgcc.a(_divdi3.o)
 .comment       0x000000000000002b       0x2c c:/program files/microchip/xc32/v4.60/bin/bin/../../lib/gcc/pic32c/8.3.1/../../../../pic32c/lib/thumb/v6-m/nofp\libpic32c.a(close.o)
 .comment       0x000000000000002b       0x2c c:/program files/microchip/xc32/v4.60/bin/bin/../../lib/gcc/pic32c/8.3.1/../../../../pic32c/lib/thumb/v6-m/nofp\libpic32c.a(lseek.o)
 .comment       0x000000000000002b       0x2c c:/program files/microchip/xc32/v4.60/bin/bin/../../lib/gcc/pic32c/8.3.1/../../../../pic32c/lib/thumb/v6-m/nofp\libpic32c.a(read.o)
 .comment       0x000000000000002b       0x2c c:/program files/microchip/xc32/v4.60/bin/bin/../../lib/gcc/pic32c/8.3.1/../../../../pic32c/lib/thumb/v6-m/nofp\libpic32c.a(write.o)
 .comment       0x000000000000002b       0x2c c:/program files/microchip/xc32/v4.60/bin/bin/../../lib/gcc/pic32c/8.3.1/../../../../pic32c/lib/thumb/v6-m/nofp\libc-size-musl.a(strlen.o)
 .comment       0x000000000000002b       0x2c c:/program files/microchip/xc32/v4.60/bin/bin/../../lib/gcc/pic32c/8.3.1/../../../../pic32c/lib/thumb/v6-m/nofp\libc-size-musl.a(strcpy.o)
 .comment       0x000000000000002b       0x2c c:/program files/microchip/xc32/v4.60/bin/bin/../../lib/gcc/pic32c/8.3.1/../../../../pic32c/lib/thumb/v6-m/nofp\libc-size-musl.a(stpcpy.o)
 .comment       0x000000000000002b       0x2c c:/program files/microchip/xc32/v4.60/bin/bin/../../lib/gcc/pic32c/8.3.1/../../../../pic32c/lib/thumb/v6-m/nofp\liblmalloc-musl.a(lite_malloc.o)
 .comment       0x000000000000002b       0x2c c:/program files/microchip/xc32/v4.60/bin/bin/../../lib/gcc/pic32c/8.3.1/../../../../pic32c/lib/thumb/v6-m/nofp\liblmalloc-musl.a(lite_free.o)
 .comment       0x000000000000002b       0x2c c:/program files/microchip/xc32/v4.60/bin/bin/../../lib/gcc/pic32c/8.3.1/../../../../pic32c/lib/thumb/v6-m/nofp\libg-musl.a(expand_heap.o)
 .comment       0x000000000000002b       0x2c c:/program files/microchip/xc32/v4.60/bin/bin/../../lib/gcc/pic32c/8.3.1/../../../../pic32c/lib/thumb/v6-m/nofp\libpic32c.a(sbrk.o)
 .comment       0x000000000000002b       0x2c c:/program files/microchip/xc32/v4.60/bin/bin/../../lib/gcc/pic32c/8.3.1/../../../../pic32c/lib/thumb/v6-m/nofp\libpic32c.a(pic32_data_init_clear.o)
 .comment       0x000000000000002b       0x2c c:/program files/microchip/xc32/v4.60/bin/bin/../../lib/gcc/pic32c/8.3.1/../../../../pic32c/lib/thumb/v6-m/nofp\libpic32c.a(pic32_data_init_copy.o)

.debug_info     0x0000000000000000    0x22ffc
 .debug_info    0x0000000000000000      0xdf1 build/SAMD21_IOT_WG_ICM42688/debug/_ext/2048461350/icm42688_sensor.o
 .debug_info    0x0000000000000df1      0x5d1 build/SAMD21_IOT_WG_ICM42688/debug/_ext/1750425231/plib_clock.o
 .debug_info    0x00000000000013c2      0x320 build/SAMD21_IOT_WG_ICM42688/debug/_ext/503204096/plib_eic.o
 .debug_info    0x00000000000016e2       0x97 build/SAMD21_IOT_WG_ICM42688/debug/_ext/1752574717/plib_evsys.o
 .debug_info    0x0000000000001779      0x6dd build/SAMD21_IOT_WG_ICM42688/debug/_ext/1580823105/plib_nvic.o
 .debug_info    0x0000000000001e56      0x414 build/SAMD21_IOT_WG_ICM42688/debug/_ext/11470383/plib_nvmctrl.o
 .debug_info    0x000000000000226a      0x682 build/SAMD21_IOT_WG_ICM42688/debug/_ext/1580876256/plib_port.o
 .debug_info    0x00000000000028ec      0xe68 build/SAMD21_IOT_WG_ICM42688/debug/_ext/1014017276/plib_sercom0_spi_master.o
 .debug_info    0x0000000000003754      0xeed build/SAMD21_IOT_WG_ICM42688/debug/_ext/177673482/plib_sercom5_usart.o
 .debug_info    0x0000000000004641      0x30f build/SAMD21_IOT_WG_ICM42688/debug/_ext/223004715/plib_systick.o
 .debug_info    0x0000000000004950      0x77e build/SAMD21_IOT_WG_ICM42688/debug/_ext/399410062/plib_tc3.o
 .debug_info    0x00000000000050ce      0x165 build/SAMD21_IOT_WG_ICM42688/debug/_ext/1357625803/xc32_monitor.o
 .debug_info    0x0000000000005233      0x396 build/SAMD21_IOT_WG_ICM42688/debug/_ext/1832905403/initialization.o
 .debug_info    0x00000000000055c9      0x3b2 build/SAMD21_IOT_WG_ICM42688/debug/_ext/1832905403/interrupts.o
 .debug_info    0x000000000000597b       0xb0 build/SAMD21_IOT_WG_ICM42688/debug/_ext/1832905403/exceptions.o
 .debug_info    0x0000000000005a2b      0x211 build/SAMD21_IOT_WG_ICM42688/debug/_ext/1832905403/startup_xc32.o
 .debug_info    0x0000000000005c3c     0x529a build/SAMD21_IOT_WG_ICM42688/debug/_ext/1341251756/Icm426xxDriver_HL.o
 .debug_info    0x000000000000aed6      0x6c6 build/SAMD21_IOT_WG_ICM42688/debug/_ext/1341251756/Icm426xxTransport.o
 .debug_info    0x000000000000b59c     0x1aae build/SAMD21_IOT_WG_ICM42688/debug/_ext/1360937237/main.o
 .debug_info    0x000000000000d04a      0x878 build/SAMD21_IOT_WG_ICM42688/debug/_ext/1360937237/ringbuffer.o
 .debug_info    0x000000000000d8c2      0x713 build/SAMD21_IOT_WG_ICM42688/debug/_ext/26920679/fg_area_absolute_area_high_frequency.o
 .debug_info    0x000000000000dfd5      0x713 build/SAMD21_IOT_WG_ICM42688/debug/_ext/26920679/fg_area_total_area_low_frequency.o
 .debug_info    0x000000000000e6e8      0x685 build/SAMD21_IOT_WG_ICM42688/debug/_ext/26920679/fg_cross_p2p_difference.o
 .debug_info    0x000000000000ed6d      0x692 build/SAMD21_IOT_WG_ICM42688/debug/_ext/26920679/fg_cross_peak_location_difference.o
 .debug_info    0x000000000000f3ff      0x6a0 build/SAMD21_IOT_WG_ICM42688/debug/_ext/26920679/fg_stats_abs_mean.o
 .debug_info    0x000000000000fa9f      0x6a6 build/SAMD21_IOT_WG_ICM42688/debug/_ext/26920679/fg_stats_pct075.o
 .debug_info    0x0000000000010145      0x6e8 build/SAMD21_IOT_WG_ICM42688/debug/_ext/26920679/fg_stats_skewness.o
 .debug_info    0x000000000001082d     0x2fd4 build/SAMD21_IOT_WG_ICM42688/debug/_ext/26920679/kb.o
 .debug_info    0x0000000000013801      0xcdf build/SAMD21_IOT_WG_ICM42688/debug/_ext/26920679/kb_output.o
 .debug_info    0x00000000000144e0      0xb49 build/SAMD21_IOT_WG_ICM42688/debug/_ext/26920679/kb_pipeline.o
 .debug_info    0x0000000000015029      0x8b6 build/SAMD21_IOT_WG_ICM42688/debug/_ext/26920679/ma_symmetric.o
 .debug_info    0x00000000000158df      0x2c8 build/SAMD21_IOT_WG_ICM42688/debug/_ext/26920679/mean.o
 .debug_info    0x0000000000015ba7      0x92a build/SAMD21_IOT_WG_ICM42688/debug/_ext/26920679/rb.o
 .debug_info    0x00000000000164d1      0x25a build/SAMD21_IOT_WG_ICM42688/debug/_ext/26920679/save_sensor_data.o
 .debug_info    0x000000000001672b      0x660 build/SAMD21_IOT_WG_ICM42688/debug/_ext/26920679/sg_windowing.o
 .debug_info    0x0000000000016d8b      0x137 build/SAMD21_IOT_WG_ICM42688/debug/_ext/26920679/sortarray.o
 .debug_info    0x0000000000016ec2      0x21d build/SAMD21_IOT_WG_ICM42688/debug/_ext/26920679/sorted_copy.o
 .debug_info    0x00000000000170df      0x1b3 build/SAMD21_IOT_WG_ICM42688/debug/_ext/26920679/stats_percentile_presorted.o
 .debug_info    0x0000000000017292      0x514 build/SAMD21_IOT_WG_ICM42688/debug/_ext/26920679/stat_moment.o
 .debug_info    0x00000000000177a6      0x55c build/SAMD21_IOT_WG_ICM42688/debug/_ext/26920679/tree_ensemble.o
 .debug_info    0x0000000000017d02     0x171e build/SAMD21_IOT_WG_ICM42688/debug/_ext/26920679/tree_ensemble_trained_models.o
 .debug_info    0x0000000000019420      0x264 build/SAMD21_IOT_WG_ICM42688/debug/_ext/26920679/tr_min_max_scale.o
 .debug_info    0x0000000000019684      0x1a4 build/SAMD21_IOT_WG_ICM42688/debug/_ext/26920679/tr_sensor_magnitude.o
 .debug_info    0x0000000000019828      0x1f3 build/SAMD21_IOT_WG_ICM42688/debug/_ext/26920679/utils_buffer_abssum.o
 .debug_info    0x0000000000019a1b      0x1f6 build/SAMD21_IOT_WG_ICM42688/debug/_ext/26920679/utils_buffer_argmax.o
 .debug_info    0x0000000000019c11      0x320 build/SAMD21_IOT_WG_ICM42688/debug/_ext/26920679/utils_buffer_cumsum.o
 .debug_info    0x0000000000019f31      0x735 build/SAMD21_IOT_WG_ICM42688/debug/_ext/26920679/utils_model_cross_difference.o
 .debug_info    0x000000000001a666      0x151 build/SAMD21_IOT_WG_ICM42688/debug/_ext/26920679/utils_tr_sensor.o
 .debug_info    0x000000000001a7b7      0x250 build/SAMD21_IOT_WG_ICM42688/debug/_ext/741007211/sml_recognition_run.o
 .debug_info    0x000000000001aa07       0x68 c:/program files/microchip/xc32/v4.60/bin/bin/../../lib/gcc/pic32c/8.3.1/../../../../pic32c/lib/thumb/v6-m/nofp\libpic32c.a(data_init.o)
 .debug_info    0x000000000001aa6f       0xed c:/program files/microchip/xc32/v4.60/bin/bin/../../lib/gcc/pic32c/8.3.1/../../../../pic32c/lib/thumb/v6-m/nofp\libc-size-musl.a(memcpy.o)
 .debug_info    0x000000000001ab5c       0xbb c:/program files/microchip/xc32/v4.60/bin/bin/../../lib/gcc/pic32c/8.3.1/../../../../pic32c/lib/thumb/v6-m/nofp\libc-size-musl.a(memset.o)
 .debug_info    0x000000000001ac17      0x2fb c:/program files/microchip/xc32/v4.60/bin/bin/../../lib/gcc/pic32c/8.3.1/../../../../pic32c/lib/thumb/v6-m/nofp\libg-musl.a(__libc_start_main.o)
 .debug_info    0x000000000001af12       0x5b c:/program files/microchip/xc32/v4.60/bin/bin/../../lib/gcc/pic32c/8.3.1/../../../../pic32c/lib/thumb/v6-m/nofp\libg-musl.a(__errno_location.o)
 .debug_info    0x000000000001af6d      0x276 c:/program files/microchip/xc32/v4.60/bin/bin/../../lib/gcc/pic32c/8.3.1/../../../../pic32c/lib/thumb/v6-m/nofp\libg-musl.a(libc.o)
 .debug_info    0x000000000001b1e3      0x216 c:/program files/microchip/xc32/v4.60/bin/bin/../../lib/gcc/pic32c/8.3.1/../../../../pic32c/lib/thumb/v6-m/nofp\libg-musl.a(__sio_printf_cdeEfFgGnpsxX.o)
 .debug_info    0x000000000001b3f9      0x203 c:/program files/microchip/xc32/v4.60/bin/bin/../../lib/gcc/pic32c/8.3.1/../../../../pic32c/lib/thumb/v6-m/nofp\libg-musl.a(__sio_sprintf_cdeEfFgGnpsxX.o)
 .debug_info    0x000000000001b5fc      0x330 c:/program files/microchip/xc32/v4.60/bin/bin/../../lib/gcc/pic32c/8.3.1/../../../../pic32c/lib/thumb/v6-m/nofp\libg-musl.a(__fmt_d.o)
 .debug_info    0x000000000001b92c      0x676 c:/program files/microchip/xc32/v4.60/bin/bin/../../lib/gcc/pic32c/8.3.1/../../../../pic32c/lib/thumb/v6-m/nofp\libg-musl.a(__fmt_fp.o)
 .debug_info    0x000000000001bfa2      0x2e9 c:/program files/microchip/xc32/v4.60/bin/bin/../../lib/gcc/pic32c/8.3.1/../../../../pic32c/lib/thumb/v6-m/nofp\libg-musl.a(__fmt_s.o)
 .debug_info    0x000000000001c28b      0x335 c:/program files/microchip/xc32/v4.60/bin/bin/../../lib/gcc/pic32c/8.3.1/../../../../pic32c/lib/thumb/v6-m/nofp\libg-musl.a(__fmt_x.o)
 .debug_info    0x000000000001c5c0      0x162 c:/program files/microchip/xc32/v4.60/bin/bin/../../lib/gcc/pic32c/8.3.1/../../../../pic32c/lib/thumb/v6-m/nofp\libg-musl.a(__pop_float.o)
 .debug_info    0x000000000001c722      0x183 c:/program files/microchip/xc32/v4.60/bin/bin/../../lib/gcc/pic32c/8.3.1/../../../../pic32c/lib/thumb/v6-m/nofp\libg-musl.a(__pop_int.o)
 .debug_info    0x000000000001c8a5      0x18d c:/program files/microchip/xc32/v4.60/bin/bin/../../lib/gcc/pic32c/8.3.1/../../../../pic32c/lib/thumb/v6-m/nofp\libg-musl.a(__pop_ptr.o)
 .debug_info    0x000000000001ca32      0xa6f c:/program files/microchip/xc32/v4.60/bin/bin/../../lib/gcc/pic32c/8.3.1/../../../../pic32c/lib/thumb/v6-m/nofp\libg-musl.a(__printf_core.o)
 .debug_info    0x000000000001d4a1      0x404 c:/program files/microchip/xc32/v4.60/bin/bin/../../lib/gcc/pic32c/8.3.1/../../../../pic32c/lib/thumb/v6-m/nofp\libg-musl.a(stdin.o)
 .debug_info    0x000000000001d8a5      0x1e9 c:/program files/microchip/xc32/v4.60/bin/bin/../../lib/gcc/pic32c/8.3.1/../../../../pic32c/lib/thumb/v6-m/nofp\libg-musl.a(stdout.o)
 .debug_info    0x000000000001da8e       0xd0 c:/program files/microchip/xc32/v4.60/bin/bin/../../lib/gcc/pic32c/8.3.1/../../../../pic32c/lib/thumb/v6-m/nofp\libg-musl.a(putchar.o)
 .debug_info    0x000000000001db5e      0x3ac c:/program files/microchip/xc32/v4.60/bin/bin/../../lib/gcc/pic32c/8.3.1/../../../../pic32c/lib/thumb/v6-m/nofp\libg-musl.a(puts.o)
 .debug_info    0x000000000001df0a       0xe6 c:/program files/microchip/xc32/v4.60/bin/bin/../../lib/gcc/pic32c/8.3.1/../../../../pic32c/lib/thumb/v6-m/nofp\libg-musl.a(setbuf.o)
 .debug_info    0x000000000001dff0       0xf4 c:/program files/microchip/xc32/v4.60/bin/bin/../../lib/gcc/pic32c/8.3.1/../../../../pic32c/lib/thumb/v6-m/nofp\libg-musl.a(atoi.o)
 .debug_info    0x000000000001e0e4      0x131 c:/program files/microchip/xc32/v4.60/bin/bin/../../lib/gcc/pic32c/8.3.1/../../../../pic32c/lib/thumb/v6-m/nofp\libg-musl.a(tolower.o)
 .debug_info    0x000000000001e215      0x131 c:/program files/microchip/xc32/v4.60/bin/bin/../../lib/gcc/pic32c/8.3.1/../../../../pic32c/lib/thumb/v6-m/nofp\libg-musl.a(toupper.o)
 .debug_info    0x000000000001e346       0x97 c:/program files/microchip/xc32/v4.60/bin/bin/../../lib/gcc/pic32c/8.3.1/../../../../pic32c/lib/thumb/v6-m/nofp\libg-musl.a(__environ.o)
 .debug_info    0x000000000001e3dd      0x1ff c:/program files/microchip/xc32/v4.60/bin/bin/../../lib/gcc/pic32c/8.3.1/../../../../pic32c/lib/thumb/v6-m/nofp\libg-musl.a(__int_vfprintf.o)
 .debug_info    0x000000000001e5dc      0x13f c:/program files/microchip/xc32/v4.60/bin/bin/../../lib/gcc/pic32c/8.3.1/../../../../pic32c/lib/thumb/v6-m/nofp\libg-musl.a(__int_vsprintf.o)
 .debug_info    0x000000000001e71b      0x3b6 c:/program files/microchip/xc32/v4.60/bin/bin/../../lib/gcc/pic32c/8.3.1/../../../../pic32c/lib/thumb/v6-m/nofp\libg-musl.a(fputs.o)
 .debug_info    0x000000000001ead1      0x1cf c:/program files/microchip/xc32/v4.60/bin/bin/../../lib/gcc/pic32c/8.3.1/../../../../pic32c/lib/thumb/v6-m/nofp\libg-musl.a(__cvt_u.o)
 .debug_info    0x000000000001eca0      0x3ef c:/program files/microchip/xc32/v4.60/bin/bin/../../lib/gcc/pic32c/8.3.1/../../../../pic32c/lib/thumb/v6-m/nofp\libg-musl.a(__stdio_read.o)
 .debug_info    0x000000000001f08f      0x331 c:/program files/microchip/xc32/v4.60/bin/bin/../../lib/gcc/pic32c/8.3.1/../../../../pic32c/lib/thumb/v6-m/nofp\libg-musl.a(__towrite_rw.o)
 .debug_info    0x000000000001f3c0      0x257 c:/program files/microchip/xc32/v4.60/bin/bin/../../lib/gcc/pic32c/8.3.1/../../../../pic32c/lib/thumb/v6-m/nofp\libg-musl.a(fwrite.o)
 .debug_info    0x000000000001f617      0x224 c:/program files/microchip/xc32/v4.60/bin/bin/../../lib/gcc/pic32c/8.3.1/../../../../pic32c/lib/thumb/v6-m/nofp\libg-musl.a(putc.o)
 .debug_info    0x000000000001f83b      0x2bd c:/program files/microchip/xc32/v4.60/bin/bin/../../lib/gcc/pic32c/8.3.1/../../../../pic32c/lib/thumb/v6-m/nofp\libg-musl.a(setvbuf.o)
 .debug_info    0x000000000001faf8      0x146 c:/program files/microchip/xc32/v4.60/bin/bin/../../lib/gcc/pic32c/8.3.1/../../../../pic32c/lib/thumb/v6-m/nofp\libg-musl.a(readv.o)
 .debug_info    0x000000000001fc3e      0x21a c:/program files/microchip/xc32/v4.60/bin/bin/../../lib/gcc/pic32c/8.3.1/../../../../pic32c/lib/thumb/v6-m/nofp\libg-musl.a(__int_vsnprintf.o)
 .debug_info    0x000000000001fe58       0xc3 c:/program files/microchip/xc32/v4.60/bin/bin/../../lib/gcc/pic32c/8.3.1/../../../../pic32c/lib/thumb/v6-m/nofp\libg-musl.a(__init_stdio.o)
 .debug_info    0x000000000001ff1b      0x2ba c:/program files/microchip/xc32/v4.60/bin/bin/../../lib/gcc/pic32c/8.3.1/../../../../pic32c/lib/thumb/v6-m/nofp\libg-musl.a(__out.o)
 .debug_info    0x00000000000201d5      0x28d c:/program files/microchip/xc32/v4.60/bin/bin/../../lib/gcc/pic32c/8.3.1/../../../../pic32c/lib/thumb/v6-m/nofp\libg-musl.a(__putc.o)
 .debug_info    0x0000000000020462      0x3a9 c:/program files/microchip/xc32/v4.60/bin/bin/../../lib/gcc/pic32c/8.3.1/../../../../pic32c/lib/thumb/v6-m/nofp\libg-musl.a(__stderr.o)
 .debug_info    0x000000000002080b      0x3fd c:/program files/microchip/xc32/v4.60/bin/bin/../../lib/gcc/pic32c/8.3.1/../../../../pic32c/lib/thumb/v6-m/nofp\libg-musl.a(__stdio_close.o)
 .debug_info    0x0000000000020c08      0x43e c:/program files/microchip/xc32/v4.60/bin/bin/../../lib/gcc/pic32c/8.3.1/../../../../pic32c/lib/thumb/v6-m/nofp\libg-musl.a(__stdio_write.o)
 .debug_info    0x0000000000021046      0x3a9 c:/program files/microchip/xc32/v4.60/bin/bin/../../lib/gcc/pic32c/8.3.1/../../../../pic32c/lib/thumb/v6-m/nofp\libg-musl.a(__stdout.o)
 .debug_info    0x00000000000213ef      0x275 c:/program files/microchip/xc32/v4.60/bin/bin/../../lib/gcc/pic32c/8.3.1/../../../../pic32c/lib/thumb/v6-m/nofp\libg-musl.a(__towrite.o)
 .debug_info    0x0000000000021664      0x146 c:/program files/microchip/xc32/v4.60/bin/bin/../../lib/gcc/pic32c/8.3.1/../../../../pic32c/lib/thumb/v6-m/nofp\libg-musl.a(writev.o)
 .debug_info    0x00000000000217aa      0x388 c:/program files/microchip/xc32/v4.60/bin/bin/../../lib/gcc/pic32c/8.3.1/../../../../pic32c/lib/thumb/v6-m/nofp\libg-musl.a(__overflow.o)
 .debug_info    0x0000000000021b32      0x2b7 c:/program files/microchip/xc32/v4.60/bin/bin/../../lib/gcc/pic32c/8.3.1/../../../../pic32c/lib/thumb/v6-m/nofp\libg-musl.a(__fwrite.o)
 .debug_info    0x0000000000021de9       0x26 c:/program files/microchip/xc32/v4.60/bin/bin/../../lib/gcc/pic32c/8.3.1/thumb/v6-m/nofp\libgcc.a(_udivsi3.o)
 .debug_info    0x0000000000021e0f       0x26 c:/program files/microchip/xc32/v4.60/bin/bin/../../lib/gcc/pic32c/8.3.1/thumb/v6-m/nofp\libgcc.a(_divsi3.o)
 .debug_info    0x0000000000021e35       0x26 c:/program files/microchip/xc32/v4.60/bin/bin/../../lib/gcc/pic32c/8.3.1/thumb/v6-m/nofp\libgcc.a(_dvmd_tls.o)
 .debug_info    0x0000000000021e5b       0x26 c:/program files/microchip/xc32/v4.60/bin/bin/../../lib/gcc/pic32c/8.3.1/thumb/v6-m/nofp\libgcc.a(_aeabi_ldivmod.o)
 .debug_info    0x0000000000021e81       0x26 c:/program files/microchip/xc32/v4.60/bin/bin/../../lib/gcc/pic32c/8.3.1/thumb/v6-m/nofp\libgcc.a(_aeabi_uldivmod.o)
 .debug_info    0x0000000000021ea7      0x243 c:/program files/microchip/xc32/v4.60/bin/bin/../../lib/gcc/pic32c/8.3.1/thumb/v6-m/nofp\libgcc.a(_muldi3.o)
 .debug_info    0x00000000000220ea      0x193 c:/program files/microchip/xc32/v4.60/bin/bin/../../lib/gcc/pic32c/8.3.1/thumb/v6-m/nofp\libgcc.a(_udivmoddi4.o)
 .debug_info    0x000000000002227d       0xd5 c:/program files/microchip/xc32/v4.60/bin/bin/../../lib/gcc/pic32c/8.3.1/thumb/v6-m/nofp\libgcc.a(bpabi.o)
 .debug_info    0x0000000000022352       0x26 c:/program files/microchip/xc32/v4.60/bin/bin/../../lib/gcc/pic32c/8.3.1/thumb/v6-m/nofp\libgcc.a(_lshrdi3.o)
 .debug_info    0x0000000000022378       0x26 c:/program files/microchip/xc32/v4.60/bin/bin/../../lib/gcc/pic32c/8.3.1/thumb/v6-m/nofp\libgcc.a(_ashldi3.o)
 .debug_info    0x000000000002239e       0x26 c:/program files/microchip/xc32/v4.60/bin/bin/../../lib/gcc/pic32c/8.3.1/thumb/v6-m/nofp\libgcc.a(_clzdi2.o)
 .debug_info    0x00000000000223c4      0x2e1 c:/program files/microchip/xc32/v4.60/bin/bin/../../lib/gcc/pic32c/8.3.1/thumb/v6-m/nofp\libgcc.a(_divdi3.o)
 .debug_info    0x00000000000226a5       0x26 c:/program files/microchip/xc32/v4.60/bin/bin/../../lib/gcc/pic32c/8.3.1/thumb/v6-m/nofp\libgcc.a(_clzsi2.o)
 .debug_info    0x00000000000226cb       0x3f c:/program files/microchip/xc32/v4.60/bin/bin/../../lib/gcc/pic32c/8.3.1/../../../../pic32c/lib/thumb/v6-m/nofp\libpic32c.a(close.o)
 .debug_info    0x000000000002270a       0x3f c:/program files/microchip/xc32/v4.60/bin/bin/../../lib/gcc/pic32c/8.3.1/../../../../pic32c/lib/thumb/v6-m/nofp\libpic32c.a(lseek.o)
 .debug_info    0x0000000000022749       0x40 c:/program files/microchip/xc32/v4.60/bin/bin/../../lib/gcc/pic32c/8.3.1/../../../../pic32c/lib/thumb/v6-m/nofp\libpic32c.a(read.o)
 .debug_info    0x0000000000022789       0x40 c:/program files/microchip/xc32/v4.60/bin/bin/../../lib/gcc/pic32c/8.3.1/../../../../pic32c/lib/thumb/v6-m/nofp\libpic32c.a(write.o)
 .debug_info    0x00000000000227c9       0xa4 c:/program files/microchip/xc32/v4.60/bin/bin/../../lib/gcc/pic32c/8.3.1/../../../../pic32c/lib/thumb/v6-m/nofp\libc-size-musl.a(strlen.o)
 .debug_info    0x000000000002286d       0xbd c:/program files/microchip/xc32/v4.60/bin/bin/../../lib/gcc/pic32c/8.3.1/../../../../pic32c/lib/thumb/v6-m/nofp\libc-size-musl.a(strcpy.o)
 .debug_info    0x000000000002292a       0xac c:/program files/microchip/xc32/v4.60/bin/bin/../../lib/gcc/pic32c/8.3.1/../../../../pic32c/lib/thumb/v6-m/nofp\libc-size-musl.a(stpcpy.o)
 .debug_info    0x00000000000229d6      0x1bd c:/program files/microchip/xc32/v4.60/bin/bin/../../lib/gcc/pic32c/8.3.1/../../../../pic32c/lib/thumb/v6-m/nofp\liblmalloc-musl.a(lite_malloc.o)
 .debug_info    0x0000000000022b93      0x272 c:/program files/microchip/xc32/v4.60/bin/bin/../../lib/gcc/pic32c/8.3.1/../../../../pic32c/lib/thumb/v6-m/nofp\liblmalloc-musl.a(lite_free.o)
 .debug_info    0x0000000000022e05      0x10e c:/program files/microchip/xc32/v4.60/bin/bin/../../lib/gcc/pic32c/8.3.1/../../../../pic32c/lib/thumb/v6-m/nofp\libg-musl.a(expand_heap.o)
 .debug_info    0x0000000000022f13       0x6a c:/program files/microchip/xc32/v4.60/bin/bin/../../lib/gcc/pic32c/8.3.1/../../../../pic32c/lib/thumb/v6-m/nofp\libpic32c.a(sbrk.o)
 .debug_info    0x0000000000022f7d       0x3f c:/program files/microchip/xc32/v4.60/bin/bin/../../lib/gcc/pic32c/8.3.1/../../../../pic32c/lib/thumb/v6-m/nofp\libpic32c.a(pic32_data_init_clear.o)
 .debug_info    0x0000000000022fbc       0x40 c:/program files/microchip/xc32/v4.60/bin/bin/../../lib/gcc/pic32c/8.3.1/../../../../pic32c/lib/thumb/v6-m/nofp\libpic32c.a(pic32_data_init_copy.o)

.debug_abbrev   0x0000000000000000     0x8b30
 .debug_abbrev  0x0000000000000000      0x2a3 build/SAMD21_IOT_WG_ICM42688/debug/_ext/2048461350/icm42688_sensor.o
 .debug_abbrev  0x00000000000002a3      0x14a build/SAMD21_IOT_WG_ICM42688/debug/_ext/1750425231/plib_clock.o
 .debug_abbrev  0x00000000000003ed      0x194 build/SAMD21_IOT_WG_ICM42688/debug/_ext/503204096/plib_eic.o
 .debug_abbrev  0x0000000000000581       0x44 build/SAMD21_IOT_WG_ICM42688/debug/_ext/1752574717/plib_evsys.o
 .debug_abbrev  0x00000000000005c5      0x255 build/SAMD21_IOT_WG_ICM42688/debug/_ext/1580823105/plib_nvic.o
 .debug_abbrev  0x000000000000081a      0x195 build/SAMD21_IOT_WG_ICM42688/debug/_ext/11470383/plib_nvmctrl.o
 .debug_abbrev  0x00000000000009af      0x1cb build/SAMD21_IOT_WG_ICM42688/debug/_ext/1580876256/plib_port.o
 .debug_abbrev  0x0000000000000b7a      0x23e build/SAMD21_IOT_WG_ICM42688/debug/_ext/1014017276/plib_sercom0_spi_master.o
 .debug_abbrev  0x0000000000000db8      0x2e9 build/SAMD21_IOT_WG_ICM42688/debug/_ext/177673482/plib_sercom5_usart.o
 .debug_abbrev  0x00000000000010a1      0x189 build/SAMD21_IOT_WG_ICM42688/debug/_ext/223004715/plib_systick.o
 .debug_abbrev  0x000000000000122a      0x1be build/SAMD21_IOT_WG_ICM42688/debug/_ext/399410062/plib_tc3.o
 .debug_abbrev  0x00000000000013e8       0xdc build/SAMD21_IOT_WG_ICM42688/debug/_ext/1357625803/xc32_monitor.o
 .debug_abbrev  0x00000000000014c4      0x162 build/SAMD21_IOT_WG_ICM42688/debug/_ext/1832905403/initialization.o
 .debug_abbrev  0x0000000000001626       0xc0 build/SAMD21_IOT_WG_ICM42688/debug/_ext/1832905403/interrupts.o
 .debug_abbrev  0x00000000000016e6       0x64 build/SAMD21_IOT_WG_ICM42688/debug/_ext/1832905403/exceptions.o
 .debug_abbrev  0x000000000000174a      0x118 build/SAMD21_IOT_WG_ICM42688/debug/_ext/1832905403/startup_xc32.o
 .debug_abbrev  0x0000000000001862      0x47c build/SAMD21_IOT_WG_ICM42688/debug/_ext/1341251756/Icm426xxDriver_HL.o
 .debug_abbrev  0x0000000000001cde      0x23d build/SAMD21_IOT_WG_ICM42688/debug/_ext/1341251756/Icm426xxTransport.o
 .debug_abbrev  0x0000000000001f1b      0x39c build/SAMD21_IOT_WG_ICM42688/debug/_ext/1360937237/main.o
 .debug_abbrev  0x00000000000022b7      0x213 build/SAMD21_IOT_WG_ICM42688/debug/_ext/1360937237/ringbuffer.o
 .debug_abbrev  0x00000000000024ca      0x13e build/SAMD21_IOT_WG_ICM42688/debug/_ext/26920679/fg_area_absolute_area_high_frequency.o
 .debug_abbrev  0x0000000000002608      0x13e build/SAMD21_IOT_WG_ICM42688/debug/_ext/26920679/fg_area_total_area_low_frequency.o
 .debug_abbrev  0x0000000000002746      0x10c build/SAMD21_IOT_WG_ICM42688/debug/_ext/26920679/fg_cross_p2p_difference.o
 .debug_abbrev  0x0000000000002852      0x114 build/SAMD21_IOT_WG_ICM42688/debug/_ext/26920679/fg_cross_peak_location_difference.o
 .debug_abbrev  0x0000000000002966      0x134 build/SAMD21_IOT_WG_ICM42688/debug/_ext/26920679/fg_stats_abs_mean.o
 .debug_abbrev  0x0000000000002a9a      0x12b build/SAMD21_IOT_WG_ICM42688/debug/_ext/26920679/fg_stats_pct075.o
 .debug_abbrev  0x0000000000002bc5      0x15c build/SAMD21_IOT_WG_ICM42688/debug/_ext/26920679/fg_stats_skewness.o
 .debug_abbrev  0x0000000000002d21      0x4dd build/SAMD21_IOT_WG_ICM42688/debug/_ext/26920679/kb.o
 .debug_abbrev  0x00000000000031fe      0x1cd build/SAMD21_IOT_WG_ICM42688/debug/_ext/26920679/kb_output.o
 .debug_abbrev  0x00000000000033cb      0x1b5 build/SAMD21_IOT_WG_ICM42688/debug/_ext/26920679/kb_pipeline.o
 .debug_abbrev  0x0000000000003580      0x1b5 build/SAMD21_IOT_WG_ICM42688/debug/_ext/26920679/ma_symmetric.o
 .debug_abbrev  0x0000000000003735       0xfb build/SAMD21_IOT_WG_ICM42688/debug/_ext/26920679/mean.o
 .debug_abbrev  0x0000000000003830      0x2a8 build/SAMD21_IOT_WG_ICM42688/debug/_ext/26920679/rb.o
 .debug_abbrev  0x0000000000003ad8       0xf4 build/SAMD21_IOT_WG_ICM42688/debug/_ext/26920679/save_sensor_data.o
 .debug_abbrev  0x0000000000003bcc       0xfa build/SAMD21_IOT_WG_ICM42688/debug/_ext/26920679/sg_windowing.o
 .debug_abbrev  0x0000000000003cc6       0x98 build/SAMD21_IOT_WG_ICM42688/debug/_ext/26920679/sortarray.o
 .debug_abbrev  0x0000000000003d5e      0x11e build/SAMD21_IOT_WG_ICM42688/debug/_ext/26920679/sorted_copy.o
 .debug_abbrev  0x0000000000003e7c       0xf3 build/SAMD21_IOT_WG_ICM42688/debug/_ext/26920679/stats_percentile_presorted.o
 .debug_abbrev  0x0000000000003f6f      0x205 build/SAMD21_IOT_WG_ICM42688/debug/_ext/26920679/stat_moment.o
 .debug_abbrev  0x0000000000004174      0x1d6 build/SAMD21_IOT_WG_ICM42688/debug/_ext/26920679/tree_ensemble.o
 .debug_abbrev  0x000000000000434a       0xce build/SAMD21_IOT_WG_ICM42688/debug/_ext/26920679/tree_ensemble_trained_models.o
 .debug_abbrev  0x0000000000004418      0x116 build/SAMD21_IOT_WG_ICM42688/debug/_ext/26920679/tr_min_max_scale.o
 .debug_abbrev  0x000000000000452e       0xea build/SAMD21_IOT_WG_ICM42688/debug/_ext/26920679/tr_sensor_magnitude.o
 .debug_abbrev  0x0000000000004618       0xce build/SAMD21_IOT_WG_ICM42688/debug/_ext/26920679/utils_buffer_abssum.o
 .debug_abbrev  0x00000000000046e6       0xdc build/SAMD21_IOT_WG_ICM42688/debug/_ext/26920679/utils_buffer_argmax.o
 .debug_abbrev  0x00000000000047c2      0x133 build/SAMD21_IOT_WG_ICM42688/debug/_ext/26920679/utils_buffer_cumsum.o
 .debug_abbrev  0x00000000000048f5      0x129 build/SAMD21_IOT_WG_ICM42688/debug/_ext/26920679/utils_model_cross_difference.o
 .debug_abbrev  0x0000000000004a1e       0xb9 build/SAMD21_IOT_WG_ICM42688/debug/_ext/26920679/utils_tr_sensor.o
 .debug_abbrev  0x0000000000004ad7      0x120 build/SAMD21_IOT_WG_ICM42688/debug/_ext/741007211/sml_recognition_run.o
 .debug_abbrev  0x0000000000004bf7       0x44 c:/program files/microchip/xc32/v4.60/bin/bin/../../lib/gcc/pic32c/8.3.1/../../../../pic32c/lib/thumb/v6-m/nofp\libpic32c.a(data_init.o)
 .debug_abbrev  0x0000000000004c3b       0xbb c:/program files/microchip/xc32/v4.60/bin/bin/../../lib/gcc/pic32c/8.3.1/../../../../pic32c/lib/thumb/v6-m/nofp\libc-size-musl.a(memcpy.o)
 .debug_abbrev  0x0000000000004cf6       0xa2 c:/program files/microchip/xc32/v4.60/bin/bin/../../lib/gcc/pic32c/8.3.1/../../../../pic32c/lib/thumb/v6-m/nofp\libc-size-musl.a(memset.o)
 .debug_abbrev  0x0000000000004d98      0x133 c:/program files/microchip/xc32/v4.60/bin/bin/../../lib/gcc/pic32c/8.3.1/../../../../pic32c/lib/thumb/v6-m/nofp\libg-musl.a(__libc_start_main.o)
 .debug_abbrev  0x0000000000004ecb       0x39 c:/program files/microchip/xc32/v4.60/bin/bin/../../lib/gcc/pic32c/8.3.1/../../../../pic32c/lib/thumb/v6-m/nofp\libg-musl.a(__errno_location.o)
 .debug_abbrev  0x0000000000004f04       0xd4 c:/program files/microchip/xc32/v4.60/bin/bin/../../lib/gcc/pic32c/8.3.1/../../../../pic32c/lib/thumb/v6-m/nofp\libg-musl.a(libc.o)
 .debug_abbrev  0x0000000000004fd8      0x142 c:/program files/microchip/xc32/v4.60/bin/bin/../../lib/gcc/pic32c/8.3.1/../../../../pic32c/lib/thumb/v6-m/nofp\libg-musl.a(__sio_printf_cdeEfFgGnpsxX.o)
 .debug_abbrev  0x000000000000511a      0x12b c:/program files/microchip/xc32/v4.60/bin/bin/../../lib/gcc/pic32c/8.3.1/../../../../pic32c/lib/thumb/v6-m/nofp\libg-musl.a(__sio_sprintf_cdeEfFgGnpsxX.o)
 .debug_abbrev  0x0000000000005245      0x161 c:/program files/microchip/xc32/v4.60/bin/bin/../../lib/gcc/pic32c/8.3.1/../../../../pic32c/lib/thumb/v6-m/nofp\libg-musl.a(__fmt_d.o)
 .debug_abbrev  0x00000000000053a6      0x1e3 c:/program files/microchip/xc32/v4.60/bin/bin/../../lib/gcc/pic32c/8.3.1/../../../../pic32c/lib/thumb/v6-m/nofp\libg-musl.a(__fmt_fp.o)
 .debug_abbrev  0x0000000000005589      0x15e c:/program files/microchip/xc32/v4.60/bin/bin/../../lib/gcc/pic32c/8.3.1/../../../../pic32c/lib/thumb/v6-m/nofp\libg-musl.a(__fmt_s.o)
 .debug_abbrev  0x00000000000056e7      0x150 c:/program files/microchip/xc32/v4.60/bin/bin/../../lib/gcc/pic32c/8.3.1/../../../../pic32c/lib/thumb/v6-m/nofp\libg-musl.a(__fmt_x.o)
 .debug_abbrev  0x0000000000005837       0xdc c:/program files/microchip/xc32/v4.60/bin/bin/../../lib/gcc/pic32c/8.3.1/../../../../pic32c/lib/thumb/v6-m/nofp\libg-musl.a(__pop_float.o)
 .debug_abbrev  0x0000000000005913       0xdc c:/program files/microchip/xc32/v4.60/bin/bin/../../lib/gcc/pic32c/8.3.1/../../../../pic32c/lib/thumb/v6-m/nofp\libg-musl.a(__pop_int.o)
 .debug_abbrev  0x00000000000059ef       0xdc c:/program files/microchip/xc32/v4.60/bin/bin/../../lib/gcc/pic32c/8.3.1/../../../../pic32c/lib/thumb/v6-m/nofp\libg-musl.a(__pop_ptr.o)
 .debug_abbrev  0x0000000000005acb      0x317 c:/program files/microchip/xc32/v4.60/bin/bin/../../lib/gcc/pic32c/8.3.1/../../../../pic32c/lib/thumb/v6-m/nofp\libg-musl.a(__printf_core.o)
 .debug_abbrev  0x0000000000005de2      0x1b3 c:/program files/microchip/xc32/v4.60/bin/bin/../../lib/gcc/pic32c/8.3.1/../../../../pic32c/lib/thumb/v6-m/nofp\libg-musl.a(stdin.o)
 .debug_abbrev  0x0000000000005f95      0x145 c:/program files/microchip/xc32/v4.60/bin/bin/../../lib/gcc/pic32c/8.3.1/../../../../pic32c/lib/thumb/v6-m/nofp\libg-musl.a(stdout.o)
 .debug_abbrev  0x00000000000060da       0xc4 c:/program files/microchip/xc32/v4.60/bin/bin/../../lib/gcc/pic32c/8.3.1/../../../../pic32c/lib/thumb/v6-m/nofp\libg-musl.a(putchar.o)
 .debug_abbrev  0x000000000000619e      0x159 c:/program files/microchip/xc32/v4.60/bin/bin/../../lib/gcc/pic32c/8.3.1/../../../../pic32c/lib/thumb/v6-m/nofp\libg-musl.a(puts.o)
 .debug_abbrev  0x00000000000062f7       0xa8 c:/program files/microchip/xc32/v4.60/bin/bin/../../lib/gcc/pic32c/8.3.1/../../../../pic32c/lib/thumb/v6-m/nofp\libg-musl.a(setbuf.o)
 .debug_abbrev  0x000000000000639f       0xc6 c:/program files/microchip/xc32/v4.60/bin/bin/../../lib/gcc/pic32c/8.3.1/../../../../pic32c/lib/thumb/v6-m/nofp\libg-musl.a(atoi.o)
 .debug_abbrev  0x0000000000006465       0xf4 c:/program files/microchip/xc32/v4.60/bin/bin/../../lib/gcc/pic32c/8.3.1/../../../../pic32c/lib/thumb/v6-m/nofp\libg-musl.a(tolower.o)
 .debug_abbrev  0x0000000000006559       0xf4 c:/program files/microchip/xc32/v4.60/bin/bin/../../lib/gcc/pic32c/8.3.1/../../../../pic32c/lib/thumb/v6-m/nofp\libg-musl.a(toupper.o)
 .debug_abbrev  0x000000000000664d       0x62 c:/program files/microchip/xc32/v4.60/bin/bin/../../lib/gcc/pic32c/8.3.1/../../../../pic32c/lib/thumb/v6-m/nofp\libg-musl.a(__environ.o)
 .debug_abbrev  0x00000000000066af      0x132 c:/program files/microchip/xc32/v4.60/bin/bin/../../lib/gcc/pic32c/8.3.1/../../../../pic32c/lib/thumb/v6-m/nofp\libg-musl.a(__int_vfprintf.o)
 .debug_abbrev  0x00000000000067e1       0xcb c:/program files/microchip/xc32/v4.60/bin/bin/../../lib/gcc/pic32c/8.3.1/../../../../pic32c/lib/thumb/v6-m/nofp\libg-musl.a(__int_vsprintf.o)
 .debug_abbrev  0x00000000000068ac      0x146 c:/program files/microchip/xc32/v4.60/bin/bin/../../lib/gcc/pic32c/8.3.1/../../../../pic32c/lib/thumb/v6-m/nofp\libg-musl.a(fputs.o)
 .debug_abbrev  0x00000000000069f2       0xf3 c:/program files/microchip/xc32/v4.60/bin/bin/../../lib/gcc/pic32c/8.3.1/../../../../pic32c/lib/thumb/v6-m/nofp\libg-musl.a(__cvt_u.o)
 .debug_abbrev  0x0000000000006ae5      0x16c c:/program files/microchip/xc32/v4.60/bin/bin/../../lib/gcc/pic32c/8.3.1/../../../../pic32c/lib/thumb/v6-m/nofp\libg-musl.a(__stdio_read.o)
 .debug_abbrev  0x0000000000006c51       0xf8 c:/program files/microchip/xc32/v4.60/bin/bin/../../lib/gcc/pic32c/8.3.1/../../../../pic32c/lib/thumb/v6-m/nofp\libg-musl.a(__towrite_rw.o)
 .debug_abbrev  0x0000000000006d49      0x13c c:/program files/microchip/xc32/v4.60/bin/bin/../../lib/gcc/pic32c/8.3.1/../../../../pic32c/lib/thumb/v6-m/nofp\libg-musl.a(fwrite.o)
 .debug_abbrev  0x0000000000006e85      0x122 c:/program files/microchip/xc32/v4.60/bin/bin/../../lib/gcc/pic32c/8.3.1/../../../../pic32c/lib/thumb/v6-m/nofp\libg-musl.a(putc.o)
 .debug_abbrev  0x0000000000006fa7      0x135 c:/program files/microchip/xc32/v4.60/bin/bin/../../lib/gcc/pic32c/8.3.1/../../../../pic32c/lib/thumb/v6-m/nofp\libg-musl.a(setvbuf.o)
 .debug_abbrev  0x00000000000070dc       0xf7 c:/program files/microchip/xc32/v4.60/bin/bin/../../lib/gcc/pic32c/8.3.1/../../../../pic32c/lib/thumb/v6-m/nofp\libg-musl.a(readv.o)
 .debug_abbrev  0x00000000000071d3      0x154 c:/program files/microchip/xc32/v4.60/bin/bin/../../lib/gcc/pic32c/8.3.1/../../../../pic32c/lib/thumb/v6-m/nofp\libg-musl.a(__int_vsnprintf.o)
 .debug_abbrev  0x0000000000007327       0x65 c:/program files/microchip/xc32/v4.60/bin/bin/../../lib/gcc/pic32c/8.3.1/../../../../pic32c/lib/thumb/v6-m/nofp\libg-musl.a(__init_stdio.o)
 .debug_abbrev  0x000000000000738c      0x177 c:/program files/microchip/xc32/v4.60/bin/bin/../../lib/gcc/pic32c/8.3.1/../../../../pic32c/lib/thumb/v6-m/nofp\libg-musl.a(__out.o)
 .debug_abbrev  0x0000000000007503      0x109 c:/program files/microchip/xc32/v4.60/bin/bin/../../lib/gcc/pic32c/8.3.1/../../../../pic32c/lib/thumb/v6-m/nofp\libg-musl.a(__putc.o)
 .debug_abbrev  0x000000000000760c      0x17e c:/program files/microchip/xc32/v4.60/bin/bin/../../lib/gcc/pic32c/8.3.1/../../../../pic32c/lib/thumb/v6-m/nofp\libg-musl.a(__stderr.o)
 .debug_abbrev  0x000000000000778a      0x14f c:/program files/microchip/xc32/v4.60/bin/bin/../../lib/gcc/pic32c/8.3.1/../../../../pic32c/lib/thumb/v6-m/nofp\libg-musl.a(__stdio_close.o)
 .debug_abbrev  0x00000000000078d9      0x1bd c:/program files/microchip/xc32/v4.60/bin/bin/../../lib/gcc/pic32c/8.3.1/../../../../pic32c/lib/thumb/v6-m/nofp\libg-musl.a(__stdio_write.o)
 .debug_abbrev  0x0000000000007a96      0x17e c:/program files/microchip/xc32/v4.60/bin/bin/../../lib/gcc/pic32c/8.3.1/../../../../pic32c/lib/thumb/v6-m/nofp\libg-musl.a(__stdout.o)
 .debug_abbrev  0x0000000000007c14      0x114 c:/program files/microchip/xc32/v4.60/bin/bin/../../lib/gcc/pic32c/8.3.1/../../../../pic32c/lib/thumb/v6-m/nofp\libg-musl.a(__towrite.o)
 .debug_abbrev  0x0000000000007d28       0xf7 c:/program files/microchip/xc32/v4.60/bin/bin/../../lib/gcc/pic32c/8.3.1/../../../../pic32c/lib/thumb/v6-m/nofp\libg-musl.a(writev.o)
 .debug_abbrev  0x0000000000007e1f      0x141 c:/program files/microchip/xc32/v4.60/bin/bin/../../lib/gcc/pic32c/8.3.1/../../../../pic32c/lib/thumb/v6-m/nofp\libg-musl.a(__overflow.o)
 .debug_abbrev  0x0000000000007f60      0x121 c:/program files/microchip/xc32/v4.60/bin/bin/../../lib/gcc/pic32c/8.3.1/../../../../pic32c/lib/thumb/v6-m/nofp\libg-musl.a(__fwrite.o)
 .debug_abbrev  0x0000000000008081       0x14 c:/program files/microchip/xc32/v4.60/bin/bin/../../lib/gcc/pic32c/8.3.1/thumb/v6-m/nofp\libgcc.a(_udivsi3.o)
 .debug_abbrev  0x0000000000008095       0x14 c:/program files/microchip/xc32/v4.60/bin/bin/../../lib/gcc/pic32c/8.3.1/thumb/v6-m/nofp\libgcc.a(_divsi3.o)
 .debug_abbrev  0x00000000000080a9       0x14 c:/program files/microchip/xc32/v4.60/bin/bin/../../lib/gcc/pic32c/8.3.1/thumb/v6-m/nofp\libgcc.a(_dvmd_tls.o)
 .debug_abbrev  0x00000000000080bd       0x14 c:/program files/microchip/xc32/v4.60/bin/bin/../../lib/gcc/pic32c/8.3.1/thumb/v6-m/nofp\libgcc.a(_aeabi_ldivmod.o)
 .debug_abbrev  0x00000000000080d1       0x14 c:/program files/microchip/xc32/v4.60/bin/bin/../../lib/gcc/pic32c/8.3.1/thumb/v6-m/nofp\libgcc.a(_aeabi_uldivmod.o)
 .debug_abbrev  0x00000000000080e5      0x10b c:/program files/microchip/xc32/v4.60/bin/bin/../../lib/gcc/pic32c/8.3.1/thumb/v6-m/nofp\libgcc.a(_muldi3.o)
 .debug_abbrev  0x00000000000081f0       0x99 c:/program files/microchip/xc32/v4.60/bin/bin/../../lib/gcc/pic32c/8.3.1/thumb/v6-m/nofp\libgcc.a(_udivmoddi4.o)
 .debug_abbrev  0x0000000000008289       0xaa c:/program files/microchip/xc32/v4.60/bin/bin/../../lib/gcc/pic32c/8.3.1/thumb/v6-m/nofp\libgcc.a(bpabi.o)
 .debug_abbrev  0x0000000000008333       0x14 c:/program files/microchip/xc32/v4.60/bin/bin/../../lib/gcc/pic32c/8.3.1/thumb/v6-m/nofp\libgcc.a(_lshrdi3.o)
 .debug_abbrev  0x0000000000008347       0x14 c:/program files/microchip/xc32/v4.60/bin/bin/../../lib/gcc/pic32c/8.3.1/thumb/v6-m/nofp\libgcc.a(_ashldi3.o)
 .debug_abbrev  0x000000000000835b       0x14 c:/program files/microchip/xc32/v4.60/bin/bin/../../lib/gcc/pic32c/8.3.1/thumb/v6-m/nofp\libgcc.a(_clzdi2.o)
 .debug_abbrev  0x000000000000836f      0x14e c:/program files/microchip/xc32/v4.60/bin/bin/../../lib/gcc/pic32c/8.3.1/thumb/v6-m/nofp\libgcc.a(_divdi3.o)
 .debug_abbrev  0x00000000000084bd       0x14 c:/program files/microchip/xc32/v4.60/bin/bin/../../lib/gcc/pic32c/8.3.1/thumb/v6-m/nofp\libgcc.a(_clzsi2.o)
 .debug_abbrev  0x00000000000084d1       0x2e c:/program files/microchip/xc32/v4.60/bin/bin/../../lib/gcc/pic32c/8.3.1/../../../../pic32c/lib/thumb/v6-m/nofp\libpic32c.a(close.o)
 .debug_abbrev  0x00000000000084ff       0x2e c:/program files/microchip/xc32/v4.60/bin/bin/../../lib/gcc/pic32c/8.3.1/../../../../pic32c/lib/thumb/v6-m/nofp\libpic32c.a(lseek.o)
 .debug_abbrev  0x000000000000852d       0x2e c:/program files/microchip/xc32/v4.60/bin/bin/../../lib/gcc/pic32c/8.3.1/../../../../pic32c/lib/thumb/v6-m/nofp\libpic32c.a(read.o)
 .debug_abbrev  0x000000000000855b       0x2e c:/program files/microchip/xc32/v4.60/bin/bin/../../lib/gcc/pic32c/8.3.1/../../../../pic32c/lib/thumb/v6-m/nofp\libpic32c.a(write.o)
 .debug_abbrev  0x0000000000008589       0x91 c:/program files/microchip/xc32/v4.60/bin/bin/../../lib/gcc/pic32c/8.3.1/../../../../pic32c/lib/thumb/v6-m/nofp\libc-size-musl.a(strlen.o)
 .debug_abbrev  0x000000000000861a       0xa2 c:/program files/microchip/xc32/v4.60/bin/bin/../../lib/gcc/pic32c/8.3.1/../../../../pic32c/lib/thumb/v6-m/nofp\libc-size-musl.a(strcpy.o)
 .debug_abbrev  0x00000000000086bc       0x6e c:/program files/microchip/xc32/v4.60/bin/bin/../../lib/gcc/pic32c/8.3.1/../../../../pic32c/lib/thumb/v6-m/nofp\libc-size-musl.a(stpcpy.o)
 .debug_abbrev  0x000000000000872a      0x117 c:/program files/microchip/xc32/v4.60/bin/bin/../../lib/gcc/pic32c/8.3.1/../../../../pic32c/lib/thumb/v6-m/nofp\liblmalloc-musl.a(lite_malloc.o)
 .debug_abbrev  0x0000000000008841      0x18b c:/program files/microchip/xc32/v4.60/bin/bin/../../lib/gcc/pic32c/8.3.1/../../../../pic32c/lib/thumb/v6-m/nofp\liblmalloc-musl.a(lite_free.o)
 .debug_abbrev  0x00000000000089cc       0xc4 c:/program files/microchip/xc32/v4.60/bin/bin/../../lib/gcc/pic32c/8.3.1/../../../../pic32c/lib/thumb/v6-m/nofp\libg-musl.a(expand_heap.o)
 .debug_abbrev  0x0000000000008a90       0x44 c:/program files/microchip/xc32/v4.60/bin/bin/../../lib/gcc/pic32c/8.3.1/../../../../pic32c/lib/thumb/v6-m/nofp\libpic32c.a(sbrk.o)
 .debug_abbrev  0x0000000000008ad4       0x2e c:/program files/microchip/xc32/v4.60/bin/bin/../../lib/gcc/pic32c/8.3.1/../../../../pic32c/lib/thumb/v6-m/nofp\libpic32c.a(pic32_data_init_clear.o)
 .debug_abbrev  0x0000000000008b02       0x2e c:/program files/microchip/xc32/v4.60/bin/bin/../../lib/gcc/pic32c/8.3.1/../../../../pic32c/lib/thumb/v6-m/nofp\libpic32c.a(pic32_data_init_copy.o)

.debug_loc      0x0000000000000000    0x14a18
 .debug_loc     0x0000000000000000      0x44d build/SAMD21_IOT_WG_ICM42688/debug/_ext/2048461350/icm42688_sensor.o
 .debug_loc     0x000000000000044d       0x7f build/SAMD21_IOT_WG_ICM42688/debug/_ext/1750425231/plib_clock.o
 .debug_loc     0x00000000000004cc       0xc6 build/SAMD21_IOT_WG_ICM42688/debug/_ext/503204096/plib_eic.o
 .debug_loc     0x0000000000000592      0x156 build/SAMD21_IOT_WG_ICM42688/debug/_ext/1580823105/plib_nvic.o
 .debug_loc     0x00000000000006e8      0x228 build/SAMD21_IOT_WG_ICM42688/debug/_ext/11470383/plib_nvmctrl.o
 .debug_loc     0x0000000000000910      0x246 build/SAMD21_IOT_WG_ICM42688/debug/_ext/1580876256/plib_port.o
 .debug_loc     0x0000000000000b56      0x714 build/SAMD21_IOT_WG_ICM42688/debug/_ext/1014017276/plib_sercom0_spi_master.o
 .debug_loc     0x000000000000126a      0x5ef build/SAMD21_IOT_WG_ICM42688/debug/_ext/177673482/plib_sercom5_usart.o
 .debug_loc     0x0000000000001859      0x108 build/SAMD21_IOT_WG_ICM42688/debug/_ext/223004715/plib_systick.o
 .debug_loc     0x0000000000001961       0x5f build/SAMD21_IOT_WG_ICM42688/debug/_ext/399410062/plib_tc3.o
 .debug_loc     0x00000000000019c0       0xbc build/SAMD21_IOT_WG_ICM42688/debug/_ext/1357625803/xc32_monitor.o
 .debug_loc     0x0000000000001a7c       0x45 build/SAMD21_IOT_WG_ICM42688/debug/_ext/1832905403/initialization.o
 .debug_loc     0x0000000000001ac1       0x20 build/SAMD21_IOT_WG_ICM42688/debug/_ext/1832905403/startup_xc32.o
 .debug_loc     0x0000000000001ae1     0x4496 build/SAMD21_IOT_WG_ICM42688/debug/_ext/1341251756/Icm426xxDriver_HL.o
 .debug_loc     0x0000000000005f77      0x6df build/SAMD21_IOT_WG_ICM42688/debug/_ext/1341251756/Icm426xxTransport.o
 .debug_loc     0x0000000000006656      0x445 build/SAMD21_IOT_WG_ICM42688/debug/_ext/1360937237/main.o
 .debug_loc     0x0000000000006a9b      0x909 build/SAMD21_IOT_WG_ICM42688/debug/_ext/1360937237/ringbuffer.o
 .debug_loc     0x00000000000073a4      0x1bc build/SAMD21_IOT_WG_ICM42688/debug/_ext/26920679/fg_area_absolute_area_high_frequency.o
 .debug_loc     0x0000000000007560      0x1ca build/SAMD21_IOT_WG_ICM42688/debug/_ext/26920679/fg_area_total_area_low_frequency.o
 .debug_loc     0x000000000000772a       0xc0 build/SAMD21_IOT_WG_ICM42688/debug/_ext/26920679/fg_cross_p2p_difference.o
 .debug_loc     0x00000000000077ea      0x145 build/SAMD21_IOT_WG_ICM42688/debug/_ext/26920679/fg_cross_peak_location_difference.o
 .debug_loc     0x000000000000792f      0x188 build/SAMD21_IOT_WG_ICM42688/debug/_ext/26920679/fg_stats_abs_mean.o
 .debug_loc     0x0000000000007ab7      0x146 build/SAMD21_IOT_WG_ICM42688/debug/_ext/26920679/fg_stats_pct075.o
 .debug_loc     0x0000000000007bfd      0x1ff build/SAMD21_IOT_WG_ICM42688/debug/_ext/26920679/fg_stats_skewness.o
 .debug_loc     0x0000000000007dfc     0x22a7 build/SAMD21_IOT_WG_ICM42688/debug/_ext/26920679/kb.o
 .debug_loc     0x000000000000a0a3      0x953 build/SAMD21_IOT_WG_ICM42688/debug/_ext/26920679/kb_output.o
 .debug_loc     0x000000000000a9f6      0x45c build/SAMD21_IOT_WG_ICM42688/debug/_ext/26920679/kb_pipeline.o
 .debug_loc     0x000000000000ae52     0x1987 build/SAMD21_IOT_WG_ICM42688/debug/_ext/26920679/ma_symmetric.o
 .debug_loc     0x000000000000c7d9      0x38e build/SAMD21_IOT_WG_ICM42688/debug/_ext/26920679/mean.o
 .debug_loc     0x000000000000cb67      0x949 build/SAMD21_IOT_WG_ICM42688/debug/_ext/26920679/rb.o
 .debug_loc     0x000000000000d4b0      0x1b0 build/SAMD21_IOT_WG_ICM42688/debug/_ext/26920679/save_sensor_data.o
 .debug_loc     0x000000000000d660       0x93 build/SAMD21_IOT_WG_ICM42688/debug/_ext/26920679/sg_windowing.o
 .debug_loc     0x000000000000d6f3      0x162 build/SAMD21_IOT_WG_ICM42688/debug/_ext/26920679/sortarray.o
 .debug_loc     0x000000000000d855      0x1c4 build/SAMD21_IOT_WG_ICM42688/debug/_ext/26920679/sorted_copy.o
 .debug_loc     0x000000000000da19      0x217 build/SAMD21_IOT_WG_ICM42688/debug/_ext/26920679/stats_percentile_presorted.o
 .debug_loc     0x000000000000dc30      0xaba build/SAMD21_IOT_WG_ICM42688/debug/_ext/26920679/stat_moment.o
 .debug_loc     0x000000000000e6ea      0x46f build/SAMD21_IOT_WG_ICM42688/debug/_ext/26920679/tree_ensemble.o
 .debug_loc     0x000000000000eb59      0x1ad build/SAMD21_IOT_WG_ICM42688/debug/_ext/26920679/tr_min_max_scale.o
 .debug_loc     0x000000000000ed06      0x17b build/SAMD21_IOT_WG_ICM42688/debug/_ext/26920679/tr_sensor_magnitude.o
 .debug_loc     0x000000000000ee81       0xc0 build/SAMD21_IOT_WG_ICM42688/debug/_ext/26920679/utils_buffer_abssum.o
 .debug_loc     0x000000000000ef41      0x1c5 build/SAMD21_IOT_WG_ICM42688/debug/_ext/26920679/utils_buffer_argmax.o
 .debug_loc     0x000000000000f106      0x485 build/SAMD21_IOT_WG_ICM42688/debug/_ext/26920679/utils_buffer_cumsum.o
 .debug_loc     0x000000000000f58b      0x3bc build/SAMD21_IOT_WG_ICM42688/debug/_ext/26920679/utils_model_cross_difference.o
 .debug_loc     0x000000000000f947       0x80 build/SAMD21_IOT_WG_ICM42688/debug/_ext/26920679/utils_tr_sensor.o
 .debug_loc     0x000000000000f9c7      0x10f build/SAMD21_IOT_WG_ICM42688/debug/_ext/741007211/sml_recognition_run.o
 .debug_loc     0x000000000000fad6       0x14 c:/program files/microchip/xc32/v4.60/bin/bin/../../lib/gcc/pic32c/8.3.1/../../../../pic32c/lib/thumb/v6-m/nofp\libpic32c.a(data_init.o)
 .debug_loc     0x000000000000faea      0x12d c:/program files/microchip/xc32/v4.60/bin/bin/../../lib/gcc/pic32c/8.3.1/../../../../pic32c/lib/thumb/v6-m/nofp\libc-size-musl.a(memcpy.o)
 .debug_loc     0x000000000000fc17       0xcd c:/program files/microchip/xc32/v4.60/bin/bin/../../lib/gcc/pic32c/8.3.1/../../../../pic32c/lib/thumb/v6-m/nofp\libc-size-musl.a(memset.o)
 .debug_loc     0x000000000000fce4       0x5e c:/program files/microchip/xc32/v4.60/bin/bin/../../lib/gcc/pic32c/8.3.1/../../../../pic32c/lib/thumb/v6-m/nofp\libg-musl.a(__libc_start_main.o)
 .debug_loc     0x000000000000fd42       0x61 c:/program files/microchip/xc32/v4.60/bin/bin/../../lib/gcc/pic32c/8.3.1/../../../../pic32c/lib/thumb/v6-m/nofp\libg-musl.a(__sio_printf_cdeEfFgGnpsxX.o)
 .debug_loc     0x000000000000fda3       0x86 c:/program files/microchip/xc32/v4.60/bin/bin/../../lib/gcc/pic32c/8.3.1/../../../../pic32c/lib/thumb/v6-m/nofp\libg-musl.a(__sio_sprintf_cdeEfFgGnpsxX.o)
 .debug_loc     0x000000000000fe29      0x2a6 c:/program files/microchip/xc32/v4.60/bin/bin/../../lib/gcc/pic32c/8.3.1/../../../../pic32c/lib/thumb/v6-m/nofp\libg-musl.a(__fmt_d.o)
 .debug_loc     0x00000000000100cf      0xc94 c:/program files/microchip/xc32/v4.60/bin/bin/../../lib/gcc/pic32c/8.3.1/../../../../pic32c/lib/thumb/v6-m/nofp\libg-musl.a(__fmt_fp.o)
 .debug_loc     0x0000000000010d63      0x144 c:/program files/microchip/xc32/v4.60/bin/bin/../../lib/gcc/pic32c/8.3.1/../../../../pic32c/lib/thumb/v6-m/nofp\libg-musl.a(__fmt_s.o)
 .debug_loc     0x0000000000010ea7      0x3be c:/program files/microchip/xc32/v4.60/bin/bin/../../lib/gcc/pic32c/8.3.1/../../../../pic32c/lib/thumb/v6-m/nofp\libg-musl.a(__fmt_x.o)
 .debug_loc     0x0000000000011265       0x6f c:/program files/microchip/xc32/v4.60/bin/bin/../../lib/gcc/pic32c/8.3.1/../../../../pic32c/lib/thumb/v6-m/nofp\libg-musl.a(__pop_float.o)
 .debug_loc     0x00000000000112d4      0x34c c:/program files/microchip/xc32/v4.60/bin/bin/../../lib/gcc/pic32c/8.3.1/../../../../pic32c/lib/thumb/v6-m/nofp\libg-musl.a(__pop_int.o)
 .debug_loc     0x0000000000011620      0x1fe c:/program files/microchip/xc32/v4.60/bin/bin/../../lib/gcc/pic32c/8.3.1/../../../../pic32c/lib/thumb/v6-m/nofp\libg-musl.a(__pop_ptr.o)
 .debug_loc     0x000000000001181e      0x6d9 c:/program files/microchip/xc32/v4.60/bin/bin/../../lib/gcc/pic32c/8.3.1/../../../../pic32c/lib/thumb/v6-m/nofp\libg-musl.a(__printf_core.o)
 .debug_loc     0x0000000000011ef7       0x45 c:/program files/microchip/xc32/v4.60/bin/bin/../../lib/gcc/pic32c/8.3.1/../../../../pic32c/lib/thumb/v6-m/nofp\libg-musl.a(stdin.o)
 .debug_loc     0x0000000000011f3c       0x40 c:/program files/microchip/xc32/v4.60/bin/bin/../../lib/gcc/pic32c/8.3.1/../../../../pic32c/lib/thumb/v6-m/nofp\libg-musl.a(stdout.o)
 .debug_loc     0x0000000000011f7c       0x45 c:/program files/microchip/xc32/v4.60/bin/bin/../../lib/gcc/pic32c/8.3.1/../../../../pic32c/lib/thumb/v6-m/nofp\libg-musl.a(putchar.o)
 .debug_loc     0x0000000000011fc1       0x6a c:/program files/microchip/xc32/v4.60/bin/bin/../../lib/gcc/pic32c/8.3.1/../../../../pic32c/lib/thumb/v6-m/nofp\libg-musl.a(puts.o)
 .debug_loc     0x000000000001202b       0x6a c:/program files/microchip/xc32/v4.60/bin/bin/../../lib/gcc/pic32c/8.3.1/../../../../pic32c/lib/thumb/v6-m/nofp\libg-musl.a(setbuf.o)
 .debug_loc     0x0000000000012095       0xdc c:/program files/microchip/xc32/v4.60/bin/bin/../../lib/gcc/pic32c/8.3.1/../../../../pic32c/lib/thumb/v6-m/nofp\libg-musl.a(atoi.o)
 .debug_loc     0x0000000000012171       0x8f c:/program files/microchip/xc32/v4.60/bin/bin/../../lib/gcc/pic32c/8.3.1/../../../../pic32c/lib/thumb/v6-m/nofp\libg-musl.a(tolower.o)
 .debug_loc     0x0000000000012200       0x8f c:/program files/microchip/xc32/v4.60/bin/bin/../../lib/gcc/pic32c/8.3.1/../../../../pic32c/lib/thumb/v6-m/nofp\libg-musl.a(toupper.o)
 .debug_loc     0x000000000001228f       0xb0 c:/program files/microchip/xc32/v4.60/bin/bin/../../lib/gcc/pic32c/8.3.1/../../../../pic32c/lib/thumb/v6-m/nofp\libg-musl.a(__int_vfprintf.o)
 .debug_loc     0x000000000001233f       0x8c c:/program files/microchip/xc32/v4.60/bin/bin/../../lib/gcc/pic32c/8.3.1/../../../../pic32c/lib/thumb/v6-m/nofp\libg-musl.a(__int_vsprintf.o)
 .debug_loc     0x00000000000123cb       0xb3 c:/program files/microchip/xc32/v4.60/bin/bin/../../lib/gcc/pic32c/8.3.1/../../../../pic32c/lib/thumb/v6-m/nofp\libg-musl.a(fputs.o)
 .debug_loc     0x000000000001247e      0x1d3 c:/program files/microchip/xc32/v4.60/bin/bin/../../lib/gcc/pic32c/8.3.1/../../../../pic32c/lib/thumb/v6-m/nofp\libg-musl.a(__cvt_u.o)
 .debug_loc     0x0000000000012651      0x107 c:/program files/microchip/xc32/v4.60/bin/bin/../../lib/gcc/pic32c/8.3.1/../../../../pic32c/lib/thumb/v6-m/nofp\libg-musl.a(__stdio_read.o)
 .debug_loc     0x0000000000012758       0x42 c:/program files/microchip/xc32/v4.60/bin/bin/../../lib/gcc/pic32c/8.3.1/../../../../pic32c/lib/thumb/v6-m/nofp\libg-musl.a(__towrite_rw.o)
 .debug_loc     0x000000000001279a      0x1c5 c:/program files/microchip/xc32/v4.60/bin/bin/../../lib/gcc/pic32c/8.3.1/../../../../pic32c/lib/thumb/v6-m/nofp\libg-musl.a(fwrite.o)
 .debug_loc     0x000000000001295f      0x13b c:/program files/microchip/xc32/v4.60/bin/bin/../../lib/gcc/pic32c/8.3.1/../../../../pic32c/lib/thumb/v6-m/nofp\libg-musl.a(putc.o)
 .debug_loc     0x0000000000012a9a      0x115 c:/program files/microchip/xc32/v4.60/bin/bin/../../lib/gcc/pic32c/8.3.1/../../../../pic32c/lib/thumb/v6-m/nofp\libg-musl.a(setvbuf.o)
 .debug_loc     0x0000000000012baf      0x130 c:/program files/microchip/xc32/v4.60/bin/bin/../../lib/gcc/pic32c/8.3.1/../../../../pic32c/lib/thumb/v6-m/nofp\libg-musl.a(readv.o)
 .debug_loc     0x0000000000012cdf      0x102 c:/program files/microchip/xc32/v4.60/bin/bin/../../lib/gcc/pic32c/8.3.1/../../../../pic32c/lib/thumb/v6-m/nofp\libg-musl.a(__int_vsnprintf.o)
 .debug_loc     0x0000000000012de1       0x20 c:/program files/microchip/xc32/v4.60/bin/bin/../../lib/gcc/pic32c/8.3.1/../../../../pic32c/lib/thumb/v6-m/nofp\libg-musl.a(__init_stdio.o)
 .debug_loc     0x0000000000012e01      0x1e6 c:/program files/microchip/xc32/v4.60/bin/bin/../../lib/gcc/pic32c/8.3.1/../../../../pic32c/lib/thumb/v6-m/nofp\libg-musl.a(__out.o)
 .debug_loc     0x0000000000012fe7       0xbe c:/program files/microchip/xc32/v4.60/bin/bin/../../lib/gcc/pic32c/8.3.1/../../../../pic32c/lib/thumb/v6-m/nofp\libg-musl.a(__putc.o)
 .debug_loc     0x00000000000130a5       0x45 c:/program files/microchip/xc32/v4.60/bin/bin/../../lib/gcc/pic32c/8.3.1/../../../../pic32c/lib/thumb/v6-m/nofp\libg-musl.a(__stderr.o)
 .debug_loc     0x00000000000130ea      0x1d8 c:/program files/microchip/xc32/v4.60/bin/bin/../../lib/gcc/pic32c/8.3.1/../../../../pic32c/lib/thumb/v6-m/nofp\libg-musl.a(__stdio_close.o)
 .debug_loc     0x00000000000132c2      0x364 c:/program files/microchip/xc32/v4.60/bin/bin/../../lib/gcc/pic32c/8.3.1/../../../../pic32c/lib/thumb/v6-m/nofp\libg-musl.a(__stdio_write.o)
 .debug_loc     0x0000000000013626       0x45 c:/program files/microchip/xc32/v4.60/bin/bin/../../lib/gcc/pic32c/8.3.1/../../../../pic32c/lib/thumb/v6-m/nofp\libg-musl.a(__stdout.o)
 .debug_loc     0x000000000001366b       0x8c c:/program files/microchip/xc32/v4.60/bin/bin/../../lib/gcc/pic32c/8.3.1/../../../../pic32c/lib/thumb/v6-m/nofp\libg-musl.a(__towrite.o)
 .debug_loc     0x00000000000136f7      0x130 c:/program files/microchip/xc32/v4.60/bin/bin/../../lib/gcc/pic32c/8.3.1/../../../../pic32c/lib/thumb/v6-m/nofp\libg-musl.a(writev.o)
 .debug_loc     0x0000000000013827       0xbb c:/program files/microchip/xc32/v4.60/bin/bin/../../lib/gcc/pic32c/8.3.1/../../../../pic32c/lib/thumb/v6-m/nofp\libg-musl.a(__overflow.o)
 .debug_loc     0x00000000000138e2      0x106 c:/program files/microchip/xc32/v4.60/bin/bin/../../lib/gcc/pic32c/8.3.1/../../../../pic32c/lib/thumb/v6-m/nofp\libg-musl.a(__fwrite.o)
 .debug_loc     0x00000000000139e8      0x176 c:/program files/microchip/xc32/v4.60/bin/bin/../../lib/gcc/pic32c/8.3.1/thumb/v6-m/nofp\libgcc.a(_muldi3.o)
 .debug_loc     0x0000000000013b5e      0x2e4 c:/program files/microchip/xc32/v4.60/bin/bin/../../lib/gcc/pic32c/8.3.1/thumb/v6-m/nofp\libgcc.a(_udivmoddi4.o)
 .debug_loc     0x0000000000013e42       0x9c c:/program files/microchip/xc32/v4.60/bin/bin/../../lib/gcc/pic32c/8.3.1/thumb/v6-m/nofp\libgcc.a(bpabi.o)
 .debug_loc     0x0000000000013ede      0x4b0 c:/program files/microchip/xc32/v4.60/bin/bin/../../lib/gcc/pic32c/8.3.1/thumb/v6-m/nofp\libgcc.a(_divdi3.o)
 .debug_loc     0x000000000001438e       0x14 c:/program files/microchip/xc32/v4.60/bin/bin/../../lib/gcc/pic32c/8.3.1/../../../../pic32c/lib/thumb/v6-m/nofp\libpic32c.a(read.o)
 .debug_loc     0x00000000000143a2       0x14 c:/program files/microchip/xc32/v4.60/bin/bin/../../lib/gcc/pic32c/8.3.1/../../../../pic32c/lib/thumb/v6-m/nofp\libpic32c.a(write.o)
 .debug_loc     0x00000000000143b6       0x81 c:/program files/microchip/xc32/v4.60/bin/bin/../../lib/gcc/pic32c/8.3.1/../../../../pic32c/lib/thumb/v6-m/nofp\libc-size-musl.a(strlen.o)
 .debug_loc     0x0000000000014437       0x74 c:/program files/microchip/xc32/v4.60/bin/bin/../../lib/gcc/pic32c/8.3.1/../../../../pic32c/lib/thumb/v6-m/nofp\libc-size-musl.a(strcpy.o)
 .debug_loc     0x00000000000144ab       0x90 c:/program files/microchip/xc32/v4.60/bin/bin/../../lib/gcc/pic32c/8.3.1/../../../../pic32c/lib/thumb/v6-m/nofp\libc-size-musl.a(stpcpy.o)
 .debug_loc     0x000000000001453b       0xe2 c:/program files/microchip/xc32/v4.60/bin/bin/../../lib/gcc/pic32c/8.3.1/../../../../pic32c/lib/thumb/v6-m/nofp\liblmalloc-musl.a(lite_malloc.o)
 .debug_loc     0x000000000001461d      0x343 c:/program files/microchip/xc32/v4.60/bin/bin/../../lib/gcc/pic32c/8.3.1/../../../../pic32c/lib/thumb/v6-m/nofp\liblmalloc-musl.a(lite_free.o)
 .debug_loc     0x0000000000014960       0x7c c:/program files/microchip/xc32/v4.60/bin/bin/../../lib/gcc/pic32c/8.3.1/../../../../pic32c/lib/thumb/v6-m/nofp\libg-musl.a(expand_heap.o)
 .debug_loc     0x00000000000149dc       0x28 c:/program files/microchip/xc32/v4.60/bin/bin/../../lib/gcc/pic32c/8.3.1/../../../../pic32c/lib/thumb/v6-m/nofp\libpic32c.a(sbrk.o)
 .debug_loc     0x0000000000014a04       0x14 c:/program files/microchip/xc32/v4.60/bin/bin/../../lib/gcc/pic32c/8.3.1/../../../../pic32c/lib/thumb/v6-m/nofp\libpic32c.a(pic32_data_init_copy.o)

.debug_aranges  0x0000000000000000     0x1038
 .debug_aranges
                0x0000000000000000       0x20 build/SAMD21_IOT_WG_ICM42688/debug/_ext/2048461350/icm42688_sensor.o
 .debug_aranges
                0x0000000000000020       0x20 build/SAMD21_IOT_WG_ICM42688/debug/_ext/1750425231/plib_clock.o
 .debug_aranges
                0x0000000000000040       0x20 build/SAMD21_IOT_WG_ICM42688/debug/_ext/503204096/plib_eic.o
 .debug_aranges
                0x0000000000000060       0x20 build/SAMD21_IOT_WG_ICM42688/debug/_ext/1752574717/plib_evsys.o
 .debug_aranges
                0x0000000000000080       0x20 build/SAMD21_IOT_WG_ICM42688/debug/_ext/1580823105/plib_nvic.o
 .debug_aranges
                0x00000000000000a0       0x20 build/SAMD21_IOT_WG_ICM42688/debug/_ext/11470383/plib_nvmctrl.o
 .debug_aranges
                0x00000000000000c0       0x20 build/SAMD21_IOT_WG_ICM42688/debug/_ext/1580876256/plib_port.o
 .debug_aranges
                0x00000000000000e0       0x20 build/SAMD21_IOT_WG_ICM42688/debug/_ext/1014017276/plib_sercom0_spi_master.o
 .debug_aranges
                0x0000000000000100       0x20 build/SAMD21_IOT_WG_ICM42688/debug/_ext/177673482/plib_sercom5_usart.o
 .debug_aranges
                0x0000000000000120       0x20 build/SAMD21_IOT_WG_ICM42688/debug/_ext/223004715/plib_systick.o
 .debug_aranges
                0x0000000000000140       0x20 build/SAMD21_IOT_WG_ICM42688/debug/_ext/399410062/plib_tc3.o
 .debug_aranges
                0x0000000000000160       0x20 build/SAMD21_IOT_WG_ICM42688/debug/_ext/1357625803/xc32_monitor.o
 .debug_aranges
                0x0000000000000180       0x20 build/SAMD21_IOT_WG_ICM42688/debug/_ext/1832905403/initialization.o
 .debug_aranges
                0x00000000000001a0       0x20 build/SAMD21_IOT_WG_ICM42688/debug/_ext/1832905403/interrupts.o
 .debug_aranges
                0x00000000000001c0       0x20 build/SAMD21_IOT_WG_ICM42688/debug/_ext/1832905403/exceptions.o
 .debug_aranges
                0x00000000000001e0       0x28 build/SAMD21_IOT_WG_ICM42688/debug/_ext/1832905403/startup_xc32.o
 .debug_aranges
                0x0000000000000208       0x20 build/SAMD21_IOT_WG_ICM42688/debug/_ext/1341251756/Icm426xxDriver_HL.o
 .debug_aranges
                0x0000000000000228       0x20 build/SAMD21_IOT_WG_ICM42688/debug/_ext/1341251756/Icm426xxTransport.o
 .debug_aranges
                0x0000000000000248       0x20 build/SAMD21_IOT_WG_ICM42688/debug/_ext/1360937237/main.o
 .debug_aranges
                0x0000000000000268       0x20 build/SAMD21_IOT_WG_ICM42688/debug/_ext/1360937237/ringbuffer.o
 .debug_aranges
                0x0000000000000288       0x20 build/SAMD21_IOT_WG_ICM42688/debug/_ext/26920679/fg_area_absolute_area_high_frequency.o
 .debug_aranges
                0x00000000000002a8       0x20 build/SAMD21_IOT_WG_ICM42688/debug/_ext/26920679/fg_area_total_area_low_frequency.o
 .debug_aranges
                0x00000000000002c8       0x20 build/SAMD21_IOT_WG_ICM42688/debug/_ext/26920679/fg_cross_p2p_difference.o
 .debug_aranges
                0x00000000000002e8       0x20 build/SAMD21_IOT_WG_ICM42688/debug/_ext/26920679/fg_cross_peak_location_difference.o
 .debug_aranges
                0x0000000000000308       0x20 build/SAMD21_IOT_WG_ICM42688/debug/_ext/26920679/fg_stats_abs_mean.o
 .debug_aranges
                0x0000000000000328       0x20 build/SAMD21_IOT_WG_ICM42688/debug/_ext/26920679/fg_stats_pct075.o
 .debug_aranges
                0x0000000000000348       0x20 build/SAMD21_IOT_WG_ICM42688/debug/_ext/26920679/fg_stats_skewness.o
 .debug_aranges
                0x0000000000000368       0x20 build/SAMD21_IOT_WG_ICM42688/debug/_ext/26920679/kb.o
 .debug_aranges
                0x0000000000000388       0x20 build/SAMD21_IOT_WG_ICM42688/debug/_ext/26920679/kb_output.o
 .debug_aranges
                0x00000000000003a8       0x20 build/SAMD21_IOT_WG_ICM42688/debug/_ext/26920679/kb_pipeline.o
 .debug_aranges
                0x00000000000003c8       0x20 build/SAMD21_IOT_WG_ICM42688/debug/_ext/26920679/ma_symmetric.o
 .debug_aranges
                0x00000000000003e8       0x20 build/SAMD21_IOT_WG_ICM42688/debug/_ext/26920679/mean.o
 .debug_aranges
                0x0000000000000408       0x20 build/SAMD21_IOT_WG_ICM42688/debug/_ext/26920679/rb.o
 .debug_aranges
                0x0000000000000428       0x20 build/SAMD21_IOT_WG_ICM42688/debug/_ext/26920679/save_sensor_data.o
 .debug_aranges
                0x0000000000000448       0x20 build/SAMD21_IOT_WG_ICM42688/debug/_ext/26920679/sg_windowing.o
 .debug_aranges
                0x0000000000000468       0x20 build/SAMD21_IOT_WG_ICM42688/debug/_ext/26920679/sortarray.o
 .debug_aranges
                0x0000000000000488       0x20 build/SAMD21_IOT_WG_ICM42688/debug/_ext/26920679/sorted_copy.o
 .debug_aranges
                0x00000000000004a8       0x20 build/SAMD21_IOT_WG_ICM42688/debug/_ext/26920679/stats_percentile_presorted.o
 .debug_aranges
                0x00000000000004c8       0x20 build/SAMD21_IOT_WG_ICM42688/debug/_ext/26920679/stat_moment.o
 .debug_aranges
                0x00000000000004e8       0x20 build/SAMD21_IOT_WG_ICM42688/debug/_ext/26920679/tree_ensemble.o
 .debug_aranges
                0x0000000000000508       0x18 build/SAMD21_IOT_WG_ICM42688/debug/_ext/26920679/tree_ensemble_trained_models.o
 .debug_aranges
                0x0000000000000520       0x20 build/SAMD21_IOT_WG_ICM42688/debug/_ext/26920679/tr_min_max_scale.o
 .debug_aranges
                0x0000000000000540       0x20 build/SAMD21_IOT_WG_ICM42688/debug/_ext/26920679/tr_sensor_magnitude.o
 .debug_aranges
                0x0000000000000560       0x20 build/SAMD21_IOT_WG_ICM42688/debug/_ext/26920679/utils_buffer_abssum.o
 .debug_aranges
                0x0000000000000580       0x20 build/SAMD21_IOT_WG_ICM42688/debug/_ext/26920679/utils_buffer_argmax.o
 .debug_aranges
                0x00000000000005a0       0x20 build/SAMD21_IOT_WG_ICM42688/debug/_ext/26920679/utils_buffer_cumsum.o
 .debug_aranges
                0x00000000000005c0       0x20 build/SAMD21_IOT_WG_ICM42688/debug/_ext/26920679/utils_model_cross_difference.o
 .debug_aranges
                0x00000000000005e0       0x20 build/SAMD21_IOT_WG_ICM42688/debug/_ext/26920679/utils_tr_sensor.o
 .debug_aranges
                0x0000000000000600       0x20 build/SAMD21_IOT_WG_ICM42688/debug/_ext/741007211/sml_recognition_run.o
 .debug_aranges
                0x0000000000000620       0x30 c:/program files/microchip/xc32/v4.60/bin/bin/../../lib/gcc/pic32c/8.3.1/../../../../pic32c/lib/thumb/v6-m/nofp\libpic32c.a(data_init.o)
 .debug_aranges
                0x0000000000000650       0x20 c:/program files/microchip/xc32/v4.60/bin/bin/../../lib/gcc/pic32c/8.3.1/../../../../pic32c/lib/thumb/v6-m/nofp\libc-size-musl.a(memcpy.o)
 .debug_aranges
                0x0000000000000670       0x20 c:/program files/microchip/xc32/v4.60/bin/bin/../../lib/gcc/pic32c/8.3.1/../../../../pic32c/lib/thumb/v6-m/nofp\libc-size-musl.a(memset.o)
 .debug_aranges
                0x0000000000000690       0x28 c:/program files/microchip/xc32/v4.60/bin/bin/../../lib/gcc/pic32c/8.3.1/../../../../pic32c/lib/thumb/v6-m/nofp\libg-musl.a(__libc_start_main.o)
 .debug_aranges
                0x00000000000006b8       0x18 c:/program files/microchip/xc32/v4.60/bin/bin/../../lib/gcc/pic32c/8.3.1/../../../../pic32c/lib/thumb/v6-m/nofp\libg-musl.a(__errno_location.o)
 .debug_aranges
                0x00000000000006d0       0x18 c:/program files/microchip/xc32/v4.60/bin/bin/../../lib/gcc/pic32c/8.3.1/../../../../pic32c/lib/thumb/v6-m/nofp\libg-musl.a(libc.o)
 .debug_aranges
                0x00000000000006e8       0x28 c:/program files/microchip/xc32/v4.60/bin/bin/../../lib/gcc/pic32c/8.3.1/../../../../pic32c/lib/thumb/v6-m/nofp\libg-musl.a(__sio_printf_cdeEfFgGnpsxX.o)
 .debug_aranges
                0x0000000000000710       0x28 c:/program files/microchip/xc32/v4.60/bin/bin/../../lib/gcc/pic32c/8.3.1/../../../../pic32c/lib/thumb/v6-m/nofp\libg-musl.a(__sio_sprintf_cdeEfFgGnpsxX.o)
 .debug_aranges
                0x0000000000000738       0x20 c:/program files/microchip/xc32/v4.60/bin/bin/../../lib/gcc/pic32c/8.3.1/../../../../pic32c/lib/thumb/v6-m/nofp\libg-musl.a(__fmt_d.o)
 .debug_aranges
                0x0000000000000758       0x20 c:/program files/microchip/xc32/v4.60/bin/bin/../../lib/gcc/pic32c/8.3.1/../../../../pic32c/lib/thumb/v6-m/nofp\libg-musl.a(__fmt_fp.o)
 .debug_aranges
                0x0000000000000778       0x20 c:/program files/microchip/xc32/v4.60/bin/bin/../../lib/gcc/pic32c/8.3.1/../../../../pic32c/lib/thumb/v6-m/nofp\libg-musl.a(__fmt_s.o)
 .debug_aranges
                0x0000000000000798       0x20 c:/program files/microchip/xc32/v4.60/bin/bin/../../lib/gcc/pic32c/8.3.1/../../../../pic32c/lib/thumb/v6-m/nofp\libg-musl.a(__fmt_x.o)
 .debug_aranges
                0x00000000000007b8       0x20 c:/program files/microchip/xc32/v4.60/bin/bin/../../lib/gcc/pic32c/8.3.1/../../../../pic32c/lib/thumb/v6-m/nofp\libg-musl.a(__pop_float.o)
 .debug_aranges
                0x00000000000007d8       0x20 c:/program files/microchip/xc32/v4.60/bin/bin/../../lib/gcc/pic32c/8.3.1/../../../../pic32c/lib/thumb/v6-m/nofp\libg-musl.a(__pop_int.o)
 .debug_aranges
                0x00000000000007f8       0x20 c:/program files/microchip/xc32/v4.60/bin/bin/../../lib/gcc/pic32c/8.3.1/../../../../pic32c/lib/thumb/v6-m/nofp\libg-musl.a(__pop_ptr.o)
 .debug_aranges
                0x0000000000000818       0x50 c:/program files/microchip/xc32/v4.60/bin/bin/../../lib/gcc/pic32c/8.3.1/../../../../pic32c/lib/thumb/v6-m/nofp\libg-musl.a(__printf_core.o)
 .debug_aranges
                0x0000000000000868       0x28 c:/program files/microchip/xc32/v4.60/bin/bin/../../lib/gcc/pic32c/8.3.1/../../../../pic32c/lib/thumb/v6-m/nofp\libg-musl.a(stdin.o)
 .debug_aranges
                0x0000000000000890       0x30 c:/program files/microchip/xc32/v4.60/bin/bin/../../lib/gcc/pic32c/8.3.1/../../../../pic32c/lib/thumb/v6-m/nofp\libg-musl.a(stdout.o)
 .debug_aranges
                0x00000000000008c0       0x20 c:/program files/microchip/xc32/v4.60/bin/bin/../../lib/gcc/pic32c/8.3.1/../../../../pic32c/lib/thumb/v6-m/nofp\libg-musl.a(putchar.o)
 .debug_aranges
                0x00000000000008e0       0x20 c:/program files/microchip/xc32/v4.60/bin/bin/../../lib/gcc/pic32c/8.3.1/../../../../pic32c/lib/thumb/v6-m/nofp\libg-musl.a(puts.o)
 .debug_aranges
                0x0000000000000900       0x20 c:/program files/microchip/xc32/v4.60/bin/bin/../../lib/gcc/pic32c/8.3.1/../../../../pic32c/lib/thumb/v6-m/nofp\libg-musl.a(setbuf.o)
 .debug_aranges
                0x0000000000000920       0x20 c:/program files/microchip/xc32/v4.60/bin/bin/../../lib/gcc/pic32c/8.3.1/../../../../pic32c/lib/thumb/v6-m/nofp\libg-musl.a(atoi.o)
 .debug_aranges
                0x0000000000000940       0x28 c:/program files/microchip/xc32/v4.60/bin/bin/../../lib/gcc/pic32c/8.3.1/../../../../pic32c/lib/thumb/v6-m/nofp\libg-musl.a(tolower.o)
 .debug_aranges
                0x0000000000000968       0x28 c:/program files/microchip/xc32/v4.60/bin/bin/../../lib/gcc/pic32c/8.3.1/../../../../pic32c/lib/thumb/v6-m/nofp\libg-musl.a(toupper.o)
 .debug_aranges
                0x0000000000000990       0x18 c:/program files/microchip/xc32/v4.60/bin/bin/../../lib/gcc/pic32c/8.3.1/../../../../pic32c/lib/thumb/v6-m/nofp\libg-musl.a(__environ.o)
 .debug_aranges
                0x00000000000009a8       0x20 c:/program files/microchip/xc32/v4.60/bin/bin/../../lib/gcc/pic32c/8.3.1/../../../../pic32c/lib/thumb/v6-m/nofp\libg-musl.a(__int_vfprintf.o)
 .debug_aranges
                0x00000000000009c8       0x20 c:/program files/microchip/xc32/v4.60/bin/bin/../../lib/gcc/pic32c/8.3.1/../../../../pic32c/lib/thumb/v6-m/nofp\libg-musl.a(__int_vsprintf.o)
 .debug_aranges
                0x00000000000009e8       0x20 c:/program files/microchip/xc32/v4.60/bin/bin/../../lib/gcc/pic32c/8.3.1/../../../../pic32c/lib/thumb/v6-m/nofp\libg-musl.a(fputs.o)
 .debug_aranges
                0x0000000000000a08       0x20 c:/program files/microchip/xc32/v4.60/bin/bin/../../lib/gcc/pic32c/8.3.1/../../../../pic32c/lib/thumb/v6-m/nofp\libg-musl.a(__cvt_u.o)
 .debug_aranges
                0x0000000000000a28       0x20 c:/program files/microchip/xc32/v4.60/bin/bin/../../lib/gcc/pic32c/8.3.1/../../../../pic32c/lib/thumb/v6-m/nofp\libg-musl.a(__stdio_read.o)
 .debug_aranges
                0x0000000000000a48       0x20 c:/program files/microchip/xc32/v4.60/bin/bin/../../lib/gcc/pic32c/8.3.1/../../../../pic32c/lib/thumb/v6-m/nofp\libg-musl.a(__towrite_rw.o)
 .debug_aranges
                0x0000000000000a68       0x28 c:/program files/microchip/xc32/v4.60/bin/bin/../../lib/gcc/pic32c/8.3.1/../../../../pic32c/lib/thumb/v6-m/nofp\libg-musl.a(fwrite.o)
 .debug_aranges
                0x0000000000000a90       0x30 c:/program files/microchip/xc32/v4.60/bin/bin/../../lib/gcc/pic32c/8.3.1/../../../../pic32c/lib/thumb/v6-m/nofp\libg-musl.a(putc.o)
 .debug_aranges
                0x0000000000000ac0       0x28 c:/program files/microchip/xc32/v4.60/bin/bin/../../lib/gcc/pic32c/8.3.1/../../../../pic32c/lib/thumb/v6-m/nofp\libg-musl.a(setvbuf.o)
 .debug_aranges
                0x0000000000000ae8       0x20 c:/program files/microchip/xc32/v4.60/bin/bin/../../lib/gcc/pic32c/8.3.1/../../../../pic32c/lib/thumb/v6-m/nofp\libg-musl.a(readv.o)
 .debug_aranges
                0x0000000000000b08       0x20 c:/program files/microchip/xc32/v4.60/bin/bin/../../lib/gcc/pic32c/8.3.1/../../../../pic32c/lib/thumb/v6-m/nofp\libg-musl.a(__int_vsnprintf.o)
 .debug_aranges
                0x0000000000000b28       0x28 c:/program files/microchip/xc32/v4.60/bin/bin/../../lib/gcc/pic32c/8.3.1/../../../../pic32c/lib/thumb/v6-m/nofp\libg-musl.a(__init_stdio.o)
 .debug_aranges
                0x0000000000000b50       0x28 c:/program files/microchip/xc32/v4.60/bin/bin/../../lib/gcc/pic32c/8.3.1/../../../../pic32c/lib/thumb/v6-m/nofp\libg-musl.a(__out.o)
 .debug_aranges
                0x0000000000000b78       0x20 c:/program files/microchip/xc32/v4.60/bin/bin/../../lib/gcc/pic32c/8.3.1/../../../../pic32c/lib/thumb/v6-m/nofp\libg-musl.a(__putc.o)
 .debug_aranges
                0x0000000000000b98       0x30 c:/program files/microchip/xc32/v4.60/bin/bin/../../lib/gcc/pic32c/8.3.1/../../../../pic32c/lib/thumb/v6-m/nofp\libg-musl.a(__stderr.o)
 .debug_aranges
                0x0000000000000bc8       0x28 c:/program files/microchip/xc32/v4.60/bin/bin/../../lib/gcc/pic32c/8.3.1/../../../../pic32c/lib/thumb/v6-m/nofp\libg-musl.a(__stdio_close.o)
 .debug_aranges
                0x0000000000000bf0       0x28 c:/program files/microchip/xc32/v4.60/bin/bin/../../lib/gcc/pic32c/8.3.1/../../../../pic32c/lib/thumb/v6-m/nofp\libg-musl.a(__stdio_write.o)
 .debug_aranges
                0x0000000000000c18       0x30 c:/program files/microchip/xc32/v4.60/bin/bin/../../lib/gcc/pic32c/8.3.1/../../../../pic32c/lib/thumb/v6-m/nofp\libg-musl.a(__stdout.o)
 .debug_aranges
                0x0000000000000c48       0x28 c:/program files/microchip/xc32/v4.60/bin/bin/../../lib/gcc/pic32c/8.3.1/../../../../pic32c/lib/thumb/v6-m/nofp\libg-musl.a(__towrite.o)
 .debug_aranges
                0x0000000000000c70       0x20 c:/program files/microchip/xc32/v4.60/bin/bin/../../lib/gcc/pic32c/8.3.1/../../../../pic32c/lib/thumb/v6-m/nofp\libg-musl.a(writev.o)
 .debug_aranges
                0x0000000000000c90       0x20 c:/program files/microchip/xc32/v4.60/bin/bin/../../lib/gcc/pic32c/8.3.1/../../../../pic32c/lib/thumb/v6-m/nofp\libg-musl.a(__overflow.o)
 .debug_aranges
                0x0000000000000cb0       0x28 c:/program files/microchip/xc32/v4.60/bin/bin/../../lib/gcc/pic32c/8.3.1/../../../../pic32c/lib/thumb/v6-m/nofp\libg-musl.a(__fwrite.o)
 .debug_aranges
                0x0000000000000cd8       0x20 c:/program files/microchip/xc32/v4.60/bin/bin/../../lib/gcc/pic32c/8.3.1/thumb/v6-m/nofp\libgcc.a(_udivsi3.o)
 .debug_aranges
                0x0000000000000cf8       0x20 c:/program files/microchip/xc32/v4.60/bin/bin/../../lib/gcc/pic32c/8.3.1/thumb/v6-m/nofp\libgcc.a(_divsi3.o)
 .debug_aranges
                0x0000000000000d18       0x20 c:/program files/microchip/xc32/v4.60/bin/bin/../../lib/gcc/pic32c/8.3.1/thumb/v6-m/nofp\libgcc.a(_dvmd_tls.o)
 .debug_aranges
                0x0000000000000d38       0x20 c:/program files/microchip/xc32/v4.60/bin/bin/../../lib/gcc/pic32c/8.3.1/thumb/v6-m/nofp\libgcc.a(_aeabi_ldivmod.o)
 .debug_aranges
                0x0000000000000d58       0x20 c:/program files/microchip/xc32/v4.60/bin/bin/../../lib/gcc/pic32c/8.3.1/thumb/v6-m/nofp\libgcc.a(_aeabi_uldivmod.o)
 .debug_aranges
                0x0000000000000d78       0x20 c:/program files/microchip/xc32/v4.60/bin/bin/../../lib/gcc/pic32c/8.3.1/thumb/v6-m/nofp\libgcc.a(_muldi3.o)
 .debug_aranges
                0x0000000000000d98       0x20 c:/program files/microchip/xc32/v4.60/bin/bin/../../lib/gcc/pic32c/8.3.1/thumb/v6-m/nofp\libgcc.a(_udivmoddi4.o)
 .debug_aranges
                0x0000000000000db8       0x20 c:/program files/microchip/xc32/v4.60/bin/bin/../../lib/gcc/pic32c/8.3.1/thumb/v6-m/nofp\libgcc.a(bpabi.o)
 .debug_aranges
                0x0000000000000dd8       0x20 c:/program files/microchip/xc32/v4.60/bin/bin/../../lib/gcc/pic32c/8.3.1/thumb/v6-m/nofp\libgcc.a(_lshrdi3.o)
 .debug_aranges
                0x0000000000000df8       0x20 c:/program files/microchip/xc32/v4.60/bin/bin/../../lib/gcc/pic32c/8.3.1/thumb/v6-m/nofp\libgcc.a(_ashldi3.o)
 .debug_aranges
                0x0000000000000e18       0x20 c:/program files/microchip/xc32/v4.60/bin/bin/../../lib/gcc/pic32c/8.3.1/thumb/v6-m/nofp\libgcc.a(_clzdi2.o)
 .debug_aranges
                0x0000000000000e38       0x20 c:/program files/microchip/xc32/v4.60/bin/bin/../../lib/gcc/pic32c/8.3.1/thumb/v6-m/nofp\libgcc.a(_divdi3.o)
 .debug_aranges
                0x0000000000000e58       0x20 c:/program files/microchip/xc32/v4.60/bin/bin/../../lib/gcc/pic32c/8.3.1/thumb/v6-m/nofp\libgcc.a(_clzsi2.o)
 .debug_aranges
                0x0000000000000e78       0x20 c:/program files/microchip/xc32/v4.60/bin/bin/../../lib/gcc/pic32c/8.3.1/../../../../pic32c/lib/thumb/v6-m/nofp\libpic32c.a(close.o)
 .debug_aranges
                0x0000000000000e98       0x20 c:/program files/microchip/xc32/v4.60/bin/bin/../../lib/gcc/pic32c/8.3.1/../../../../pic32c/lib/thumb/v6-m/nofp\libpic32c.a(lseek.o)
 .debug_aranges
                0x0000000000000eb8       0x20 c:/program files/microchip/xc32/v4.60/bin/bin/../../lib/gcc/pic32c/8.3.1/../../../../pic32c/lib/thumb/v6-m/nofp\libpic32c.a(read.o)
 .debug_aranges
                0x0000000000000ed8       0x20 c:/program files/microchip/xc32/v4.60/bin/bin/../../lib/gcc/pic32c/8.3.1/../../../../pic32c/lib/thumb/v6-m/nofp\libpic32c.a(write.o)
 .debug_aranges
                0x0000000000000ef8       0x20 c:/program files/microchip/xc32/v4.60/bin/bin/../../lib/gcc/pic32c/8.3.1/../../../../pic32c/lib/thumb/v6-m/nofp\libc-size-musl.a(strlen.o)
 .debug_aranges
                0x0000000000000f18       0x20 c:/program files/microchip/xc32/v4.60/bin/bin/../../lib/gcc/pic32c/8.3.1/../../../../pic32c/lib/thumb/v6-m/nofp\libc-size-musl.a(strcpy.o)
 .debug_aranges
                0x0000000000000f38       0x20 c:/program files/microchip/xc32/v4.60/bin/bin/../../lib/gcc/pic32c/8.3.1/../../../../pic32c/lib/thumb/v6-m/nofp\libc-size-musl.a(stpcpy.o)
 .debug_aranges
                0x0000000000000f58       0x20 c:/program files/microchip/xc32/v4.60/bin/bin/../../lib/gcc/pic32c/8.3.1/../../../../pic32c/lib/thumb/v6-m/nofp\liblmalloc-musl.a(lite_malloc.o)
 .debug_aranges
                0x0000000000000f78       0x30 c:/program files/microchip/xc32/v4.60/bin/bin/../../lib/gcc/pic32c/8.3.1/../../../../pic32c/lib/thumb/v6-m/nofp\liblmalloc-musl.a(lite_free.o)
 .debug_aranges
                0x0000000000000fa8       0x20 c:/program files/microchip/xc32/v4.60/bin/bin/../../lib/gcc/pic32c/8.3.1/../../../../pic32c/lib/thumb/v6-m/nofp\libg-musl.a(expand_heap.o)
 .debug_aranges
                0x0000000000000fc8       0x30 c:/program files/microchip/xc32/v4.60/bin/bin/../../lib/gcc/pic32c/8.3.1/../../../../pic32c/lib/thumb/v6-m/nofp\libpic32c.a(sbrk.o)
 .debug_aranges
                0x0000000000000ff8       0x20 c:/program files/microchip/xc32/v4.60/bin/bin/../../lib/gcc/pic32c/8.3.1/../../../../pic32c/lib/thumb/v6-m/nofp\libpic32c.a(pic32_data_init_clear.o)
 .debug_aranges
                0x0000000000001018       0x20 c:/program files/microchip/xc32/v4.60/bin/bin/../../lib/gcc/pic32c/8.3.1/../../../../pic32c/lib/thumb/v6-m/nofp\libpic32c.a(pic32_data_init_copy.o)

.debug_ranges   0x0000000000000000     0x11d8
 .debug_ranges  0x0000000000000000       0x18 build/SAMD21_IOT_WG_ICM42688/debug/_ext/2048461350/icm42688_sensor.o
 .debug_ranges  0x0000000000000018       0x38 build/SAMD21_IOT_WG_ICM42688/debug/_ext/1750425231/plib_clock.o
 .debug_ranges  0x0000000000000050       0x60 build/SAMD21_IOT_WG_ICM42688/debug/_ext/1580823105/plib_nvic.o
 .debug_ranges  0x00000000000000b0       0x30 build/SAMD21_IOT_WG_ICM42688/debug/_ext/1014017276/plib_sercom0_spi_master.o
 .debug_ranges  0x00000000000000e0       0x18 build/SAMD21_IOT_WG_ICM42688/debug/_ext/177673482/plib_sercom5_usart.o
 .debug_ranges  0x00000000000000f8       0x18 build/SAMD21_IOT_WG_ICM42688/debug/_ext/1832905403/initialization.o
 .debug_ranges  0x0000000000000110       0x10 build/SAMD21_IOT_WG_ICM42688/debug/_ext/1832905403/interrupts.o
 .debug_ranges  0x0000000000000120       0x18 build/SAMD21_IOT_WG_ICM42688/debug/_ext/1832905403/startup_xc32.o
 .debug_ranges  0x0000000000000138      0x3c8 build/SAMD21_IOT_WG_ICM42688/debug/_ext/1341251756/Icm426xxDriver_HL.o
 .debug_ranges  0x0000000000000500       0xc8 build/SAMD21_IOT_WG_ICM42688/debug/_ext/1341251756/Icm426xxTransport.o
 .debug_ranges  0x00000000000005c8       0x40 build/SAMD21_IOT_WG_ICM42688/debug/_ext/1360937237/main.o
 .debug_ranges  0x0000000000000608       0xe0 build/SAMD21_IOT_WG_ICM42688/debug/_ext/1360937237/ringbuffer.o
 .debug_ranges  0x00000000000006e8       0x18 build/SAMD21_IOT_WG_ICM42688/debug/_ext/26920679/fg_stats_skewness.o
 .debug_ranges  0x0000000000000700      0x320 build/SAMD21_IOT_WG_ICM42688/debug/_ext/26920679/kb.o
 .debug_ranges  0x0000000000000a20       0xb0 build/SAMD21_IOT_WG_ICM42688/debug/_ext/26920679/kb_output.o
 .debug_ranges  0x0000000000000ad0       0x58 build/SAMD21_IOT_WG_ICM42688/debug/_ext/26920679/ma_symmetric.o
 .debug_ranges  0x0000000000000b28       0x88 build/SAMD21_IOT_WG_ICM42688/debug/_ext/26920679/rb.o
 .debug_ranges  0x0000000000000bb0       0x18 build/SAMD21_IOT_WG_ICM42688/debug/_ext/26920679/sorted_copy.o
 .debug_ranges  0x0000000000000bc8       0x18 build/SAMD21_IOT_WG_ICM42688/debug/_ext/26920679/stat_moment.o
 .debug_ranges  0x0000000000000be0       0x90 build/SAMD21_IOT_WG_ICM42688/debug/_ext/26920679/tree_ensemble.o
 .debug_ranges  0x0000000000000c70       0x20 build/SAMD21_IOT_WG_ICM42688/debug/_ext/26920679/utils_buffer_cumsum.o
 .debug_ranges  0x0000000000000c90       0x20 c:/program files/microchip/xc32/v4.60/bin/bin/../../lib/gcc/pic32c/8.3.1/../../../../pic32c/lib/thumb/v6-m/nofp\libpic32c.a(data_init.o)
 .debug_ranges  0x0000000000000cb0       0x10 c:/program files/microchip/xc32/v4.60/bin/bin/../../lib/gcc/pic32c/8.3.1/../../../../pic32c/lib/thumb/v6-m/nofp\libc-size-musl.a(memcpy.o)
 .debug_ranges  0x0000000000000cc0       0x10 c:/program files/microchip/xc32/v4.60/bin/bin/../../lib/gcc/pic32c/8.3.1/../../../../pic32c/lib/thumb/v6-m/nofp\libc-size-musl.a(memset.o)
 .debug_ranges  0x0000000000000cd0       0x30 c:/program files/microchip/xc32/v4.60/bin/bin/../../lib/gcc/pic32c/8.3.1/../../../../pic32c/lib/thumb/v6-m/nofp\libg-musl.a(__libc_start_main.o)
 .debug_ranges  0x0000000000000d00       0x18 c:/program files/microchip/xc32/v4.60/bin/bin/../../lib/gcc/pic32c/8.3.1/../../../../pic32c/lib/thumb/v6-m/nofp\libg-musl.a(__sio_printf_cdeEfFgGnpsxX.o)
 .debug_ranges  0x0000000000000d18       0x18 c:/program files/microchip/xc32/v4.60/bin/bin/../../lib/gcc/pic32c/8.3.1/../../../../pic32c/lib/thumb/v6-m/nofp\libg-musl.a(__sio_sprintf_cdeEfFgGnpsxX.o)
 .debug_ranges  0x0000000000000d30       0x10 c:/program files/microchip/xc32/v4.60/bin/bin/../../lib/gcc/pic32c/8.3.1/../../../../pic32c/lib/thumb/v6-m/nofp\libg-musl.a(__fmt_d.o)
 .debug_ranges  0x0000000000000d40       0x10 c:/program files/microchip/xc32/v4.60/bin/bin/../../lib/gcc/pic32c/8.3.1/../../../../pic32c/lib/thumb/v6-m/nofp\libg-musl.a(__fmt_fp.o)
 .debug_ranges  0x0000000000000d50       0x10 c:/program files/microchip/xc32/v4.60/bin/bin/../../lib/gcc/pic32c/8.3.1/../../../../pic32c/lib/thumb/v6-m/nofp\libg-musl.a(__fmt_s.o)
 .debug_ranges  0x0000000000000d60       0x10 c:/program files/microchip/xc32/v4.60/bin/bin/../../lib/gcc/pic32c/8.3.1/../../../../pic32c/lib/thumb/v6-m/nofp\libg-musl.a(__fmt_x.o)
 .debug_ranges  0x0000000000000d70       0x10 c:/program files/microchip/xc32/v4.60/bin/bin/../../lib/gcc/pic32c/8.3.1/../../../../pic32c/lib/thumb/v6-m/nofp\libg-musl.a(__pop_float.o)
 .debug_ranges  0x0000000000000d80       0x10 c:/program files/microchip/xc32/v4.60/bin/bin/../../lib/gcc/pic32c/8.3.1/../../../../pic32c/lib/thumb/v6-m/nofp\libg-musl.a(__pop_int.o)
 .debug_ranges  0x0000000000000d90       0x10 c:/program files/microchip/xc32/v4.60/bin/bin/../../lib/gcc/pic32c/8.3.1/../../../../pic32c/lib/thumb/v6-m/nofp\libg-musl.a(__pop_ptr.o)
 .debug_ranges  0x0000000000000da0       0x58 c:/program files/microchip/xc32/v4.60/bin/bin/../../lib/gcc/pic32c/8.3.1/../../../../pic32c/lib/thumb/v6-m/nofp\libg-musl.a(__printf_core.o)
 .debug_ranges  0x0000000000000df8       0x18 c:/program files/microchip/xc32/v4.60/bin/bin/../../lib/gcc/pic32c/8.3.1/../../../../pic32c/lib/thumb/v6-m/nofp\libg-musl.a(stdin.o)
 .debug_ranges  0x0000000000000e10       0x20 c:/program files/microchip/xc32/v4.60/bin/bin/../../lib/gcc/pic32c/8.3.1/../../../../pic32c/lib/thumb/v6-m/nofp\libg-musl.a(stdout.o)
 .debug_ranges  0x0000000000000e30       0x10 c:/program files/microchip/xc32/v4.60/bin/bin/../../lib/gcc/pic32c/8.3.1/../../../../pic32c/lib/thumb/v6-m/nofp\libg-musl.a(putchar.o)
 .debug_ranges  0x0000000000000e40       0x10 c:/program files/microchip/xc32/v4.60/bin/bin/../../lib/gcc/pic32c/8.3.1/../../../../pic32c/lib/thumb/v6-m/nofp\libg-musl.a(puts.o)
 .debug_ranges  0x0000000000000e50       0x10 c:/program files/microchip/xc32/v4.60/bin/bin/../../lib/gcc/pic32c/8.3.1/../../../../pic32c/lib/thumb/v6-m/nofp\libg-musl.a(setbuf.o)
 .debug_ranges  0x0000000000000e60       0x10 c:/program files/microchip/xc32/v4.60/bin/bin/../../lib/gcc/pic32c/8.3.1/../../../../pic32c/lib/thumb/v6-m/nofp\libg-musl.a(atoi.o)
 .debug_ranges  0x0000000000000e70       0x18 c:/program files/microchip/xc32/v4.60/bin/bin/../../lib/gcc/pic32c/8.3.1/../../../../pic32c/lib/thumb/v6-m/nofp\libg-musl.a(tolower.o)
 .debug_ranges  0x0000000000000e88       0x18 c:/program files/microchip/xc32/v4.60/bin/bin/../../lib/gcc/pic32c/8.3.1/../../../../pic32c/lib/thumb/v6-m/nofp\libg-musl.a(toupper.o)
 .debug_ranges  0x0000000000000ea0       0x10 c:/program files/microchip/xc32/v4.60/bin/bin/../../lib/gcc/pic32c/8.3.1/../../../../pic32c/lib/thumb/v6-m/nofp\libg-musl.a(__int_vfprintf.o)
 .debug_ranges  0x0000000000000eb0       0x10 c:/program files/microchip/xc32/v4.60/bin/bin/../../lib/gcc/pic32c/8.3.1/../../../../pic32c/lib/thumb/v6-m/nofp\libg-musl.a(__int_vsprintf.o)
 .debug_ranges  0x0000000000000ec0       0x10 c:/program files/microchip/xc32/v4.60/bin/bin/../../lib/gcc/pic32c/8.3.1/../../../../pic32c/lib/thumb/v6-m/nofp\libg-musl.a(fputs.o)
 .debug_ranges  0x0000000000000ed0       0x10 c:/program files/microchip/xc32/v4.60/bin/bin/../../lib/gcc/pic32c/8.3.1/../../../../pic32c/lib/thumb/v6-m/nofp\libg-musl.a(__cvt_u.o)
 .debug_ranges  0x0000000000000ee0       0x10 c:/program files/microchip/xc32/v4.60/bin/bin/../../lib/gcc/pic32c/8.3.1/../../../../pic32c/lib/thumb/v6-m/nofp\libg-musl.a(__stdio_read.o)
 .debug_ranges  0x0000000000000ef0       0x10 c:/program files/microchip/xc32/v4.60/bin/bin/../../lib/gcc/pic32c/8.3.1/../../../../pic32c/lib/thumb/v6-m/nofp\libg-musl.a(__towrite_rw.o)
 .debug_ranges  0x0000000000000f00       0x18 c:/program files/microchip/xc32/v4.60/bin/bin/../../lib/gcc/pic32c/8.3.1/../../../../pic32c/lib/thumb/v6-m/nofp\libg-musl.a(fwrite.o)
 .debug_ranges  0x0000000000000f18       0x20 c:/program files/microchip/xc32/v4.60/bin/bin/../../lib/gcc/pic32c/8.3.1/../../../../pic32c/lib/thumb/v6-m/nofp\libg-musl.a(putc.o)
 .debug_ranges  0x0000000000000f38       0x18 c:/program files/microchip/xc32/v4.60/bin/bin/../../lib/gcc/pic32c/8.3.1/../../../../pic32c/lib/thumb/v6-m/nofp\libg-musl.a(setvbuf.o)
 .debug_ranges  0x0000000000000f50       0x10 c:/program files/microchip/xc32/v4.60/bin/bin/../../lib/gcc/pic32c/8.3.1/../../../../pic32c/lib/thumb/v6-m/nofp\libg-musl.a(readv.o)
 .debug_ranges  0x0000000000000f60       0x10 c:/program files/microchip/xc32/v4.60/bin/bin/../../lib/gcc/pic32c/8.3.1/../../../../pic32c/lib/thumb/v6-m/nofp\libg-musl.a(__int_vsnprintf.o)
 .debug_ranges  0x0000000000000f70       0x18 c:/program files/microchip/xc32/v4.60/bin/bin/../../lib/gcc/pic32c/8.3.1/../../../../pic32c/lib/thumb/v6-m/nofp\libg-musl.a(__init_stdio.o)
 .debug_ranges  0x0000000000000f88       0x18 c:/program files/microchip/xc32/v4.60/bin/bin/../../lib/gcc/pic32c/8.3.1/../../../../pic32c/lib/thumb/v6-m/nofp\libg-musl.a(__out.o)
 .debug_ranges  0x0000000000000fa0       0x10 c:/program files/microchip/xc32/v4.60/bin/bin/../../lib/gcc/pic32c/8.3.1/../../../../pic32c/lib/thumb/v6-m/nofp\libg-musl.a(__putc.o)
 .debug_ranges  0x0000000000000fb0       0x20 c:/program files/microchip/xc32/v4.60/bin/bin/../../lib/gcc/pic32c/8.3.1/../../../../pic32c/lib/thumb/v6-m/nofp\libg-musl.a(__stderr.o)
 .debug_ranges  0x0000000000000fd0       0x18 c:/program files/microchip/xc32/v4.60/bin/bin/../../lib/gcc/pic32c/8.3.1/../../../../pic32c/lib/thumb/v6-m/nofp\libg-musl.a(__stdio_close.o)
 .debug_ranges  0x0000000000000fe8       0x30 c:/program files/microchip/xc32/v4.60/bin/bin/../../lib/gcc/pic32c/8.3.1/../../../../pic32c/lib/thumb/v6-m/nofp\libg-musl.a(__stdio_write.o)
 .debug_ranges  0x0000000000001018       0x20 c:/program files/microchip/xc32/v4.60/bin/bin/../../lib/gcc/pic32c/8.3.1/../../../../pic32c/lib/thumb/v6-m/nofp\libg-musl.a(__stdout.o)
 .debug_ranges  0x0000000000001038       0x18 c:/program files/microchip/xc32/v4.60/bin/bin/../../lib/gcc/pic32c/8.3.1/../../../../pic32c/lib/thumb/v6-m/nofp\libg-musl.a(__towrite.o)
 .debug_ranges  0x0000000000001050       0x10 c:/program files/microchip/xc32/v4.60/bin/bin/../../lib/gcc/pic32c/8.3.1/../../../../pic32c/lib/thumb/v6-m/nofp\libg-musl.a(writev.o)
 .debug_ranges  0x0000000000001060       0x10 c:/program files/microchip/xc32/v4.60/bin/bin/../../lib/gcc/pic32c/8.3.1/../../../../pic32c/lib/thumb/v6-m/nofp\libg-musl.a(__overflow.o)
 .debug_ranges  0x0000000000001070       0x18 c:/program files/microchip/xc32/v4.60/bin/bin/../../lib/gcc/pic32c/8.3.1/../../../../pic32c/lib/thumb/v6-m/nofp\libg-musl.a(__fwrite.o)
 .debug_ranges  0x0000000000001088       0x28 c:/program files/microchip/xc32/v4.60/bin/bin/../../lib/gcc/pic32c/8.3.1/thumb/v6-m/nofp\libgcc.a(_muldi3.o)
 .debug_ranges  0x00000000000010b0       0x20 c:/program files/microchip/xc32/v4.60/bin/bin/../../lib/gcc/pic32c/8.3.1/thumb/v6-m/nofp\libgcc.a(_divdi3.o)
 .debug_ranges  0x00000000000010d0       0x10 c:/program files/microchip/xc32/v4.60/bin/bin/../../lib/gcc/pic32c/8.3.1/../../../../pic32c/lib/thumb/v6-m/nofp\libpic32c.a(close.o)
 .debug_ranges  0x00000000000010e0       0x10 c:/program files/microchip/xc32/v4.60/bin/bin/../../lib/gcc/pic32c/8.3.1/../../../../pic32c/lib/thumb/v6-m/nofp\libpic32c.a(lseek.o)
 .debug_ranges  0x00000000000010f0       0x10 c:/program files/microchip/xc32/v4.60/bin/bin/../../lib/gcc/pic32c/8.3.1/../../../../pic32c/lib/thumb/v6-m/nofp\libpic32c.a(read.o)
 .debug_ranges  0x0000000000001100       0x10 c:/program files/microchip/xc32/v4.60/bin/bin/../../lib/gcc/pic32c/8.3.1/../../../../pic32c/lib/thumb/v6-m/nofp\libpic32c.a(write.o)
 .debug_ranges  0x0000000000001110       0x10 c:/program files/microchip/xc32/v4.60/bin/bin/../../lib/gcc/pic32c/8.3.1/../../../../pic32c/lib/thumb/v6-m/nofp\libc-size-musl.a(strlen.o)
 .debug_ranges  0x0000000000001120       0x10 c:/program files/microchip/xc32/v4.60/bin/bin/../../lib/gcc/pic32c/8.3.1/../../../../pic32c/lib/thumb/v6-m/nofp\libc-size-musl.a(strcpy.o)
 .debug_ranges  0x0000000000001130       0x10 c:/program files/microchip/xc32/v4.60/bin/bin/../../lib/gcc/pic32c/8.3.1/../../../../pic32c/lib/thumb/v6-m/nofp\libc-size-musl.a(stpcpy.o)
 .debug_ranges  0x0000000000001140       0x10 c:/program files/microchip/xc32/v4.60/bin/bin/../../lib/gcc/pic32c/8.3.1/../../../../pic32c/lib/thumb/v6-m/nofp\liblmalloc-musl.a(lite_malloc.o)
 .debug_ranges  0x0000000000001150       0x38 c:/program files/microchip/xc32/v4.60/bin/bin/../../lib/gcc/pic32c/8.3.1/../../../../pic32c/lib/thumb/v6-m/nofp\liblmalloc-musl.a(lite_free.o)
 .debug_ranges  0x0000000000001188       0x10 c:/program files/microchip/xc32/v4.60/bin/bin/../../lib/gcc/pic32c/8.3.1/../../../../pic32c/lib/thumb/v6-m/nofp\libg-musl.a(expand_heap.o)
 .debug_ranges  0x0000000000001198       0x20 c:/program files/microchip/xc32/v4.60/bin/bin/../../lib/gcc/pic32c/8.3.1/../../../../pic32c/lib/thumb/v6-m/nofp\libpic32c.a(sbrk.o)
 .debug_ranges  0x00000000000011b8       0x10 c:/program files/microchip/xc32/v4.60/bin/bin/../../lib/gcc/pic32c/8.3.1/../../../../pic32c/lib/thumb/v6-m/nofp\libpic32c.a(pic32_data_init_clear.o)
 .debug_ranges  0x00000000000011c8       0x10 c:/program files/microchip/xc32/v4.60/bin/bin/../../lib/gcc/pic32c/8.3.1/../../../../pic32c/lib/thumb/v6-m/nofp\libpic32c.a(pic32_data_init_copy.o)

.debug_line     0x0000000000000000    0x11526
 .debug_line    0x0000000000000000      0x460 build/SAMD21_IOT_WG_ICM42688/debug/_ext/2048461350/icm42688_sensor.o
 .debug_line    0x0000000000000460      0x237 build/SAMD21_IOT_WG_ICM42688/debug/_ext/1750425231/plib_clock.o
 .debug_line    0x0000000000000697      0x24a build/SAMD21_IOT_WG_ICM42688/debug/_ext/503204096/plib_eic.o
 .debug_line    0x00000000000008e1       0x75 build/SAMD21_IOT_WG_ICM42688/debug/_ext/1752574717/plib_evsys.o
 .debug_line    0x0000000000000956      0x336 build/SAMD21_IOT_WG_ICM42688/debug/_ext/1580823105/plib_nvic.o
 .debug_line    0x0000000000000c8c      0x258 build/SAMD21_IOT_WG_ICM42688/debug/_ext/11470383/plib_nvmctrl.o
 .debug_line    0x0000000000000ee4      0x2be build/SAMD21_IOT_WG_ICM42688/debug/_ext/1580876256/plib_port.o
 .debug_line    0x00000000000011a2      0x4e3 build/SAMD21_IOT_WG_ICM42688/debug/_ext/1014017276/plib_sercom0_spi_master.o
 .debug_line    0x0000000000001685      0x582 build/SAMD21_IOT_WG_ICM42688/debug/_ext/177673482/plib_sercom5_usart.o
 .debug_line    0x0000000000001c07      0x274 build/SAMD21_IOT_WG_ICM42688/debug/_ext/223004715/plib_systick.o
 .debug_line    0x0000000000001e7b      0x26d build/SAMD21_IOT_WG_ICM42688/debug/_ext/399410062/plib_tc3.o
 .debug_line    0x00000000000020e8       0xfa build/SAMD21_IOT_WG_ICM42688/debug/_ext/1357625803/xc32_monitor.o
 .debug_line    0x00000000000021e2      0x449 build/SAMD21_IOT_WG_ICM42688/debug/_ext/1832905403/initialization.o
 .debug_line    0x000000000000262b       0xc9 build/SAMD21_IOT_WG_ICM42688/debug/_ext/1832905403/interrupts.o
 .debug_line    0x00000000000026f4       0x6a build/SAMD21_IOT_WG_ICM42688/debug/_ext/1832905403/exceptions.o
 .debug_line    0x000000000000275e      0x16f build/SAMD21_IOT_WG_ICM42688/debug/_ext/1832905403/startup_xc32.o
 .debug_line    0x00000000000028cd     0x2865 build/SAMD21_IOT_WG_ICM42688/debug/_ext/1341251756/Icm426xxDriver_HL.o
 .debug_line    0x0000000000005132      0x2f1 build/SAMD21_IOT_WG_ICM42688/debug/_ext/1341251756/Icm426xxTransport.o
 .debug_line    0x0000000000005423      0x603 build/SAMD21_IOT_WG_ICM42688/debug/_ext/1360937237/main.o
 .debug_line    0x0000000000005a26      0x4eb build/SAMD21_IOT_WG_ICM42688/debug/_ext/1360937237/ringbuffer.o
 .debug_line    0x0000000000005f11      0x16d build/SAMD21_IOT_WG_ICM42688/debug/_ext/26920679/fg_area_absolute_area_high_frequency.o
 .debug_line    0x000000000000607e      0x162 build/SAMD21_IOT_WG_ICM42688/debug/_ext/26920679/fg_area_total_area_low_frequency.o
 .debug_line    0x00000000000061e0      0x100 build/SAMD21_IOT_WG_ICM42688/debug/_ext/26920679/fg_cross_p2p_difference.o
 .debug_line    0x00000000000062e0      0x167 build/SAMD21_IOT_WG_ICM42688/debug/_ext/26920679/fg_cross_peak_location_difference.o
 .debug_line    0x0000000000006447      0x150 build/SAMD21_IOT_WG_ICM42688/debug/_ext/26920679/fg_stats_abs_mean.o
 .debug_line    0x0000000000006597      0x14a build/SAMD21_IOT_WG_ICM42688/debug/_ext/26920679/fg_stats_pct075.o
 .debug_line    0x00000000000066e1      0x1bc build/SAMD21_IOT_WG_ICM42688/debug/_ext/26920679/fg_stats_skewness.o
 .debug_line    0x000000000000689d     0x147a build/SAMD21_IOT_WG_ICM42688/debug/_ext/26920679/kb.o
 .debug_line    0x0000000000007d17      0x495 build/SAMD21_IOT_WG_ICM42688/debug/_ext/26920679/kb_output.o
 .debug_line    0x00000000000081ac      0x491 build/SAMD21_IOT_WG_ICM42688/debug/_ext/26920679/kb_pipeline.o
 .debug_line    0x000000000000863d      0x437 build/SAMD21_IOT_WG_ICM42688/debug/_ext/26920679/ma_symmetric.o
 .debug_line    0x0000000000008a74      0x170 build/SAMD21_IOT_WG_ICM42688/debug/_ext/26920679/mean.o
 .debug_line    0x0000000000008be4      0x4b5 build/SAMD21_IOT_WG_ICM42688/debug/_ext/26920679/rb.o
 .debug_line    0x0000000000009099       0xf4 build/SAMD21_IOT_WG_ICM42688/debug/_ext/26920679/save_sensor_data.o
 .debug_line    0x000000000000918d      0x112 build/SAMD21_IOT_WG_ICM42688/debug/_ext/26920679/sg_windowing.o
 .debug_line    0x000000000000929f      0x11c build/SAMD21_IOT_WG_ICM42688/debug/_ext/26920679/sortarray.o
 .debug_line    0x00000000000093bb      0x103 build/SAMD21_IOT_WG_ICM42688/debug/_ext/26920679/sorted_copy.o
 .debug_line    0x00000000000094be      0x1bc build/SAMD21_IOT_WG_ICM42688/debug/_ext/26920679/stats_percentile_presorted.o
 .debug_line    0x000000000000967a      0x2f8 build/SAMD21_IOT_WG_ICM42688/debug/_ext/26920679/stat_moment.o
 .debug_line    0x0000000000009972      0x2c7 build/SAMD21_IOT_WG_ICM42688/debug/_ext/26920679/tree_ensemble.o
 .debug_line    0x0000000000009c39       0xe1 build/SAMD21_IOT_WG_ICM42688/debug/_ext/26920679/tree_ensemble_trained_models.o
 .debug_line    0x0000000000009d1a      0x179 build/SAMD21_IOT_WG_ICM42688/debug/_ext/26920679/tr_min_max_scale.o
 .debug_line    0x0000000000009e93      0x15f build/SAMD21_IOT_WG_ICM42688/debug/_ext/26920679/tr_sensor_magnitude.o
 .debug_line    0x0000000000009ff2       0xed build/SAMD21_IOT_WG_ICM42688/debug/_ext/26920679/utils_buffer_abssum.o
 .debug_line    0x000000000000a0df      0x110 build/SAMD21_IOT_WG_ICM42688/debug/_ext/26920679/utils_buffer_argmax.o
 .debug_line    0x000000000000a1ef      0x1ae build/SAMD21_IOT_WG_ICM42688/debug/_ext/26920679/utils_buffer_cumsum.o
 .debug_line    0x000000000000a39d      0x16a build/SAMD21_IOT_WG_ICM42688/debug/_ext/26920679/utils_model_cross_difference.o
 .debug_line    0x000000000000a507       0xe8 build/SAMD21_IOT_WG_ICM42688/debug/_ext/26920679/utils_tr_sensor.o
 .debug_line    0x000000000000a5ef      0x14d build/SAMD21_IOT_WG_ICM42688/debug/_ext/741007211/sml_recognition_run.o
 .debug_line    0x000000000000a73c       0xa5 c:/program files/microchip/xc32/v4.60/bin/bin/../../lib/gcc/pic32c/8.3.1/../../../../pic32c/lib/thumb/v6-m/nofp\libpic32c.a(data_init.o)
 .debug_line    0x000000000000a7e1       0xee c:/program files/microchip/xc32/v4.60/bin/bin/../../lib/gcc/pic32c/8.3.1/../../../../pic32c/lib/thumb/v6-m/nofp\libc-size-musl.a(memcpy.o)
 .debug_line    0x000000000000a8cf       0xe3 c:/program files/microchip/xc32/v4.60/bin/bin/../../lib/gcc/pic32c/8.3.1/../../../../pic32c/lib/thumb/v6-m/nofp\libc-size-musl.a(memset.o)
 .debug_line    0x000000000000a9b2      0x1bc c:/program files/microchip/xc32/v4.60/bin/bin/../../lib/gcc/pic32c/8.3.1/../../../../pic32c/lib/thumb/v6-m/nofp\libg-musl.a(__libc_start_main.o)
 .debug_line    0x000000000000ab6e       0x9a c:/program files/microchip/xc32/v4.60/bin/bin/../../lib/gcc/pic32c/8.3.1/../../../../pic32c/lib/thumb/v6-m/nofp\libg-musl.a(__errno_location.o)
 .debug_line    0x000000000000ac08       0xb5 c:/program files/microchip/xc32/v4.60/bin/bin/../../lib/gcc/pic32c/8.3.1/../../../../pic32c/lib/thumb/v6-m/nofp\libg-musl.a(libc.o)
 .debug_line    0x000000000000acbd      0x1c8 c:/program files/microchip/xc32/v4.60/bin/bin/../../lib/gcc/pic32c/8.3.1/../../../../pic32c/lib/thumb/v6-m/nofp\libg-musl.a(__sio_printf_cdeEfFgGnpsxX.o)
 .debug_line    0x000000000000ae85      0x1b1 c:/program files/microchip/xc32/v4.60/bin/bin/../../lib/gcc/pic32c/8.3.1/../../../../pic32c/lib/thumb/v6-m/nofp\libg-musl.a(__sio_sprintf_cdeEfFgGnpsxX.o)
 .debug_line    0x000000000000b036      0x20b c:/program files/microchip/xc32/v4.60/bin/bin/../../lib/gcc/pic32c/8.3.1/../../../../pic32c/lib/thumb/v6-m/nofp\libg-musl.a(__fmt_d.o)
 .debug_line    0x000000000000b241      0x66d c:/program files/microchip/xc32/v4.60/bin/bin/../../lib/gcc/pic32c/8.3.1/../../../../pic32c/lib/thumb/v6-m/nofp\libg-musl.a(__fmt_fp.o)
 .debug_line    0x000000000000b8ae      0x204 c:/program files/microchip/xc32/v4.60/bin/bin/../../lib/gcc/pic32c/8.3.1/../../../../pic32c/lib/thumb/v6-m/nofp\libg-musl.a(__fmt_s.o)
 .debug_line    0x000000000000bab2      0x2ec c:/program files/microchip/xc32/v4.60/bin/bin/../../lib/gcc/pic32c/8.3.1/../../../../pic32c/lib/thumb/v6-m/nofp\libg-musl.a(__fmt_x.o)
 .debug_line    0x000000000000bd9e      0x166 c:/program files/microchip/xc32/v4.60/bin/bin/../../lib/gcc/pic32c/8.3.1/../../../../pic32c/lib/thumb/v6-m/nofp\libg-musl.a(__pop_float.o)
 .debug_line    0x000000000000bf04      0x211 c:/program files/microchip/xc32/v4.60/bin/bin/../../lib/gcc/pic32c/8.3.1/../../../../pic32c/lib/thumb/v6-m/nofp\libg-musl.a(__pop_int.o)
 .debug_line    0x000000000000c115      0x1c8 c:/program files/microchip/xc32/v4.60/bin/bin/../../lib/gcc/pic32c/8.3.1/../../../../pic32c/lib/thumb/v6-m/nofp\libg-musl.a(__pop_ptr.o)
 .debug_line    0x000000000000c2dd      0x6c7 c:/program files/microchip/xc32/v4.60/bin/bin/../../lib/gcc/pic32c/8.3.1/../../../../pic32c/lib/thumb/v6-m/nofp\libg-musl.a(__printf_core.o)
 .debug_line    0x000000000000c9a4      0x1cf c:/program files/microchip/xc32/v4.60/bin/bin/../../lib/gcc/pic32c/8.3.1/../../../../pic32c/lib/thumb/v6-m/nofp\libg-musl.a(stdin.o)
 .debug_line    0x000000000000cb73      0x191 c:/program files/microchip/xc32/v4.60/bin/bin/../../lib/gcc/pic32c/8.3.1/../../../../pic32c/lib/thumb/v6-m/nofp\libg-musl.a(stdout.o)
 .debug_line    0x000000000000cd04      0x13a c:/program files/microchip/xc32/v4.60/bin/bin/../../lib/gcc/pic32c/8.3.1/../../../../pic32c/lib/thumb/v6-m/nofp\libg-musl.a(putchar.o)
 .debug_line    0x000000000000ce3e      0x1c6 c:/program files/microchip/xc32/v4.60/bin/bin/../../lib/gcc/pic32c/8.3.1/../../../../pic32c/lib/thumb/v6-m/nofp\libg-musl.a(puts.o)
 .debug_line    0x000000000000d004      0x133 c:/program files/microchip/xc32/v4.60/bin/bin/../../lib/gcc/pic32c/8.3.1/../../../../pic32c/lib/thumb/v6-m/nofp\libg-musl.a(setbuf.o)
 .debug_line    0x000000000000d137      0x173 c:/program files/microchip/xc32/v4.60/bin/bin/../../lib/gcc/pic32c/8.3.1/../../../../pic32c/lib/thumb/v6-m/nofp\libg-musl.a(atoi.o)
 .debug_line    0x000000000000d2aa      0x15c c:/program files/microchip/xc32/v4.60/bin/bin/../../lib/gcc/pic32c/8.3.1/../../../../pic32c/lib/thumb/v6-m/nofp\libg-musl.a(tolower.o)
 .debug_line    0x000000000000d406      0x15c c:/program files/microchip/xc32/v4.60/bin/bin/../../lib/gcc/pic32c/8.3.1/../../../../pic32c/lib/thumb/v6-m/nofp\libg-musl.a(toupper.o)
 .debug_line    0x000000000000d562       0xfb c:/program files/microchip/xc32/v4.60/bin/bin/../../lib/gcc/pic32c/8.3.1/../../../../pic32c/lib/thumb/v6-m/nofp\libg-musl.a(__environ.o)
 .debug_line    0x000000000000d65d      0x172 c:/program files/microchip/xc32/v4.60/bin/bin/../../lib/gcc/pic32c/8.3.1/../../../../pic32c/lib/thumb/v6-m/nofp\libg-musl.a(__int_vfprintf.o)
 .debug_line    0x000000000000d7cf      0x153 c:/program files/microchip/xc32/v4.60/bin/bin/../../lib/gcc/pic32c/8.3.1/../../../../pic32c/lib/thumb/v6-m/nofp\libg-musl.a(__int_vsprintf.o)
 .debug_line    0x000000000000d922      0x236 c:/program files/microchip/xc32/v4.60/bin/bin/../../lib/gcc/pic32c/8.3.1/../../../../pic32c/lib/thumb/v6-m/nofp\libg-musl.a(fputs.o)
 .debug_line    0x000000000000db58      0x1d7 c:/program files/microchip/xc32/v4.60/bin/bin/../../lib/gcc/pic32c/8.3.1/../../../../pic32c/lib/thumb/v6-m/nofp\libg-musl.a(__cvt_u.o)
 .debug_line    0x000000000000dd2f      0x240 c:/program files/microchip/xc32/v4.60/bin/bin/../../lib/gcc/pic32c/8.3.1/../../../../pic32c/lib/thumb/v6-m/nofp\libg-musl.a(__stdio_read.o)
 .debug_line    0x000000000000df6f      0x1eb c:/program files/microchip/xc32/v4.60/bin/bin/../../lib/gcc/pic32c/8.3.1/../../../../pic32c/lib/thumb/v6-m/nofp\libg-musl.a(__towrite_rw.o)
 .debug_line    0x000000000000e15a      0x1f5 c:/program files/microchip/xc32/v4.60/bin/bin/../../lib/gcc/pic32c/8.3.1/../../../../pic32c/lib/thumb/v6-m/nofp\libg-musl.a(fwrite.o)
 .debug_line    0x000000000000e34f      0x1a3 c:/program files/microchip/xc32/v4.60/bin/bin/../../lib/gcc/pic32c/8.3.1/../../../../pic32c/lib/thumb/v6-m/nofp\libg-musl.a(putc.o)
 .debug_line    0x000000000000e4f2      0x223 c:/program files/microchip/xc32/v4.60/bin/bin/../../lib/gcc/pic32c/8.3.1/../../../../pic32c/lib/thumb/v6-m/nofp\libg-musl.a(setvbuf.o)
 .debug_line    0x000000000000e715      0x15c c:/program files/microchip/xc32/v4.60/bin/bin/../../lib/gcc/pic32c/8.3.1/../../../../pic32c/lib/thumb/v6-m/nofp\libg-musl.a(readv.o)
 .debug_line    0x000000000000e871      0x1c7 c:/program files/microchip/xc32/v4.60/bin/bin/../../lib/gcc/pic32c/8.3.1/../../../../pic32c/lib/thumb/v6-m/nofp\libg-musl.a(__int_vsnprintf.o)
 .debug_line    0x000000000000ea38       0xd0 c:/program files/microchip/xc32/v4.60/bin/bin/../../lib/gcc/pic32c/8.3.1/../../../../pic32c/lib/thumb/v6-m/nofp\libg-musl.a(__init_stdio.o)
 .debug_line    0x000000000000eb08      0x28f c:/program files/microchip/xc32/v4.60/bin/bin/../../lib/gcc/pic32c/8.3.1/../../../../pic32c/lib/thumb/v6-m/nofp\libg-musl.a(__out.o)
 .debug_line    0x000000000000ed97      0x15b c:/program files/microchip/xc32/v4.60/bin/bin/../../lib/gcc/pic32c/8.3.1/../../../../pic32c/lib/thumb/v6-m/nofp\libg-musl.a(__putc.o)
 .debug_line    0x000000000000eef2      0x1da c:/program files/microchip/xc32/v4.60/bin/bin/../../lib/gcc/pic32c/8.3.1/../../../../pic32c/lib/thumb/v6-m/nofp\libg-musl.a(__stderr.o)
 .debug_line    0x000000000000f0cc      0x2de c:/program files/microchip/xc32/v4.60/bin/bin/../../lib/gcc/pic32c/8.3.1/../../../../pic32c/lib/thumb/v6-m/nofp\libg-musl.a(__stdio_close.o)
 .debug_line    0x000000000000f3aa      0x339 c:/program files/microchip/xc32/v4.60/bin/bin/../../lib/gcc/pic32c/8.3.1/../../../../pic32c/lib/thumb/v6-m/nofp\libg-musl.a(__stdio_write.o)
 .debug_line    0x000000000000f6e3      0x1da c:/program files/microchip/xc32/v4.60/bin/bin/../../lib/gcc/pic32c/8.3.1/../../../../pic32c/lib/thumb/v6-m/nofp\libg-musl.a(__stdout.o)
 .debug_line    0x000000000000f8bd      0x180 c:/program files/microchip/xc32/v4.60/bin/bin/../../lib/gcc/pic32c/8.3.1/../../../../pic32c/lib/thumb/v6-m/nofp\libg-musl.a(__towrite.o)
 .debug_line    0x000000000000fa3d      0x15d c:/program files/microchip/xc32/v4.60/bin/bin/../../lib/gcc/pic32c/8.3.1/../../../../pic32c/lib/thumb/v6-m/nofp\libg-musl.a(writev.o)
 .debug_line    0x000000000000fb9a      0x1fb c:/program files/microchip/xc32/v4.60/bin/bin/../../lib/gcc/pic32c/8.3.1/../../../../pic32c/lib/thumb/v6-m/nofp\libg-musl.a(__overflow.o)
 .debug_line    0x000000000000fd95      0x1e4 c:/program files/microchip/xc32/v4.60/bin/bin/../../lib/gcc/pic32c/8.3.1/../../../../pic32c/lib/thumb/v6-m/nofp\libg-musl.a(__fwrite.o)
 .debug_line    0x000000000000ff79       0xa8 c:/program files/microchip/xc32/v4.60/bin/bin/../../lib/gcc/pic32c/8.3.1/thumb/v6-m/nofp\libgcc.a(_udivsi3.o)
 .debug_line    0x0000000000010021       0xb6 c:/program files/microchip/xc32/v4.60/bin/bin/../../lib/gcc/pic32c/8.3.1/thumb/v6-m/nofp\libgcc.a(_divsi3.o)
 .debug_line    0x00000000000100d7       0x91 c:/program files/microchip/xc32/v4.60/bin/bin/../../lib/gcc/pic32c/8.3.1/thumb/v6-m/nofp\libgcc.a(_dvmd_tls.o)
 .debug_line    0x0000000000010168       0x9c c:/program files/microchip/xc32/v4.60/bin/bin/../../lib/gcc/pic32c/8.3.1/thumb/v6-m/nofp\libgcc.a(_aeabi_ldivmod.o)
 .debug_line    0x0000000000010204       0x9c c:/program files/microchip/xc32/v4.60/bin/bin/../../lib/gcc/pic32c/8.3.1/thumb/v6-m/nofp\libgcc.a(_aeabi_uldivmod.o)
 .debug_line    0x00000000000102a0       0xe7 c:/program files/microchip/xc32/v4.60/bin/bin/../../lib/gcc/pic32c/8.3.1/thumb/v6-m/nofp\libgcc.a(_muldi3.o)
 .debug_line    0x0000000000010387      0x188 c:/program files/microchip/xc32/v4.60/bin/bin/../../lib/gcc/pic32c/8.3.1/thumb/v6-m/nofp\libgcc.a(_udivmoddi4.o)
 .debug_line    0x000000000001050f       0xb9 c:/program files/microchip/xc32/v4.60/bin/bin/../../lib/gcc/pic32c/8.3.1/thumb/v6-m/nofp\libgcc.a(bpabi.o)
 .debug_line    0x00000000000105c8       0x9c c:/program files/microchip/xc32/v4.60/bin/bin/../../lib/gcc/pic32c/8.3.1/thumb/v6-m/nofp\libgcc.a(_lshrdi3.o)
 .debug_line    0x0000000000010664       0x9c c:/program files/microchip/xc32/v4.60/bin/bin/../../lib/gcc/pic32c/8.3.1/thumb/v6-m/nofp\libgcc.a(_ashldi3.o)
 .debug_line    0x0000000000010700       0x9b c:/program files/microchip/xc32/v4.60/bin/bin/../../lib/gcc/pic32c/8.3.1/thumb/v6-m/nofp\libgcc.a(_clzdi2.o)
 .debug_line    0x000000000001079b      0x1d9 c:/program files/microchip/xc32/v4.60/bin/bin/../../lib/gcc/pic32c/8.3.1/thumb/v6-m/nofp\libgcc.a(_divdi3.o)
 .debug_line    0x0000000000010974       0xa5 c:/program files/microchip/xc32/v4.60/bin/bin/../../lib/gcc/pic32c/8.3.1/thumb/v6-m/nofp\libgcc.a(_clzsi2.o)
 .debug_line    0x0000000000010a19       0x5c c:/program files/microchip/xc32/v4.60/bin/bin/../../lib/gcc/pic32c/8.3.1/../../../../pic32c/lib/thumb/v6-m/nofp\libpic32c.a(close.o)
 .debug_line    0x0000000000010a75       0x59 c:/program files/microchip/xc32/v4.60/bin/bin/../../lib/gcc/pic32c/8.3.1/../../../../pic32c/lib/thumb/v6-m/nofp\libpic32c.a(lseek.o)
 .debug_line    0x0000000000010ace       0x7a c:/program files/microchip/xc32/v4.60/bin/bin/../../lib/gcc/pic32c/8.3.1/../../../../pic32c/lib/thumb/v6-m/nofp\libpic32c.a(read.o)
 .debug_line    0x0000000000010b48       0x84 c:/program files/microchip/xc32/v4.60/bin/bin/../../lib/gcc/pic32c/8.3.1/../../../../pic32c/lib/thumb/v6-m/nofp\libpic32c.a(write.o)
 .debug_line    0x0000000000010bcc       0xee c:/program files/microchip/xc32/v4.60/bin/bin/../../lib/gcc/pic32c/8.3.1/../../../../pic32c/lib/thumb/v6-m/nofp\libc-size-musl.a(strlen.o)
 .debug_line    0x0000000000010cba       0xb2 c:/program files/microchip/xc32/v4.60/bin/bin/../../lib/gcc/pic32c/8.3.1/../../../../pic32c/lib/thumb/v6-m/nofp\libc-size-musl.a(strcpy.o)
 .debug_line    0x0000000000010d6c       0xc1 c:/program files/microchip/xc32/v4.60/bin/bin/../../lib/gcc/pic32c/8.3.1/../../../../pic32c/lib/thumb/v6-m/nofp\libc-size-musl.a(stpcpy.o)
 .debug_line    0x0000000000010e2d      0x1d3 c:/program files/microchip/xc32/v4.60/bin/bin/../../lib/gcc/pic32c/8.3.1/../../../../pic32c/lib/thumb/v6-m/nofp\liblmalloc-musl.a(lite_malloc.o)
 .debug_line    0x0000000000011000      0x266 c:/program files/microchip/xc32/v4.60/bin/bin/../../lib/gcc/pic32c/8.3.1/../../../../pic32c/lib/thumb/v6-m/nofp\liblmalloc-musl.a(lite_free.o)
 .debug_line    0x0000000000011266       0xec c:/program files/microchip/xc32/v4.60/bin/bin/../../lib/gcc/pic32c/8.3.1/../../../../pic32c/lib/thumb/v6-m/nofp\libg-musl.a(expand_heap.o)
 .debug_line    0x0000000000011352       0xdd c:/program files/microchip/xc32/v4.60/bin/bin/../../lib/gcc/pic32c/8.3.1/../../../../pic32c/lib/thumb/v6-m/nofp\libpic32c.a(sbrk.o)
 .debug_line    0x000000000001142f       0x6f c:/program files/microchip/xc32/v4.60/bin/bin/../../lib/gcc/pic32c/8.3.1/../../../../pic32c/lib/thumb/v6-m/nofp\libpic32c.a(pic32_data_init_clear.o)
 .debug_line    0x000000000001149e       0x88 c:/program files/microchip/xc32/v4.60/bin/bin/../../lib/gcc/pic32c/8.3.1/../../../../pic32c/lib/thumb/v6-m/nofp\libpic32c.a(pic32_data_init_copy.o)

.debug_str      0x0000000000000000    0x1fda9
 .debug_str     0x0000000000000000     0x1048 build/SAMD21_IOT_WG_ICM42688/debug/_ext/2048461350/icm42688_sensor.o
 .debug_str     0x0000000000001048      0x5bc build/SAMD21_IOT_WG_ICM42688/debug/_ext/1750425231/plib_clock.o
 .debug_str     0x0000000000001604      0x423 build/SAMD21_IOT_WG_ICM42688/debug/_ext/503204096/plib_eic.o
 .debug_str     0x0000000000001a27      0x2af build/SAMD21_IOT_WG_ICM42688/debug/_ext/1752574717/plib_evsys.o
 .debug_str     0x0000000000001cd6      0x563 build/SAMD21_IOT_WG_ICM42688/debug/_ext/1580823105/plib_nvic.o
 .debug_str     0x0000000000002239      0x47d build/SAMD21_IOT_WG_ICM42688/debug/_ext/11470383/plib_nvmctrl.o
 .debug_str     0x00000000000026b6      0x785 build/SAMD21_IOT_WG_ICM42688/debug/_ext/1580876256/plib_port.o
 .debug_str     0x0000000000002e3b      0x6e0 build/SAMD21_IOT_WG_ICM42688/debug/_ext/1014017276/plib_sercom0_spi_master.o
 .debug_str     0x000000000000351b      0x864 build/SAMD21_IOT_WG_ICM42688/debug/_ext/177673482/plib_sercom5_usart.o
 .debug_str     0x0000000000003d7f      0x43c build/SAMD21_IOT_WG_ICM42688/debug/_ext/223004715/plib_systick.o
 .debug_str     0x00000000000041bb      0x5fc build/SAMD21_IOT_WG_ICM42688/debug/_ext/399410062/plib_tc3.o
 .debug_str     0x00000000000047b7      0x2e7 build/SAMD21_IOT_WG_ICM42688/debug/_ext/1357625803/xc32_monitor.o
 .debug_str     0x0000000000004a9e      0x488 build/SAMD21_IOT_WG_ICM42688/debug/_ext/1832905403/initialization.o
 .debug_str     0x0000000000004f26      0x5b6 build/SAMD21_IOT_WG_ICM42688/debug/_ext/1832905403/interrupts.o
 .debug_str     0x00000000000054dc      0x2bc build/SAMD21_IOT_WG_ICM42688/debug/_ext/1832905403/exceptions.o
 .debug_str     0x0000000000005798      0x32f build/SAMD21_IOT_WG_ICM42688/debug/_ext/1832905403/startup_xc32.o
 .debug_str     0x0000000000005ac7     0x25cb build/SAMD21_IOT_WG_ICM42688/debug/_ext/1341251756/Icm426xxDriver_HL.o
 .debug_str     0x0000000000008092      0x563 build/SAMD21_IOT_WG_ICM42688/debug/_ext/1341251756/Icm426xxTransport.o
 .debug_str     0x00000000000085f5      0xd66 build/SAMD21_IOT_WG_ICM42688/debug/_ext/1360937237/main.o
 .debug_str     0x000000000000935b      0x429 build/SAMD21_IOT_WG_ICM42688/debug/_ext/1360937237/ringbuffer.o
 .debug_str     0x0000000000009784      0x780 build/SAMD21_IOT_WG_ICM42688/debug/_ext/26920679/fg_area_absolute_area_high_frequency.o
 .debug_str     0x0000000000009f04      0x778 build/SAMD21_IOT_WG_ICM42688/debug/_ext/26920679/fg_area_total_area_low_frequency.o
 .debug_str     0x000000000000a67c      0x674 build/SAMD21_IOT_WG_ICM42688/debug/_ext/26920679/fg_cross_p2p_difference.o
 .debug_str     0x000000000000acf0      0x68b build/SAMD21_IOT_WG_ICM42688/debug/_ext/26920679/fg_cross_peak_location_difference.o
 .debug_str     0x000000000000b37b      0x66e build/SAMD21_IOT_WG_ICM42688/debug/_ext/26920679/fg_stats_abs_mean.o
 .debug_str     0x000000000000b9e9      0x671 build/SAMD21_IOT_WG_ICM42688/debug/_ext/26920679/fg_stats_pct075.o
 .debug_str     0x000000000000c05a      0x655 build/SAMD21_IOT_WG_ICM42688/debug/_ext/26920679/fg_stats_skewness.o
 .debug_str     0x000000000000c6af      0xf16 build/SAMD21_IOT_WG_ICM42688/debug/_ext/26920679/kb.o
 .debug_str     0x000000000000d5c5      0x59c build/SAMD21_IOT_WG_ICM42688/debug/_ext/26920679/kb_output.o
 .debug_str     0x000000000000db61      0x891 build/SAMD21_IOT_WG_ICM42688/debug/_ext/26920679/kb_pipeline.o
 .debug_str     0x000000000000e3f2      0x507 build/SAMD21_IOT_WG_ICM42688/debug/_ext/26920679/ma_symmetric.o
 .debug_str     0x000000000000e8f9      0x312 build/SAMD21_IOT_WG_ICM42688/debug/_ext/26920679/mean.o
 .debug_str     0x000000000000ec0b      0x455 build/SAMD21_IOT_WG_ICM42688/debug/_ext/26920679/rb.o
 .debug_str     0x000000000000f060      0x32e build/SAMD21_IOT_WG_ICM42688/debug/_ext/26920679/save_sensor_data.o
 .debug_str     0x000000000000f38e      0x642 build/SAMD21_IOT_WG_ICM42688/debug/_ext/26920679/sg_windowing.o
 .debug_str     0x000000000000f9d0      0x2b2 build/SAMD21_IOT_WG_ICM42688/debug/_ext/26920679/sortarray.o
 .debug_str     0x000000000000fc82      0x324 build/SAMD21_IOT_WG_ICM42688/debug/_ext/26920679/sorted_copy.o
 .debug_str     0x000000000000ffa6      0x310 build/SAMD21_IOT_WG_ICM42688/debug/_ext/26920679/stats_percentile_presorted.o
 .debug_str     0x00000000000102b6      0x33a build/SAMD21_IOT_WG_ICM42688/debug/_ext/26920679/stat_moment.o
 .debug_str     0x00000000000105f0      0x518 build/SAMD21_IOT_WG_ICM42688/debug/_ext/26920679/tree_ensemble.o
 .debug_str     0x0000000000010b08     0x21f2 build/SAMD21_IOT_WG_ICM42688/debug/_ext/26920679/tree_ensemble_trained_models.o
 .debug_str     0x0000000000012cfa      0x35b build/SAMD21_IOT_WG_ICM42688/debug/_ext/26920679/tr_min_max_scale.o
 .debug_str     0x0000000000013055      0x30f build/SAMD21_IOT_WG_ICM42688/debug/_ext/26920679/tr_sensor_magnitude.o
 .debug_str     0x0000000000013364      0x342 build/SAMD21_IOT_WG_ICM42688/debug/_ext/26920679/utils_buffer_abssum.o
 .debug_str     0x00000000000136a6      0x327 build/SAMD21_IOT_WG_ICM42688/debug/_ext/26920679/utils_buffer_argmax.o
 .debug_str     0x00000000000139cd      0x34d build/SAMD21_IOT_WG_ICM42688/debug/_ext/26920679/utils_buffer_cumsum.o
 .debug_str     0x0000000000013d1a      0x6b9 build/SAMD21_IOT_WG_ICM42688/debug/_ext/26920679/utils_model_cross_difference.o
 .debug_str     0x00000000000143d3      0x2f6 build/SAMD21_IOT_WG_ICM42688/debug/_ext/26920679/utils_tr_sensor.o
 .debug_str     0x00000000000146c9      0x35f build/SAMD21_IOT_WG_ICM42688/debug/_ext/741007211/sml_recognition_run.o
 .debug_str     0x0000000000014a28      0x1fc c:/program files/microchip/xc32/v4.60/bin/bin/../../lib/gcc/pic32c/8.3.1/../../../../pic32c/lib/thumb/v6-m/nofp\libpic32c.a(data_init.o)
 .debug_str     0x0000000000014c24      0x225 c:/program files/microchip/xc32/v4.60/bin/bin/../../lib/gcc/pic32c/8.3.1/../../../../pic32c/lib/thumb/v6-m/nofp\libc-size-musl.a(memcpy.o)
 .debug_str     0x0000000000014e49      0x211 c:/program files/microchip/xc32/v4.60/bin/bin/../../lib/gcc/pic32c/8.3.1/../../../../pic32c/lib/thumb/v6-m/nofp\libc-size-musl.a(memset.o)
 .debug_str     0x000000000001505a      0x3ca c:/program files/microchip/xc32/v4.60/bin/bin/../../lib/gcc/pic32c/8.3.1/../../../../pic32c/lib/thumb/v6-m/nofp\libg-musl.a(__libc_start_main.o)
 .debug_str     0x0000000000015424      0x229 c:/program files/microchip/xc32/v4.60/bin/bin/../../lib/gcc/pic32c/8.3.1/../../../../pic32c/lib/thumb/v6-m/nofp\libg-musl.a(__errno_location.o)
 .debug_str     0x000000000001564d      0x335 c:/program files/microchip/xc32/v4.60/bin/bin/../../lib/gcc/pic32c/8.3.1/../../../../pic32c/lib/thumb/v6-m/nofp\libg-musl.a(libc.o)
 .debug_str     0x0000000000015982      0x356 c:/program files/microchip/xc32/v4.60/bin/bin/../../lib/gcc/pic32c/8.3.1/../../../../pic32c/lib/thumb/v6-m/nofp\libg-musl.a(__sio_printf_cdeEfFgGnpsxX.o)
 .debug_str     0x0000000000015cd8      0x343 c:/program files/microchip/xc32/v4.60/bin/bin/../../lib/gcc/pic32c/8.3.1/../../../../pic32c/lib/thumb/v6-m/nofp\libg-musl.a(__sio_sprintf_cdeEfFgGnpsxX.o)
 .debug_str     0x000000000001601b      0x2f5 c:/program files/microchip/xc32/v4.60/bin/bin/../../lib/gcc/pic32c/8.3.1/../../../../pic32c/lib/thumb/v6-m/nofp\libg-musl.a(__fmt_d.o)
 .debug_str     0x0000000000016310      0x354 c:/program files/microchip/xc32/v4.60/bin/bin/../../lib/gcc/pic32c/8.3.1/../../../../pic32c/lib/thumb/v6-m/nofp\libg-musl.a(__fmt_fp.o)
 .debug_str     0x0000000000016664      0x2f9 c:/program files/microchip/xc32/v4.60/bin/bin/../../lib/gcc/pic32c/8.3.1/../../../../pic32c/lib/thumb/v6-m/nofp\libg-musl.a(__fmt_s.o)
 .debug_str     0x000000000001695d      0x2f5 c:/program files/microchip/xc32/v4.60/bin/bin/../../lib/gcc/pic32c/8.3.1/../../../../pic32c/lib/thumb/v6-m/nofp\libg-musl.a(__fmt_x.o)
 .debug_str     0x0000000000016c52      0x2c0 c:/program files/microchip/xc32/v4.60/bin/bin/../../lib/gcc/pic32c/8.3.1/../../../../pic32c/lib/thumb/v6-m/nofp\libg-musl.a(__pop_float.o)
 .debug_str     0x0000000000016f12      0x2cb c:/program files/microchip/xc32/v4.60/bin/bin/../../lib/gcc/pic32c/8.3.1/../../../../pic32c/lib/thumb/v6-m/nofp\libg-musl.a(__pop_int.o)
 .debug_str     0x00000000000171dd      0x2cd c:/program files/microchip/xc32/v4.60/bin/bin/../../lib/gcc/pic32c/8.3.1/../../../../pic32c/lib/thumb/v6-m/nofp\libg-musl.a(__pop_ptr.o)
 .debug_str     0x00000000000174aa      0x3e7 c:/program files/microchip/xc32/v4.60/bin/bin/../../lib/gcc/pic32c/8.3.1/../../../../pic32c/lib/thumb/v6-m/nofp\libg-musl.a(__printf_core.o)
 .debug_str     0x0000000000017891      0x374 c:/program files/microchip/xc32/v4.60/bin/bin/../../lib/gcc/pic32c/8.3.1/../../../../pic32c/lib/thumb/v6-m/nofp\libg-musl.a(stdin.o)
 .debug_str     0x0000000000017c05      0x308 c:/program files/microchip/xc32/v4.60/bin/bin/../../lib/gcc/pic32c/8.3.1/../../../../pic32c/lib/thumb/v6-m/nofp\libg-musl.a(stdout.o)
 .debug_str     0x0000000000017f0d      0x225 c:/program files/microchip/xc32/v4.60/bin/bin/../../lib/gcc/pic32c/8.3.1/../../../../pic32c/lib/thumb/v6-m/nofp\libg-musl.a(putchar.o)
 .debug_str     0x0000000000018132      0x344 c:/program files/microchip/xc32/v4.60/bin/bin/../../lib/gcc/pic32c/8.3.1/../../../../pic32c/lib/thumb/v6-m/nofp\libg-musl.a(puts.o)
 .debug_str     0x0000000000018476      0x21d c:/program files/microchip/xc32/v4.60/bin/bin/../../lib/gcc/pic32c/8.3.1/../../../../pic32c/lib/thumb/v6-m/nofp\libg-musl.a(setbuf.o)
 .debug_str     0x0000000000018693      0x21c c:/program files/microchip/xc32/v4.60/bin/bin/../../lib/gcc/pic32c/8.3.1/../../../../pic32c/lib/thumb/v6-m/nofp\libg-musl.a(atoi.o)
 .debug_str     0x00000000000188af      0x249 c:/program files/microchip/xc32/v4.60/bin/bin/../../lib/gcc/pic32c/8.3.1/../../../../pic32c/lib/thumb/v6-m/nofp\libg-musl.a(tolower.o)
 .debug_str     0x0000000000018af8      0x249 c:/program files/microchip/xc32/v4.60/bin/bin/../../lib/gcc/pic32c/8.3.1/../../../../pic32c/lib/thumb/v6-m/nofp\libg-musl.a(toupper.o)
 .debug_str     0x0000000000018d41      0x235 c:/program files/microchip/xc32/v4.60/bin/bin/../../lib/gcc/pic32c/8.3.1/../../../../pic32c/lib/thumb/v6-m/nofp\libg-musl.a(__environ.o)
 .debug_str     0x0000000000018f76      0x2e9 c:/program files/microchip/xc32/v4.60/bin/bin/../../lib/gcc/pic32c/8.3.1/../../../../pic32c/lib/thumb/v6-m/nofp\libg-musl.a(__int_vfprintf.o)
 .debug_str     0x000000000001925f      0x2a6 c:/program files/microchip/xc32/v4.60/bin/bin/../../lib/gcc/pic32c/8.3.1/../../../../pic32c/lib/thumb/v6-m/nofp\libg-musl.a(__int_vsprintf.o)
 .debug_str     0x0000000000019505      0x338 c:/program files/microchip/xc32/v4.60/bin/bin/../../lib/gcc/pic32c/8.3.1/../../../../pic32c/lib/thumb/v6-m/nofp\libg-musl.a(fputs.o)
 .debug_str     0x000000000001983d      0x2b1 c:/program files/microchip/xc32/v4.60/bin/bin/../../lib/gcc/pic32c/8.3.1/../../../../pic32c/lib/thumb/v6-m/nofp\libg-musl.a(__cvt_u.o)
 .debug_str     0x0000000000019aee      0x362 c:/program files/microchip/xc32/v4.60/bin/bin/../../lib/gcc/pic32c/8.3.1/../../../../pic32c/lib/thumb/v6-m/nofp\libg-musl.a(__stdio_read.o)
 .debug_str     0x0000000000019e50      0x33d c:/program files/microchip/xc32/v4.60/bin/bin/../../lib/gcc/pic32c/8.3.1/../../../../pic32c/lib/thumb/v6-m/nofp\libg-musl.a(__towrite_rw.o)
 .debug_str     0x000000000001a18d      0x2d3 c:/program files/microchip/xc32/v4.60/bin/bin/../../lib/gcc/pic32c/8.3.1/../../../../pic32c/lib/thumb/v6-m/nofp\libg-musl.a(fwrite.o)
 .debug_str     0x000000000001a460      0x2ea c:/program files/microchip/xc32/v4.60/bin/bin/../../lib/gcc/pic32c/8.3.1/../../../../pic32c/lib/thumb/v6-m/nofp\libg-musl.a(putc.o)
 .debug_str     0x000000000001a74a      0x312 c:/program files/microchip/xc32/v4.60/bin/bin/../../lib/gcc/pic32c/8.3.1/../../../../pic32c/lib/thumb/v6-m/nofp\libg-musl.a(setvbuf.o)
 .debug_str     0x000000000001aa5c      0x24c c:/program files/microchip/xc32/v4.60/bin/bin/../../lib/gcc/pic32c/8.3.1/../../../../pic32c/lib/thumb/v6-m/nofp\libg-musl.a(readv.o)
 .debug_str     0x000000000001aca8      0x2f4 c:/program files/microchip/xc32/v4.60/bin/bin/../../lib/gcc/pic32c/8.3.1/../../../../pic32c/lib/thumb/v6-m/nofp\libg-musl.a(__int_vsnprintf.o)
 .debug_str     0x000000000001af9c      0x29a c:/program files/microchip/xc32/v4.60/bin/bin/../../lib/gcc/pic32c/8.3.1/../../../../pic32c/lib/thumb/v6-m/nofp\libg-musl.a(__init_stdio.o)
 .debug_str     0x000000000001b236      0x2da c:/program files/microchip/xc32/v4.60/bin/bin/../../lib/gcc/pic32c/8.3.1/../../../../pic32c/lib/thumb/v6-m/nofp\libg-musl.a(__out.o)
 .debug_str     0x000000000001b510      0x2f8 c:/program files/microchip/xc32/v4.60/bin/bin/../../lib/gcc/pic32c/8.3.1/../../../../pic32c/lib/thumb/v6-m/nofp\libg-musl.a(__putc.o)
 .debug_str     0x000000000001b808      0x36d c:/program files/microchip/xc32/v4.60/bin/bin/../../lib/gcc/pic32c/8.3.1/../../../../pic32c/lib/thumb/v6-m/nofp\libg-musl.a(__stderr.o)
 .debug_str     0x000000000001bb75      0x35d c:/program files/microchip/xc32/v4.60/bin/bin/../../lib/gcc/pic32c/8.3.1/../../../../pic32c/lib/thumb/v6-m/nofp\libg-musl.a(__stdio_close.o)
 .debug_str     0x000000000001bed2      0x346 c:/program files/microchip/xc32/v4.60/bin/bin/../../lib/gcc/pic32c/8.3.1/../../../../pic32c/lib/thumb/v6-m/nofp\libg-musl.a(__stdio_write.o)
 .debug_str     0x000000000001c218      0x36d c:/program files/microchip/xc32/v4.60/bin/bin/../../lib/gcc/pic32c/8.3.1/../../../../pic32c/lib/thumb/v6-m/nofp\libg-musl.a(__stdout.o)
 .debug_str     0x000000000001c585      0x2e9 c:/program files/microchip/xc32/v4.60/bin/bin/../../lib/gcc/pic32c/8.3.1/../../../../pic32c/lib/thumb/v6-m/nofp\libg-musl.a(__towrite.o)
 .debug_str     0x000000000001c86e      0x24f c:/program files/microchip/xc32/v4.60/bin/bin/../../lib/gcc/pic32c/8.3.1/../../../../pic32c/lib/thumb/v6-m/nofp\libg-musl.a(writev.o)
 .debug_str     0x000000000001cabd      0x33e c:/program files/microchip/xc32/v4.60/bin/bin/../../lib/gcc/pic32c/8.3.1/../../../../pic32c/lib/thumb/v6-m/nofp\libg-musl.a(__overflow.o)
 .debug_str     0x000000000001cdfb      0x302 c:/program files/microchip/xc32/v4.60/bin/bin/../../lib/gcc/pic32c/8.3.1/../../../../pic32c/lib/thumb/v6-m/nofp\libg-musl.a(__fwrite.o)
 .debug_str     0x000000000001d0fd       0xd6 c:/program files/microchip/xc32/v4.60/bin/bin/../../lib/gcc/pic32c/8.3.1/thumb/v6-m/nofp\libgcc.a(_udivsi3.o)
 .debug_str     0x000000000001d1d3       0xd6 c:/program files/microchip/xc32/v4.60/bin/bin/../../lib/gcc/pic32c/8.3.1/thumb/v6-m/nofp\libgcc.a(_divsi3.o)
 .debug_str     0x000000000001d2a9       0xd6 c:/program files/microchip/xc32/v4.60/bin/bin/../../lib/gcc/pic32c/8.3.1/thumb/v6-m/nofp\libgcc.a(_dvmd_tls.o)
 .debug_str     0x000000000001d37f       0xd6 c:/program files/microchip/xc32/v4.60/bin/bin/../../lib/gcc/pic32c/8.3.1/thumb/v6-m/nofp\libgcc.a(_aeabi_ldivmod.o)
 .debug_str     0x000000000001d455       0xd6 c:/program files/microchip/xc32/v4.60/bin/bin/../../lib/gcc/pic32c/8.3.1/thumb/v6-m/nofp\libgcc.a(_aeabi_uldivmod.o)
 .debug_str     0x000000000001d52b      0x2af c:/program files/microchip/xc32/v4.60/bin/bin/../../lib/gcc/pic32c/8.3.1/thumb/v6-m/nofp\libgcc.a(_muldi3.o)
 .debug_str     0x000000000001d7da      0x27c c:/program files/microchip/xc32/v4.60/bin/bin/../../lib/gcc/pic32c/8.3.1/thumb/v6-m/nofp\libgcc.a(_udivmoddi4.o)
 .debug_str     0x000000000001da56      0x1f2 c:/program files/microchip/xc32/v4.60/bin/bin/../../lib/gcc/pic32c/8.3.1/thumb/v6-m/nofp\libgcc.a(bpabi.o)
 .debug_str     0x000000000001dc48       0xd6 c:/program files/microchip/xc32/v4.60/bin/bin/../../lib/gcc/pic32c/8.3.1/thumb/v6-m/nofp\libgcc.a(_lshrdi3.o)
 .debug_str     0x000000000001dd1e       0xd6 c:/program files/microchip/xc32/v4.60/bin/bin/../../lib/gcc/pic32c/8.3.1/thumb/v6-m/nofp\libgcc.a(_ashldi3.o)
 .debug_str     0x000000000001ddf4       0xd6 c:/program files/microchip/xc32/v4.60/bin/bin/../../lib/gcc/pic32c/8.3.1/thumb/v6-m/nofp\libgcc.a(_clzdi2.o)
 .debug_str     0x000000000001deca      0x2a9 c:/program files/microchip/xc32/v4.60/bin/bin/../../lib/gcc/pic32c/8.3.1/thumb/v6-m/nofp\libgcc.a(_divdi3.o)
 .debug_str     0x000000000001e173       0xd6 c:/program files/microchip/xc32/v4.60/bin/bin/../../lib/gcc/pic32c/8.3.1/thumb/v6-m/nofp\libgcc.a(_clzsi2.o)
 .debug_str     0x000000000001e249      0x1bd c:/program files/microchip/xc32/v4.60/bin/bin/../../lib/gcc/pic32c/8.3.1/../../../../pic32c/lib/thumb/v6-m/nofp\libpic32c.a(close.o)
 .debug_str     0x000000000001e406      0x1bd c:/program files/microchip/xc32/v4.60/bin/bin/../../lib/gcc/pic32c/8.3.1/../../../../pic32c/lib/thumb/v6-m/nofp\libpic32c.a(lseek.o)
 .debug_str     0x000000000001e5c3      0x1bb c:/program files/microchip/xc32/v4.60/bin/bin/../../lib/gcc/pic32c/8.3.1/../../../../pic32c/lib/thumb/v6-m/nofp\libpic32c.a(read.o)
 .debug_str     0x000000000001e77e      0x1bd c:/program files/microchip/xc32/v4.60/bin/bin/../../lib/gcc/pic32c/8.3.1/../../../../pic32c/lib/thumb/v6-m/nofp\libpic32c.a(write.o)
 .debug_str     0x000000000001e93b      0x217 c:/program files/microchip/xc32/v4.60/bin/bin/../../lib/gcc/pic32c/8.3.1/../../../../pic32c/lib/thumb/v6-m/nofp\libc-size-musl.a(strlen.o)
 .debug_str     0x000000000001eb52      0x20d c:/program files/microchip/xc32/v4.60/bin/bin/../../lib/gcc/pic32c/8.3.1/../../../../pic32c/lib/thumb/v6-m/nofp\libc-size-musl.a(strcpy.o)
 .debug_str     0x000000000001ed5f      0x221 c:/program files/microchip/xc32/v4.60/bin/bin/../../lib/gcc/pic32c/8.3.1/../../../../pic32c/lib/thumb/v6-m/nofp\libc-size-musl.a(stpcpy.o)
 .debug_str     0x000000000001ef80      0x2ff c:/program files/microchip/xc32/v4.60/bin/bin/../../lib/gcc/pic32c/8.3.1/../../../../pic32c/lib/thumb/v6-m/nofp\liblmalloc-musl.a(lite_malloc.o)
 .debug_str     0x000000000001f27f      0x301 c:/program files/microchip/xc32/v4.60/bin/bin/../../lib/gcc/pic32c/8.3.1/../../../../pic32c/lib/thumb/v6-m/nofp\liblmalloc-musl.a(lite_free.o)
 .debug_str     0x000000000001f580      0x2a5 c:/program files/microchip/xc32/v4.60/bin/bin/../../lib/gcc/pic32c/8.3.1/../../../../pic32c/lib/thumb/v6-m/nofp\libg-musl.a(expand_heap.o)
 .debug_str     0x000000000001f825      0x1dc c:/program files/microchip/xc32/v4.60/bin/bin/../../lib/gcc/pic32c/8.3.1/../../../../pic32c/lib/thumb/v6-m/nofp\libpic32c.a(sbrk.o)
 .debug_str     0x000000000001fa01      0x1d5 c:/program files/microchip/xc32/v4.60/bin/bin/../../lib/gcc/pic32c/8.3.1/../../../../pic32c/lib/thumb/v6-m/nofp\libpic32c.a(pic32_data_init_clear.o)
 .debug_str     0x000000000001fbd6      0x1d3 c:/program files/microchip/xc32/v4.60/bin/bin/../../lib/gcc/pic32c/8.3.1/../../../../pic32c/lib/thumb/v6-m/nofp\libpic32c.a(pic32_data_init_copy.o)

.debug_frame    0x0000000000000000     0x2d5c
 .debug_frame   0x0000000000000000       0xf4 build/SAMD21_IOT_WG_ICM42688/debug/_ext/2048461350/icm42688_sensor.o
 .debug_frame   0x00000000000000f4       0x20 build/SAMD21_IOT_WG_ICM42688/debug/_ext/1750425231/plib_clock.o
 .debug_frame   0x0000000000000114       0x88 build/SAMD21_IOT_WG_ICM42688/debug/_ext/503204096/plib_eic.o
 .debug_frame   0x000000000000019c       0x20 build/SAMD21_IOT_WG_ICM42688/debug/_ext/1752574717/plib_evsys.o
 .debug_frame   0x00000000000001bc       0x58 build/SAMD21_IOT_WG_ICM42688/debug/_ext/1580823105/plib_nvic.o
 .debug_frame   0x0000000000000214       0xb8 build/SAMD21_IOT_WG_ICM42688/debug/_ext/11470383/plib_nvmctrl.o
 .debug_frame   0x00000000000002cc       0xd4 build/SAMD21_IOT_WG_ICM42688/debug/_ext/1580876256/plib_port.o
 .debug_frame   0x00000000000003a0       0xac build/SAMD21_IOT_WG_ICM42688/debug/_ext/1014017276/plib_sercom0_spi_master.o
 .debug_frame   0x000000000000044c      0x140 build/SAMD21_IOT_WG_ICM42688/debug/_ext/177673482/plib_sercom5_usart.o
 .debug_frame   0x000000000000058c       0xd4 build/SAMD21_IOT_WG_ICM42688/debug/_ext/223004715/plib_systick.o
 .debug_frame   0x0000000000000660       0xc8 build/SAMD21_IOT_WG_ICM42688/debug/_ext/399410062/plib_tc3.o
 .debug_frame   0x0000000000000728       0x44 build/SAMD21_IOT_WG_ICM42688/debug/_ext/1357625803/xc32_monitor.o
 .debug_frame   0x000000000000076c       0x28 build/SAMD21_IOT_WG_ICM42688/debug/_ext/1832905403/initialization.o
 .debug_frame   0x0000000000000794       0x20 build/SAMD21_IOT_WG_ICM42688/debug/_ext/1832905403/interrupts.o
 .debug_frame   0x00000000000007b4       0x30 build/SAMD21_IOT_WG_ICM42688/debug/_ext/1832905403/exceptions.o
 .debug_frame   0x00000000000007e4       0x38 build/SAMD21_IOT_WG_ICM42688/debug/_ext/1832905403/startup_xc32.o
 .debug_frame   0x000000000000081c      0x624 build/SAMD21_IOT_WG_ICM42688/debug/_ext/1341251756/Icm426xxDriver_HL.o
 .debug_frame   0x0000000000000e40       0x78 build/SAMD21_IOT_WG_ICM42688/debug/_ext/1341251756/Icm426xxTransport.o
 .debug_frame   0x0000000000000eb8      0x130 build/SAMD21_IOT_WG_ICM42688/debug/_ext/1360937237/main.o
 .debug_frame   0x0000000000000fe8      0x110 build/SAMD21_IOT_WG_ICM42688/debug/_ext/1360937237/ringbuffer.o
 .debug_frame   0x00000000000010f8       0x3c build/SAMD21_IOT_WG_ICM42688/debug/_ext/26920679/fg_area_absolute_area_high_frequency.o
 .debug_frame   0x0000000000001134       0x3c build/SAMD21_IOT_WG_ICM42688/debug/_ext/26920679/fg_area_total_area_low_frequency.o
 .debug_frame   0x0000000000001170       0x2c build/SAMD21_IOT_WG_ICM42688/debug/_ext/26920679/fg_cross_p2p_difference.o
 .debug_frame   0x000000000000119c       0x30 build/SAMD21_IOT_WG_ICM42688/debug/_ext/26920679/fg_cross_peak_location_difference.o
 .debug_frame   0x00000000000011cc       0x34 build/SAMD21_IOT_WG_ICM42688/debug/_ext/26920679/fg_stats_abs_mean.o
 .debug_frame   0x0000000000001200       0x30 build/SAMD21_IOT_WG_ICM42688/debug/_ext/26920679/fg_stats_pct075.o
 .debug_frame   0x0000000000001230       0x38 build/SAMD21_IOT_WG_ICM42688/debug/_ext/26920679/fg_stats_skewness.o
 .debug_frame   0x0000000000001268      0x544 build/SAMD21_IOT_WG_ICM42688/debug/_ext/26920679/kb.o
 .debug_frame   0x00000000000017ac      0x10c build/SAMD21_IOT_WG_ICM42688/debug/_ext/26920679/kb_output.o
 .debug_frame   0x00000000000018b8       0xc0 build/SAMD21_IOT_WG_ICM42688/debug/_ext/26920679/kb_pipeline.o
 .debug_frame   0x0000000000001978       0x3c build/SAMD21_IOT_WG_ICM42688/debug/_ext/26920679/ma_symmetric.o
 .debug_frame   0x00000000000019b4       0x74 build/SAMD21_IOT_WG_ICM42688/debug/_ext/26920679/mean.o
 .debug_frame   0x0000000000001a28      0x1e0 build/SAMD21_IOT_WG_ICM42688/debug/_ext/26920679/rb.o
 .debug_frame   0x0000000000001c08       0x48 build/SAMD21_IOT_WG_ICM42688/debug/_ext/26920679/save_sensor_data.o
 .debug_frame   0x0000000000001c50       0x30 build/SAMD21_IOT_WG_ICM42688/debug/_ext/26920679/sg_windowing.o
 .debug_frame   0x0000000000001c80       0x3c build/SAMD21_IOT_WG_ICM42688/debug/_ext/26920679/sortarray.o
 .debug_frame   0x0000000000001cbc       0x30 build/SAMD21_IOT_WG_ICM42688/debug/_ext/26920679/sorted_copy.o
 .debug_frame   0x0000000000001cec       0x38 build/SAMD21_IOT_WG_ICM42688/debug/_ext/26920679/stats_percentile_presorted.o
 .debug_frame   0x0000000000001d24       0x98 build/SAMD21_IOT_WG_ICM42688/debug/_ext/26920679/stat_moment.o
 .debug_frame   0x0000000000001dbc       0xb4 build/SAMD21_IOT_WG_ICM42688/debug/_ext/26920679/tree_ensemble.o
 .debug_frame   0x0000000000001e70       0x3c build/SAMD21_IOT_WG_ICM42688/debug/_ext/26920679/tr_min_max_scale.o
 .debug_frame   0x0000000000001eac       0x30 build/SAMD21_IOT_WG_ICM42688/debug/_ext/26920679/tr_sensor_magnitude.o
 .debug_frame   0x0000000000001edc       0x2c build/SAMD21_IOT_WG_ICM42688/debug/_ext/26920679/utils_buffer_abssum.o
 .debug_frame   0x0000000000001f08       0x30 build/SAMD21_IOT_WG_ICM42688/debug/_ext/26920679/utils_buffer_argmax.o
 .debug_frame   0x0000000000001f38       0x50 build/SAMD21_IOT_WG_ICM42688/debug/_ext/26920679/utils_buffer_cumsum.o
 .debug_frame   0x0000000000001f88       0x2c build/SAMD21_IOT_WG_ICM42688/debug/_ext/26920679/utils_model_cross_difference.o
 .debug_frame   0x0000000000001fb4       0x30 build/SAMD21_IOT_WG_ICM42688/debug/_ext/26920679/utils_tr_sensor.o
 .debug_frame   0x0000000000001fe4       0x44 build/SAMD21_IOT_WG_ICM42688/debug/_ext/741007211/sml_recognition_run.o
 .debug_frame   0x0000000000002028       0x48 c:/program files/microchip/xc32/v4.60/bin/bin/../../lib/gcc/pic32c/8.3.1/../../../../pic32c/lib/thumb/v6-m/nofp\libpic32c.a(data_init.o)
 .debug_frame   0x0000000000002070       0x28 c:/program files/microchip/xc32/v4.60/bin/bin/../../lib/gcc/pic32c/8.3.1/../../../../pic32c/lib/thumb/v6-m/nofp\libc-size-musl.a(memcpy.o)
 .debug_frame   0x0000000000002098       0x20 c:/program files/microchip/xc32/v4.60/bin/bin/../../lib/gcc/pic32c/8.3.1/../../../../pic32c/lib/thumb/v6-m/nofp\libc-size-musl.a(memset.o)
 .debug_frame   0x00000000000020b8       0x38 c:/program files/microchip/xc32/v4.60/bin/bin/../../lib/gcc/pic32c/8.3.1/../../../../pic32c/lib/thumb/v6-m/nofp\libg-musl.a(__libc_start_main.o)
 .debug_frame   0x00000000000020f0       0x48 c:/program files/microchip/xc32/v4.60/bin/bin/../../lib/gcc/pic32c/8.3.1/../../../../pic32c/lib/thumb/v6-m/nofp\libg-musl.a(__sio_printf_cdeEfFgGnpsxX.o)
 .debug_frame   0x0000000000002138       0x44 c:/program files/microchip/xc32/v4.60/bin/bin/../../lib/gcc/pic32c/8.3.1/../../../../pic32c/lib/thumb/v6-m/nofp\libg-musl.a(__sio_sprintf_cdeEfFgGnpsxX.o)
 .debug_frame   0x000000000000217c       0x30 c:/program files/microchip/xc32/v4.60/bin/bin/../../lib/gcc/pic32c/8.3.1/../../../../pic32c/lib/thumb/v6-m/nofp\libg-musl.a(__fmt_d.o)
 .debug_frame   0x00000000000021ac       0x34 c:/program files/microchip/xc32/v4.60/bin/bin/../../lib/gcc/pic32c/8.3.1/../../../../pic32c/lib/thumb/v6-m/nofp\libg-musl.a(__fmt_fp.o)
 .debug_frame   0x00000000000021e0       0x30 c:/program files/microchip/xc32/v4.60/bin/bin/../../lib/gcc/pic32c/8.3.1/../../../../pic32c/lib/thumb/v6-m/nofp\libg-musl.a(__fmt_s.o)
 .debug_frame   0x0000000000002210       0x30 c:/program files/microchip/xc32/v4.60/bin/bin/../../lib/gcc/pic32c/8.3.1/../../../../pic32c/lib/thumb/v6-m/nofp\libg-musl.a(__fmt_x.o)
 .debug_frame   0x0000000000002240       0x20 c:/program files/microchip/xc32/v4.60/bin/bin/../../lib/gcc/pic32c/8.3.1/../../../../pic32c/lib/thumb/v6-m/nofp\libg-musl.a(__pop_float.o)
 .debug_frame   0x0000000000002260       0x28 c:/program files/microchip/xc32/v4.60/bin/bin/../../lib/gcc/pic32c/8.3.1/../../../../pic32c/lib/thumb/v6-m/nofp\libg-musl.a(__pop_int.o)
 .debug_frame   0x0000000000002288       0x28 c:/program files/microchip/xc32/v4.60/bin/bin/../../lib/gcc/pic32c/8.3.1/../../../../pic32c/lib/thumb/v6-m/nofp\libg-musl.a(__pop_ptr.o)
 .debug_frame   0x00000000000022b0       0xc0 c:/program files/microchip/xc32/v4.60/bin/bin/../../lib/gcc/pic32c/8.3.1/../../../../pic32c/lib/thumb/v6-m/nofp\libg-musl.a(__printf_core.o)
 .debug_frame   0x0000000000002370       0x38 c:/program files/microchip/xc32/v4.60/bin/bin/../../lib/gcc/pic32c/8.3.1/../../../../pic32c/lib/thumb/v6-m/nofp\libg-musl.a(stdin.o)
 .debug_frame   0x00000000000023a8       0x50 c:/program files/microchip/xc32/v4.60/bin/bin/../../lib/gcc/pic32c/8.3.1/../../../../pic32c/lib/thumb/v6-m/nofp\libg-musl.a(stdout.o)
 .debug_frame   0x00000000000023f8       0x28 c:/program files/microchip/xc32/v4.60/bin/bin/../../lib/gcc/pic32c/8.3.1/../../../../pic32c/lib/thumb/v6-m/nofp\libg-musl.a(putchar.o)
 .debug_frame   0x0000000000002420       0x28 c:/program files/microchip/xc32/v4.60/bin/bin/../../lib/gcc/pic32c/8.3.1/../../../../pic32c/lib/thumb/v6-m/nofp\libg-musl.a(puts.o)
 .debug_frame   0x0000000000002448       0x28 c:/program files/microchip/xc32/v4.60/bin/bin/../../lib/gcc/pic32c/8.3.1/../../../../pic32c/lib/thumb/v6-m/nofp\libg-musl.a(setbuf.o)
 .debug_frame   0x0000000000002470       0x28 c:/program files/microchip/xc32/v4.60/bin/bin/../../lib/gcc/pic32c/8.3.1/../../../../pic32c/lib/thumb/v6-m/nofp\libg-musl.a(atoi.o)
 .debug_frame   0x0000000000002498       0x38 c:/program files/microchip/xc32/v4.60/bin/bin/../../lib/gcc/pic32c/8.3.1/../../../../pic32c/lib/thumb/v6-m/nofp\libg-musl.a(tolower.o)
 .debug_frame   0x00000000000024d0       0x38 c:/program files/microchip/xc32/v4.60/bin/bin/../../lib/gcc/pic32c/8.3.1/../../../../pic32c/lib/thumb/v6-m/nofp\libg-musl.a(toupper.o)
 .debug_frame   0x0000000000002508       0x2c c:/program files/microchip/xc32/v4.60/bin/bin/../../lib/gcc/pic32c/8.3.1/../../../../pic32c/lib/thumb/v6-m/nofp\libg-musl.a(__int_vfprintf.o)
 .debug_frame   0x0000000000002534       0x28 c:/program files/microchip/xc32/v4.60/bin/bin/../../lib/gcc/pic32c/8.3.1/../../../../pic32c/lib/thumb/v6-m/nofp\libg-musl.a(__int_vsprintf.o)
 .debug_frame   0x000000000000255c       0x2c c:/program files/microchip/xc32/v4.60/bin/bin/../../lib/gcc/pic32c/8.3.1/../../../../pic32c/lib/thumb/v6-m/nofp\libg-musl.a(fputs.o)
 .debug_frame   0x0000000000002588       0x34 c:/program files/microchip/xc32/v4.60/bin/bin/../../lib/gcc/pic32c/8.3.1/../../../../pic32c/lib/thumb/v6-m/nofp\libg-musl.a(__cvt_u.o)
 .debug_frame   0x00000000000025bc       0x34 c:/program files/microchip/xc32/v4.60/bin/bin/../../lib/gcc/pic32c/8.3.1/../../../../pic32c/lib/thumb/v6-m/nofp\libg-musl.a(__stdio_read.o)
 .debug_frame   0x00000000000025f0       0x20 c:/program files/microchip/xc32/v4.60/bin/bin/../../lib/gcc/pic32c/8.3.1/../../../../pic32c/lib/thumb/v6-m/nofp\libg-musl.a(__towrite_rw.o)
 .debug_frame   0x0000000000002610       0x44 c:/program files/microchip/xc32/v4.60/bin/bin/../../lib/gcc/pic32c/8.3.1/../../../../pic32c/lib/thumb/v6-m/nofp\libg-musl.a(fwrite.o)
 .debug_frame   0x0000000000002654       0x5c c:/program files/microchip/xc32/v4.60/bin/bin/../../lib/gcc/pic32c/8.3.1/../../../../pic32c/lib/thumb/v6-m/nofp\libg-musl.a(putc.o)
 .debug_frame   0x00000000000026b0       0x44 c:/program files/microchip/xc32/v4.60/bin/bin/../../lib/gcc/pic32c/8.3.1/../../../../pic32c/lib/thumb/v6-m/nofp\libg-musl.a(setvbuf.o)
 .debug_frame   0x00000000000026f4       0x34 c:/program files/microchip/xc32/v4.60/bin/bin/../../lib/gcc/pic32c/8.3.1/../../../../pic32c/lib/thumb/v6-m/nofp\libg-musl.a(readv.o)
 .debug_frame   0x0000000000002728       0x2c c:/program files/microchip/xc32/v4.60/bin/bin/../../lib/gcc/pic32c/8.3.1/../../../../pic32c/lib/thumb/v6-m/nofp\libg-musl.a(__int_vsnprintf.o)
 .debug_frame   0x0000000000002754       0x38 c:/program files/microchip/xc32/v4.60/bin/bin/../../lib/gcc/pic32c/8.3.1/../../../../pic32c/lib/thumb/v6-m/nofp\libg-musl.a(__init_stdio.o)
 .debug_frame   0x000000000000278c       0x44 c:/program files/microchip/xc32/v4.60/bin/bin/../../lib/gcc/pic32c/8.3.1/../../../../pic32c/lib/thumb/v6-m/nofp\libg-musl.a(__out.o)
 .debug_frame   0x00000000000027d0       0x28 c:/program files/microchip/xc32/v4.60/bin/bin/../../lib/gcc/pic32c/8.3.1/../../../../pic32c/lib/thumb/v6-m/nofp\libg-musl.a(__putc.o)
 .debug_frame   0x00000000000027f8       0x48 c:/program files/microchip/xc32/v4.60/bin/bin/../../lib/gcc/pic32c/8.3.1/../../../../pic32c/lib/thumb/v6-m/nofp\libg-musl.a(__stderr.o)
 .debug_frame   0x0000000000002840       0x48 c:/program files/microchip/xc32/v4.60/bin/bin/../../lib/gcc/pic32c/8.3.1/../../../../pic32c/lib/thumb/v6-m/nofp\libg-musl.a(__stdio_close.o)
 .debug_frame   0x0000000000002888       0x50 c:/program files/microchip/xc32/v4.60/bin/bin/../../lib/gcc/pic32c/8.3.1/../../../../pic32c/lib/thumb/v6-m/nofp\libg-musl.a(__stdio_write.o)
 .debug_frame   0x00000000000028d8       0x48 c:/program files/microchip/xc32/v4.60/bin/bin/../../lib/gcc/pic32c/8.3.1/../../../../pic32c/lib/thumb/v6-m/nofp\libg-musl.a(__stdout.o)
 .debug_frame   0x0000000000002920       0x38 c:/program files/microchip/xc32/v4.60/bin/bin/../../lib/gcc/pic32c/8.3.1/../../../../pic32c/lib/thumb/v6-m/nofp\libg-musl.a(__towrite.o)
 .debug_frame   0x0000000000002958       0x34 c:/program files/microchip/xc32/v4.60/bin/bin/../../lib/gcc/pic32c/8.3.1/../../../../pic32c/lib/thumb/v6-m/nofp\libg-musl.a(writev.o)
 .debug_frame   0x000000000000298c       0x30 c:/program files/microchip/xc32/v4.60/bin/bin/../../lib/gcc/pic32c/8.3.1/../../../../pic32c/lib/thumb/v6-m/nofp\libg-musl.a(__overflow.o)
 .debug_frame   0x00000000000029bc       0x40 c:/program files/microchip/xc32/v4.60/bin/bin/../../lib/gcc/pic32c/8.3.1/../../../../pic32c/lib/thumb/v6-m/nofp\libg-musl.a(__fwrite.o)
 .debug_frame   0x00000000000029fc       0x20 c:/program files/microchip/xc32/v4.60/bin/bin/../../lib/gcc/pic32c/8.3.1/thumb/v6-m/nofp\libgcc.a(_udivsi3.o)
 .debug_frame   0x0000000000002a1c       0x20 c:/program files/microchip/xc32/v4.60/bin/bin/../../lib/gcc/pic32c/8.3.1/thumb/v6-m/nofp\libgcc.a(_divsi3.o)
 .debug_frame   0x0000000000002a3c       0x34 c:/program files/microchip/xc32/v4.60/bin/bin/../../lib/gcc/pic32c/8.3.1/thumb/v6-m/nofp\libgcc.a(_muldi3.o)
 .debug_frame   0x0000000000002a70       0x30 c:/program files/microchip/xc32/v4.60/bin/bin/../../lib/gcc/pic32c/8.3.1/thumb/v6-m/nofp\libgcc.a(_udivmoddi4.o)
 .debug_frame   0x0000000000002aa0       0x34 c:/program files/microchip/xc32/v4.60/bin/bin/../../lib/gcc/pic32c/8.3.1/thumb/v6-m/nofp\libgcc.a(bpabi.o)
 .debug_frame   0x0000000000002ad4       0x30 c:/program files/microchip/xc32/v4.60/bin/bin/../../lib/gcc/pic32c/8.3.1/thumb/v6-m/nofp\libgcc.a(_divdi3.o)
 .debug_frame   0x0000000000002b04       0x20 c:/program files/microchip/xc32/v4.60/bin/bin/../../lib/gcc/pic32c/8.3.1/../../../../pic32c/lib/thumb/v6-m/nofp\libpic32c.a(close.o)
 .debug_frame   0x0000000000002b24       0x20 c:/program files/microchip/xc32/v4.60/bin/bin/../../lib/gcc/pic32c/8.3.1/../../../../pic32c/lib/thumb/v6-m/nofp\libpic32c.a(lseek.o)
 .debug_frame   0x0000000000002b44       0x2c c:/program files/microchip/xc32/v4.60/bin/bin/../../lib/gcc/pic32c/8.3.1/../../../../pic32c/lib/thumb/v6-m/nofp\libpic32c.a(read.o)
 .debug_frame   0x0000000000002b70       0x2c c:/program files/microchip/xc32/v4.60/bin/bin/../../lib/gcc/pic32c/8.3.1/../../../../pic32c/lib/thumb/v6-m/nofp\libpic32c.a(write.o)
 .debug_frame   0x0000000000002b9c       0x20 c:/program files/microchip/xc32/v4.60/bin/bin/../../lib/gcc/pic32c/8.3.1/../../../../pic32c/lib/thumb/v6-m/nofp\libc-size-musl.a(strlen.o)
 .debug_frame   0x0000000000002bbc       0x28 c:/program files/microchip/xc32/v4.60/bin/bin/../../lib/gcc/pic32c/8.3.1/../../../../pic32c/lib/thumb/v6-m/nofp\libc-size-musl.a(strcpy.o)
 .debug_frame   0x0000000000002be4       0x20 c:/program files/microchip/xc32/v4.60/bin/bin/../../lib/gcc/pic32c/8.3.1/../../../../pic32c/lib/thumb/v6-m/nofp\libc-size-musl.a(stpcpy.o)
 .debug_frame   0x0000000000002c04       0x30 c:/program files/microchip/xc32/v4.60/bin/bin/../../lib/gcc/pic32c/8.3.1/../../../../pic32c/lib/thumb/v6-m/nofp\liblmalloc-musl.a(lite_malloc.o)
 .debug_frame   0x0000000000002c34       0x64 c:/program files/microchip/xc32/v4.60/bin/bin/../../lib/gcc/pic32c/8.3.1/../../../../pic32c/lib/thumb/v6-m/nofp\liblmalloc-musl.a(lite_free.o)
 .debug_frame   0x0000000000002c98       0x28 c:/program files/microchip/xc32/v4.60/bin/bin/../../lib/gcc/pic32c/8.3.1/../../../../pic32c/lib/thumb/v6-m/nofp\libg-musl.a(expand_heap.o)
 .debug_frame   0x0000000000002cc0       0x54 c:/program files/microchip/xc32/v4.60/bin/bin/../../lib/gcc/pic32c/8.3.1/../../../../pic32c/lib/thumb/v6-m/nofp\libpic32c.a(sbrk.o)
 .debug_frame   0x0000000000002d14       0x20 c:/program files/microchip/xc32/v4.60/bin/bin/../../lib/gcc/pic32c/8.3.1/../../../../pic32c/lib/thumb/v6-m/nofp\libpic32c.a(pic32_data_init_clear.o)
 .debug_frame   0x0000000000002d34       0x28 c:/program files/microchip/xc32/v4.60/bin/bin/../../lib/gcc/pic32c/8.3.1/../../../../pic32c/lib/thumb/v6-m/nofp\libpic32c.a(pic32_data_init_copy.o)

.note.GNU-stack
                0x0000000000000000        0x0
 .note.GNU-stack
                0x0000000000000000        0x0 c:/program files/microchip/xc32/v4.60/bin/bin/../../lib/gcc/pic32c/8.3.1/../../../../pic32c/lib/thumb/v6-m/nofp\libc-size-musl.a(memcpy.o)
 .note.GNU-stack
                0x0000000000000000        0x0 c:/program files/microchip/xc32/v4.60/bin/bin/../../lib/gcc/pic32c/8.3.1/../../../../pic32c/lib/thumb/v6-m/nofp\libc-size-musl.a(memset.o)
 .note.GNU-stack
                0x0000000000000000        0x0 c:/program files/microchip/xc32/v4.60/bin/bin/../../lib/gcc/pic32c/8.3.1/../../../../pic32c/lib/thumb/v6-m/nofp\libg-musl.a(__libc_start_main.o)
 .note.GNU-stack
                0x0000000000000000        0x0 c:/program files/microchip/xc32/v4.60/bin/bin/../../lib/gcc/pic32c/8.3.1/../../../../pic32c/lib/thumb/v6-m/nofp\libg-musl.a(__errno_location.o)
 .note.GNU-stack
                0x0000000000000000        0x0 c:/program files/microchip/xc32/v4.60/bin/bin/../../lib/gcc/pic32c/8.3.1/../../../../pic32c/lib/thumb/v6-m/nofp\libg-musl.a(libc.o)
 .note.GNU-stack
                0x0000000000000000        0x0 c:/program files/microchip/xc32/v4.60/bin/bin/../../lib/gcc/pic32c/8.3.1/../../../../pic32c/lib/thumb/v6-m/nofp\libg-musl.a(__sio_printf_cdeEfFgGnpsxX.o)
 .note.GNU-stack
                0x0000000000000000        0x0 c:/program files/microchip/xc32/v4.60/bin/bin/../../lib/gcc/pic32c/8.3.1/../../../../pic32c/lib/thumb/v6-m/nofp\libg-musl.a(__sio_sprintf_cdeEfFgGnpsxX.o)
 .note.GNU-stack
                0x0000000000000000        0x0 c:/program files/microchip/xc32/v4.60/bin/bin/../../lib/gcc/pic32c/8.3.1/../../../../pic32c/lib/thumb/v6-m/nofp\libg-musl.a(__fmt_d.o)
 .note.GNU-stack
                0x0000000000000000        0x0 c:/program files/microchip/xc32/v4.60/bin/bin/../../lib/gcc/pic32c/8.3.1/../../../../pic32c/lib/thumb/v6-m/nofp\libg-musl.a(__fmt_fp.o)
 .note.GNU-stack
                0x0000000000000000        0x0 c:/program files/microchip/xc32/v4.60/bin/bin/../../lib/gcc/pic32c/8.3.1/../../../../pic32c/lib/thumb/v6-m/nofp\libg-musl.a(__fmt_s.o)
 .note.GNU-stack
                0x0000000000000000        0x0 c:/program files/microchip/xc32/v4.60/bin/bin/../../lib/gcc/pic32c/8.3.1/../../../../pic32c/lib/thumb/v6-m/nofp\libg-musl.a(__fmt_x.o)
 .note.GNU-stack
                0x0000000000000000        0x0 c:/program files/microchip/xc32/v4.60/bin/bin/../../lib/gcc/pic32c/8.3.1/../../../../pic32c/lib/thumb/v6-m/nofp\libg-musl.a(__pop_float.o)
 .note.GNU-stack
                0x0000000000000000        0x0 c:/program files/microchip/xc32/v4.60/bin/bin/../../lib/gcc/pic32c/8.3.1/../../../../pic32c/lib/thumb/v6-m/nofp\libg-musl.a(__pop_int.o)
 .note.GNU-stack
                0x0000000000000000        0x0 c:/program files/microchip/xc32/v4.60/bin/bin/../../lib/gcc/pic32c/8.3.1/../../../../pic32c/lib/thumb/v6-m/nofp\libg-musl.a(__pop_ptr.o)
 .note.GNU-stack
                0x0000000000000000        0x0 c:/program files/microchip/xc32/v4.60/bin/bin/../../lib/gcc/pic32c/8.3.1/../../../../pic32c/lib/thumb/v6-m/nofp\libg-musl.a(__printf_core.o)
 .note.GNU-stack
                0x0000000000000000        0x0 c:/program files/microchip/xc32/v4.60/bin/bin/../../lib/gcc/pic32c/8.3.1/../../../../pic32c/lib/thumb/v6-m/nofp\libg-musl.a(stdin.o)
 .note.GNU-stack
                0x0000000000000000        0x0 c:/program files/microchip/xc32/v4.60/bin/bin/../../lib/gcc/pic32c/8.3.1/../../../../pic32c/lib/thumb/v6-m/nofp\libg-musl.a(stdout.o)
 .note.GNU-stack
                0x0000000000000000        0x0 c:/program files/microchip/xc32/v4.60/bin/bin/../../lib/gcc/pic32c/8.3.1/../../../../pic32c/lib/thumb/v6-m/nofp\libg-musl.a(putchar.o)
 .note.GNU-stack
                0x0000000000000000        0x0 c:/program files/microchip/xc32/v4.60/bin/bin/../../lib/gcc/pic32c/8.3.1/../../../../pic32c/lib/thumb/v6-m/nofp\libg-musl.a(puts.o)
 .note.GNU-stack
                0x0000000000000000        0x0 c:/program files/microchip/xc32/v4.60/bin/bin/../../lib/gcc/pic32c/8.3.1/../../../../pic32c/lib/thumb/v6-m/nofp\libg-musl.a(setbuf.o)
 .note.GNU-stack
                0x0000000000000000        0x0 c:/program files/microchip/xc32/v4.60/bin/bin/../../lib/gcc/pic32c/8.3.1/../../../../pic32c/lib/thumb/v6-m/nofp\libg-musl.a(atoi.o)
 .note.GNU-stack
                0x0000000000000000        0x0 c:/program files/microchip/xc32/v4.60/bin/bin/../../lib/gcc/pic32c/8.3.1/../../../../pic32c/lib/thumb/v6-m/nofp\libg-musl.a(tolower.o)
 .note.GNU-stack
                0x0000000000000000        0x0 c:/program files/microchip/xc32/v4.60/bin/bin/../../lib/gcc/pic32c/8.3.1/../../../../pic32c/lib/thumb/v6-m/nofp\libg-musl.a(toupper.o)
 .note.GNU-stack
                0x0000000000000000        0x0 c:/program files/microchip/xc32/v4.60/bin/bin/../../lib/gcc/pic32c/8.3.1/../../../../pic32c/lib/thumb/v6-m/nofp\libg-musl.a(__environ.o)
 .note.GNU-stack
                0x0000000000000000        0x0 c:/program files/microchip/xc32/v4.60/bin/bin/../../lib/gcc/pic32c/8.3.1/../../../../pic32c/lib/thumb/v6-m/nofp\libg-musl.a(__int_vfprintf.o)
 .note.GNU-stack
                0x0000000000000000        0x0 c:/program files/microchip/xc32/v4.60/bin/bin/../../lib/gcc/pic32c/8.3.1/../../../../pic32c/lib/thumb/v6-m/nofp\libg-musl.a(__int_vsprintf.o)
 .note.GNU-stack
                0x0000000000000000        0x0 c:/program files/microchip/xc32/v4.60/bin/bin/../../lib/gcc/pic32c/8.3.1/../../../../pic32c/lib/thumb/v6-m/nofp\libg-musl.a(fputs.o)
 .note.GNU-stack
                0x0000000000000000        0x0 c:/program files/microchip/xc32/v4.60/bin/bin/../../lib/gcc/pic32c/8.3.1/../../../../pic32c/lib/thumb/v6-m/nofp\libg-musl.a(__cvt_u.o)
 .note.GNU-stack
                0x0000000000000000        0x0 c:/program files/microchip/xc32/v4.60/bin/bin/../../lib/gcc/pic32c/8.3.1/../../../../pic32c/lib/thumb/v6-m/nofp\libg-musl.a(__stdio_read.o)
 .note.GNU-stack
                0x0000000000000000        0x0 c:/program files/microchip/xc32/v4.60/bin/bin/../../lib/gcc/pic32c/8.3.1/../../../../pic32c/lib/thumb/v6-m/nofp\libg-musl.a(__towrite_rw.o)
 .note.GNU-stack
                0x0000000000000000        0x0 c:/program files/microchip/xc32/v4.60/bin/bin/../../lib/gcc/pic32c/8.3.1/../../../../pic32c/lib/thumb/v6-m/nofp\libg-musl.a(fwrite.o)
 .note.GNU-stack
                0x0000000000000000        0x0 c:/program files/microchip/xc32/v4.60/bin/bin/../../lib/gcc/pic32c/8.3.1/../../../../pic32c/lib/thumb/v6-m/nofp\libg-musl.a(putc.o)
 .note.GNU-stack
                0x0000000000000000        0x0 c:/program files/microchip/xc32/v4.60/bin/bin/../../lib/gcc/pic32c/8.3.1/../../../../pic32c/lib/thumb/v6-m/nofp\libg-musl.a(setvbuf.o)
 .note.GNU-stack
                0x0000000000000000        0x0 c:/program files/microchip/xc32/v4.60/bin/bin/../../lib/gcc/pic32c/8.3.1/../../../../pic32c/lib/thumb/v6-m/nofp\libg-musl.a(readv.o)
 .note.GNU-stack
                0x0000000000000000        0x0 c:/program files/microchip/xc32/v4.60/bin/bin/../../lib/gcc/pic32c/8.3.1/../../../../pic32c/lib/thumb/v6-m/nofp\libg-musl.a(__int_vsnprintf.o)
 .note.GNU-stack
                0x0000000000000000        0x0 c:/program files/microchip/xc32/v4.60/bin/bin/../../lib/gcc/pic32c/8.3.1/../../../../pic32c/lib/thumb/v6-m/nofp\libg-musl.a(__init_stdio.o)
 .note.GNU-stack
                0x0000000000000000        0x0 c:/program files/microchip/xc32/v4.60/bin/bin/../../lib/gcc/pic32c/8.3.1/../../../../pic32c/lib/thumb/v6-m/nofp\libg-musl.a(__out.o)
 .note.GNU-stack
                0x0000000000000000        0x0 c:/program files/microchip/xc32/v4.60/bin/bin/../../lib/gcc/pic32c/8.3.1/../../../../pic32c/lib/thumb/v6-m/nofp\libg-musl.a(__putc.o)
 .note.GNU-stack
                0x0000000000000000        0x0 c:/program files/microchip/xc32/v4.60/bin/bin/../../lib/gcc/pic32c/8.3.1/../../../../pic32c/lib/thumb/v6-m/nofp\libg-musl.a(__stderr.o)
 .note.GNU-stack
                0x0000000000000000        0x0 c:/program files/microchip/xc32/v4.60/bin/bin/../../lib/gcc/pic32c/8.3.1/../../../../pic32c/lib/thumb/v6-m/nofp\libg-musl.a(__stdio_close.o)
 .note.GNU-stack
                0x0000000000000000        0x0 c:/program files/microchip/xc32/v4.60/bin/bin/../../lib/gcc/pic32c/8.3.1/../../../../pic32c/lib/thumb/v6-m/nofp\libg-musl.a(__stdio_write.o)
 .note.GNU-stack
                0x0000000000000000        0x0 c:/program files/microchip/xc32/v4.60/bin/bin/../../lib/gcc/pic32c/8.3.1/../../../../pic32c/lib/thumb/v6-m/nofp\libg-musl.a(__stdout.o)
 .note.GNU-stack
                0x0000000000000000        0x0 c:/program files/microchip/xc32/v4.60/bin/bin/../../lib/gcc/pic32c/8.3.1/../../../../pic32c/lib/thumb/v6-m/nofp\libg-musl.a(__towrite.o)
 .note.GNU-stack
                0x0000000000000000        0x0 c:/program files/microchip/xc32/v4.60/bin/bin/../../lib/gcc/pic32c/8.3.1/../../../../pic32c/lib/thumb/v6-m/nofp\libg-musl.a(writev.o)
 .note.GNU-stack
                0x0000000000000000        0x0 c:/program files/microchip/xc32/v4.60/bin/bin/../../lib/gcc/pic32c/8.3.1/../../../../pic32c/lib/thumb/v6-m/nofp\libg-musl.a(__overflow.o)
 .note.GNU-stack
                0x0000000000000000        0x0 c:/program files/microchip/xc32/v4.60/bin/bin/../../lib/gcc/pic32c/8.3.1/../../../../pic32c/lib/thumb/v6-m/nofp\libg-musl.a(__fwrite.o)
 .note.GNU-stack
                0x0000000000000000        0x0 c:/program files/microchip/xc32/v4.60/bin/bin/../../lib/gcc/pic32c/8.3.1/../../../../pic32c/lib/thumb/v6-m/nofp\libc-size-musl.a(strlen.o)
 .note.GNU-stack
                0x0000000000000000        0x0 c:/program files/microchip/xc32/v4.60/bin/bin/../../lib/gcc/pic32c/8.3.1/../../../../pic32c/lib/thumb/v6-m/nofp\libc-size-musl.a(strcpy.o)
 .note.GNU-stack
                0x0000000000000000        0x0 c:/program files/microchip/xc32/v4.60/bin/bin/../../lib/gcc/pic32c/8.3.1/../../../../pic32c/lib/thumb/v6-m/nofp\libc-size-musl.a(stpcpy.o)
 .note.GNU-stack
                0x0000000000000000        0x0 c:/program files/microchip/xc32/v4.60/bin/bin/../../lib/gcc/pic32c/8.3.1/../../../../pic32c/lib/thumb/v6-m/nofp\liblmalloc-musl.a(lite_malloc.o)
 .note.GNU-stack
                0x0000000000000000        0x0 c:/program files/microchip/xc32/v4.60/bin/bin/../../lib/gcc/pic32c/8.3.1/../../../../pic32c/lib/thumb/v6-m/nofp\liblmalloc-musl.a(lite_free.o)
 .note.GNU-stack
                0x0000000000000000        0x0 c:/program files/microchip/xc32/v4.60/bin/bin/../../lib/gcc/pic32c/8.3.1/../../../../pic32c/lib/thumb/v6-m/nofp\libg-musl.a(expand_heap.o)

__xc_reference_data
                0x0000000000000000       0xdc
 __xc_reference_data
                0x0000000000000000        0x8 c:/program files/microchip/xc32/v4.60/bin/bin/../../lib/gcc/pic32c/8.3.1/../../../../pic32c/lib/thumb/v6-m/nofp\libg-musl.a(stdin.o)
                0x0000000000000000                __stdin_needs_rw
 __xc_reference_data
                0x0000000000000008        0x8 c:/program files/microchip/xc32/v4.60/bin/bin/../../lib/gcc/pic32c/8.3.1/../../../../pic32c/lib/thumb/v6-m/nofp\libg-musl.a(stdout.o)
                0x0000000000000008                __stdout_needs_init
 __xc_reference_data
                0x0000000000000010       0x14 c:/program files/microchip/xc32/v4.60/bin/bin/../../lib/gcc/pic32c/8.3.1/../../../../pic32c/lib/thumb/v6-m/nofp\libg-musl.a(__io_init_needed.o)
                0x0000000000000010                __io_init_needed
                0x000000000000001c                __io_init_needs_file
 __xc_reference_data
                0x0000000000000024       0x20 c:/program files/microchip/xc32/v4.60/bin/bin/../../lib/gcc/pic32c/8.3.1/../../../../pic32c/lib/thumb/v6-m/nofp\libg-musl.a(__io_rw_needed.o)
                0x0000000000000024                __io_rw_needed
 __xc_reference_data
                0x0000000000000044        0xc c:/program files/microchip/xc32/v4.60/bin/bin/../../lib/gcc/pic32c/8.3.1/../../../../pic32c/lib/thumb/v6-m/nofp\libg-musl.a(putc.o)
                0x0000000000000044                __putc_needs_out
 __xc_reference_data
                0x0000000000000050        0x8 c:/program files/microchip/xc32/v4.60/bin/bin/../../lib/gcc/pic32c/8.3.1/../../../../pic32c/lib/thumb/v6-m/nofp\libg-musl.a(setvbuf.o)
                0x0000000000000050                __setvbuf_needs_buf
 __xc_reference_data
                0x0000000000000058       0x34 c:/program files/microchip/xc32/v4.60/bin/bin/../../lib/gcc/pic32c/8.3.1/../../../../pic32c/lib/thumb/v6-m/nofp\libg-musl.a(__io_buf_needed.o)
                0x0000000000000058                __io_buf_needed
 __xc_reference_data
                0x000000000000008c        0xc c:/program files/microchip/xc32/v4.60/bin/bin/../../lib/gcc/pic32c/8.3.1/../../../../pic32c/lib/thumb/v6-m/nofp\libg-musl.a(__io_file_needed.o)
                0x000000000000008c                __io_file_needed
 __xc_reference_data
                0x0000000000000098       0x2c c:/program files/microchip/xc32/v4.60/bin/bin/../../lib/gcc/pic32c/8.3.1/../../../../pic32c/lib/thumb/v6-m/nofp\libg-musl.a(__io_std_needed.o)
                0x0000000000000098                __io_std_needed
 __xc_reference_data
                0x00000000000000c4        0x8 c:/program files/microchip/xc32/v4.60/bin/bin/../../lib/gcc/pic32c/8.3.1/../../../../pic32c/lib/thumb/v6-m/nofp\libg-musl.a(__stderr.o)
                0x00000000000000c4                __stderr_needs_file
 __xc_reference_data
                0x00000000000000cc        0x8 c:/program files/microchip/xc32/v4.60/bin/bin/../../lib/gcc/pic32c/8.3.1/../../../../pic32c/lib/thumb/v6-m/nofp\libg-musl.a(__stdout.o)
                0x00000000000000cc                __stdout_needs_file
 __xc_reference_data
                0x00000000000000d4        0x8 c:/program files/microchip/xc32/v4.60/bin/bin/../../lib/gcc/pic32c/8.3.1/../../../../pic32c/lib/thumb/v6-m/nofp\libg-musl.a(__fwrite.o)
                0x00000000000000d4                __fwrite_needs_std

.stack          0x0000000020003708      0x100
 .stack         0x0000000020003708      0x100 stack

.bss%1          0x0000000020000000      0xae0
 .bss           0x0000000020000000      0xae0 build/SAMD21_IOT_WG_ICM42688/debug/_ext/1360937237/main.o

.bss%2          0x0000000020000ae0      0x84c
 .bss           0x0000000020000ae0      0x84c build/SAMD21_IOT_WG_ICM42688/debug/_ext/26920679/kb.o
                0x0000000020000bcc                sortedData
                0x0000000020000ccc                rbuffers_0
                0x0000000020000ccc                sbuffers_0
                0x0000000020000ccc                RAW_SDATA_BUFFER_0
                0x0000000020000d2c                RAW_DATA_BUFFER_0

.bss%3          0x000000002000132c      0x408
 .bss           0x000000002000132c      0x408 c:/program files/microchip/xc32/v4.60/bin/bin/../../lib/gcc/pic32c/8.3.1/../../../../pic32c/lib/thumb/v6-m/nofp\libg-musl.a(stdin.o)

.bss%4          0x0000000020001734      0x200
 .bss           0x0000000020001734      0x200 build/SAMD21_IOT_WG_ICM42688/debug/_ext/741007211/sml_recognition_run.o

.bss%5          0x0000000020001934       0xc0
 .bss           0x0000000020001934       0xc0 build/SAMD21_IOT_WG_ICM42688/debug/_ext/503204096/plib_eic.o
                0x0000000020001934                eicCallbackObject

.bss%6          0x00000000200019f4       0x50
 .bss           0x00000000200019f4       0x50 c:/program files/microchip/xc32/v4.60/bin/bin/../../lib/gcc/pic32c/8.3.1/../../../../pic32c/lib/thumb/v6-m/nofp\libg-musl.a(libc.o)
                0x00000000200019f4                __progname_full
                0x00000000200019f4                program_invocation_name
                0x00000000200019f8                program_invocation_short_name
                0x00000000200019f8                __progname
                0x00000000200019fc                __sysinfo
                0x0000000020001a00                __hwcap
                0x0000000020001a04                __libc

.bss%7          0x0000000020001a44       0x3c
 .bss           0x0000000020001a44       0x3c build/SAMD21_IOT_WG_ICM42688/debug/_ext/26920679/kb_pipeline.o
                0x0000000020001a6c                columns

.bss%8          0x0000000020001a80       0x1c
 .bss           0x0000000020001a80       0x1c c:/program files/microchip/xc32/v4.60/bin/bin/../../lib/gcc/pic32c/8.3.1/thumb/v6-m/nofp/crtbegin.o

.bss%9          0x0000000020001a9c       0x10
 .bss           0x0000000020001a9c       0x10 build/SAMD21_IOT_WG_ICM42688/debug/_ext/26920679/tree_ensemble.o
                0x0000000020001a9c                classification_counts
                0x0000000020001aa8                ClassifierTable

.bss%10         0x0000000020001aac        0xc
 .bss           0x0000000020001aac        0xc build/SAMD21_IOT_WG_ICM42688/debug/_ext/223004715/plib_systick.o

.bss%11         0x0000000020001ab8        0xc
 .bss           0x0000000020001ab8        0xc c:/program files/microchip/xc32/v4.60/bin/bin/../../lib/gcc/pic32c/8.3.1/../../../../pic32c/lib/thumb/v6-m/nofp\libpic32c.a(sbrk.o)
                0x0000000020001abc                _maxbrk
                0x0000000020001ac0                _minbrk

.bss%12         0x0000000020001ac4        0x8
 .bss           0x0000000020001ac4        0x8 build/SAMD21_IOT_WG_ICM42688/debug/_ext/399410062/plib_tc3.o
                0x0000000020001ac4                TC3_CallbackObject

.bss%13         0x0000000020001acc        0x8
 .bss           0x0000000020001acc        0x8 c:/program files/microchip/xc32/v4.60/bin/bin/../../lib/gcc/pic32c/8.3.1/../../../../pic32c/lib/thumb/v6-m/nofp\libg-musl.a(stdout.o)
                0x0000000020001ad0                __stdout_used

.bss%14         0x0000000020001ad4        0x4
 .bss           0x0000000020001ad4        0x4 build/SAMD21_IOT_WG_ICM42688/debug/_ext/2048461350/icm42688_sensor.o

.bss%15         0x0000000020001ad8        0x4
 .bss           0x0000000020001ad8        0x4 c:/program files/microchip/xc32/v4.60/bin/bin/../../lib/gcc/pic32c/8.3.1/../../../../pic32c/lib/thumb/v6-m/nofp\libpic32c.a(data_init.o)

.bss%16         0x0000000020001adc        0x4
 .bss           0x0000000020001adc        0x4 c:/program files/microchip/xc32/v4.60/bin/bin/../../lib/gcc/pic32c/8.3.1/../../../../pic32c/lib/thumb/v6-m/nofp\libg-musl.a(__errno_location.o)
                0x0000000020001adc                __errno_val

.bss%17         0x0000000020001ae0        0x4
 .bss           0x0000000020001ae0        0x4 c:/program files/microchip/xc32/v4.60/bin/bin/../../lib/gcc/pic32c/8.3.1/../../../../pic32c/lib/thumb/v6-m/nofp\libg-musl.a(__environ.o)
                0x0000000020001ae0                __environ
                0x0000000020001ae0                environ
                0x0000000020001ae0                ___environ
                0x0000000020001ae0                _environ

.bss%18         0x0000000020001ae4        0x4
 .bss           0x0000000020001ae4        0x4 c:/program files/microchip/xc32/v4.60/bin/bin/../../lib/gcc/pic32c/8.3.1/../../../../pic32c/lib/thumb/v6-m/nofp\liblmalloc-musl.a(lite_free.o)
                0x0000000020001ae4                __freelist

.data%19        0x0000000020001ae8     0x1882
 .data          0x0000000020001ae8     0x1882 build/SAMD21_IOT_WG_ICM42688/debug/_ext/26920679/tree_ensemble_trained_models.o
                0x0000000020001ae8                tree_ensemble_classifier_rows
                0x0000000020001af0                forest_ensemble_models_0
                0x0000000020001f50                model_0_features_tree_69
                0x0000000020001f60                model_0_threshold_tree_69
                0x0000000020001f68                model_0_right_children_tree_69
                0x0000000020001f78                model_0_left_children_tree_69
                0x0000000020001f88                model_0_features_tree_68
                0x0000000020001f9c                model_0_threshold_tree_68
                0x0000000020001fa8                model_0_right_children_tree_68
                0x0000000020001fbc                model_0_left_children_tree_68
                0x0000000020001fd0                model_0_features_tree_67
                0x0000000020001fe0                model_0_threshold_tree_67
                0x0000000020001fe8                model_0_right_children_tree_67
                0x0000000020001ff8                model_0_left_children_tree_67
                0x0000000020002008                model_0_features_tree_66
                0x0000000020002018                model_0_threshold_tree_66
                0x0000000020002020                model_0_right_children_tree_66
                0x0000000020002030                model_0_left_children_tree_66
                0x0000000020002040                model_0_features_tree_65
                0x0000000020002050                model_0_threshold_tree_65
                0x0000000020002058                model_0_right_children_tree_65
                0x0000000020002068                model_0_left_children_tree_65
                0x0000000020002078                model_0_features_tree_64
                0x000000002000208c                model_0_threshold_tree_64
                0x0000000020002098                model_0_right_children_tree_64
                0x00000000200020ac                model_0_left_children_tree_64
                0x00000000200020c0                model_0_features_tree_63
                0x00000000200020d4                model_0_threshold_tree_63
                0x00000000200020e0                model_0_right_children_tree_63
                0x00000000200020f4                model_0_left_children_tree_63
                0x0000000020002108                model_0_features_tree_62
                0x0000000020002118                model_0_threshold_tree_62
                0x0000000020002120                model_0_right_children_tree_62
                0x0000000020002130                model_0_left_children_tree_62
                0x0000000020002140                model_0_features_tree_61
                0x0000000020002158                model_0_threshold_tree_61
                0x0000000020002164                model_0_right_children_tree_61
                0x000000002000217c                model_0_left_children_tree_61
                0x0000000020002194                model_0_features_tree_60
                0x00000000200021a8                model_0_threshold_tree_60
                0x00000000200021b4                model_0_right_children_tree_60
                0x00000000200021c8                model_0_left_children_tree_60
                0x00000000200021dc                model_0_features_tree_59
                0x00000000200021f4                model_0_threshold_tree_59
                0x0000000020002200                model_0_right_children_tree_59
                0x0000000020002218                model_0_left_children_tree_59
                0x0000000020002230                model_0_features_tree_58
                0x0000000020002244                model_0_threshold_tree_58
                0x0000000020002250                model_0_right_children_tree_58
                0x0000000020002264                model_0_left_children_tree_58
                0x0000000020002278                model_0_features_tree_57
                0x0000000020002290                model_0_threshold_tree_57
                0x000000002000229c                model_0_right_children_tree_57
                0x00000000200022b4                model_0_left_children_tree_57
                0x00000000200022cc                model_0_features_tree_56
                0x00000000200022e8                model_0_threshold_tree_56
                0x00000000200022f8                model_0_right_children_tree_56
                0x0000000020002314                model_0_left_children_tree_56
                0x0000000020002330                model_0_features_tree_55
                0x0000000020002340                model_0_threshold_tree_55
                0x0000000020002348                model_0_right_children_tree_55
                0x0000000020002358                model_0_left_children_tree_55
                0x0000000020002368                model_0_features_tree_54
                0x000000002000237c                model_0_threshold_tree_54
                0x0000000020002388                model_0_right_children_tree_54
                0x000000002000239c                model_0_left_children_tree_54
                0x00000000200023b0                model_0_features_tree_53
                0x00000000200023c8                model_0_threshold_tree_53
                0x00000000200023d4                model_0_right_children_tree_53
                0x00000000200023ec                model_0_left_children_tree_53
                0x0000000020002404                model_0_features_tree_52
                0x0000000020002418                model_0_threshold_tree_52
                0x0000000020002424                model_0_right_children_tree_52
                0x0000000020002438                model_0_left_children_tree_52
                0x000000002000244c                model_0_features_tree_51
                0x0000000020002468                model_0_threshold_tree_51
                0x0000000020002478                model_0_right_children_tree_51
                0x0000000020002494                model_0_left_children_tree_51
                0x00000000200024b0                model_0_features_tree_50
                0x00000000200024cc                model_0_threshold_tree_50
                0x00000000200024dc                model_0_right_children_tree_50
                0x00000000200024f8                model_0_left_children_tree_50
                0x0000000020002514                model_0_features_tree_49
                0x0000000020002534                model_0_threshold_tree_49
                0x0000000020002544                model_0_right_children_tree_49
                0x0000000020002564                model_0_left_children_tree_49
                0x0000000020002584                model_0_features_tree_48
                0x00000000200025a0                model_0_threshold_tree_48
                0x00000000200025b0                model_0_right_children_tree_48
                0x00000000200025cc                model_0_left_children_tree_48
                0x00000000200025e8                model_0_features_tree_47
                0x00000000200025fc                model_0_threshold_tree_47
                0x0000000020002608                model_0_right_children_tree_47
                0x000000002000261c                model_0_left_children_tree_47
                0x0000000020002630                model_0_features_tree_46
                0x0000000020002640                model_0_threshold_tree_46
                0x0000000020002648                model_0_right_children_tree_46
                0x0000000020002658                model_0_left_children_tree_46
                0x0000000020002668                model_0_features_tree_45
                0x0000000020002680                model_0_threshold_tree_45
                0x000000002000268c                model_0_right_children_tree_45
                0x00000000200026a4                model_0_left_children_tree_45
                0x00000000200026bc                model_0_features_tree_44
                0x00000000200026cc                model_0_threshold_tree_44
                0x00000000200026d4                model_0_right_children_tree_44
                0x00000000200026e4                model_0_left_children_tree_44
                0x00000000200026f4                model_0_features_tree_43
                0x0000000020002704                model_0_threshold_tree_43
                0x000000002000270c                model_0_right_children_tree_43
                0x000000002000271c                model_0_left_children_tree_43
                0x000000002000272c                model_0_features_tree_42
                0x0000000020002740                model_0_threshold_tree_42
                0x000000002000274c                model_0_right_children_tree_42
                0x0000000020002760                model_0_left_children_tree_42
                0x0000000020002774                model_0_features_tree_41
                0x0000000020002784                model_0_threshold_tree_41
                0x000000002000278c                model_0_right_children_tree_41
                0x000000002000279c                model_0_left_children_tree_41
                0x00000000200027ac                model_0_features_tree_40
                0x00000000200027c0                model_0_threshold_tree_40
                0x00000000200027cc                model_0_right_children_tree_40
                0x00000000200027e0                model_0_left_children_tree_40
                0x00000000200027f4                model_0_features_tree_39
                0x0000000020002808                model_0_threshold_tree_39
                0x0000000020002814                model_0_right_children_tree_39
                0x0000000020002828                model_0_left_children_tree_39
                0x000000002000283c                model_0_features_tree_38
                0x0000000020002850                model_0_threshold_tree_38
                0x000000002000285c                model_0_right_children_tree_38
                0x0000000020002870                model_0_left_children_tree_38
                0x0000000020002884                model_0_features_tree_37
                0x0000000020002894                model_0_threshold_tree_37
                0x000000002000289c                model_0_right_children_tree_37
                0x00000000200028ac                model_0_left_children_tree_37
                0x00000000200028bc                model_0_features_tree_36
                0x00000000200028cc                model_0_threshold_tree_36
                0x00000000200028d4                model_0_right_children_tree_36
                0x00000000200028e4                model_0_left_children_tree_36
                0x00000000200028f4                model_0_features_tree_35
                0x0000000020002908                model_0_threshold_tree_35
                0x0000000020002914                model_0_right_children_tree_35
                0x0000000020002928                model_0_left_children_tree_35
                0x000000002000293c                model_0_features_tree_34
                0x0000000020002950                model_0_threshold_tree_34
                0x000000002000295c                model_0_right_children_tree_34
                0x0000000020002970                model_0_left_children_tree_34
                0x0000000020002984                model_0_features_tree_33
                0x000000002000299c                model_0_threshold_tree_33
                0x00000000200029a8                model_0_right_children_tree_33
                0x00000000200029c0                model_0_left_children_tree_33
                0x00000000200029d8                model_0_features_tree_32
                0x00000000200029e8                model_0_threshold_tree_32
                0x00000000200029f0                model_0_right_children_tree_32
                0x0000000020002a00                model_0_left_children_tree_32
                0x0000000020002a10                model_0_features_tree_31
                0x0000000020002a2c                model_0_threshold_tree_31
                0x0000000020002a3c                model_0_right_children_tree_31
                0x0000000020002a58                model_0_left_children_tree_31
                0x0000000020002a74                model_0_features_tree_30
                0x0000000020002a88                model_0_threshold_tree_30
                0x0000000020002a94                model_0_right_children_tree_30
                0x0000000020002aa8                model_0_left_children_tree_30
                0x0000000020002abc                model_0_features_tree_29
                0x0000000020002ad0                model_0_threshold_tree_29
                0x0000000020002adc                model_0_right_children_tree_29
                0x0000000020002af0                model_0_left_children_tree_29
                0x0000000020002b04                model_0_features_tree_28
                0x0000000020002b18                model_0_threshold_tree_28
                0x0000000020002b24                model_0_right_children_tree_28
                0x0000000020002b38                model_0_left_children_tree_28
                0x0000000020002b4c                model_0_features_tree_27
                0x0000000020002b5c                model_0_threshold_tree_27
                0x0000000020002b64                model_0_right_children_tree_27
                0x0000000020002b74                model_0_left_children_tree_27
                0x0000000020002b84                model_0_features_tree_26
                0x0000000020002b98                model_0_threshold_tree_26
                0x0000000020002ba4                model_0_right_children_tree_26
                0x0000000020002bb8                model_0_left_children_tree_26
                0x0000000020002bcc                model_0_features_tree_25
                0x0000000020002bdc                model_0_threshold_tree_25
                0x0000000020002be4                model_0_right_children_tree_25
                0x0000000020002bf4                model_0_left_children_tree_25
                0x0000000020002c04                model_0_features_tree_24
                0x0000000020002c18                model_0_threshold_tree_24
                0x0000000020002c24                model_0_right_children_tree_24
                0x0000000020002c38                model_0_left_children_tree_24
                0x0000000020002c4c                model_0_features_tree_23
                0x0000000020002c68                model_0_threshold_tree_23
                0x0000000020002c78                model_0_right_children_tree_23
                0x0000000020002c94                model_0_left_children_tree_23
                0x0000000020002cb0                model_0_features_tree_22
                0x0000000020002cd0                model_0_threshold_tree_22
                0x0000000020002ce0                model_0_right_children_tree_22
                0x0000000020002d00                model_0_left_children_tree_22
                0x0000000020002d20                model_0_features_tree_21
                0x0000000020002d30                model_0_threshold_tree_21
                0x0000000020002d38                model_0_right_children_tree_21
                0x0000000020002d48                model_0_left_children_tree_21
                0x0000000020002d58                model_0_features_tree_20
                0x0000000020002d6c                model_0_threshold_tree_20
                0x0000000020002d78                model_0_right_children_tree_20
                0x0000000020002d8c                model_0_left_children_tree_20
                0x0000000020002da0                model_0_features_tree_19
                0x0000000020002db4                model_0_threshold_tree_19
                0x0000000020002dc0                model_0_right_children_tree_19
                0x0000000020002dd4                model_0_left_children_tree_19
                0x0000000020002de8                model_0_features_tree_18
                0x0000000020002e00                model_0_threshold_tree_18
                0x0000000020002e0c                model_0_right_children_tree_18
                0x0000000020002e24                model_0_left_children_tree_18
                0x0000000020002e3c                model_0_features_tree_17
                0x0000000020002e50                model_0_threshold_tree_17
                0x0000000020002e5c                model_0_right_children_tree_17
                0x0000000020002e70                model_0_left_children_tree_17
                0x0000000020002e84                model_0_features_tree_16
                0x0000000020002e98                model_0_threshold_tree_16
                0x0000000020002ea4                model_0_right_children_tree_16
                0x0000000020002eb8                model_0_left_children_tree_16
                0x0000000020002ecc                model_0_features_tree_15
                0x0000000020002edc                model_0_threshold_tree_15
                0x0000000020002ee4                model_0_right_children_tree_15
                0x0000000020002ef4                model_0_left_children_tree_15
                0x0000000020002f04                model_0_features_tree_14
                0x0000000020002f1c                model_0_threshold_tree_14
                0x0000000020002f28                model_0_right_children_tree_14
                0x0000000020002f40                model_0_left_children_tree_14
                0x0000000020002f58                model_0_features_tree_13
                0x0000000020002f70                model_0_threshold_tree_13
                0x0000000020002f7c                model_0_right_children_tree_13
                0x0000000020002f94                model_0_left_children_tree_13
                0x0000000020002fac                model_0_features_tree_12
                0x0000000020002fc0                model_0_threshold_tree_12
                0x0000000020002fcc                model_0_right_children_tree_12
                0x0000000020002fe0                model_0_left_children_tree_12
                0x0000000020002ff4                model_0_features_tree_11
                0x0000000020003008                model_0_threshold_tree_11
                0x0000000020003014                model_0_right_children_tree_11
                0x0000000020003028                model_0_left_children_tree_11
                0x000000002000303c                model_0_features_tree_10
                0x0000000020003054                model_0_threshold_tree_10
                0x0000000020003060                model_0_right_children_tree_10
                0x0000000020003078                model_0_left_children_tree_10
                0x0000000020003090                model_0_features_tree_9
                0x00000000200030a8                model_0_threshold_tree_9
                0x00000000200030b4                model_0_right_children_tree_9
                0x00000000200030cc                model_0_left_children_tree_9
                0x00000000200030e4                model_0_features_tree_8
                0x00000000200030f8                model_0_threshold_tree_8
                0x0000000020003104                model_0_right_children_tree_8
                0x0000000020003118                model_0_left_children_tree_8
                0x000000002000312c                model_0_features_tree_7
                0x000000002000313c                model_0_threshold_tree_7
                0x0000000020003144                model_0_right_children_tree_7
                0x0000000020003154                model_0_left_children_tree_7
                0x0000000020003164                model_0_features_tree_6
                0x0000000020003174                model_0_threshold_tree_6
                0x000000002000317c                model_0_right_children_tree_6
                0x000000002000318c                model_0_left_children_tree_6
                0x000000002000319c                model_0_features_tree_5
                0x00000000200031b4                model_0_threshold_tree_5
                0x00000000200031c0                model_0_right_children_tree_5
                0x00000000200031d8                model_0_left_children_tree_5
                0x00000000200031f0                model_0_features_tree_4
                0x0000000020003208                model_0_threshold_tree_4
                0x0000000020003214                model_0_right_children_tree_4
                0x000000002000322c                model_0_left_children_tree_4
                0x0000000020003244                model_0_features_tree_3
                0x0000000020003258                model_0_threshold_tree_3
                0x0000000020003264                model_0_right_children_tree_3
                0x0000000020003278                model_0_left_children_tree_3
                0x000000002000328c                model_0_features_tree_2
                0x000000002000329c                model_0_threshold_tree_2
                0x00000000200032a4                model_0_right_children_tree_2
                0x00000000200032b4                model_0_left_children_tree_2
                0x00000000200032c4                model_0_features_tree_1
                0x00000000200032dc                model_0_threshold_tree_1
                0x00000000200032e8                model_0_right_children_tree_1
                0x0000000020003300                model_0_left_children_tree_1
                0x0000000020003318                model_0_features_tree_0
                0x0000000020003330                model_0_threshold_tree_0
                0x000000002000333c                model_0_right_children_tree_0
                0x0000000020003354                model_0_left_children_tree_0

.data%20        0x000000002000336c       0x6c
 .data          0x000000002000336c       0x6c c:/program files/microchip/xc32/v4.60/bin/bin/../../lib/gcc/pic32c/8.3.1/../../../../pic32c/lib/thumb/v6-m/nofp\libg-musl.a(stdin.o)
                0x000000002000336c                __stdin_used
                0x0000000020003370                _stdin

.data%21        0x00000000200033d8       0x64
 .data          0x00000000200033d8       0x64 build/SAMD21_IOT_WG_ICM42688/debug/_ext/26920679/kb_pipeline.o

.data%22        0x000000002000343c       0x60
 .data          0x000000002000343c       0x60 c:/program files/microchip/xc32/v4.60/bin/bin/../../lib/gcc/pic32c/8.3.1/../../../../pic32c/lib/thumb/v6-m/nofp\libg-musl.a(__stdout.o)

.data%23        0x000000002000349c       0x28
 .data          0x000000002000349c       0x28 build/SAMD21_IOT_WG_ICM42688/debug/_ext/26920679/kb.o
                0x00000000200034a0                RAW_DATA_BUFFER
                0x00000000200034a4                rbuffers
                0x00000000200034a8                sbuffers
                0x00000000200034c0                RAW_SDATA_BUFFER

.data%24        0x00000000200034c4       0x20
 .data          0x00000000200034c4       0x20 c:/program files/microchip/xc32/v4.60/bin/bin/../../lib/gcc/pic32c/8.3.1/../../../../pic32c/lib/thumb/v6-m/nofp\libg-musl.a(stdout.o)
                0x00000000200034e0                _stdout

.data%25        0x00000000200034e4        0x4
 .data          0x00000000200034e4        0x4 c:/program files/microchip/xc32/v4.60/bin/bin/../../lib/gcc/pic32c/8.3.1/../../../../pic32c/lib/thumb/v6-m/nofp\liblmalloc-musl.a(lite_malloc.o)

.data%26        0x000000002000336a        0x1
 .data          0x000000002000336a        0x1 build/SAMD21_IOT_WG_ICM42688/debug/_ext/1360937237/main.o

.eh_frame%z1    0x0000000000000000        0x0
 .eh_frame      0x0000000000000000        0x0 c:/program files/microchip/xc32/v4.60/bin/bin/../../lib/gcc/pic32c/8.3.1/thumb/v6-m/nofp/crtbegin.o

.text%27        0x00000000000000e0     0x2250
 .text          0x00000000000000e0     0x2250 build/SAMD21_IOT_WG_ICM42688/debug/_ext/1341251756/Icm426xxDriver_HL.o
                0x0000000000000138                inv_icm426xx_set_reg_bank
                0x0000000000000150                inv_icm426xx_device_reset
                0x00000000000002d0                inv_icm426xx_get_who_am_i
                0x00000000000002e0                inv_icm426xx_force_clock_source
                0x000000000000031c                inv_icm426xx_enable_accel_low_power_mode
                0x0000000000000538                inv_icm426xx_enable_accel_low_noise_mode
                0x00000000000006b0                inv_icm426xx_enable_gyro_low_noise_mode
                0x0000000000000898                inv_icm426xx_enable_fsync
                0x00000000000008cc                inv_icm426xx_disable_fsync
                0x00000000000008fc                inv_icm426xx_configure_timestamp_resolution
                0x0000000000000930                inv_icm426xx_get_config_ibi
                0x00000000000009d8                inv_icm426xx_get_config_int1
                0x0000000000000a9c                inv_icm426xx_get_config_int2
                0x0000000000000b60                inv_icm426xx_set_config_ibi
                0x0000000000000c58                inv_icm426xx_set_config_int1
                0x0000000000000d90                inv_icm426xx_set_config_int2
                0x0000000000000ec8                inv_icm426xx_get_data_from_registers
                0x0000000000000ffc                inv_icm426xx_convert_odr_bitfield_to_us
                0x0000000000001018                inv_icm426xx_set_accel_frequency
                0x0000000000001088                inv_icm426xx_set_gyro_frequency
                0x00000000000010bc                inv_icm426xx_set_accel_fsr
                0x00000000000010f0                inv_icm426xx_set_gyro_fsr
                0x0000000000001124                inv_icm426xx_get_accel_fsr
                0x0000000000001164                inv_icm426xx_get_gyro_fsr
                0x00000000000011a4                inv_icm426xx_set_accel_lp_avg
                0x00000000000011f0                inv_icm426xx_set_accel_ln_bw
                0x000000000000123c                inv_icm426xx_set_gyro_ln_bw
                0x0000000000001288                inv_icm426xx_reset_fifo
                0x0000000000001318                inv_icm426xx_disable_accel
                0x00000000000013c8                inv_icm426xx_disable_gyro
                0x00000000000014fc                inv_icm426xx_get_data_from_fifo
                0x00000000000019c0                inv_icm426xx_enable_timestamp_to_register
                0x0000000000001a14                inv_icm426xx_disable_timestamp_to_register
                0x0000000000001a60                inv_icm426xx_get_current_timestamp
                0x0000000000001ad4                inv_icm426xx_enable_clkin_rtc
                0x0000000000001b98                inv_icm426xx_get_clkin_rtc_status
                0x0000000000001bb4                inv_icm426xx_enable_high_resolution_fifo
                0x0000000000001bc4                inv_icm426xx_disable_high_resolution_fifo
                0x0000000000001bd4                inv_icm426xx_configure_fifo
                0x0000000000001d14                inv_icm426xx_init
                0x0000000000002160                inv_icm426xx_configure_fifo_wm
                0x0000000000002258                inv_icm426xx_get_fifo_timestamp_resolution_us_q24
                0x00000000000022e4                inv_icm426xx_get_reg_timestamp_resolution_us_q24
                0x0000000000002328                inv_icm426xx_get_version

.dinit%28       0x0000000000002330     0x1b40
 .dinit         0x0000000000002330     0x1b40 data_init

.text%29        0x0000000000003e70      0xcd0
 .text          0x0000000000003e70      0xcd0 build/SAMD21_IOT_WG_ICM42688/debug/_ext/26920679/kb.o
                0x0000000000003e98                get_feature_vector_type
                0x0000000000003eac                kb_get_feature_vector_size
                0x0000000000003ec0                get_feature_vector_pointer
                0x0000000000003ed0                get_feature_vector_data_pointer
                0x0000000000003ee4                copy_feature_vector
                0x0000000000003f28                kb_set_feature_vector
                0x0000000000003f6c                ring_buffer_init
                0x0000000000003f80                kb_model_init
                0x000000000000406c                kb_flush_model_buffer
                0x00000000000040f0                kb_flush_model
                0x00000000000040f4                kb_data_streaming_reset
                0x000000000000411c                kb_reset_model
                0x0000000000004128                kb_reset_feature_banks
                0x0000000000004140                kb_feature_bank_ready
                0x0000000000004154                kb_feature_generation_reset
                0x0000000000004198                kb_feature_generation_increment
                0x00000000000041cc                kb_recognize
                0x00000000000041e4                kb_feature_transform
                0x00000000000041fc                kb_feature_generation
                0x000000000000421c                kb_data_streaming
                0x0000000000004234                kb_segmentation
                0x00000000000042b0                kb_generate_children_features
                0x00000000000042cc                kb_generate_classification
                0x0000000000004308                kb_run_model
                0x00000000000043b8                kb_run_model_with_cascade_features
                0x00000000000044b4                kb_run_model_with_cascade_reset
                0x00000000000045cc                kb_add_segment
                0x0000000000004634                kb_run_segment
                0x00000000000046c4                kb_run_segment_with_cascade_features
                0x000000000000479c                kb_run_segment_with_cascade_reset
                0x0000000000004870                kb_add_last_pattern_to_model
                0x0000000000004874                kb_add_custom_pattern_to_model
                0x0000000000004878                kb_score_model
                0x000000000000487c                kb_retrain_model
                0x0000000000004880                kb_print_model_score
                0x0000000000004884                kb_get_model_header
                0x0000000000004888                kb_get_model_pattern
                0x000000000000488c                kb_get_model_uuid_ptr
                0x00000000000048a4                kb_get_feature_vector_raw_size
                0x00000000000048bc                kb_set_feature_vector_raw
                0x00000000000048e8                get_feature_vector_raw_pointer
                0x00000000000048fc                sml_get_feature_bank_number
                0x0000000000004910                kb_copy_feature_vector_raw
                0x000000000000493c                kb_get_segment_length
                0x0000000000004964                kb_get_model_sg_length
                0x0000000000004974                kb_get_num_sensor_buffers
                0x0000000000004988                kb_get_segment_data
                0x0000000000004a24                kb_recognize_feature_vector
                0x0000000000004a3c                kb_get_model_result_info
                0x0000000000004a4c                kb_get_sg_start_index
                0x0000000000004a5c                kb_get_segment_start
                0x0000000000004a80                kb_is_profiling_enabled
                0x0000000000004a94                kb_get_feature_gen_times
                0x0000000000004ac8                kb_get_feature_gen_cycles
                0x0000000000004afc                kb_get_classifier_time
                0x0000000000004b20                kb_get_classifier_cycles

.text.__fmt_fp%30
                0x0000000000004b40      0x4c0
 .text.__fmt_fp
                0x0000000000004b40      0x4c0 c:/program files/microchip/xc32/v4.60/bin/bin/../../lib/gcc/pic32c/8.3.1/../../../../pic32c/lib/thumb/v6-m/nofp\libg-musl.a(__fmt_fp.o)
                0x0000000000004b40                __fmt_f_needed
                0x0000000000004b40                __fmt_fp

.text.pow%31    0x0000000000005000      0x460
 .text.pow      0x0000000000005000      0x460 c:/program files/microchip/xc32/v4.60/bin/bin/../../lib/gcc/pic32c/8.3.1/../../../../pic32c/lib/thumb/v6-m/nofp\libm-fast-emfloat.a(pow.o)
                0x0000000000005000                pow

.text%32        0x0000000000005460      0x45c
 .text          0x0000000000005460      0x45c build/SAMD21_IOT_WG_ICM42688/debug/_ext/26920679/kb_output.o
                0x0000000000005460                sprint_model_feature_vector
                0x0000000000005544                kb_sprint_model_output_tensor
                0x00000000000055d0                kb_sprint_model_result
                0x00000000000056e4                kb_print_model_class_map
                0x00000000000056f0                kb_print_model_map
                0x0000000000005704                kb_sprint_model_cycles
                0x00000000000057d4                kb_sprint_model_times

.text%33        0x00000000000058bc      0x3f8
 .text          0x00000000000058bc      0x3f8 build/SAMD21_IOT_WG_ICM42688/debug/_ext/1360937237/main.o
                0x000000000000595c                SERCOM5_Handler
                0x0000000000005998                UART_Write
                0x00000000000059ac                UART_Read
                0x00000000000059c4                read_timer_ms
                0x00000000000059d0                read_timer_us
                0x00000000000059f0                sleep_ms
                0x0000000000005a10                sleep_us
                0x0000000000005a30                main

.text%34        0x0000000000005cb4      0x3ac
 .text          0x0000000000005cb4      0x3ac build/SAMD21_IOT_WG_ICM42688/debug/_ext/26920679/ma_symmetric.o
                0x0000000000005cb4                MA_Symmetric

.text.__printf_core%35
                0x0000000000006060      0x33c
 .text.__printf_core
                0x0000000000006060      0x33c c:/program files/microchip/xc32/v4.60/bin/bin/../../lib/gcc/pic32c/8.3.1/../../../../pic32c/lib/thumb/v6-m/nofp\libg-musl.a(__printf_core.o)
                0x0000000000006060                __printf_core

.text%36        0x000000000000639c      0x2e4
 .text          0x000000000000639c      0x2e4 build/SAMD21_IOT_WG_ICM42688/debug/_ext/177673482/plib_sercom5_usart.o
                0x00000000000063bc                SERCOM5_USART_Initialize
                0x00000000000063f0                SERCOM5_USART_FrequencyGet
                0x00000000000063f8                SERCOM5_USART_SerialSetup
                0x0000000000006504                SERCOM5_USART_ErrorGet
                0x0000000000006524                SERCOM5_USART_TransmitterEnable
                0x000000000000653c                SERCOM5_USART_TransmitterDisable
                0x0000000000006558                SERCOM5_USART_Write
                0x0000000000006598                SERCOM5_USART_TransmitterIsReady
                0x00000000000065a8                SERCOM5_USART_TransmitComplete
                0x00000000000065b8                SERCOM5_USART_WriteByte
                0x00000000000065cc                SERCOM5_USART_ReceiverEnable
                0x00000000000065e4                SERCOM5_USART_ReceiverDisable
                0x0000000000006600                SERCOM5_USART_Read
                0x0000000000006664                SERCOM5_USART_ReceiverIsReady
                0x0000000000006674                SERCOM5_USART_ReadByte

.text%37        0x0000000000006680      0x288
 .text          0x0000000000006680      0x288 build/SAMD21_IOT_WG_ICM42688/debug/_ext/26920679/rb.o
                0x0000000000006680                next_pow_2
                0x000000000000669c                rb_init
                0x00000000000066ac                setup_rb
                0x00000000000066b8                copy_rb_to_buff
                0x00000000000066e8                copy_segment_to_buff
                0x0000000000006710                setup_rb_with_data
                0x0000000000006730                rb_read
                0x000000000000673c                rb_read_offset
                0x000000000000674c                rb_add
                0x0000000000006770                rb_write
                0x000000000000677c                get_axis_data
                0x0000000000006788                rb_reset
                0x0000000000006794                rb_step_head
                0x00000000000067a0                rb_valid
                0x00000000000067ac                rb_lock
                0x00000000000067b4                rb_unlock
                0x00000000000067bc                rb_status
                0x00000000000067c0                write_axis_data
                0x00000000000067cc                multiply_axis_data
                0x00000000000067f8                divide_axis_data
                0x0000000000006820                divide_axis_data_float
                0x0000000000006850                multiply_axis_data_float
                0x00000000000068bc                add_axis_data
                0x00000000000068e8                rb_num_items
                0x00000000000068f8                rb_items

.text%38        0x0000000000006908      0x26c
 .text          0x0000000000006908      0x26c build/SAMD21_IOT_WG_ICM42688/debug/_ext/26920679/kb_pipeline.o
                0x0000000000006908                data_streaming_0
                0x0000000000006978                data_segmentation_0
                0x00000000000069cc                feature_gen_0
                0x0000000000006b28                feature_transform_0
                0x0000000000006b64                recognize_vector_0

.text%39        0x0000000000006b74      0x260
 .text          0x0000000000006b74      0x260 build/SAMD21_IOT_WG_ICM42688/debug/_ext/1014017276/plib_sercom0_spi_master.o
                0x0000000000006cd4                SERCOM0_SPI_Initialize
                0x0000000000006cfc                SERCOM0_SPI_TransferSetup
                0x0000000000006d84                SERCOM0_SPI_WriteRead
                0x0000000000006da4                SERCOM0_SPI_Write
                0x0000000000006dbc                SERCOM0_SPI_Read

.text%40        0x0000000000006dd4      0x228
 .text          0x0000000000006dd4      0x228 build/SAMD21_IOT_WG_ICM42688/debug/_ext/2048461350/icm42688_sensor.o
                0x0000000000006dd4                icm42688_sensor_event_cb
                0x0000000000006eb8                inv_icm426xx_get_time_us
                0x0000000000006ec0                inv_icm426xx_sleep_us
                0x0000000000006ec8                icm42688_sensor_init
                0x0000000000006f70                icm42688_sensor_set_config
                0x0000000000006fdc                icm42688_sensor_read

.text%41        0x0000000000006ffc      0x220
 .text          0x0000000000006ffc      0x220 build/SAMD21_IOT_WG_ICM42688/debug/_ext/26920679/stat_moment.o
                0x000000000000712c                f_stat_moment
                0x0000000000007140                i_stat_moment
                0x0000000000007208                stat_moment

.text.exp%42    0x000000000000721c      0x20c
 .text.exp      0x000000000000721c      0x20c c:/program files/microchip/xc32/v4.60/bin/bin/../../lib/gcc/pic32c/8.3.1/../../../../pic32c/lib/thumb/v6-m/nofp\libm-fast-emfloat.a(exp.o)
                0x000000000000721c                exp

.text%43        0x0000000000007428      0x1fc
 .text          0x0000000000007428      0x1fc build/SAMD21_IOT_WG_ICM42688/debug/_ext/1360937237/ringbuffer.o
                0x0000000000007428                ringbuffer_init
                0x0000000000007460                ringbuffer_reset
                0x0000000000007468                ringbuffer_read
                0x00000000000074ec                ringbuffer_write
                0x0000000000007574                ringbuffer_get_read_items
                0x0000000000007580                ringbuffer_get_write_items
                0x0000000000007590                ringbuffer_get_read_buffer
                0x00000000000075b8                ringbuffer_get_write_buffer
                0x00000000000075e0                ringbuffer_advance_read_index
                0x0000000000007600                ringbuffer_advance_write_index

.rodata.str1.4%44
                0x0000000000007624      0x1e4
 .rodata.str1.4
                0x0000000000007624      0x1e4 build/SAMD21_IOT_WG_ICM42688/debug/_ext/26920679/kb_output.o

.text.log%45    0x0000000000007808      0x1dc
 .text.log      0x0000000000007808      0x1dc c:/program files/microchip/xc32/v4.60/bin/bin/../../lib/gcc/pic32c/8.3.1/../../../../pic32c/lib/thumb/v6-m/nofp\libm-fast-emfloat.a(log.o)
                0x0000000000007808                log

.text.__aeabi_dadd%46
                0x00000000000079e4      0x1c8
 .text.__aeabi_dadd
                0x00000000000079e4      0x1c8 c:/program files/microchip/xc32/v4.60/bin/bin/../../lib/gcc/pic32c/8.3.1/../../../../pic32c/lib/thumb/v6-m/nofp\libm-fast-emfloat.a(__aeabi_dadd.o)
                0x00000000000079e4                __aeabi_dadd
                0x00000000000079ea                .L__aeabi_dadd_fast_entry

.text%47        0x0000000000007bac      0x1bc
 .text          0x0000000000007bac      0x1bc build/SAMD21_IOT_WG_ICM42688/debug/_ext/1341251756/Icm426xxTransport.o
                0x0000000000007bac                inv_icm426xx_init_transport
                0x0000000000007c1c                inv_icm426xx_read_reg
                0x0000000000007ca4                inv_icm426xx_write_reg

.text%48        0x0000000000007d68      0x18c
 .text          0x0000000000007d68      0x18c build/SAMD21_IOT_WG_ICM42688/debug/_ext/26920679/tree_ensemble.o
                0x0000000000007d68                tree_classification
                0x0000000000007d9c                ensemble_classification
                0x0000000000007df4                tree_ensemble_simple_submit
                0x0000000000007ea8                tree_ensemble_model_results_object
                0x0000000000007ee8                tree_ensemble_init

.text.__aeabi_dmul_aux%49
                0x0000000000007ef4      0x18a
 .text.__aeabi_dmul_aux
                0x0000000000007ef4      0x18a c:/program files/microchip/xc32/v4.60/bin/bin/../../lib/gcc/pic32c/8.3.1/../../../../pic32c/lib/thumb/v6-m/nofp\libm-fast-emfloat.a(__aeabi_dmul_aux.o)
                0x0000000000007ef4                __aeabi_dmul_aux
                0x0000000000007f2c                __aeabi_dmul

.rodata.str1.4%50
                0x0000000000008080      0x158
 .rodata.str1.4
                0x0000000000008080      0x158 build/SAMD21_IOT_WG_ICM42688/debug/_ext/1360937237/main.o

.text.__aeabi_fadd%51
                0x00000000000081d8      0x13a
 .text.__aeabi_fadd
                0x00000000000081d8      0x13a c:/program files/microchip/xc32/v4.60/bin/bin/../../lib/gcc/pic32c/8.3.1/../../../../pic32c/lib/thumb/v6-m/nofp\libm-fast-emfloat.a(__aeabi_fadd.o)
                0x00000000000081d8                __aeabi_fadd
                0x00000000000081dc                .L__aeabi_fadd_fast_entry

.text.__fmt_x%52
                0x0000000000008312      0x132
 .text.__fmt_x  0x0000000000008312      0x132 c:/program files/microchip/xc32/v4.60/bin/bin/../../lib/gcc/pic32c/8.3.1/../../../../pic32c/lib/thumb/v6-m/nofp\libg-musl.a(__fmt_x.o)
                0x0000000000008312                __fmt_x_needed
                0x0000000000008312                __fmt_x

.text%53        0x0000000000008444      0x130
 .text          0x0000000000008444      0x130 c:/program files/microchip/xc32/v4.60/bin/bin/../../lib/gcc/pic32c/8.3.1/thumb/v6-m/nofp\libgcc.a(_divdi3.o)
                0x0000000000008444                __divdi3

.text%54        0x0000000000008574      0x11c
 .text          0x0000000000008574      0x11c build/SAMD21_IOT_WG_ICM42688/debug/_ext/399410062/plib_tc3.o
                0x0000000000008574                TC3_TimerInitialize
                0x00000000000085b0                TC3_TimerStart
                0x00000000000085c8                TC3_TimerStop
                0x00000000000085e0                TC3_TimerFrequencyGet
                0x00000000000085e8                TC3_TimerCommandSet
                0x0000000000008600                TC3_Timer16bitCounterGet
                0x000000000000861c                TC3_Timer16bitCounterSet
                0x0000000000008630                TC3_Timer16bitPeriodSet
                0x0000000000008644                TC3_Timer16bitPeriodGet
                0x0000000000008660                TC3_TimerCallbackRegister
                0x000000000000866c                TC3_TimerInterruptHandler

.text.sqrt%55   0x0000000000008690      0x118
 .text.sqrt     0x0000000000008690      0x118 c:/program files/microchip/xc32/v4.60/bin/bin/../../lib/gcc/pic32c/8.3.1/../../../../pic32c/lib/thumb/v6-m/nofp\libm-fast-emfloat.a(sqrt.o)
                0x0000000000008690                sqrt

.text%56        0x00000000000087a8      0x10c
 .text          0x00000000000087a8      0x10c build/SAMD21_IOT_WG_ICM42688/debug/_ext/503204096/plib_eic.o
                0x00000000000087a8                EIC_Initialize
                0x0000000000008828                EIC_InterruptEnable
                0x0000000000008838                EIC_InterruptDisable
                0x0000000000008848                EIC_CallbackRegister
                0x0000000000008864                EIC_InterruptHandler

.rodata.__SEGGER_RTL_kahan_aT2%57
                0x00000000000088b4      0x100
 .rodata.__SEGGER_RTL_kahan_aT2
                0x00000000000088b4      0x100 c:/program files/microchip/xc32/v4.60/bin/bin/../../lib/gcc/pic32c/8.3.1/../../../../pic32c/lib/thumb/v6-m/nofp\libm-fast-emfloat.a(__SEGGER_RTL_kahan_aT2.o)
                0x00000000000088b4                __SEGGER_RTL_kahan_aT2

.text%58        0x00000000000089b4       0xf8
 .text          0x00000000000089b4       0xf8 build/SAMD21_IOT_WG_ICM42688/debug/_ext/223004715/plib_systick.o
                0x00000000000089b4                SYSTICK_TimerInitialize
                0x00000000000089d8                SYSTICK_TimerRestart
                0x00000000000089f4                SYSTICK_TimerStart
                0x0000000000008a08                SYSTICK_TimerStop
                0x0000000000008a18                SYSTICK_TimerPeriodSet
                0x0000000000008a24                SYSTICK_TimerPeriodGet
                0x0000000000008a30                SYSTICK_TimerCounterGet
                0x0000000000008a3c                SYSTICK_TimerFrequencyGet
                0x0000000000008a44                SYSTICK_DelayMs
                0x0000000000008a7c                SYSTICK_TimerCallbackSet
                0x0000000000008a88                SysTick_Handler

.text%59        0x0000000000008aac       0xf4
 .text          0x0000000000008aac       0xf4 build/SAMD21_IOT_WG_ICM42688/debug/_ext/1580876256/plib_port.o
                0x0000000000008aac                PORT_Initialize
                0x0000000000008b10                PORT_GroupRead
                0x0000000000008b14                PORT_GroupWrite
                0x0000000000008b20                PORT_GroupLatchRead
                0x0000000000008b24                PORT_GroupSet
                0x0000000000008b28                PORT_GroupClear
                0x0000000000008b2c                PORT_GroupToggle
                0x0000000000008b30                PORT_GroupInputEnable
                0x0000000000008b34                PORT_GroupOutputEnable
                0x0000000000008b38                PORT_PinPeripheralFunctionConfig
                0x0000000000008b80                PORT_PinGPIOConfig

.text%60        0x0000000000008ba0       0xe2
 .text          0x0000000000008ba0       0xe2 c:/program files/microchip/xc32/v4.60/bin/bin/../../lib/gcc/pic32c/8.3.1/thumb/v6-m/nofp\libgcc.a(_udivmoddi4.o)
                0x0000000000008ba0                __udivmoddi4

.text%61        0x0000000000008c84       0xd8
 .text          0x0000000000008c84       0xd8 build/SAMD21_IOT_WG_ICM42688/debug/_ext/26920679/tr_min_max_scale.o
                0x0000000000008c84                min_max_scale

.text%62        0x0000000000008d5c       0xd4
 .text          0x0000000000008d5c       0xd4 build/SAMD21_IOT_WG_ICM42688/debug/_ext/11470383/plib_nvmctrl.o
                0x0000000000008d5c                NVMCTRL_Initialize
                0x0000000000008d68                NVMCTRL_CacheInvalidate
                0x0000000000008d78                NVMCTRL_Read
                0x0000000000008d88                NVMCTRL_PageWrite
                0x0000000000008db8                NVMCTRL_RowErase
                0x0000000000008dd0                NVMCTRL_ErrorGet
                0x0000000000008df8                NVMCTRL_IsBusy
                0x0000000000008e08                NVMCTRL_RegionLock
                0x0000000000008e1c                NVMCTRL_RegionUnlock

.text.__SEGGER_RTL_float64_PolyEvalP%63
                0x0000000000008e30       0xd4
 .text.__SEGGER_RTL_float64_PolyEvalP
                0x0000000000008e30       0xd4 c:/program files/microchip/xc32/v4.60/bin/bin/../../lib/gcc/pic32c/8.3.1/../../../../pic32c/lib/thumb/v6-m/nofp\libm-fast-emfloat.a(__SEGGER_RTL_float64_PolyEvalP.o)
                0x0000000000008e30                __SEGGER_RTL_float64_PolyEvalP

.text%64        0x0000000000008f04       0xd0
 .text          0x0000000000008f04       0xd0 build/SAMD21_IOT_WG_ICM42688/debug/_ext/26920679/stats_percentile_presorted.o
                0x0000000000008f04                stats_percentile_presorted

.text%65        0x0000000000008fd4       0xc4
 .text          0x0000000000008fd4       0xc4 build/SAMD21_IOT_WG_ICM42688/debug/_ext/1750425231/plib_clock.o
                0x0000000000008fd4                CLOCK_Initialize

.text.__aeabi_ddiv%66
                0x0000000000009098       0xc4
 .text.__aeabi_ddiv
                0x0000000000009098       0xc4 c:/program files/microchip/xc32/v4.60/bin/bin/../../lib/gcc/pic32c/8.3.1/../../../../pic32c/lib/thumb/v6-m/nofp\libm-fast-emfloat.a(__aeabi_ddiv.o)
                0x0000000000009098                __aeabi_ddiv

.text.__pop_int%67
                0x000000000000915c       0xbe
 .text.__pop_int
                0x000000000000915c       0xbe c:/program files/microchip/xc32/v4.60/bin/bin/../../lib/gcc/pic32c/8.3.1/../../../../pic32c/lib/thumb/v6-m/nofp\libg-musl.a(__pop_int.o)
                0x000000000000915c                __pop_int_needed
                0x000000000000915c                __pop_int

.text.__aeabi_fmul%68
                0x000000000000921a       0xb6
 .text.__aeabi_fmul
                0x000000000000921a       0xb6 c:/program files/microchip/xc32/v4.60/bin/bin/../../lib/gcc/pic32c/8.3.1/../../../../pic32c/lib/thumb/v6-m/nofp\libm-fast-emfloat.a(__aeabi_fmul.o)
                0x000000000000921a                __aeabi_fmul

.text%69        0x00000000000092d0       0xb4
 .text          0x00000000000092d0       0xb4 build/SAMD21_IOT_WG_ICM42688/debug/_ext/26920679/mean.o
                0x00000000000092d0                mean
                0x0000000000009334                i_mean
                0x0000000000009360                i_mean_buff

.text.floor%70  0x0000000000009384       0xb4
 .text.floor    0x0000000000009384       0xb4 c:/program files/microchip/xc32/v4.60/bin/bin/../../lib/gcc/pic32c/8.3.1/../../../../pic32c/lib/thumb/v6-m/nofp\libm-fast-emfloat.a(floor.o)
                0x0000000000009384                floor

.text.__fmt_d%71
                0x0000000000009438       0xb2
 .text.__fmt_d  0x0000000000009438       0xb2 c:/program files/microchip/xc32/v4.60/bin/bin/../../lib/gcc/pic32c/8.3.1/../../../../pic32c/lib/thumb/v6-m/nofp\libg-musl.a(__fmt_d.o)
                0x0000000000009438                __fmt_d
                0x0000000000009438                __fmt_d_needed

.text%72        0x00000000000094ec       0xa8
 .text          0x00000000000094ec       0xa8 c:/program files/microchip/xc32/v4.60/bin/bin/../../lib/gcc/pic32c/8.3.1/thumb/v6-m/nofp\libgcc.a(_divsi3.o)
                0x00000000000094ec                __divsi3
                0x00000000000094ec                __aeabi_idiv
                0x0000000000009580                __aeabi_idivmod

.text%73        0x0000000000009594       0xa4
 .text          0x0000000000009594       0xa4 build/SAMD21_IOT_WG_ICM42688/debug/_ext/26920679/fg_stats_skewness.o
                0x0000000000009594                fg_stats_skewness

.text%74        0x0000000000009638       0x98
 .text          0x0000000000009638       0x98 build/SAMD21_IOT_WG_ICM42688/debug/_ext/26920679/fg_area_absolute_area_high_frequency.o
                0x0000000000009638                fg_area_absolute_area_high_frequency

.text%75        0x00000000000096d0       0x98
 .text          0x00000000000096d0       0x98 build/SAMD21_IOT_WG_ICM42688/debug/_ext/26920679/fg_area_total_area_low_frequency.o
                0x00000000000096d0                fg_area_total_area_low_frequency

.text%76        0x0000000000009768       0x94
 .text          0x0000000000009768       0x94 build/SAMD21_IOT_WG_ICM42688/debug/_ext/26920679/sortarray.o
                0x0000000000009768                sortarray

.text.__aeabi_fdiv%77
                0x00000000000097fc       0x94
 .text.__aeabi_fdiv
                0x00000000000097fc       0x94 c:/program files/microchip/xc32/v4.60/bin/bin/../../lib/gcc/pic32c/8.3.1/../../../../pic32c/lib/thumb/v6-m/nofp\libm-fast-emfloat.a(__aeabi_fdiv.o)
                0x00000000000097fc                __aeabi_fdiv

.text%78        0x0000000000009890       0x8c
 .text          0x0000000000009890       0x8c c:/program files/microchip/xc32/v4.60/bin/bin/../../lib/gcc/pic32c/8.3.1/thumb/v6-m/nofp\libgcc.a(_udivsi3.o)
                0x0000000000009890                __aeabi_uidiv
                0x0000000000009890                __udivsi3
                0x0000000000009908                __aeabi_uidivmod

.text.__write_buffered%79
                0x000000000000991c       0x82
 .text.__write_buffered
                0x000000000000991c       0x82 c:/program files/microchip/xc32/v4.60/bin/bin/../../lib/gcc/pic32c/8.3.1/../../../../pic32c/lib/thumb/v6-m/nofp\libg-musl.a(__stdio_write.o)
                0x000000000000991c                __do_write

.text%80        0x00000000000099a0       0x80
 .text          0x00000000000099a0       0x80 build/SAMD21_IOT_WG_ICM42688/debug/_ext/1580823105/plib_nvic.o
                0x00000000000099a0                NVIC_Initialize
                0x00000000000099f0                NVIC_INT_Enable
                0x00000000000099f8                NVIC_INT_Disable
                0x0000000000009a0c                NVIC_INT_Restore

.text.__SEGGER_RTL_float64_PolyEvalQ%81
                0x0000000000009a20       0x80
 .text.__SEGGER_RTL_float64_PolyEvalQ
                0x0000000000009a20       0x80 c:/program files/microchip/xc32/v4.60/bin/bin/../../lib/gcc/pic32c/8.3.1/../../../../pic32c/lib/thumb/v6-m/nofp\libm-fast-emfloat.a(__SEGGER_RTL_float64_PolyEvalQ.o)
                0x0000000000009a20                __SEGGER_RTL_float64_PolyEvalQ

.text.__simple_search_fl%82
                0x0000000000009aa0       0x80
 .text.__simple_search_fl
                0x0000000000009aa0       0x80 c:/program files/microchip/xc32/v4.60/bin/bin/../../lib/gcc/pic32c/8.3.1/../../../../pic32c/lib/thumb/v6-m/nofp\liblmalloc-musl.a(lite_free.o)
                0x0000000000009aa0                __simple_search_fl

.text%83        0x0000000000009b20       0x7c
 .text          0x0000000000009b20       0x7c build/SAMD21_IOT_WG_ICM42688/debug/_ext/26920679/fg_stats_abs_mean.o
                0x0000000000009b20                fg_stats_abs_mean

.text.__stdio_write_buffered%84
                0x0000000000009b9c       0x7c
 .text.__stdio_write_buffered
                0x0000000000009b9c       0x7c c:/program files/microchip/xc32/v4.60/bin/bin/../../lib/gcc/pic32c/8.3.1/../../../../pic32c/lib/thumb/v6-m/nofp\libg-musl.a(__stdio_write.o)
                0x0000000000009b9c                __stdio_write_buffered

.text.__pad%85  0x0000000000009c18       0x7a
 .text.__pad    0x0000000000009c18       0x7a c:/program files/microchip/xc32/v4.60/bin/bin/../../lib/gcc/pic32c/8.3.1/../../../../pic32c/lib/thumb/v6-m/nofp\libg-musl.a(__printf_core.o)
                0x0000000000009c18                __pad

.text%86        0x0000000000009c94       0x78
 .text          0x0000000000009c94       0x78 build/SAMD21_IOT_WG_ICM42688/debug/_ext/26920679/utils_buffer_cumsum.o
                0x0000000000009c94                buffer_cumulative_sum_0
                0x0000000000009ce0                buffer_cumulative_sum

.text.__cvt_u%87
                0x0000000000009d0c       0x76
 .text.__cvt_u  0x0000000000009d0c       0x76 c:/program files/microchip/xc32/v4.60/bin/bin/../../lib/gcc/pic32c/8.3.1/../../../../pic32c/lib/thumb/v6-m/nofp\libg-musl.a(__cvt_u.o)
                0x0000000000009d0c                __cvt_u

.text.__pop_ptr%88
                0x0000000000009d82       0x68
 .text.__pop_ptr
                0x0000000000009d82       0x68 c:/program files/microchip/xc32/v4.60/bin/bin/../../lib/gcc/pic32c/8.3.1/../../../../pic32c/lib/thumb/v6-m/nofp\libg-musl.a(__pop_ptr.o)
                0x0000000000009d82                __pop_ptr
                0x0000000000009d82                __pop_ptr_needed

.text%89        0x0000000000009dec       0x64
 .text          0x0000000000009dec       0x64 build/SAMD21_IOT_WG_ICM42688/debug/_ext/26920679/fg_stats_pct075.o
                0x0000000000009dec                fg_stats_pct075

.text%90        0x0000000000009e50       0x64
 .text          0x0000000000009e50       0x64 build/SAMD21_IOT_WG_ICM42688/debug/_ext/26920679/utils_model_cross_difference.o
                0x0000000000009e50                utils_model_cross_difference

.text.__stdio_read%91
                0x0000000000009eb4       0x64
 .text.__stdio_read
                0x0000000000009eb4       0x64 c:/program files/microchip/xc32/v4.60/bin/bin/../../lib/gcc/pic32c/8.3.1/../../../../pic32c/lib/thumb/v6-m/nofp\libg-musl.a(__stdio_read.o)
                0x0000000000009eb4                __stdio_read

.text.__simple_malloc%92
                0x0000000000009f18       0x64
 .text.__simple_malloc
                0x0000000000009f18       0x64 c:/program files/microchip/xc32/v4.60/bin/bin/../../lib/gcc/pic32c/8.3.1/../../../../pic32c/lib/thumb/v6-m/nofp\liblmalloc-musl.a(lite_malloc.o)
                0x0000000000009f18                __malloc0
                0x0000000000009f18                __simple_malloc
                0x0000000000009f18                malloc

.text.__aeabi_d2f%93
                0x0000000000009f7c       0x62
 .text.__aeabi_d2f
                0x0000000000009f7c       0x62 c:/program files/microchip/xc32/v4.60/bin/bin/../../lib/gcc/pic32c/8.3.1/../../../../pic32c/lib/thumb/v6-m/nofp\libm-fast-emfloat.a(__aeabi_d2f.o)
                0x0000000000009f7c                __aeabi_d2f

.text%94        0x0000000000009fe0       0x60
 .text          0x0000000000009fe0       0x60 build/SAMD21_IOT_WG_ICM42688/debug/_ext/26920679/fg_cross_peak_location_difference.o
                0x0000000000009fe0                fg_cross_column_peak_location_difference

.text.__libc_start_init%95
                0x000000000000a040       0x5c
 .text.__libc_start_init
                0x000000000000a040       0x5c c:/program files/microchip/xc32/v4.60/bin/bin/../../lib/gcc/pic32c/8.3.1/../../../../pic32c/lib/thumb/v6-m/nofp\libg-musl.a(__libc_start_main.o)
                0x000000000000a040                __libc_init_array

.text.__stdio_close_rw%96
                0x000000000000a09c       0x5c
 .text.__stdio_close_rw
                0x000000000000a09c       0x5c c:/program files/microchip/xc32/v4.60/bin/bin/../../lib/gcc/pic32c/8.3.1/../../../../pic32c/lib/thumb/v6-m/nofp\libg-musl.a(__stdio_close.o)
                0x000000000000a09c                __stdio_close_rw

.text%97        0x000000000000a0f8       0x58
 .text          0x000000000000a0f8       0x58 build/SAMD21_IOT_WG_ICM42688/debug/_ext/1832905403/initialization.o
                0x000000000000a0f8                SYS_Initialize

.text%98        0x000000000000a150       0x54
 .text          0x000000000000a150       0x54 build/SAMD21_IOT_WG_ICM42688/debug/_ext/741007211/sml_recognition_run.o
                0x000000000000a150                sml_output_results
                0x000000000000a184                sml_recognition_run

.text.ldexp%99  0x000000000000a1a4       0x54
 .text.ldexp    0x000000000000a1a4       0x54 c:/program files/microchip/xc32/v4.60/bin/bin/../../lib/gcc/pic32c/8.3.1/../../../../pic32c/lib/thumb/v6-m/nofp\libm-fast-emfloat.a(ldexp.o)
                0x000000000000a1a4                ldexp

.text.__fmt_s%100
                0x000000000000a1f8       0x50
 .text.__fmt_s  0x000000000000a1f8       0x50 c:/program files/microchip/xc32/v4.60/bin/bin/../../lib/gcc/pic32c/8.3.1/../../../../pic32c/lib/thumb/v6-m/nofp\libg-musl.a(__fmt_s.o)
                0x000000000000a1f8                __fmt_s
                0x000000000000a1f8                __fmt_0_needed
                0x000000000000a1f8                __fmt_s_needed

.text.setvbuf%101
                0x000000000000a248       0x50
 .text.setvbuf  0x000000000000a248       0x50 c:/program files/microchip/xc32/v4.60/bin/bin/../../lib/gcc/pic32c/8.3.1/../../../../pic32c/lib/thumb/v6-m/nofp\libg-musl.a(setvbuf.o)
                0x000000000000a248                setvbuf

.text.__vsnprintf%102
                0x000000000000a298       0x50
 .text.__vsnprintf
                0x000000000000a298       0x50 c:/program files/microchip/xc32/v4.60/bin/bin/../../lib/gcc/pic32c/8.3.1/../../../../pic32c/lib/thumb/v6-m/nofp\libg-musl.a(__int_vsnprintf.o)
                0x000000000000a298                __vsnprintf

.text._sbrk%103
                0x000000000000a2e8       0x50
 .text._sbrk    0x000000000000a2e8       0x50 c:/program files/microchip/xc32/v4.60/bin/bin/../../lib/gcc/pic32c/8.3.1/../../../../pic32c/lib/thumb/v6-m/nofp\libpic32c.a(sbrk.o)
                0x000000000000a2e8                _sbrk

.text.__overflow%104
                0x000000000000a338       0x4e
 .text.__overflow
                0x000000000000a338       0x4e c:/program files/microchip/xc32/v4.60/bin/bin/../../lib/gcc/pic32c/8.3.1/../../../../pic32c/lib/thumb/v6-m/nofp\libg-musl.a(__overflow.o)
                0x000000000000a338                __overflow

.rodata%105     0x000000000000a388       0x4c
 .rodata        0x000000000000a388       0x4c build/SAMD21_IOT_WG_ICM42688/debug/_ext/1341251756/Icm426xxDriver_HL.o

.text%106       0x000000000000a3d4       0x4c
 .text          0x000000000000a3d4       0x4c build/SAMD21_IOT_WG_ICM42688/debug/_ext/26920679/save_sensor_data.o
                0x000000000000a3d4                saveSensorData
                0x000000000000a3f8                saveSenseDataOffset

.text%107       0x000000000000a420       0x48
 .text          0x000000000000a420       0x48 c:/program files/microchip/xc32/v4.60/bin/bin/../../lib/gcc/pic32c/8.3.1/thumb/v6-m/nofp/crtbegin.o

.text.Reset_Handler%108
                0x000000000000a468       0x48
 .text.Reset_Handler
                0x000000000000a468       0x48 build/SAMD21_IOT_WG_ICM42688/debug/_ext/1832905403/startup_xc32.o
                0x000000000000a468                Reset_Handler

.text%109       0x000000000000a4b0       0x48
 .text          0x000000000000a4b0       0x48 build/SAMD21_IOT_WG_ICM42688/debug/_ext/26920679/sorted_copy.o
                0x000000000000a4b0                sorted_copy

.text%110       0x000000000000a4f8       0x48
 .text          0x000000000000a4f8       0x48 build/SAMD21_IOT_WG_ICM42688/debug/_ext/26920679/tr_sensor_magnitude.o
                0x000000000000a4f8                tr_sensor_magnitude

.text%111       0x000000000000a540       0x48
 .text          0x000000000000a540       0x48 c:/program files/microchip/xc32/v4.60/bin/bin/../../lib/gcc/pic32c/8.3.1/thumb/v6-m/nofp\libgcc.a(_aeabi_ldivmod.o)
                0x000000000000a540                __aeabi_ldivmod

.text.__aeabi_f2d%112
                0x000000000000a588       0x44
 .text.__aeabi_f2d
                0x000000000000a588       0x44 c:/program files/microchip/xc32/v4.60/bin/bin/../../lib/gcc/pic32c/8.3.1/../../../../pic32c/lib/thumb/v6-m/nofp\libm-fast-emfloat.a(__aeabi_f2d.o)
                0x000000000000a588                __aeabi_f2d

.text.__aeabi_dcmple%113
                0x000000000000a5cc       0x44
 .text.__aeabi_dcmple
                0x000000000000a5cc       0x44 c:/program files/microchip/xc32/v4.60/bin/bin/../../lib/gcc/pic32c/8.3.1/../../../../pic32c/lib/thumb/v6-m/nofp\libm-fast-emfloat.a(__aeabi_dcmple.o)
                0x000000000000a5cc                __aeabi_dcmple

.text%114       0x000000000000a610       0x44
 .text          0x000000000000a610       0x44 c:/program files/microchip/xc32/v4.60/bin/bin/../../lib/gcc/pic32c/8.3.1/thumb/v6-m/nofp\libgcc.a(_muldi3.o)
                0x000000000000a610                __muldi3
                0x000000000000a610                __aeabi_lmul

.rodata%115     0x000000000000a654       0x40
 .rodata        0x000000000000a654       0x40 build/SAMD21_IOT_WG_ICM42688/debug/_ext/1341251756/Icm426xxTransport.o

.text.frexp%116
                0x000000000000a694       0x40
 .text.frexp    0x000000000000a694       0x40 c:/program files/microchip/xc32/v4.60/bin/bin/../../lib/gcc/pic32c/8.3.1/../../../../pic32c/lib/thumb/v6-m/nofp\libm-fast-emfloat.a(frexp.o)
                0x000000000000a694                frexp

.text.atoi%117  0x000000000000a6d4       0x40
 .text.atoi     0x000000000000a6d4       0x40 c:/program files/microchip/xc32/v4.60/bin/bin/../../lib/gcc/pic32c/8.3.1/../../../../pic32c/lib/thumb/v6-m/nofp\libg-musl.a(atoi.o)
                0x000000000000a6d4                atoi

.text%118       0x000000000000a714       0x40
 .text          0x000000000000a714       0x40 c:/program files/microchip/xc32/v4.60/bin/bin/../../lib/gcc/pic32c/8.3.1/thumb/v6-m/nofp\libgcc.a(_aeabi_uldivmod.o)
                0x000000000000a714                __aeabi_uldivmod

.text.__aeabi_dcmpgt%119
                0x000000000000a754       0x3e
 .text.__aeabi_dcmpgt
                0x000000000000a754       0x3e c:/program files/microchip/xc32/v4.60/bin/bin/../../lib/gcc/pic32c/8.3.1/../../../../pic32c/lib/thumb/v6-m/nofp\libm-fast-emfloat.a(__aeabi_dcmpgt.o)
                0x000000000000a754                __aeabi_dcmpgt

.text.__aeabi_dcmplt%120
                0x000000000000a792       0x3e
 .text.__aeabi_dcmplt
                0x000000000000a792       0x3e c:/program files/microchip/xc32/v4.60/bin/bin/../../lib/gcc/pic32c/8.3.1/../../../../pic32c/lib/thumb/v6-m/nofp\libm-fast-emfloat.a(__aeabi_dcmplt.o)
                0x000000000000a792                __aeabi_dcmplt

.text.__aeabi_f2iz%121
                0x000000000000a7d0       0x3e
 .text.__aeabi_f2iz
                0x000000000000a7d0       0x3e c:/program files/microchip/xc32/v4.60/bin/bin/../../lib/gcc/pic32c/8.3.1/../../../../pic32c/lib/thumb/v6-m/nofp\libm-fast-emfloat.a(__aeabi_f2iz.o)
                0x000000000000a7d0                __aeabi_f2iz

.text%122       0x000000000000a810       0x3c
 .text          0x000000000000a810       0x3c build/SAMD21_IOT_WG_ICM42688/debug/_ext/26920679/utils_buffer_argmax.o
                0x000000000000a810                buffer_argmax

.text.__out%123
                0x000000000000a84c       0x3c
 .text.__out    0x000000000000a84c       0x3c c:/program files/microchip/xc32/v4.60/bin/bin/../../lib/gcc/pic32c/8.3.1/../../../../pic32c/lib/thumb/v6-m/nofp\libg-musl.a(__out.o)
                0x000000000000a84c                __out
                0x000000000000a84c                __out_needed

.text.__putc%124
                0x000000000000a888       0x3c
 .text.__putc   0x000000000000a888       0x3c c:/program files/microchip/xc32/v4.60/bin/bin/../../lib/gcc/pic32c/8.3.1/../../../../pic32c/lib/thumb/v6-m/nofp\libg-musl.a(__putc.o)
                0x000000000000a888                __putc_needed
                0x000000000000a888                __putc

.text%125       0x000000000000a8c4       0x3c
 .text          0x000000000000a8c4       0x3c c:/program files/microchip/xc32/v4.60/bin/bin/../../lib/gcc/pic32c/8.3.1/thumb/v6-m/nofp\libgcc.a(_clzsi2.o)
                0x000000000000a8c4                __clzsi2

.text.write%126
                0x000000000000a900       0x3c
 .text.write    0x000000000000a900       0x3c c:/program files/microchip/xc32/v4.60/bin/bin/../../lib/gcc/pic32c/8.3.1/../../../../pic32c/lib/thumb/v6-m/nofp\libpic32c.a(write.o)
                0x000000000000a900                write

.text%127       0x000000000000a93c       0x38
 .text          0x000000000000a93c       0x38 build/SAMD21_IOT_WG_ICM42688/debug/_ext/1357625803/xc32_monitor.o
                0x000000000000a93c                _mon_getc
                0x000000000000a958                _mon_putc

.text.__pic32c_data_initialization%128
                0x000000000000a974       0x38
 .text.__pic32c_data_initialization
                0x000000000000a974       0x38 c:/program files/microchip/xc32/v4.60/bin/bin/../../lib/gcc/pic32c/8.3.1/../../../../pic32c/lib/thumb/v6-m/nofp\libpic32c.a(data_init.o)
                0x000000000000a974                __pic32c_data_initialization

.text.__putc_unbuffered%129
                0x000000000000a9ac       0x36
 .text.__putc_unbuffered
                0x000000000000a9ac       0x36 c:/program files/microchip/xc32/v4.60/bin/bin/../../lib/gcc/pic32c/8.3.1/../../../../pic32c/lib/thumb/v6-m/nofp\libg-musl.a(putc.o)
                0x000000000000a9ac                __putc_unbuffered

.text.modff%130
                0x000000000000a9e4       0x34
 .text.modff    0x000000000000a9e4       0x34 c:/program files/microchip/xc32/v4.60/bin/bin/../../lib/gcc/pic32c/8.3.1/../../../../pic32c/lib/thumb/v6-m/nofp\libm-fast-emfloat.a(modff.o)
                0x000000000000a9e4                modff

.text.__aeabi_d2iz%131
                0x000000000000aa18       0x34
 .text.__aeabi_d2iz
                0x000000000000aa18       0x34 c:/program files/microchip/xc32/v4.60/bin/bin/../../lib/gcc/pic32c/8.3.1/../../../../pic32c/lib/thumb/v6-m/nofp\libm-fast-emfloat.a(__aeabi_d2iz.o)
                0x000000000000aa18                __aeabi_d2iz

.text.__fmt_state%132
                0x000000000000aa4c       0x34
 .text.__fmt_state
                0x000000000000aa4c       0x34 c:/program files/microchip/xc32/v4.60/bin/bin/../../lib/gcc/pic32c/8.3.1/../../../../pic32c/lib/thumb/v6-m/nofp\libg-musl.a(__printf_core.o)
                0x000000000000aa4c                __fmt_state

.text%133       0x000000000000aa80       0x34
 .text          0x000000000000aa80       0x34 c:/program files/microchip/xc32/v4.60/bin/bin/../../lib/gcc/pic32c/8.3.1/thumb/v6-m/nofp\libgcc.a(bpabi.o)
                0x000000000000aa80                __gnu_ldivmod_helper

.text._sbrk_init%134
                0x000000000000aab4       0x34
 .text._sbrk_init
                0x000000000000aab4       0x34 c:/program files/microchip/xc32/v4.60/bin/bin/../../lib/gcc/pic32c/8.3.1/../../../../pic32c/lib/thumb/v6-m/nofp\libpic32c.a(sbrk.o)

.text.__aeabi_fcmple%135
                0x000000000000aae8       0x32
 .text.__aeabi_fcmple
                0x000000000000aae8       0x32 c:/program files/microchip/xc32/v4.60/bin/bin/../../lib/gcc/pic32c/8.3.1/../../../../pic32c/lib/thumb/v6-m/nofp\libm-fast-emfloat.a(__aeabi_fcmple.o)
                0x000000000000aae8                __aeabi_fcmple

.text.__aeabi_fcmpge%136
                0x000000000000ab1a       0x32
 .text.__aeabi_fcmpge
                0x000000000000ab1a       0x32 c:/program files/microchip/xc32/v4.60/bin/bin/../../lib/gcc/pic32c/8.3.1/../../../../pic32c/lib/thumb/v6-m/nofp\libm-fast-emfloat.a(__aeabi_fcmpge.o)
                0x000000000000ab1a                __aeabi_fcmpge

.text.__aeabi_ul2f%137
                0x000000000000ab4c       0x30
 .text.__aeabi_ul2f
                0x000000000000ab4c       0x30 c:/program files/microchip/xc32/v4.60/bin/bin/../../lib/gcc/pic32c/8.3.1/../../../../pic32c/lib/thumb/v6-m/nofp\libm-fast-emfloat.a(__aeabi_ul2f.o)
                0x000000000000ab4c                __aeabi_ul2f

.text.__aeabi_dcmpeq%138
                0x000000000000ab7c       0x2e
 .text.__aeabi_dcmpeq
                0x000000000000ab7c       0x2e c:/program files/microchip/xc32/v4.60/bin/bin/../../lib/gcc/pic32c/8.3.1/../../../../pic32c/lib/thumb/v6-m/nofp\libm-fast-emfloat.a(__aeabi_dcmpeq.o)
                0x000000000000ab7c                __aeabi_dcmpeq

.text.__aeabi_fcmpgt%139
                0x000000000000abaa       0x2e
 .text.__aeabi_fcmpgt
                0x000000000000abaa       0x2e c:/program files/microchip/xc32/v4.60/bin/bin/../../lib/gcc/pic32c/8.3.1/../../../../pic32c/lib/thumb/v6-m/nofp\libm-fast-emfloat.a(__aeabi_fcmpgt.o)
                0x000000000000abaa                __aeabi_fcmpgt

.text.__aeabi_fcmplt%140
                0x000000000000abd8       0x2e
 .text.__aeabi_fcmplt
                0x000000000000abd8       0x2e c:/program files/microchip/xc32/v4.60/bin/bin/../../lib/gcc/pic32c/8.3.1/../../../../pic32c/lib/thumb/v6-m/nofp\libm-fast-emfloat.a(__aeabi_fcmplt.o)
                0x000000000000abd8                __aeabi_fcmplt

.text.__aeabi_d2uiz%141
                0x000000000000ac06       0x2e
 .text.__aeabi_d2uiz
                0x000000000000ac06       0x2e c:/program files/microchip/xc32/v4.60/bin/bin/../../lib/gcc/pic32c/8.3.1/../../../../pic32c/lib/thumb/v6-m/nofp\libm-fast-emfloat.a(__aeabi_d2uiz.o)
                0x000000000000ac06                __aeabi_d2uiz
                0x000000000000ac0a                .L__aeabi_d2uiz_fast_entry

.text.fwrite%142
                0x000000000000ac34       0x2e
 .text.fwrite   0x000000000000ac34       0x2e c:/program files/microchip/xc32/v4.60/bin/bin/../../lib/gcc/pic32c/8.3.1/../../../../pic32c/lib/thumb/v6-m/nofp\libg-musl.a(fwrite.o)
                0x000000000000ac34                fwrite
                0x000000000000ac34                fwrite_unlocked

.text.__pop_float%143
                0x000000000000ac62       0x2a
 .text.__pop_float
                0x000000000000ac62       0x2a c:/program files/microchip/xc32/v4.60/bin/bin/../../lib/gcc/pic32c/8.3.1/../../../../pic32c/lib/thumb/v6-m/nofp\libg-musl.a(__pop_float.o)
                0x000000000000ac62                __pop_float_needed
                0x000000000000ac62                __pop_float

.text.__towrite_rw%144
                0x000000000000ac8c       0x2a
 .text.__towrite_rw
                0x000000000000ac8c       0x2a c:/program files/microchip/xc32/v4.60/bin/bin/../../lib/gcc/pic32c/8.3.1/../../../../pic32c/lib/thumb/v6-m/nofp\libg-musl.a(__towrite_rw.o)
                0x000000000000ac8c                __towrite_rw
                0x000000000000ac8c                __towrite_rw_needed

.text.read%145  0x000000000000acb6       0x2a
 .text.read     0x000000000000acb6       0x2a c:/program files/microchip/xc32/v4.60/bin/bin/../../lib/gcc/pic32c/8.3.1/../../../../pic32c/lib/thumb/v6-m/nofp\libpic32c.a(read.o)
                0x000000000000acb6                read

.rodata.__SEGGER_RTL_float64_Log%146
                0x000000000000ace0       0x28
 .rodata.__SEGGER_RTL_float64_Log
                0x000000000000ace0       0x28 c:/program files/microchip/xc32/v4.60/bin/bin/../../lib/gcc/pic32c/8.3.1/../../../../pic32c/lib/thumb/v6-m/nofp\libm-fast-emfloat.a(__SEGGER_RTL_float64_Log.o)
                0x000000000000ace0                __SEGGER_RTL_float64_Log

.text.puts%147  0x000000000000ad08       0x28
 .text.puts     0x000000000000ad08       0x28 c:/program files/microchip/xc32/v4.60/bin/bin/../../lib/gcc/pic32c/8.3.1/../../../../pic32c/lib/thumb/v6-m/nofp\libg-musl.a(puts.o)
                0x000000000000ad08                puts

.text.__readv%148
                0x000000000000ad30       0x28
 .text.__readv  0x000000000000ad30       0x28 c:/program files/microchip/xc32/v4.60/bin/bin/../../lib/gcc/pic32c/8.3.1/../../../../pic32c/lib/thumb/v6-m/nofp\libg-musl.a(readv.o)
                0x000000000000ad30                readv

.text.__writev%149
                0x000000000000ad58       0x28
 .text.__writev
                0x000000000000ad58       0x28 c:/program files/microchip/xc32/v4.60/bin/bin/../../lib/gcc/pic32c/8.3.1/../../../../pic32c/lib/thumb/v6-m/nofp\libg-musl.a(writev.o)
                0x000000000000ad58                writev

.text.__aeabi_i2f%150
                0x000000000000ad80       0x26
 .text.__aeabi_i2f
                0x000000000000ad80       0x26 c:/program files/microchip/xc32/v4.60/bin/bin/../../lib/gcc/pic32c/8.3.1/../../../../pic32c/lib/thumb/v6-m/nofp\libm-fast-emfloat.a(__aeabi_i2f.o)
                0x000000000000ad80                __aeabi_i2f

.text%151       0x000000000000ada8       0x24
 .text          0x000000000000ada8       0x24 build/SAMD21_IOT_WG_ICM42688/debug/_ext/26920679/sg_windowing.o
                0x000000000000ada8                sg_windowing
                0x000000000000adbc                sg_windowing_init

.text.__aeabi_f2uiz%152
                0x000000000000adcc       0x24
 .text.__aeabi_f2uiz
                0x000000000000adcc       0x24 c:/program files/microchip/xc32/v4.60/bin/bin/../../lib/gcc/pic32c/8.3.1/../../../../pic32c/lib/thumb/v6-m/nofp\libm-fast-emfloat.a(__aeabi_f2uiz.o)
                0x000000000000adcc                __aeabi_f2uiz

.text.fputs%153
                0x000000000000adf0       0x22
 .text.fputs    0x000000000000adf0       0x22 c:/program files/microchip/xc32/v4.60/bin/bin/../../lib/gcc/pic32c/8.3.1/../../../../pic32c/lib/thumb/v6-m/nofp\libg-musl.a(fputs.o)
                0x000000000000adf0                fputs
                0x000000000000adf0                fputs_unlocked

.text%154       0x000000000000ae14       0x20
 .text          0x000000000000ae14       0x20 build/SAMD21_IOT_WG_ICM42688/debug/_ext/26920679/utils_tr_sensor.o
                0x000000000000ae14                tr_sensor_sensors

.text.__aeabi_l2f%155
                0x000000000000ae34       0x20
 .text.__aeabi_l2f
                0x000000000000ae34       0x20 c:/program files/microchip/xc32/v4.60/bin/bin/../../lib/gcc/pic32c/8.3.1/../../../../pic32c/lib/thumb/v6-m/nofp\libm-fast-emfloat.a(__aeabi_l2f.o)
                0x000000000000ae34                __aeabi_l2f

.text.__wrap_printf%156
                0x000000000000ae54       0x20
 .text.__wrap_printf
                0x000000000000ae54       0x20 c:/program files/microchip/xc32/v4.60/bin/bin/../../lib/gcc/pic32c/8.3.1/../../../../pic32c/lib/thumb/v6-m/nofp\libg-musl.a(__sio_printf_cdeEfFgGnpsxX.o)
                0x000000000000ae54                _printf_cdeEfFgGnpsxX
                0x000000000000ae54                _dprintf_cdeEfFgGnpsxX

.text._get_heap_left_space%157
                0x000000000000ae74       0x20
 .text._get_heap_left_space
                0x000000000000ae74       0x20 c:/program files/microchip/xc32/v4.60/bin/bin/../../lib/gcc/pic32c/8.3.1/../../../../pic32c/lib/thumb/v6-m/nofp\libpic32c.a(sbrk.o)
                0x000000000000ae74                _get_heap_left_space

.text.__aeabi_fcmpeq%158
                0x000000000000ae94       0x1e
 .text.__aeabi_fcmpeq
                0x000000000000ae94       0x1e c:/program files/microchip/xc32/v4.60/bin/bin/../../lib/gcc/pic32c/8.3.1/../../../../pic32c/lib/thumb/v6-m/nofp\libm-fast-emfloat.a(__aeabi_fcmpeq.o)
                0x000000000000ae94                __aeabi_fcmpeq

.text.__aeabi_ui2f%159
                0x000000000000aeb2       0x1e
 .text.__aeabi_ui2f
                0x000000000000aeb2       0x1e c:/program files/microchip/xc32/v4.60/bin/bin/../../lib/gcc/pic32c/8.3.1/../../../../pic32c/lib/thumb/v6-m/nofp\libm-fast-emfloat.a(__aeabi_ui2f.o)
                0x000000000000aeb2                __aeabi_ui2f

.text.__dinit_copy%160
                0x000000000000aed0       0x1e
 .text.__dinit_copy
                0x000000000000aed0       0x1e c:/program files/microchip/xc32/v4.60/bin/bin/../../lib/gcc/pic32c/8.3.1/../../../../pic32c/lib/thumb/v6-m/nofp\libpic32c.a(pic32_data_init_copy.o)
                0x000000000000aed0                __dinit_copy_needed
                0x000000000000aed0                __dinit_copy

.text.__aeabi_i2d%161
                0x000000000000aef0       0x1c
 .text.__aeabi_i2d
                0x000000000000aef0       0x1c c:/program files/microchip/xc32/v4.60/bin/bin/../../lib/gcc/pic32c/8.3.1/../../../../pic32c/lib/thumb/v6-m/nofp\libm-fast-emfloat.a(__aeabi_i2d.o)
                0x000000000000aef0                __aeabi_i2d

.text.__aeabi_ui2d%162
                0x000000000000af0c       0x1c
 .text.__aeabi_ui2d
                0x000000000000af0c       0x1c c:/program files/microchip/xc32/v4.60/bin/bin/../../lib/gcc/pic32c/8.3.1/../../../../pic32c/lib/thumb/v6-m/nofp\libm-fast-emfloat.a(__aeabi_ui2d.o)
                0x000000000000af0c                __aeabi_ui2d

.text.__init_search_fl%163
                0x000000000000af28       0x1c
 .text.__init_search_fl
                0x000000000000af28       0x1c c:/program files/microchip/xc32/v4.60/bin/bin/../../lib/gcc/pic32c/8.3.1/../../../../pic32c/lib/thumb/v6-m/nofp\liblmalloc-musl.a(lite_free.o)
                0x000000000000af28                __init_search_fl

.text.__towrite%164
                0x000000000000af44       0x1a
 .text.__towrite
                0x000000000000af44       0x1a c:/program files/microchip/xc32/v4.60/bin/bin/../../lib/gcc/pic32c/8.3.1/../../../../pic32c/lib/thumb/v6-m/nofp\libg-musl.a(__towrite.o)
                0x000000000000af44                __towrite

.text.__vfprintf%165
                0x000000000000af5e       0x18
 .text.__vfprintf
                0x000000000000af5e       0x18 c:/program files/microchip/xc32/v4.60/bin/bin/../../lib/gcc/pic32c/8.3.1/../../../../pic32c/lib/thumb/v6-m/nofp\libg-musl.a(__int_vfprintf.o)
                0x000000000000af5e                __vfprintf

.text%166       0x000000000000af78       0x18
 .text          0x000000000000af78       0x18 c:/program files/microchip/xc32/v4.60/bin/bin/../../lib/gcc/pic32c/8.3.1/thumb/v6-m/nofp\libgcc.a(_lshrdi3.o)
                0x000000000000af78                __lshrdi3
                0x000000000000af78                __aeabi_llsr

.text%167       0x000000000000af90       0x18
 .text          0x000000000000af90       0x18 c:/program files/microchip/xc32/v4.60/bin/bin/../../lib/gcc/pic32c/8.3.1/thumb/v6-m/nofp\libgcc.a(_ashldi3.o)
                0x000000000000af90                __aeabi_llsl
                0x000000000000af90                __ashldi3

.text%168       0x000000000000afa8       0x18
 .text          0x000000000000afa8       0x18 c:/program files/microchip/xc32/v4.60/bin/bin/../../lib/gcc/pic32c/8.3.1/thumb/v6-m/nofp\libgcc.a(_clzdi2.o)
                0x000000000000afa8                __clzdi2

.text.strlen%169
                0x000000000000afc0       0x18
 .text.strlen   0x000000000000afc0       0x18 c:/program files/microchip/xc32/v4.60/bin/bin/../../lib/gcc/pic32c/8.3.1/../../../../pic32c/lib/thumb/v6-m/nofp\libc-size-musl.a(strlen.o)
                0x000000000000afc0                strlen

.text.__wrap_sprintf%170
                0x000000000000afd8       0x16
 .text.__wrap_sprintf
                0x000000000000afd8       0x16 c:/program files/microchip/xc32/v4.60/bin/bin/../../lib/gcc/pic32c/8.3.1/../../../../pic32c/lib/thumb/v6-m/nofp\libg-musl.a(__sio_sprintf_cdeEfFgGnpsxX.o)
                0x000000000000afd8                _dsprintf_cdeEfFgGnpsxX
                0x000000000000afd8                _sprintf_cdeEfFgGnpsxX

.rodata%171     0x000000000000afee       0x16
 .rodata        0x000000000000afee       0x16 c:/program files/microchip/xc32/v4.60/bin/bin/../../lib/gcc/pic32c/8.3.1/../../../../pic32c/lib/thumb/v6-m/nofp\libg-musl.a(__printf_core.o)

.text.__expand_heap%172
                0x000000000000b004       0x16
 .text.__expand_heap
                0x000000000000b004       0x16 c:/program files/microchip/xc32/v4.60/bin/bin/../../lib/gcc/pic32c/8.3.1/../../../../pic32c/lib/thumb/v6-m/nofp\libg-musl.a(expand_heap.o)
                0x000000000000b004                __expand_heap

.rodata%173     0x000000000000b01c       0x14
 .rodata        0x000000000000b01c       0x14 c:/program files/microchip/xc32/v4.60/bin/bin/../../lib/gcc/pic32c/8.3.1/../../../../pic32c/lib/thumb/v6-m/nofp\libpic32c.a(data_init.o)

.text.memcpy%174
                0x000000000000b030       0x14
 .text.memcpy   0x000000000000b030       0x14 c:/program files/microchip/xc32/v4.60/bin/bin/../../lib/gcc/pic32c/8.3.1/../../../../pic32c/lib/thumb/v6-m/nofp\libc-size-musl.a(memcpy.o)
                0x000000000000b030                memcpy

.text.memset%175
                0x000000000000b044       0x14
 .text.memset   0x000000000000b044       0x14 c:/program files/microchip/xc32/v4.60/bin/bin/../../lib/gcc/pic32c/8.3.1/../../../../pic32c/lib/thumb/v6-m/nofp\libc-size-musl.a(memset.o)
                0x000000000000b044                memset

.text.__init_stdout%176
                0x000000000000b058       0x14
 .text.__init_stdout
                0x000000000000b058       0x14 c:/program files/microchip/xc32/v4.60/bin/bin/../../lib/gcc/pic32c/8.3.1/../../../../pic32c/lib/thumb/v6-m/nofp\libg-musl.a(stdout.o)
                0x000000000000b058                __init_stdout

.text.putchar%177
                0x000000000000b06c       0x14
 .text.putchar  0x000000000000b06c       0x14 c:/program files/microchip/xc32/v4.60/bin/bin/../../lib/gcc/pic32c/8.3.1/../../../../pic32c/lib/thumb/v6-m/nofp\libg-musl.a(putchar.o)
                0x000000000000b06c                putchar

.text.__vsprintf%178
                0x000000000000b080       0x14
 .text.__vsprintf
                0x000000000000b080       0x14 c:/program files/microchip/xc32/v4.60/bin/bin/../../lib/gcc/pic32c/8.3.1/../../../../pic32c/lib/thumb/v6-m/nofp\libg-musl.a(__int_vsprintf.o)
                0x000000000000b080                __vsprintf

.text.__fwrite%179
                0x000000000000b094       0x14
 .text.__fwrite
                0x000000000000b094       0x14 c:/program files/microchip/xc32/v4.60/bin/bin/../../lib/gcc/pic32c/8.3.1/../../../../pic32c/lib/thumb/v6-m/nofp\libg-musl.a(__fwrite.o)
                0x000000000000b094                __fwrite
                0x000000000000b094                __fwrite_needed

.text.stpcpy%180
                0x000000000000b0a8       0x14
 .text.stpcpy   0x000000000000b0a8       0x14 c:/program files/microchip/xc32/v4.60/bin/bin/../../lib/gcc/pic32c/8.3.1/../../../../pic32c/lib/thumb/v6-m/nofp\libc-size-musl.a(stpcpy.o)
                0x000000000000b0a8                __stpcpy
                0x000000000000b0a8                stpcpy

.text.setbuf%181
                0x000000000000b0bc       0x12
 .text.setbuf   0x000000000000b0bc       0x12 c:/program files/microchip/xc32/v4.60/bin/bin/../../lib/gcc/pic32c/8.3.1/../../../../pic32c/lib/thumb/v6-m/nofp\libg-musl.a(setbuf.o)
                0x000000000000b0bc                setbuf

.text.__dinit_clear%182
                0x000000000000b0ce       0x12
 .text.__dinit_clear
                0x000000000000b0ce       0x12 c:/program files/microchip/xc32/v4.60/bin/bin/../../lib/gcc/pic32c/8.3.1/../../../../pic32c/lib/thumb/v6-m/nofp\libpic32c.a(pic32_data_init_clear.o)
                0x000000000000b0ce                __dinit_clear
                0x000000000000b0ce                __dinit_clear_needed

.text%183       0x000000000000b0e0       0x10
 .text          0x000000000000b0e0       0x10 build/SAMD21_IOT_WG_ICM42688/debug/_ext/26920679/fg_cross_p2p_difference.o
                0x000000000000b0e0                fg_cross_column_p2p_difference

.text%184       0x000000000000b0f0       0x10
 .text          0x000000000000b0f0       0x10 build/SAMD21_IOT_WG_ICM42688/debug/_ext/26920679/utils_buffer_abssum.o
                0x000000000000b0f0                buffer_absolute_cumulative_sum

.text.__aeabi_fsub%185
                0x000000000000b100       0x10
 .text.__aeabi_fsub
                0x000000000000b100       0x10 c:/program files/microchip/xc32/v4.60/bin/bin/../../lib/gcc/pic32c/8.3.1/../../../../pic32c/lib/thumb/v6-m/nofp\libm-fast-emfloat.a(__aeabi_fsub.o)
                0x000000000000b100                __aeabi_fsub

.text.__aeabi_dsub%186
                0x000000000000b110       0x10
 .text.__aeabi_dsub
                0x000000000000b110       0x10 c:/program files/microchip/xc32/v4.60/bin/bin/../../lib/gcc/pic32c/8.3.1/../../../../pic32c/lib/thumb/v6-m/nofp\libm-fast-emfloat.a(__aeabi_dsub.o)
                0x000000000000b110                __aeabi_dsub

.rodata.str1.1%187
                0x000000000000b120       0x10
 .rodata.str1.1
                0x000000000000b120       0x10 c:/program files/microchip/xc32/v4.60/bin/bin/../../lib/gcc/pic32c/8.3.1/../../../../pic32c/lib/thumb/v6-m/nofp\libg-musl.a(__fmt_fp.o)

.text.__init_stdio%188
                0x000000000000b130       0x10
 .text.__init_stdio
                0x000000000000b130       0x10 c:/program files/microchip/xc32/v4.60/bin/bin/../../lib/gcc/pic32c/8.3.1/../../../../pic32c/lib/thumb/v6-m/nofp\libg-musl.a(__init_stdio.o)
                0x000000000000b130                __init_stdio_needed
                0x000000000000b130                __init_stdio

.text.fma%189   0x000000000000b140       0x10
 .text.fma      0x000000000000b140       0x10 c:/program files/microchip/xc32/v4.60/bin/bin/../../lib/gcc/pic32c/8.3.1/../../../../pic32c/lib/thumb/v6-m/nofp\libm-fast-emfloat.a(fma.o)
                0x000000000000b140                fma

.text.tolower%190
                0x000000000000b150        0xe
 .text.tolower  0x000000000000b150        0xe c:/program files/microchip/xc32/v4.60/bin/bin/../../lib/gcc/pic32c/8.3.1/../../../../pic32c/lib/thumb/v6-m/nofp\libg-musl.a(tolower.o)
                0x000000000000b150                tolower

.text.toupper%191
                0x000000000000b15e        0xe
 .text.toupper  0x000000000000b15e        0xe c:/program files/microchip/xc32/v4.60/bin/bin/../../lib/gcc/pic32c/8.3.1/../../../../pic32c/lib/thumb/v6-m/nofp\libg-musl.a(toupper.o)
                0x000000000000b15e                toupper

.text.strcpy%192
                0x000000000000b16c        0xc
 .text.strcpy   0x000000000000b16c        0xc c:/program files/microchip/xc32/v4.60/bin/bin/../../lib/gcc/pic32c/8.3.1/../../../../pic32c/lib/thumb/v6-m/nofp\libc-size-musl.a(strcpy.o)
                0x000000000000b16c                strcpy

.text.__fwrite_min%193
                0x000000000000b178        0xa
 .text.__fwrite_min
                0x000000000000b178        0xa c:/program files/microchip/xc32/v4.60/bin/bin/../../lib/gcc/pic32c/8.3.1/../../../../pic32c/lib/thumb/v6-m/nofp\libg-musl.a(__out.o)
                0x000000000000b178                __stdio_write_unbuffered
                0x000000000000b178                __stdio_write

.text%194       0x000000000000b184        0x8
 .text          0x000000000000b184        0x8 build/SAMD21_IOT_WG_ICM42688/debug/_ext/1832905403/exceptions.o
                0x000000000000b184                NonMaskableInt_Handler
                0x000000000000b188                HardFault_Handler

.rodata.str1.4%195
                0x000000000000b18c        0x8
 .rodata.str1.4
                0x000000000000b18c        0x8 build/SAMD21_IOT_WG_ICM42688/debug/_ext/1341251756/Icm426xxDriver_HL.o

.rodata.str1.1%196
                0x000000000000b194        0x8
 .rodata.str1.1
                0x000000000000b194        0x8 c:/program files/microchip/xc32/v4.60/bin/bin/../../lib/gcc/pic32c/8.3.1/../../../../pic32c/lib/thumb/v6-m/nofp\libg-musl.a(__printf_core.o)

.text.putc%197  0x000000000000b19c        0x8
 .text.putc     0x000000000000b19c        0x8 c:/program files/microchip/xc32/v4.60/bin/bin/../../lib/gcc/pic32c/8.3.1/../../../../pic32c/lib/thumb/v6-m/nofp\libg-musl.a(putc.o)
                0x000000000000b19c                putc
                0x000000000000b19c                fputc
                0x000000000000b19c                _IO_putc
                0x000000000000b19c                putc_unlocked

.text.__get_stdout%198
                0x000000000000b1a4        0x8
 .text.__get_stdout
                0x000000000000b1a4        0x8 c:/program files/microchip/xc32/v4.60/bin/bin/../../lib/gcc/pic32c/8.3.1/../../../../pic32c/lib/thumb/v6-m/nofp\libg-musl.a(__stdout.o)
                0x000000000000b1a4                __get_stdout
                0x000000000000b1a4                __init_stdout_needed

.rodata.str1.1%199
                0x000000000000b1ac        0x7
 .rodata.str1.1
                0x000000000000b1ac        0x7 c:/program files/microchip/xc32/v4.60/bin/bin/../../lib/gcc/pic32c/8.3.1/../../../../pic32c/lib/thumb/v6-m/nofp\libg-musl.a(__fmt_s.o)

.text.close%200
                0x000000000000b1b4        0x6
 .text.close    0x000000000000b1b4        0x6 c:/program files/microchip/xc32/v4.60/bin/bin/../../lib/gcc/pic32c/8.3.1/../../../../pic32c/lib/thumb/v6-m/nofp\libpic32c.a(close.o)
                0x000000000000b1b4                close

.text%201       0x000000000000b1bc        0x4
 .text          0x000000000000b1bc        0x4 build/SAMD21_IOT_WG_ICM42688/debug/_ext/1752574717/plib_evsys.o
                0x000000000000b1bc                EVSYS_Initialize

.text.__dummy_decompress%202
                0x000000000000b1c0        0x4
 .text.__dummy_decompress
                0x000000000000b1c0        0x4 c:/program files/microchip/xc32/v4.60/bin/bin/../../lib/gcc/pic32c/8.3.1/../../../../pic32c/lib/thumb/v6-m/nofp\libpic32c.a(data_init.o)
                0x000000000000b1c0                __dinit_decompress
                0x000000000000b1c0                __dinit_copy_val_data
                0x000000000000b1c0                __dinit_copy_emb

.text.__dummy_fmt3%203
                0x000000000000b1c4        0x4
 .text.__dummy_fmt3
                0x000000000000b1c4        0x4 c:/program files/microchip/xc32/v4.60/bin/bin/../../lib/gcc/pic32c/8.3.1/../../../../pic32c/lib/thumb/v6-m/nofp\libg-musl.a(__printf_core.o)
                0x000000000000b1c4                __fmt_o
                0x000000000000b1c4                __fmt_u

.text.__dummy_fmt4%204
                0x000000000000b1c8        0x4
 .text.__dummy_fmt4
                0x000000000000b1c8        0x4 c:/program files/microchip/xc32/v4.60/bin/bin/../../lib/gcc/pic32c/8.3.1/../../../../pic32c/lib/thumb/v6-m/nofp\libg-musl.a(__printf_core.o)
                0x000000000000b1c8                __fmt_a

.text.__dummy%205
                0x000000000000b1cc        0x4
 .text.__dummy  0x000000000000b1cc        0x4 c:/program files/microchip/xc32/v4.60/bin/bin/../../lib/gcc/pic32c/8.3.1/../../../../pic32c/lib/thumb/v6-m/nofp\libg-musl.a(stdin.o)
                0x000000000000b1cc                __stdio_seek_rw

.text%206       0x000000000000b1d0        0x4
 .text          0x000000000000b1d0        0x4 c:/program files/microchip/xc32/v4.60/bin/bin/../../lib/gcc/pic32c/8.3.1/thumb/v6-m/nofp\libgcc.a(_dvmd_tls.o)
                0x000000000000b1d0                __aeabi_idiv0
                0x000000000000b1d0                __aeabi_ldiv0

.text.lseek%207
                0x000000000000b1d4        0x4
 .text.lseek    0x000000000000b1d4        0x4 c:/program files/microchip/xc32/v4.60/bin/bin/../../lib/gcc/pic32c/8.3.1/../../../../pic32c/lib/thumb/v6-m/nofp\libpic32c.a(lseek.o)
                0x000000000000b1d4                lseek

.text.Dummy_Handler%208
                0x000000000000807e        0x2
 .text.Dummy_Handler
                0x000000000000807e        0x2 build/SAMD21_IOT_WG_ICM42688/debug/_ext/1832905403/interrupts.o
                0x000000000000807e                SVCall_Handler
                0x000000000000807e                DMAC_Handler
                0x000000000000807e                AC_Handler
                0x000000000000807e                PendSV_Handler
                0x000000000000807e                SERCOM1_Handler
                0x000000000000807e                ADC_Handler
                0x000000000000807e                TCC1_Handler
                0x000000000000807e                SERCOM2_Handler
                0x000000000000807e                TCC0_Handler
                0x000000000000807e                RTC_Handler
                0x000000000000807e                WDT_Handler
                0x000000000000807e                TC4_Handler
                0x000000000000807e                USB_Handler
                0x000000000000807e                Dummy_Handler
                0x000000000000807e                PM_Handler
                0x000000000000807e                TCC2_Handler
                0x000000000000807e                EVSYS_Handler
                0x000000000000807e                SERCOM3_Handler
                0x000000000000807e                SERCOM4_Handler
                0x000000000000807e                I2S_Handler
                0x000000000000807e                NVMCTRL_Handler
                0x000000000000807e                SERCOM0_Handler
                0x000000000000807e                DAC_Handler
                0x000000000000807e                PTC_Handler
                0x000000000000807e                TC5_Handler
                0x000000000000807e                SYSCTRL_Handler

.text%209       0x0000000000008c82        0x2
 .text          0x0000000000008c82        0x2 build/SAMD21_IOT_WG_ICM42688/debug/_ext/1832905403/startup_xc32.o
                0x0000000000008c82                _on_reset
                0x0000000000008c82                _on_bootstrap
                0x0000000000008c82                __xc32_on_reset
                0x0000000000008c82                Dummy_App_Func
                0x0000000000008c82                __xc32_on_bootstrap

.text.__dummy_init_tls%210
                0x00000000000094ea        0x2
 .text.__dummy_init_tls
                0x00000000000094ea        0x2 c:/program files/microchip/xc32/v4.60/bin/bin/../../lib/gcc/pic32c/8.3.1/../../../../pic32c/lib/thumb/v6-m/nofp\libpic32c.a(data_init.o)
                0x00000000000094ea                xc32_init_tls

.text.__dummy%211
                0x000000000000999e        0x2
 .text.__dummy  0x000000000000999e        0x2 c:/program files/microchip/xc32/v4.60/bin/bin/../../lib/gcc/pic32c/8.3.1/../../../../pic32c/lib/thumb/v6-m/nofp\libg-musl.a(__libc_start_main.o)
                0x000000000000999e                __init_host

.text.__dummy%212
                0x0000000000009c92        0x2
 .text.__dummy  0x0000000000009c92        0x2 c:/program files/microchip/xc32/v4.60/bin/bin/../../lib/gcc/pic32c/8.3.1/../../../../pic32c/lib/thumb/v6-m/nofp\libg-musl.a(__init_stdio.o)
                0x0000000000009c92                __init_stdin
                0x0000000000009c92                __init_stderr

.text.__dummy%213
                0x0000000000009dea        0x2
 .text.__dummy  0x0000000000009dea        0x2 c:/program files/microchip/xc32/v4.60/bin/bin/../../lib/gcc/pic32c/8.3.1/../../../../pic32c/lib/thumb/v6-m/nofp\libg-musl.a(__stderr.o)
                0x0000000000009dea                __stdio_seek
