Archive member included to satisfy reference by file (symbol)

c:/program files/microchip/xc32/v4.60/bin/bin/../../lib/gcc/pic32c/8.3.1/../../../../pic32c/lib/thumb/v6-m/nofp\libpic32c.a(data_init.o)
                              build/SAMD21_IOT_WG_ICM42688/production/_ext/1832905403/startup_xc32.o (__pic32c_data_initialization)
c:/program files/microchip/xc32/v4.60/bin/bin/../../lib/gcc/pic32c/8.3.1/../../../../pic32c/lib/thumb/v6-m/nofp\libc-size-musl.a(memcpy.o)
                              build/SAMD21_IOT_WG_ICM42688/production/_ext/101005277/wdrv_winc_spi.o (memcpy)
c:/program files/microchip/xc32/v4.60/bin/bin/../../lib/gcc/pic32c/8.3.1/../../../../pic32c/lib/thumb/v6-m/nofp\libc-size-musl.a(memset.o)
                              build/SAMD21_IOT_WG_ICM42688/production/_ext/2048461350/icm42688_sensor.o (memset)
c:/program files/microchip/xc32/v4.60/bin/bin/../../lib/gcc/pic32c/8.3.1/../../../../pic32c/lib/thumb/v6-m/nofp\libc-size-musl.a(strlen.o)
                              build/SAMD21_IOT_WG_ICM42688/production/_ext/121554788/m2m_wifi.o (strlen)
c:/program files/microchip/xc32/v4.60/bin/bin/../../lib/gcc/pic32c/8.3.1/../../../../pic32c/lib/thumb/v6-m/nofp\libc-size-musl.a(strchr.o)
                              build/SAMD21_IOT_WG_ICM42688/production/_ext/907429946/wdrv_winc_sta.o (strchr)
c:/program files/microchip/xc32/v4.60/bin/bin/../../lib/gcc/pic32c/8.3.1/../../../../pic32c/lib/thumb/v6-m/nofp\libc-size-musl.a(strchrnul.o)
                              c:/program files/microchip/xc32/v4.60/bin/bin/../../lib/gcc/pic32c/8.3.1/../../../../pic32c/lib/thumb/v6-m/nofp\libc-size-musl.a(strchr.o) (__strchrnul)
c:/program files/microchip/xc32/v4.60/bin/bin/../../lib/gcc/pic32c/8.3.1/../../../../pic32c/lib/thumb/v6-m/nofp\libc-size-musl.a(strcmp.o)
                              build/SAMD21_IOT_WG_ICM42688/production/_ext/299863938/ssi_comms.o (strcmp)
c:/program files/microchip/xc32/v4.60/bin/bin/../../lib/gcc/pic32c/8.3.1/../../../../pic32c/lib/thumb/v6-m/nofp\libc-size-musl.a(strnlen.o)
                              build/SAMD21_IOT_WG_ICM42688/production/_ext/121554788/m2m_ota.o (strnlen)
c:/program files/microchip/xc32/v4.60/bin/bin/../../lib/gcc/pic32c/8.3.1/../../../../pic32c/lib/thumb/v6-m/nofp\libc-size-musl.a(memchr.o)
                              c:/program files/microchip/xc32/v4.60/bin/bin/../../lib/gcc/pic32c/8.3.1/../../../../pic32c/lib/thumb/v6-m/nofp\libc-size-musl.a(strnlen.o) (memchr)
c:/program files/microchip/xc32/v4.60/bin/bin/../../lib/gcc/pic32c/8.3.1/../../../../pic32c/lib/thumb/v6-m/nofp\liblmalloc-musl.a(lite_calloc.o)
                              build/SAMD21_IOT_WG_ICM42688/production/_ext/121554788/m2m_wifi.o (calloc)
c:/program files/microchip/xc32/v4.60/bin/bin/../../lib/gcc/pic32c/8.3.1/../../../../pic32c/lib/thumb/v6-m/nofp\liblmalloc-musl.a(lite_free.o)
                              build/SAMD21_IOT_WG_ICM42688/production/_ext/121554788/m2m_wifi.o (free)
c:/program files/microchip/xc32/v4.60/bin/bin/../../lib/gcc/pic32c/8.3.1/../../../../pic32c/lib/thumb/v6-m/nofp\liblmalloc-musl.a(lite_malloc.o)
                              c:/program files/microchip/xc32/v4.60/bin/bin/../../lib/gcc/pic32c/8.3.1/../../../../pic32c/lib/thumb/v6-m/nofp\liblmalloc-musl.a(lite_calloc.o) (__simple_malloc)
c:/program files/microchip/xc32/v4.60/bin/bin/../../lib/gcc/pic32c/8.3.1/../../../../pic32c/lib/thumb/v6-m/nofp\libm-fast-emfloat.a(modff.o)
                              build/SAMD21_IOT_WG_ICM42688/production/_ext/596309756/stats_percentile_presorted.o (modff)
c:/program files/microchip/xc32/v4.60/bin/bin/../../lib/gcc/pic32c/8.3.1/../../../../pic32c/lib/thumb/v6-m/nofp\libm-fast-emfloat.a(cos.o)
                              build/SAMD21_IOT_WG_ICM42688/production/_ext/596309756/utils_array.o (cos)
c:/program files/microchip/xc32/v4.60/bin/bin/../../lib/gcc/pic32c/8.3.1/../../../../pic32c/lib/thumb/v6-m/nofp\libm-fast-emfloat.a(sqrt.o)
                              build/SAMD21_IOT_WG_ICM42688/production/_ext/596309756/std.o (sqrt)
c:/program files/microchip/xc32/v4.60/bin/bin/../../lib/gcc/pic32c/8.3.1/../../../../pic32c/lib/thumb/v6-m/nofp\libm-fast-emfloat.a(pow.o)
                              build/SAMD21_IOT_WG_ICM42688/production/_ext/1341251756/Icm426xxSelfTest.o (pow)
c:/program files/microchip/xc32/v4.60/bin/bin/../../lib/gcc/pic32c/8.3.1/../../../../pic32c/lib/thumb/v6-m/nofp\libm-fast-emfloat.a(__SEGGER_RTL_float64_SinCos.o)
                              c:/program files/microchip/xc32/v4.60/bin/bin/../../lib/gcc/pic32c/8.3.1/../../../../pic32c/lib/thumb/v6-m/nofp\libm-fast-emfloat.a(cos.o) (__SEGGER_RTL_float64_SinCos)
c:/program files/microchip/xc32/v4.60/bin/bin/../../lib/gcc/pic32c/8.3.1/../../../../pic32c/lib/thumb/v6-m/nofp\libm-fast-emfloat.a(__SEGGER_RTL_kahan_aT2.o)
                              c:/program files/microchip/xc32/v4.60/bin/bin/../../lib/gcc/pic32c/8.3.1/../../../../pic32c/lib/thumb/v6-m/nofp\libm-fast-emfloat.a(sqrt.o) (__SEGGER_RTL_kahan_aT2)
c:/program files/microchip/xc32/v4.60/bin/bin/../../lib/gcc/pic32c/8.3.1/../../../../pic32c/lib/thumb/v6-m/nofp\libm-fast-emfloat.a(__aeabi_fadd.o)
                              build/SAMD21_IOT_WG_ICM42688/production/_ext/596309756/calc_area.o (__aeabi_fadd)
c:/program files/microchip/xc32/v4.60/bin/bin/../../lib/gcc/pic32c/8.3.1/../../../../pic32c/lib/thumb/v6-m/nofp\libm-fast-emfloat.a(__aeabi_dadd.o)
                              build/SAMD21_IOT_WG_ICM42688/production/_ext/1341251756/Icm426xxSelfTest.o (__aeabi_dadd)
c:/program files/microchip/xc32/v4.60/bin/bin/../../lib/gcc/pic32c/8.3.1/../../../../pic32c/lib/thumb/v6-m/nofp\libm-fast-emfloat.a(__aeabi_fsub.o)
                              build/SAMD21_IOT_WG_ICM42688/production/_ext/596309756/calc_area.o (__aeabi_fsub)
c:/program files/microchip/xc32/v4.60/bin/bin/../../lib/gcc/pic32c/8.3.1/../../../../pic32c/lib/thumb/v6-m/nofp\libm-fast-emfloat.a(__aeabi_dsub.o)
                              build/SAMD21_IOT_WG_ICM42688/production/_ext/596309756/utils_array.o (__aeabi_dsub)
c:/program files/microchip/xc32/v4.60/bin/bin/../../lib/gcc/pic32c/8.3.1/../../../../pic32c/lib/thumb/v6-m/nofp\libm-fast-emfloat.a(__aeabi_fmul.o)
                              build/SAMD21_IOT_WG_ICM42688/production/_ext/596309756/ma_symmetric.o (__aeabi_fmul)
c:/program files/microchip/xc32/v4.60/bin/bin/../../lib/gcc/pic32c/8.3.1/../../../../pic32c/lib/thumb/v6-m/nofp\libm-fast-emfloat.a(__aeabi_dmul_aux.o)
                              build/SAMD21_IOT_WG_ICM42688/production/_ext/1341251756/Icm426xxSelfTest.o (__aeabi_dmul)
c:/program files/microchip/xc32/v4.60/bin/bin/../../lib/gcc/pic32c/8.3.1/../../../../pic32c/lib/thumb/v6-m/nofp\libm-fast-emfloat.a(__aeabi_fdiv.o)
                              build/SAMD21_IOT_WG_ICM42688/production/_ext/1341251756/Icm426xxSelfTest.o (__aeabi_fdiv)
c:/program files/microchip/xc32/v4.60/bin/bin/../../lib/gcc/pic32c/8.3.1/../../../../pic32c/lib/thumb/v6-m/nofp\libm-fast-emfloat.a(__aeabi_ddiv.o)
                              build/SAMD21_IOT_WG_ICM42688/production/_ext/596309756/ma_symmetric.o (__aeabi_ddiv)
c:/program files/microchip/xc32/v4.60/bin/bin/../../lib/gcc/pic32c/8.3.1/../../../../pic32c/lib/thumb/v6-m/nofp\libm-fast-emfloat.a(__aeabi_fcmple.o)
                              build/SAMD21_IOT_WG_ICM42688/production/_ext/1341251756/Icm426xxSelfTest.o (__aeabi_fcmple)
c:/program files/microchip/xc32/v4.60/bin/bin/../../lib/gcc/pic32c/8.3.1/../../../../pic32c/lib/thumb/v6-m/nofp\libm-fast-emfloat.a(__aeabi_fcmpeq.o)
                              build/SAMD21_IOT_WG_ICM42688/production/_ext/596309756/rb.o (__aeabi_fcmpeq)
c:/program files/microchip/xc32/v4.60/bin/bin/../../lib/gcc/pic32c/8.3.1/../../../../pic32c/lib/thumb/v6-m/nofp\libm-fast-emfloat.a(__aeabi_dcmpeq.o)
                              c:/program files/microchip/xc32/v4.60/bin/bin/../../lib/gcc/pic32c/8.3.1/../../../../pic32c/lib/thumb/v6-m/nofp\libm-fast-emfloat.a(pow.o) (__aeabi_dcmpeq)
c:/program files/microchip/xc32/v4.60/bin/bin/../../lib/gcc/pic32c/8.3.1/../../../../pic32c/lib/thumb/v6-m/nofp\libm-fast-emfloat.a(__aeabi_fcmpge.o)
                              build/SAMD21_IOT_WG_ICM42688/production/_ext/1341251756/Icm426xxSelfTest.o (__aeabi_fcmpge)
c:/program files/microchip/xc32/v4.60/bin/bin/../../lib/gcc/pic32c/8.3.1/../../../../pic32c/lib/thumb/v6-m/nofp\libm-fast-emfloat.a(__aeabi_fcmpgt.o)
                              build/SAMD21_IOT_WG_ICM42688/production/_ext/596309756/max_min_high_low_freq.o (__aeabi_fcmpgt)
c:/program files/microchip/xc32/v4.60/bin/bin/../../lib/gcc/pic32c/8.3.1/../../../../pic32c/lib/thumb/v6-m/nofp\libm-fast-emfloat.a(__aeabi_dcmpgt.o)
                              build/SAMD21_IOT_WG_ICM42688/production/_ext/596309756/utils_buffer_pass_threshold.o (__aeabi_dcmpgt)
c:/program files/microchip/xc32/v4.60/bin/bin/../../lib/gcc/pic32c/8.3.1/../../../../pic32c/lib/thumb/v6-m/nofp\libm-fast-emfloat.a(__aeabi_fcmplt.o)
                              build/SAMD21_IOT_WG_ICM42688/production/_ext/596309756/calc_area.o (__aeabi_fcmplt)
c:/program files/microchip/xc32/v4.60/bin/bin/../../lib/gcc/pic32c/8.3.1/../../../../pic32c/lib/thumb/v6-m/nofp\libm-fast-emfloat.a(__aeabi_dcmplt.o)
                              c:/program files/microchip/xc32/v4.60/bin/bin/../../lib/gcc/pic32c/8.3.1/../../../../pic32c/lib/thumb/v6-m/nofp\libm-fast-emfloat.a(pow.o) (__aeabi_dcmplt)
c:/program files/microchip/xc32/v4.60/bin/bin/../../lib/gcc/pic32c/8.3.1/../../../../pic32c/lib/thumb/v6-m/nofp\libm-fast-emfloat.a(__aeabi_f2iz.o)
                              build/SAMD21_IOT_WG_ICM42688/production/_ext/596309756/fftr_utils.o (__aeabi_f2iz)
c:/program files/microchip/xc32/v4.60/bin/bin/../../lib/gcc/pic32c/8.3.1/../../../../pic32c/lib/thumb/v6-m/nofp\libm-fast-emfloat.a(__aeabi_d2iz.o)
                              build/SAMD21_IOT_WG_ICM42688/production/_ext/596309756/std.o (__aeabi_d2iz)
c:/program files/microchip/xc32/v4.60/bin/bin/../../lib/gcc/pic32c/8.3.1/../../../../pic32c/lib/thumb/v6-m/nofp\libm-fast-emfloat.a(__aeabi_f2uiz.o)
                              build/SAMD21_IOT_WG_ICM42688/production/_ext/596309756/tr_min_max_scale.o (__aeabi_f2uiz)
c:/program files/microchip/xc32/v4.60/bin/bin/../../lib/gcc/pic32c/8.3.1/../../../../pic32c/lib/thumb/v6-m/nofp\libm-fast-emfloat.a(__aeabi_d2uiz.o)
                              c:/program files/microchip/xc32/v4.60/bin/bin/../../lib/gcc/pic32c/8.3.1/../../../../pic32c/lib/thumb/v6-m/nofp\libm-fast-emfloat.a(__aeabi_d2iz.o) (.L__aeabi_d2uiz_fast_entry)
c:/program files/microchip/xc32/v4.60/bin/bin/../../lib/gcc/pic32c/8.3.1/../../../../pic32c/lib/thumb/v6-m/nofp\libm-fast-emfloat.a(__aeabi_i2f.o)
                              build/SAMD21_IOT_WG_ICM42688/production/_ext/596309756/calc_area.o (__aeabi_i2f)
c:/program files/microchip/xc32/v4.60/bin/bin/../../lib/gcc/pic32c/8.3.1/../../../../pic32c/lib/thumb/v6-m/nofp\libm-fast-emfloat.a(__aeabi_i2d.o)
                              build/SAMD21_IOT_WG_ICM42688/production/_ext/1341251756/Icm426xxSelfTest.o (__aeabi_i2d)
c:/program files/microchip/xc32/v4.60/bin/bin/../../lib/gcc/pic32c/8.3.1/../../../../pic32c/lib/thumb/v6-m/nofp\libm-fast-emfloat.a(__aeabi_l2f.o)
                              build/SAMD21_IOT_WG_ICM42688/production/_ext/596309756/mean.o (__aeabi_l2f)
c:/program files/microchip/xc32/v4.60/bin/bin/../../lib/gcc/pic32c/8.3.1/../../../../pic32c/lib/thumb/v6-m/nofp\libm-fast-emfloat.a(__aeabi_ui2f.o)
                              build/SAMD21_IOT_WG_ICM42688/production/_ext/1341251756/Icm426xxSelfTest.o (__aeabi_ui2f)
c:/program files/microchip/xc32/v4.60/bin/bin/../../lib/gcc/pic32c/8.3.1/../../../../pic32c/lib/thumb/v6-m/nofp\libm-fast-emfloat.a(__aeabi_ui2d.o)
                              c:/program files/microchip/xc32/v4.60/bin/bin/../../lib/gcc/pic32c/8.3.1/../../../../pic32c/lib/thumb/v6-m/nofp\libm-fast-emfloat.a(__aeabi_i2d.o) (__aeabi_ui2d)
c:/program files/microchip/xc32/v4.60/bin/bin/../../lib/gcc/pic32c/8.3.1/../../../../pic32c/lib/thumb/v6-m/nofp\libm-fast-emfloat.a(__aeabi_ul2f.o)
                              c:/program files/microchip/xc32/v4.60/bin/bin/../../lib/gcc/pic32c/8.3.1/../../../../pic32c/lib/thumb/v6-m/nofp\libm-fast-emfloat.a(__aeabi_l2f.o) (__aeabi_ul2f)
c:/program files/microchip/xc32/v4.60/bin/bin/../../lib/gcc/pic32c/8.3.1/../../../../pic32c/lib/thumb/v6-m/nofp\libm-fast-emfloat.a(__aeabi_f2d.o)
                              build/SAMD21_IOT_WG_ICM42688/production/_ext/596309756/kb_output.o (__aeabi_f2d)
c:/program files/microchip/xc32/v4.60/bin/bin/../../lib/gcc/pic32c/8.3.1/../../../../pic32c/lib/thumb/v6-m/nofp\libm-fast-emfloat.a(__aeabi_d2f.o)
                              build/SAMD21_IOT_WG_ICM42688/production/_ext/596309756/ma_symmetric.o (__aeabi_d2f)
c:/program files/microchip/xc32/v4.60/bin/bin/../../lib/gcc/pic32c/8.3.1/../../../../pic32c/lib/thumb/v6-m/nofp\libm-fast-emfloat.a(__SEGGER_RTL_float64_PolyEvalP.o)
                              c:/program files/microchip/xc32/v4.60/bin/bin/../../lib/gcc/pic32c/8.3.1/../../../../pic32c/lib/thumb/v6-m/nofp\libm-fast-emfloat.a(cos.o) (__SEGGER_RTL_float64_PolyEvalP)
c:/program files/microchip/xc32/v4.60/bin/bin/../../lib/gcc/pic32c/8.3.1/../../../../pic32c/lib/thumb/v6-m/nofp\libm-fast-emfloat.a(ldexp.o)
                              c:/program files/microchip/xc32/v4.60/bin/bin/../../lib/gcc/pic32c/8.3.1/../../../../pic32c/lib/thumb/v6-m/nofp\libm-fast-emfloat.a(sqrt.o) (ldexp)
c:/program files/microchip/xc32/v4.60/bin/bin/../../lib/gcc/pic32c/8.3.1/../../../../pic32c/lib/thumb/v6-m/nofp\libm-fast-emfloat.a(log.o)
                              c:/program files/microchip/xc32/v4.60/bin/bin/../../lib/gcc/pic32c/8.3.1/../../../../pic32c/lib/thumb/v6-m/nofp\libm-fast-emfloat.a(pow.o) (log)
c:/program files/microchip/xc32/v4.60/bin/bin/../../lib/gcc/pic32c/8.3.1/../../../../pic32c/lib/thumb/v6-m/nofp\libm-fast-emfloat.a(exp.o)
                              c:/program files/microchip/xc32/v4.60/bin/bin/../../lib/gcc/pic32c/8.3.1/../../../../pic32c/lib/thumb/v6-m/nofp\libm-fast-emfloat.a(pow.o) (exp)
c:/program files/microchip/xc32/v4.60/bin/bin/../../lib/gcc/pic32c/8.3.1/../../../../pic32c/lib/thumb/v6-m/nofp\libm-fast-emfloat.a(__SEGGER_RTL_float64_Log.o)
                              c:/program files/microchip/xc32/v4.60/bin/bin/../../lib/gcc/pic32c/8.3.1/../../../../pic32c/lib/thumb/v6-m/nofp\libm-fast-emfloat.a(log.o) (__SEGGER_RTL_float64_Log)
c:/program files/microchip/xc32/v4.60/bin/bin/../../lib/gcc/pic32c/8.3.1/../../../../pic32c/lib/thumb/v6-m/nofp\libm-fast-emfloat.a(__SEGGER_RTL_float64_PolyEvalQ.o)
                              c:/program files/microchip/xc32/v4.60/bin/bin/../../lib/gcc/pic32c/8.3.1/../../../../pic32c/lib/thumb/v6-m/nofp\libm-fast-emfloat.a(log.o) (__SEGGER_RTL_float64_PolyEvalQ)
c:/program files/microchip/xc32/v4.60/bin/bin/../../lib/gcc/pic32c/8.3.1/../../../../pic32c/lib/thumb/v6-m/nofp\libm-fast-emfloat.a(frexp.o)
                              c:/program files/microchip/xc32/v4.60/bin/bin/../../lib/gcc/pic32c/8.3.1/../../../../pic32c/lib/thumb/v6-m/nofp\libm-fast-emfloat.a(log.o) (frexp)
c:/program files/microchip/xc32/v4.60/bin/bin/../../lib/gcc/pic32c/8.3.1/../../../../pic32c/lib/thumb/v6-m/nofp\libc-musl.a(__libc_start_main.o)
                              build/SAMD21_IOT_WG_ICM42688/production/_ext/1832905403/startup_xc32.o (__libc_init_array)
c:/program files/microchip/xc32/v4.60/bin/bin/../../lib/gcc/pic32c/8.3.1/../../../../pic32c/lib/thumb/v6-m/nofp\libc-musl.a(__errno_location.o)
                              c:/program files/microchip/xc32/v4.60/bin/bin/../../lib/gcc/pic32c/8.3.1/../../../../pic32c/lib/thumb/v6-m/nofp\liblmalloc-musl.a(lite_malloc.o) (__errno_val)
c:/program files/microchip/xc32/v4.60/bin/bin/../../lib/gcc/pic32c/8.3.1/../../../../pic32c/lib/thumb/v6-m/nofp\libc-musl.a(libc.o)
                              c:/program files/microchip/xc32/v4.60/bin/bin/../../lib/gcc/pic32c/8.3.1/../../../../pic32c/lib/thumb/v6-m/nofp\libc-musl.a(__libc_start_main.o) (__progname_full)
c:/program files/microchip/xc32/v4.60/bin/bin/../../lib/gcc/pic32c/8.3.1/../../../../pic32c/lib/thumb/v6-m/nofp\libc-musl.a(expand_heap.o)
                              c:/program files/microchip/xc32/v4.60/bin/bin/../../lib/gcc/pic32c/8.3.1/../../../../pic32c/lib/thumb/v6-m/nofp\liblmalloc-musl.a(lite_malloc.o) (__expand_heap)
c:/program files/microchip/xc32/v4.60/bin/bin/../../lib/gcc/pic32c/8.3.1/../../../../pic32c/lib/thumb/v6-m/nofp\libc-musl.a(__sio_printf_cdeEfFgGnpsuxX.o)
                              (_printf_cdeEfFgGnpsuxX)
c:/program files/microchip/xc32/v4.60/bin/bin/../../lib/gcc/pic32c/8.3.1/../../../../pic32c/lib/thumb/v6-m/nofp\libc-musl.a(__sio_sprintf_cdeEfFgGnpsuxX.o)
                              (_sprintf_cdeEfFgGnpsuxX)
c:/program files/microchip/xc32/v4.60/bin/bin/../../lib/gcc/pic32c/8.3.1/../../../../pic32c/lib/thumb/v6-m/nofp\libc-musl.a(__fmt_d.o)
                              c:/program files/microchip/xc32/v4.60/bin/bin/../../lib/gcc/pic32c/8.3.1/../../../../pic32c/lib/thumb/v6-m/nofp\libc-musl.a(__sio_printf_cdeEfFgGnpsuxX.o) (__fmt_d_needed)
c:/program files/microchip/xc32/v4.60/bin/bin/../../lib/gcc/pic32c/8.3.1/../../../../pic32c/lib/thumb/v6-m/nofp\libc-musl.a(__fmt_fp.o)
                              c:/program files/microchip/xc32/v4.60/bin/bin/../../lib/gcc/pic32c/8.3.1/../../../../pic32c/lib/thumb/v6-m/nofp\libc-musl.a(__sio_printf_cdeEfFgGnpsuxX.o) (__fmt_f_needed)
c:/program files/microchip/xc32/v4.60/bin/bin/../../lib/gcc/pic32c/8.3.1/../../../../pic32c/lib/thumb/v6-m/nofp\libc-musl.a(__fmt_s.o)
                              c:/program files/microchip/xc32/v4.60/bin/bin/../../lib/gcc/pic32c/8.3.1/../../../../pic32c/lib/thumb/v6-m/nofp\libc-musl.a(__sio_printf_cdeEfFgGnpsuxX.o) (__fmt_s_needed)
c:/program files/microchip/xc32/v4.60/bin/bin/../../lib/gcc/pic32c/8.3.1/../../../../pic32c/lib/thumb/v6-m/nofp\libc-musl.a(__fmt_u.o)
                              c:/program files/microchip/xc32/v4.60/bin/bin/../../lib/gcc/pic32c/8.3.1/../../../../pic32c/lib/thumb/v6-m/nofp\libc-musl.a(__sio_printf_cdeEfFgGnpsuxX.o) (__fmt_u_needed)
c:/program files/microchip/xc32/v4.60/bin/bin/../../lib/gcc/pic32c/8.3.1/../../../../pic32c/lib/thumb/v6-m/nofp\libc-musl.a(__fmt_x.o)
                              c:/program files/microchip/xc32/v4.60/bin/bin/../../lib/gcc/pic32c/8.3.1/../../../../pic32c/lib/thumb/v6-m/nofp\libc-musl.a(__sio_printf_cdeEfFgGnpsuxX.o) (__fmt_x_needed)
c:/program files/microchip/xc32/v4.60/bin/bin/../../lib/gcc/pic32c/8.3.1/../../../../pic32c/lib/thumb/v6-m/nofp\libc-musl.a(__pop_float.o)
                              c:/program files/microchip/xc32/v4.60/bin/bin/../../lib/gcc/pic32c/8.3.1/../../../../pic32c/lib/thumb/v6-m/nofp\libc-musl.a(__sio_printf_cdeEfFgGnpsuxX.o) (__pop_float_needed)
c:/program files/microchip/xc32/v4.60/bin/bin/../../lib/gcc/pic32c/8.3.1/../../../../pic32c/lib/thumb/v6-m/nofp\libc-musl.a(__pop_int.o)
                              c:/program files/microchip/xc32/v4.60/bin/bin/../../lib/gcc/pic32c/8.3.1/../../../../pic32c/lib/thumb/v6-m/nofp\libc-musl.a(__sio_printf_cdeEfFgGnpsuxX.o) (__pop_int_needed)
c:/program files/microchip/xc32/v4.60/bin/bin/../../lib/gcc/pic32c/8.3.1/../../../../pic32c/lib/thumb/v6-m/nofp\libc-musl.a(__pop_ptr.o)
                              c:/program files/microchip/xc32/v4.60/bin/bin/../../lib/gcc/pic32c/8.3.1/../../../../pic32c/lib/thumb/v6-m/nofp\libc-musl.a(__sio_printf_cdeEfFgGnpsuxX.o) (__pop_ptr_needed)
c:/program files/microchip/xc32/v4.60/bin/bin/../../lib/gcc/pic32c/8.3.1/../../../../pic32c/lib/thumb/v6-m/nofp\libc-musl.a(__printf_core.o)
                              c:/program files/microchip/xc32/v4.60/bin/bin/../../lib/gcc/pic32c/8.3.1/../../../../pic32c/lib/thumb/v6-m/nofp\libc-musl.a(__fmt_d.o) (__pad)
c:/program files/microchip/xc32/v4.60/bin/bin/../../lib/gcc/pic32c/8.3.1/../../../../pic32c/lib/thumb/v6-m/nofp\libc-musl.a(stdin.o)
                              build/SAMD21_IOT_WG_ICM42688/production/_ext/1832905403/initialization.o (_stdin)
c:/program files/microchip/xc32/v4.60/bin/bin/../../lib/gcc/pic32c/8.3.1/../../../../pic32c/lib/thumb/v6-m/nofp\libc-musl.a(stdout.o)
                              build/SAMD21_IOT_WG_ICM42688/production/_ext/1832905403/initialization.o (_stdout)
c:/program files/microchip/xc32/v4.60/bin/bin/../../lib/gcc/pic32c/8.3.1/../../../../pic32c/lib/thumb/v6-m/nofp\libc-musl.a(putchar.o)
                              build/SAMD21_IOT_WG_ICM42688/production/_ext/596309756/kb_output.o (putchar)
c:/program files/microchip/xc32/v4.60/bin/bin/../../lib/gcc/pic32c/8.3.1/../../../../pic32c/lib/thumb/v6-m/nofp\libc-musl.a(puts.o)
                              build/SAMD21_IOT_WG_ICM42688/production/_ext/171618134/sml_recognition_run.o (puts)
c:/program files/microchip/xc32/v4.60/bin/bin/../../lib/gcc/pic32c/8.3.1/../../../../pic32c/lib/thumb/v6-m/nofp\libc-musl.a(setbuf.o)
                              build/SAMD21_IOT_WG_ICM42688/production/_ext/1832905403/initialization.o (setbuf)
c:/program files/microchip/xc32/v4.60/bin/bin/../../lib/gcc/pic32c/8.3.1/../../../../pic32c/lib/thumb/v6-m/nofp\libc-musl.a(atoi.o)
                              c:/program files/microchip/xc32/v4.60/bin/bin/../../lib/gcc/pic32c/8.3.1/../../../../pic32c/lib/thumb/v6-m/nofp\libc-musl.a(__printf_core.o) (atoi)
c:/program files/microchip/xc32/v4.60/bin/bin/../../lib/gcc/pic32c/8.3.1/../../../../pic32c/lib/thumb/v6-m/nofp\libc-musl.a(gmtime.o)
                              build/SAMD21_IOT_WG_ICM42688/production/_ext/907429946/wdrv_winc_systime.o (gmtime)
c:/program files/microchip/xc32/v4.60/bin/bin/../../lib/gcc/pic32c/8.3.1/../../../../pic32c/lib/thumb/v6-m/nofp\libc-musl.a(gmtime_r.o)
                              c:/program files/microchip/xc32/v4.60/bin/bin/../../lib/gcc/pic32c/8.3.1/../../../../pic32c/lib/thumb/v6-m/nofp\libc-musl.a(gmtime.o) (__gmtime_r)
c:/program files/microchip/xc32/v4.60/bin/bin/../../lib/gcc/pic32c/8.3.1/../../../../pic32c/lib/thumb/v6-m/nofp\libc-musl.a(mktime.o)
                              build/SAMD21_IOT_WG_ICM42688/production/_ext/907429946/wdrv_winc_systime.o (mktime)
c:/program files/microchip/xc32/v4.60/bin/bin/../../lib/gcc/pic32c/8.3.1/../../../../pic32c/lib/thumb/v6-m/nofp\libc-musl.a(tolower.o)
                              c:/program files/microchip/xc32/v4.60/bin/bin/../../lib/gcc/pic32c/8.3.1/../../../../pic32c/lib/thumb/v6-m/nofp\libc-musl.a(__fmt_fp.o) (tolower)
c:/program files/microchip/xc32/v4.60/bin/bin/../../lib/gcc/pic32c/8.3.1/../../../../pic32c/lib/thumb/v6-m/nofp\libc-musl.a(toupper.o)
                              c:/program files/microchip/xc32/v4.60/bin/bin/../../lib/gcc/pic32c/8.3.1/../../../../pic32c/lib/thumb/v6-m/nofp\libc-musl.a(__fmt_x.o) (toupper)
c:/program files/microchip/xc32/v4.60/bin/bin/../../lib/gcc/pic32c/8.3.1/../../../../pic32c/lib/thumb/v6-m/nofp\libc-musl.a(__environ.o)
                              c:/program files/microchip/xc32/v4.60/bin/bin/../../lib/gcc/pic32c/8.3.1/../../../../pic32c/lib/thumb/v6-m/nofp\libc-musl.a(__libc_start_main.o) (__environ)
c:/program files/microchip/xc32/v4.60/bin/bin/../../lib/gcc/pic32c/8.3.1/../../../../pic32c/lib/thumb/v6-m/nofp\libc-musl.a(__int_vfprintf.o)
                              c:/program files/microchip/xc32/v4.60/bin/bin/../../lib/gcc/pic32c/8.3.1/../../../../pic32c/lib/thumb/v6-m/nofp\libc-musl.a(__sio_printf_cdeEfFgGnpsuxX.o) (__vfprintf)
c:/program files/microchip/xc32/v4.60/bin/bin/../../lib/gcc/pic32c/8.3.1/../../../../pic32c/lib/thumb/v6-m/nofp\libc-musl.a(__int_vsprintf.o)
                              c:/program files/microchip/xc32/v4.60/bin/bin/../../lib/gcc/pic32c/8.3.1/../../../../pic32c/lib/thumb/v6-m/nofp\libc-musl.a(__sio_sprintf_cdeEfFgGnpsuxX.o) (__vsprintf)
c:/program files/microchip/xc32/v4.60/bin/bin/../../lib/gcc/pic32c/8.3.1/../../../../pic32c/lib/thumb/v6-m/nofp\libc-musl.a(fputs.o)
                              c:/program files/microchip/xc32/v4.60/bin/bin/../../lib/gcc/pic32c/8.3.1/../../../../pic32c/lib/thumb/v6-m/nofp\libc-musl.a(puts.o) (fputs)
c:/program files/microchip/xc32/v4.60/bin/bin/../../lib/gcc/pic32c/8.3.1/../../../../pic32c/lib/thumb/v6-m/nofp\libc-musl.a(__cvt_u.o)
                              c:/program files/microchip/xc32/v4.60/bin/bin/../../lib/gcc/pic32c/8.3.1/../../../../pic32c/lib/thumb/v6-m/nofp\libc-musl.a(__fmt_d.o) (__cvt_u)
c:/program files/microchip/xc32/v4.60/bin/bin/../../lib/gcc/pic32c/8.3.1/../../../../pic32c/lib/thumb/v6-m/nofp\libc-musl.a(__io_init_needed.o)
                              c:/program files/microchip/xc32/v4.60/bin/bin/../../lib/gcc/pic32c/8.3.1/../../../../pic32c/lib/thumb/v6-m/nofp\libc-musl.a(stdout.o) (__io_init_needed)
c:/program files/microchip/xc32/v4.60/bin/bin/../../lib/gcc/pic32c/8.3.1/../../../../pic32c/lib/thumb/v6-m/nofp\libc-musl.a(__io_rw_needed.o)
                              c:/program files/microchip/xc32/v4.60/bin/bin/../../lib/gcc/pic32c/8.3.1/../../../../pic32c/lib/thumb/v6-m/nofp\libc-musl.a(stdin.o) (__io_rw_needed)
c:/program files/microchip/xc32/v4.60/bin/bin/../../lib/gcc/pic32c/8.3.1/../../../../pic32c/lib/thumb/v6-m/nofp\libc-musl.a(__stdio_read.o)
                              c:/program files/microchip/xc32/v4.60/bin/bin/../../lib/gcc/pic32c/8.3.1/../../../../pic32c/lib/thumb/v6-m/nofp\libc-musl.a(stdin.o) (__stdio_read)
c:/program files/microchip/xc32/v4.60/bin/bin/../../lib/gcc/pic32c/8.3.1/../../../../pic32c/lib/thumb/v6-m/nofp\libc-musl.a(__towrite_rw.o)
                              c:/program files/microchip/xc32/v4.60/bin/bin/../../lib/gcc/pic32c/8.3.1/../../../../pic32c/lib/thumb/v6-m/nofp\libc-musl.a(__io_rw_needed.o) (__towrite_rw_needed)
c:/program files/microchip/xc32/v4.60/bin/bin/../../lib/gcc/pic32c/8.3.1/../../../../pic32c/lib/thumb/v6-m/nofp\libc-musl.a(fwrite.o)
                              c:/program files/microchip/xc32/v4.60/bin/bin/../../lib/gcc/pic32c/8.3.1/../../../../pic32c/lib/thumb/v6-m/nofp\libc-musl.a(fputs.o) (fwrite)
c:/program files/microchip/xc32/v4.60/bin/bin/../../lib/gcc/pic32c/8.3.1/../../../../pic32c/lib/thumb/v6-m/nofp\libc-musl.a(putc.o)
                              c:/program files/microchip/xc32/v4.60/bin/bin/../../lib/gcc/pic32c/8.3.1/../../../../pic32c/lib/thumb/v6-m/nofp\libc-musl.a(putchar.o) (fputc)
c:/program files/microchip/xc32/v4.60/bin/bin/../../lib/gcc/pic32c/8.3.1/../../../../pic32c/lib/thumb/v6-m/nofp\libc-musl.a(setvbuf.o)
                              c:/program files/microchip/xc32/v4.60/bin/bin/../../lib/gcc/pic32c/8.3.1/../../../../pic32c/lib/thumb/v6-m/nofp\libc-musl.a(setbuf.o) (setvbuf)
c:/program files/microchip/xc32/v4.60/bin/bin/../../lib/gcc/pic32c/8.3.1/../../../../pic32c/lib/thumb/v6-m/nofp\libc-musl.a(__tm_to_secs.o)
                              c:/program files/microchip/xc32/v4.60/bin/bin/../../lib/gcc/pic32c/8.3.1/../../../../pic32c/lib/thumb/v6-m/nofp\libc-musl.a(mktime.o) (__tm_to_secs)
c:/program files/microchip/xc32/v4.60/bin/bin/../../lib/gcc/pic32c/8.3.1/../../../../pic32c/lib/thumb/v6-m/nofp\libc-musl.a(__year_to_secs.o)
                              c:/program files/microchip/xc32/v4.60/bin/bin/../../lib/gcc/pic32c/8.3.1/../../../../pic32c/lib/thumb/v6-m/nofp\libc-musl.a(__tm_to_secs.o) (__year_to_secs)
c:/program files/microchip/xc32/v4.60/bin/bin/../../lib/gcc/pic32c/8.3.1/../../../../pic32c/lib/thumb/v6-m/nofp\libc-musl.a(__secs_to_tm.o)
                              c:/program files/microchip/xc32/v4.60/bin/bin/../../lib/gcc/pic32c/8.3.1/../../../../pic32c/lib/thumb/v6-m/nofp\libc-musl.a(gmtime_r.o) (__secs_to_tm)
c:/program files/microchip/xc32/v4.60/bin/bin/../../lib/gcc/pic32c/8.3.1/../../../../pic32c/lib/thumb/v6-m/nofp\libc-musl.a(readv.o)
                              c:/program files/microchip/xc32/v4.60/bin/bin/../../lib/gcc/pic32c/8.3.1/../../../../pic32c/lib/thumb/v6-m/nofp\libc-musl.a(__stdio_read.o) (readv)
c:/program files/microchip/xc32/v4.60/bin/bin/../../lib/gcc/pic32c/8.3.1/../../../../pic32c/lib/thumb/v6-m/nofp\libc-musl.a(__int_vsnprintf.o)
                              c:/program files/microchip/xc32/v4.60/bin/bin/../../lib/gcc/pic32c/8.3.1/../../../../pic32c/lib/thumb/v6-m/nofp\libc-musl.a(__int_vsprintf.o) (__vsnprintf)
c:/program files/microchip/xc32/v4.60/bin/bin/../../lib/gcc/pic32c/8.3.1/../../../../pic32c/lib/thumb/v6-m/nofp\libc-musl.a(__fopen_rw.o)
                              c:/program files/microchip/xc32/v4.60/bin/bin/../../lib/gcc/pic32c/8.3.1/../../../../pic32c/lib/thumb/v6-m/nofp\libc-musl.a(__io_rw_needed.o) (__fopen_rw_needed)
c:/program files/microchip/xc32/v4.60/bin/bin/../../lib/gcc/pic32c/8.3.1/../../../../pic32c/lib/thumb/v6-m/nofp\libc-musl.a(__ftello_rw.o)
                              c:/program files/microchip/xc32/v4.60/bin/bin/../../lib/gcc/pic32c/8.3.1/../../../../pic32c/lib/thumb/v6-m/nofp\libc-musl.a(__io_rw_needed.o) (__ftello_adj_rw_needed)
c:/program files/microchip/xc32/v4.60/bin/bin/../../lib/gcc/pic32c/8.3.1/../../../../pic32c/lib/thumb/v6-m/nofp\libc-musl.a(__init_stdio.o)
                              c:/program files/microchip/xc32/v4.60/bin/bin/../../lib/gcc/pic32c/8.3.1/../../../../pic32c/lib/thumb/v6-m/nofp\libc-musl.a(__io_init_needed.o) (__init_stdio_needed)
c:/program files/microchip/xc32/v4.60/bin/bin/../../lib/gcc/pic32c/8.3.1/../../../../pic32c/lib/thumb/v6-m/nofp\libc-musl.a(__io_buf_needed.o)
                              c:/program files/microchip/xc32/v4.60/bin/bin/../../lib/gcc/pic32c/8.3.1/../../../../pic32c/lib/thumb/v6-m/nofp\libc-musl.a(__io_rw_needed.o) (__io_buf_needed)
c:/program files/microchip/xc32/v4.60/bin/bin/../../lib/gcc/pic32c/8.3.1/../../../../pic32c/lib/thumb/v6-m/nofp\libc-musl.a(__io_file_needed.o)
                              c:/program files/microchip/xc32/v4.60/bin/bin/../../lib/gcc/pic32c/8.3.1/../../../../pic32c/lib/thumb/v6-m/nofp\libc-musl.a(__io_init_needed.o) (__io_file_needed)
c:/program files/microchip/xc32/v4.60/bin/bin/../../lib/gcc/pic32c/8.3.1/../../../../pic32c/lib/thumb/v6-m/nofp\libc-musl.a(__io_std_needed.o)
                              c:/program files/microchip/xc32/v4.60/bin/bin/../../lib/gcc/pic32c/8.3.1/../../../../pic32c/lib/thumb/v6-m/nofp\libc-musl.a(__io_buf_needed.o) (__io_std_needed)
c:/program files/microchip/xc32/v4.60/bin/bin/../../lib/gcc/pic32c/8.3.1/../../../../pic32c/lib/thumb/v6-m/nofp\libc-musl.a(__out.o)
                              c:/program files/microchip/xc32/v4.60/bin/bin/../../lib/gcc/pic32c/8.3.1/../../../../pic32c/lib/thumb/v6-m/nofp\libc-musl.a(__fopen_rw.o) (__stdio_write_unbuffered)
c:/program files/microchip/xc32/v4.60/bin/bin/../../lib/gcc/pic32c/8.3.1/../../../../pic32c/lib/thumb/v6-m/nofp\libc-musl.a(__putc.o)
                              c:/program files/microchip/xc32/v4.60/bin/bin/../../lib/gcc/pic32c/8.3.1/../../../../pic32c/lib/thumb/v6-m/nofp\libc-musl.a(__io_buf_needed.o) (__putc_needed)
c:/program files/microchip/xc32/v4.60/bin/bin/../../lib/gcc/pic32c/8.3.1/../../../../pic32c/lib/thumb/v6-m/nofp\libc-musl.a(__stderr.o)
                              c:/program files/microchip/xc32/v4.60/bin/bin/../../lib/gcc/pic32c/8.3.1/../../../../pic32c/lib/thumb/v6-m/nofp\libc-musl.a(__io_std_needed.o) (__init_stderr_needed)
c:/program files/microchip/xc32/v4.60/bin/bin/../../lib/gcc/pic32c/8.3.1/../../../../pic32c/lib/thumb/v6-m/nofp\libc-musl.a(__stdio_close.o)
                              c:/program files/microchip/xc32/v4.60/bin/bin/../../lib/gcc/pic32c/8.3.1/../../../../pic32c/lib/thumb/v6-m/nofp\libc-musl.a(__fopen_rw.o) (__stdio_close_rw)
c:/program files/microchip/xc32/v4.60/bin/bin/../../lib/gcc/pic32c/8.3.1/../../../../pic32c/lib/thumb/v6-m/nofp\libc-musl.a(__stdio_exit.o)
                              c:/program files/microchip/xc32/v4.60/bin/bin/../../lib/gcc/pic32c/8.3.1/../../../../pic32c/lib/thumb/v6-m/nofp\libc-musl.a(__io_buf_needed.o) (__stdio_exit_needed)
c:/program files/microchip/xc32/v4.60/bin/bin/../../lib/gcc/pic32c/8.3.1/../../../../pic32c/lib/thumb/v6-m/nofp\libc-musl.a(__stdio_write.o)
                              c:/program files/microchip/xc32/v4.60/bin/bin/../../lib/gcc/pic32c/8.3.1/../../../../pic32c/lib/thumb/v6-m/nofp\libc-musl.a(setvbuf.o) (__stdio_write_buffered)
c:/program files/microchip/xc32/v4.60/bin/bin/../../lib/gcc/pic32c/8.3.1/../../../../pic32c/lib/thumb/v6-m/nofp\libc-musl.a(__stdout.o)
                              c:/program files/microchip/xc32/v4.60/bin/bin/../../lib/gcc/pic32c/8.3.1/../../../../pic32c/lib/thumb/v6-m/nofp\libc-musl.a(__io_std_needed.o) (__init_stdout_needed)
c:/program files/microchip/xc32/v4.60/bin/bin/../../lib/gcc/pic32c/8.3.1/../../../../pic32c/lib/thumb/v6-m/nofp\libc-musl.a(__towrite.o)
                              c:/program files/microchip/xc32/v4.60/bin/bin/../../lib/gcc/pic32c/8.3.1/../../../../pic32c/lib/thumb/v6-m/nofp\libc-musl.a(__stdio_write.o) (__towrite)
c:/program files/microchip/xc32/v4.60/bin/bin/../../lib/gcc/pic32c/8.3.1/../../../../pic32c/lib/thumb/v6-m/nofp\libc-musl.a(__month_to_secs.o)
                              c:/program files/microchip/xc32/v4.60/bin/bin/../../lib/gcc/pic32c/8.3.1/../../../../pic32c/lib/thumb/v6-m/nofp\libc-musl.a(__tm_to_secs.o) (__month_to_secs)
c:/program files/microchip/xc32/v4.60/bin/bin/../../lib/gcc/pic32c/8.3.1/../../../../pic32c/lib/thumb/v6-m/nofp\libc-musl.a(writev.o)
                              c:/program files/microchip/xc32/v4.60/bin/bin/../../lib/gcc/pic32c/8.3.1/../../../../pic32c/lib/thumb/v6-m/nofp\libc-musl.a(__stdio_write.o) (writev)
c:/program files/microchip/xc32/v4.60/bin/bin/../../lib/gcc/pic32c/8.3.1/../../../../pic32c/lib/thumb/v6-m/nofp\libc-musl.a(__overflow.o)
                              c:/program files/microchip/xc32/v4.60/bin/bin/../../lib/gcc/pic32c/8.3.1/../../../../pic32c/lib/thumb/v6-m/nofp\libc-musl.a(__putc.o) (__overflow)
c:/program files/microchip/xc32/v4.60/bin/bin/../../lib/gcc/pic32c/8.3.1/../../../../pic32c/lib/thumb/v6-m/nofp\libc-musl.a(__fclose.o)
                              c:/program files/microchip/xc32/v4.60/bin/bin/../../lib/gcc/pic32c/8.3.1/../../../../pic32c/lib/thumb/v6-m/nofp\libc-musl.a(__io_buf_needed.o) (__fclose_needed)
c:/program files/microchip/xc32/v4.60/bin/bin/../../lib/gcc/pic32c/8.3.1/../../../../pic32c/lib/thumb/v6-m/nofp\libc-musl.a(__fopen.o)
                              c:/program files/microchip/xc32/v4.60/bin/bin/../../lib/gcc/pic32c/8.3.1/../../../../pic32c/lib/thumb/v6-m/nofp\libc-musl.a(__io_std_needed.o) (__fopen_needed)
c:/program files/microchip/xc32/v4.60/bin/bin/../../lib/gcc/pic32c/8.3.1/../../../../pic32c/lib/thumb/v6-m/nofp\libc-musl.a(__fseeko.o)
                              c:/program files/microchip/xc32/v4.60/bin/bin/../../lib/gcc/pic32c/8.3.1/../../../../pic32c/lib/thumb/v6-m/nofp\libc-musl.a(__io_buf_needed.o) (__fseeko_needed)
c:/program files/microchip/xc32/v4.60/bin/bin/../../lib/gcc/pic32c/8.3.1/../../../../pic32c/lib/thumb/v6-m/nofp\libc-musl.a(__ftello.o)
                              c:/program files/microchip/xc32/v4.60/bin/bin/../../lib/gcc/pic32c/8.3.1/../../../../pic32c/lib/thumb/v6-m/nofp\libc-musl.a(__io_buf_needed.o) (__ftello_adj_needed)
c:/program files/microchip/xc32/v4.60/bin/bin/../../lib/gcc/pic32c/8.3.1/../../../../pic32c/lib/thumb/v6-m/nofp\libc-musl.a(__fwrite.o)
                              c:/program files/microchip/xc32/v4.60/bin/bin/../../lib/gcc/pic32c/8.3.1/../../../../pic32c/lib/thumb/v6-m/nofp\libc-musl.a(__io_std_needed.o) (__fwrite_needed)
c:/program files/microchip/xc32/v4.60/bin/bin/../../lib/gcc/pic32c/8.3.1/../../../../pic32c/lib/thumb/v6-m/nofp\libm-fast-emfloat.a(fma.o)
                              c:/program files/microchip/xc32/v4.60/bin/bin/../../lib/gcc/pic32c/8.3.1/../../../../pic32c/lib/thumb/v6-m/nofp\libc-musl.a(__fmt_fp.o) (fma)
c:/program files/microchip/xc32/v4.60/bin/bin/../../lib/gcc/pic32c/8.3.1/../../../../pic32c/lib/thumb/v6-m/nofp\libm-fast-emfloat.a(floor.o)
                              c:/program files/microchip/xc32/v4.60/bin/bin/../../lib/gcc/pic32c/8.3.1/../../../../pic32c/lib/thumb/v6-m/nofp\libc-musl.a(__fmt_fp.o) (floor)
c:/program files/microchip/xc32/v4.60/bin/bin/../../lib/gcc/pic32c/8.3.1/../../../../pic32c/lib/thumb/v6-m/nofp\libm-fast-emfloat.a(__aeabi_dcmple.o)
                              c:/program files/microchip/xc32/v4.60/bin/bin/../../lib/gcc/pic32c/8.3.1/../../../../pic32c/lib/thumb/v6-m/nofp\libc-musl.a(__fmt_fp.o) (__aeabi_dcmple)
c:/program files/microchip/xc32/v4.60/bin/bin/../../lib/gcc/pic32c/8.3.1/thumb/v6-m/nofp\libgcc.a(_udivsi3.o)
                              build/SAMD21_IOT_WG_ICM42688/production/_ext/548032175/inet_ntop.o (__aeabi_uidiv)
c:/program files/microchip/xc32/v4.60/bin/bin/../../lib/gcc/pic32c/8.3.1/thumb/v6-m/nofp\libgcc.a(_divsi3.o)
                              build/SAMD21_IOT_WG_ICM42688/production/_ext/548032175/inet_ntop.o (__aeabi_idiv)
c:/program files/microchip/xc32/v4.60/bin/bin/../../lib/gcc/pic32c/8.3.1/thumb/v6-m/nofp\libgcc.a(_dvmd_tls.o)
                              c:/program files/microchip/xc32/v4.60/bin/bin/../../lib/gcc/pic32c/8.3.1/thumb/v6-m/nofp\libgcc.a(_udivsi3.o) (__aeabi_idiv0)
c:/program files/microchip/xc32/v4.60/bin/bin/../../lib/gcc/pic32c/8.3.1/thumb/v6-m/nofp\libgcc.a(_aeabi_ldivmod.o)
                              build/SAMD21_IOT_WG_ICM42688/production/_ext/177673482/plib_sercom5_usart.o (__aeabi_ldivmod)
c:/program files/microchip/xc32/v4.60/bin/bin/../../lib/gcc/pic32c/8.3.1/thumb/v6-m/nofp\libgcc.a(_aeabi_uldivmod.o)
                              build/SAMD21_IOT_WG_ICM42688/production/_ext/177673482/plib_sercom5_usart.o (__aeabi_uldivmod)
c:/program files/microchip/xc32/v4.60/bin/bin/../../lib/gcc/pic32c/8.3.1/thumb/v6-m/nofp\libgcc.a(_muldi3.o)
                              build/SAMD21_IOT_WG_ICM42688/production/_ext/386530258/sys_time.o (__aeabi_lmul)
c:/program files/microchip/xc32/v4.60/bin/bin/../../lib/gcc/pic32c/8.3.1/thumb/v6-m/nofp\libgcc.a(_udivmoddi4.o)
                              c:/program files/microchip/xc32/v4.60/bin/bin/../../lib/gcc/pic32c/8.3.1/thumb/v6-m/nofp\libgcc.a(_aeabi_uldivmod.o) (__udivmoddi4)
c:/program files/microchip/xc32/v4.60/bin/bin/../../lib/gcc/pic32c/8.3.1/thumb/v6-m/nofp\libgcc.a(bpabi.o)
                              c:/program files/microchip/xc32/v4.60/bin/bin/../../lib/gcc/pic32c/8.3.1/thumb/v6-m/nofp\libgcc.a(_aeabi_ldivmod.o) (__gnu_ldivmod_helper)
c:/program files/microchip/xc32/v4.60/bin/bin/../../lib/gcc/pic32c/8.3.1/thumb/v6-m/nofp\libgcc.a(_lshrdi3.o)
                              c:/program files/microchip/xc32/v4.60/bin/bin/../../lib/gcc/pic32c/8.3.1/thumb/v6-m/nofp\libgcc.a(_udivmoddi4.o) (__aeabi_llsr)
c:/program files/microchip/xc32/v4.60/bin/bin/../../lib/gcc/pic32c/8.3.1/thumb/v6-m/nofp\libgcc.a(_ashldi3.o)
                              c:/program files/microchip/xc32/v4.60/bin/bin/../../lib/gcc/pic32c/8.3.1/thumb/v6-m/nofp\libgcc.a(_udivmoddi4.o) (__aeabi_llsl)
c:/program files/microchip/xc32/v4.60/bin/bin/../../lib/gcc/pic32c/8.3.1/thumb/v6-m/nofp\libgcc.a(_clzdi2.o)
                              c:/program files/microchip/xc32/v4.60/bin/bin/../../lib/gcc/pic32c/8.3.1/thumb/v6-m/nofp\libgcc.a(_udivmoddi4.o) (__clzdi2)
c:/program files/microchip/xc32/v4.60/bin/bin/../../lib/gcc/pic32c/8.3.1/thumb/v6-m/nofp\libgcc.a(_divdi3.o)
                              c:/program files/microchip/xc32/v4.60/bin/bin/../../lib/gcc/pic32c/8.3.1/thumb/v6-m/nofp\libgcc.a(bpabi.o) (__divdi3)
c:/program files/microchip/xc32/v4.60/bin/bin/../../lib/gcc/pic32c/8.3.1/thumb/v6-m/nofp\libgcc.a(_clzsi2.o)
                              c:/program files/microchip/xc32/v4.60/bin/bin/../../lib/gcc/pic32c/8.3.1/thumb/v6-m/nofp\libgcc.a(_clzdi2.o) (__clzsi2)
c:/program files/microchip/xc32/v4.60/bin/bin/../../lib/gcc/pic32c/8.3.1/../../../../pic32c/lib/thumb/v6-m/nofp\libpic32c.a(close.o)
                              c:/program files/microchip/xc32/v4.60/bin/bin/../../lib/gcc/pic32c/8.3.1/../../../../pic32c/lib/thumb/v6-m/nofp\libc-musl.a(__stdio_close.o) (close)
c:/program files/microchip/xc32/v4.60/bin/bin/../../lib/gcc/pic32c/8.3.1/../../../../pic32c/lib/thumb/v6-m/nofp\libpic32c.a(lseek.o)
                              c:/program files/microchip/xc32/v4.60/bin/bin/../../lib/gcc/pic32c/8.3.1/../../../../pic32c/lib/thumb/v6-m/nofp\libc-musl.a(__stdio_close.o) (lseek)
c:/program files/microchip/xc32/v4.60/bin/bin/../../lib/gcc/pic32c/8.3.1/../../../../pic32c/lib/thumb/v6-m/nofp\libpic32c.a(sbrk.o)
                              c:/program files/microchip/xc32/v4.60/bin/bin/../../lib/gcc/pic32c/8.3.1/../../../../pic32c/lib/thumb/v6-m/nofp\liblmalloc-musl.a(lite_malloc.o) (_get_heap_left_space)
c:/program files/microchip/xc32/v4.60/bin/bin/../../lib/gcc/pic32c/8.3.1/../../../../pic32c/lib/thumb/v6-m/nofp\libc-size-musl.a(strcpy.o)
                              c:/program files/microchip/xc32/v4.60/bin/bin/../../lib/gcc/pic32c/8.3.1/../../../../pic32c/lib/thumb/v6-m/nofp\libc-musl.a(__fmt_fp.o) (strcpy)
c:/program files/microchip/xc32/v4.60/bin/bin/../../lib/gcc/pic32c/8.3.1/../../../../pic32c/lib/thumb/v6-m/nofp\libc-size-musl.a(stpcpy.o)
                              c:/program files/microchip/xc32/v4.60/bin/bin/../../lib/gcc/pic32c/8.3.1/../../../../pic32c/lib/thumb/v6-m/nofp\libc-size-musl.a(strcpy.o) (__stpcpy)
c:/program files/microchip/xc32/v4.60/bin/bin/../../lib/gcc/pic32c/8.3.1/../../../../pic32c/lib/thumb/v6-m/nofp\libpic32c.a(pic32_data_init_clear.o)
                              (__dinit_clear_needed)
c:/program files/microchip/xc32/v4.60/bin/bin/../../lib/gcc/pic32c/8.3.1/../../../../pic32c/lib/thumb/v6-m/nofp\libpic32c.a(pic32_data_init_copy.o)
                              (__dinit_copy_needed)

Microchip PIC32 Memory-Usage Report

ROM Program-Memory Usage
section                    address  length [bytes]      (dec)  Description
-------                 ----------  -------------------------  -----------
.vectors                         0           0xb0         176   
.text                         0xb0           0x20          32  App's exec code 
.ARM.exidx                    0xd0           0x10          16   
.text                         0xe0         0x2250        8784  App's exec code 
.text                       0x2330         0x14a8        5288  App's exec code 
.text                       0x37d8          0xd90        3472  App's exec code 
.text                       0x4568          0xd84        3460  App's exec code 
.text                       0x52ec          0xca0        3232  App's exec code 
.text                       0x5f8c          0xbe8        3048  App's exec code 
.text                       0x6b74          0xbd8        3032  App's exec code 
.text                       0x774c          0xb50        2896  App's exec code 
.text                       0x829c          0x704        1796  App's exec code 
.text                       0x89a0          0x680        1664  App's exec code 
.text                       0x9020          0x67c        1660  App's exec code 
.text                       0x969c          0x530        1328  App's exec code 
.dinit                      0x9bcc          0x520        1312   
.text                       0xa0ec          0x500        1280  App's exec code 
.text.__fmt_fp              0xa5ec          0x4c0        1216   
.text                       0xaaac          0x48c        1164  App's exec code 
.text                       0xaf38          0x470        1136  App's exec code 
.text                       0xb3a8          0x45c        1116  App's exec code 
.text                       0xb804          0x414        1044  App's exec code 
.text                       0xbc18          0x400        1024  App's exec code 
.text                       0xc018          0x3d8         984  App's exec code 
.text                       0xc3f0          0x3d4         980  App's exec code 
.text                       0xc7c4          0x3ac         940  App's exec code 
.text                       0xcb70          0x384         900  App's exec code 
.text.__printf_core         0xcef4          0x33c         828   
.text                       0xd230          0x310         784  App's exec code 
.text                       0xd540          0x2f8         760  App's exec code 
.text                       0xd838          0x2ac         684  App's exec code 
.text                       0xdae4          0x288         648  App's exec code 
.text                       0xdd6c          0x280         640  App's exec code 
.text                       0xdfec          0x264         612  App's exec code 
.text                       0xe250          0x228         552  App's exec code 
.text                       0xe478          0x1fc         508  App's exec code 
.rodata.str1.4              0xe674          0x1dc         476   
.text.__secs_to_tm          0xe850          0x1dc         476   
.text.__aeabi_dadd          0xea2c          0x1c8         456   
.text                       0xebf4          0x1bc         444  App's exec code 
.text                       0xedb0          0x1b4         436  App's exec code 
.text                       0xef64          0x190         400  App's exec code 
.text.__aeabi_dmul_aux      0xf0f4          0x18a         394   
.text                       0xf27e            0x2           2  App's exec code 
.text                       0xf280          0x188         392  App's exec code 
.text                       0xf408          0x184         388  App's exec code 
.text                       0xf58c          0x17c         380  App's exec code 
.rodata.str1.4              0xf708          0x168         360   
.text                       0xf870          0x160         352  App's exec code 
.text                       0xf9d0          0x15c         348  App's exec code 
.text.__aeabi_fadd          0xfb2c          0x13a         314   
.text                       0xfc66            0x2           2  App's exec code 
.rodata                     0xfc68          0x134         308  Read-only const 
.text.__fmt_x               0xfd9c          0x132         306   
.text.__dummy_init_tls      0xfece            0x2           2   
.text                       0xfed0          0x130         304  App's exec code 
.text                      0x10000          0x130         304  App's exec code 
.text                      0x10130          0x128         296  App's exec code 
.text                      0x10258          0x120         288  App's exec code 
.text                      0x10378          0x11c         284  App's exec code 
.text                      0x10494          0x114         276  App's exec code 
.text.__year_to_secs       0x105a8          0x100         256   
.rodata                    0x106a8           0xf0         240  Read-only const 
.text                      0x10798           0xe8         232  App's exec code 
.text                      0x10880           0xe2         226  App's exec code 
.text.__dummy              0x10962            0x2           2   
.text                      0x10964           0xd8         216  App's exec code 
.text                      0x10a3c           0xd4         212  App's exec code 
.text                      0x10b10           0xcc         204  App's exec code 
.rodata                    0x10bdc           0xcc         204  Read-only const 
.text                      0x10ca8           0xc4         196  App's exec code 
.text.__aeabi_ddiv         0x10d6c           0xc4         196   
.text                      0x10e30           0xc0         192  App's exec code 
.text.__pop_int            0x10ef0           0xbe         190   
.text.__aeabi_fmul         0x10fae           0xb6         182   
.text                      0x11064           0xb4         180  App's exec code 
.text.floor                0x11118           0xb4         180   
.text.__fmt_d              0x111cc           0xb2         178   
.text.__dummy              0x1127e            0x2           2   
.text                      0x11280           0xa8         168  App's exec code 
.rodata.str1.4             0x11328           0xa0         160   
.text.__tm_to_secs         0x113c8           0xa0         160   
.text                      0x11468           0x98         152  App's exec code 
.text                      0x11500           0x94         148  App's exec code 
.text                      0x11594           0x94         148  App's exec code 
.text                      0x11628           0x94         148  App's exec code 
.text.__aeabi_fdiv         0x116bc           0x94         148   
.text                      0x11750           0x90         144  App's exec code 
.rodata.str1.4             0x117e0           0x90         144   
.text                      0x11870           0x8c         140  App's exec code 
.text.__write_buffered     0x118fc           0x82         130   
.text.__dummy              0x1197e            0x2           2   
.text.__simple_search_f    0x11980           0x80         128   
.text                      0x11a00           0x7c         124  App's exec code 
.text.__stdio_write_buf    0x11a7c           0x7c         124   
.text.__pad                0x11af8           0x7a         122   
.text                      0x11b74           0x78         120  App's exec code 
.text.__cvt_u              0x11bec           0x76         118   
.text                      0x11c64           0x74         116  App's exec code 
.text                      0x11cd8           0x74         116  App's exec code 
.text                      0x11d4c           0x6c         108  App's exec code 
.text.__pop_ptr            0x11db8           0x68         104   
.text                      0x11e20           0x64         100  App's exec code 
.text.__simple_malloc      0x11e84           0x64         100   
.text.__stdio_read         0x11ee8           0x64         100   
.text.__aeabi_d2f          0x11f4c           0x62          98   
.text                      0x11fb0           0x60          96  App's exec code 
.text.__strchrnul          0x12010           0x60          96   
.text                      0x12070           0x5c          92  App's exec code 
.text.__libc_start_init    0x120cc           0x5c          92   
.text.__stdio_close_rw     0x12128           0x5c          92   
.text                      0x12184           0x58          88  App's exec code 
.text.__fmt_u              0x121dc           0x56          86   
.text                      0x12234           0x54          84  App's exec code 
.text                      0x12288           0x50          80  App's exec code 
.text.__fmt_s              0x122d8           0x50          80   
.text.setvbuf              0x12328           0x50          80   
.text.__vsnprintf          0x12378           0x50          80   
.text._sbrk                0x123c8           0x50          80   
.text.__overflow           0x12418           0x4e          78   
.rodata                    0x12468           0x4c          76  Read-only const 
.text                      0x124b4           0x4c          76  App's exec code 
.text                      0x12500           0x4c          76  App's exec code 
.text                      0x1254c           0x48          72  App's exec code 
.text                      0x12594           0x48          72  App's exec code 
.text.Reset_Handler        0x125dc           0x48          72   
.text                      0x12624           0x48          72  App's exec code 
.text.mktime               0x1266c           0x48          72   
.text                      0x126b4           0x48          72  App's exec code 
.text                      0x126fc           0x44          68  App's exec code 
.text.__aeabi_f2d          0x12740           0x44          68   
.text.__aeabi_dcmple       0x12784           0x44          68   
.text                      0x127c8           0x44          68  App's exec code 
.text                      0x1280c           0x40          64  App's exec code 
.rodata                    0x1284c           0x40          64  Read-only const 
.text.__simple_free        0x1288c           0x40          64   
.text.atoi                 0x128cc           0x40          64   
.text                      0x1290c           0x40          64  App's exec code 
.text.__aeabi_dcmpgt       0x1294c           0x3e          62   
.text.__aeabi_dcmplt       0x1298a           0x3e          62   
.text.__aeabi_f2iz         0x129c8           0x3e          62   
.text.__out                0x12a06           0x3c          60   
.text.__putc               0x12a42           0x3c          60   
.text                      0x12a80           0x3c          60  App's exec code 
.text.__pic32c_data_ini    0x12abc           0x38          56   
.text.__putc_unbuffered    0x12af4           0x36          54   
.text                      0x12b2c           0x34          52  App's exec code 
.text.__aeabi_d2iz         0x12b60           0x34          52   
.text.__fmt_state          0x12b94           0x34          52   
.text.__gmtime_r           0x12bc8           0x34          52   
.text                      0x12bfc           0x34          52  App's exec code 
.text._sbrk_init           0x12c30           0x34          52   
.text.__aeabi_fcmpge       0x12c64           0x32          50   
.text                      0x12c98           0x30          48  App's exec code 
.text.__aeabi_ul2f         0x12cc8           0x30          48   
.rodata                    0x12cf8           0x30          48  Read-only const 
.text.__aeabi_dcmpeq       0x12d28           0x2e          46   
.text.__aeabi_fcmpgt       0x12d56           0x2e          46   
.text.__aeabi_fcmplt       0x12d84           0x2e          46   
.text.__aeabi_d2uiz        0x12db2           0x2e          46   
.text.fwrite               0x12de0           0x2e          46   
.text.__pop_float          0x12e0e           0x2a          42   
.text.__towrite_rw         0x12e38           0x2a          42   
.text                      0x12e64           0x28          40  App's exec code 
.rodata                    0x12e8c           0x28          40  Read-only const 
.text.puts                 0x12eb4           0x28          40   
.text.__readv              0x12edc           0x28          40   
.text.__writev             0x12f04           0x28          40   
.text.__aeabi_i2f          0x12f2c           0x26          38   
.text                      0x12f54           0x24          36  App's exec code 
.text                      0x12f78           0x24          36  App's exec code 
.text.__aeabi_f2uiz        0x12f9c           0x24          36   
.text.fputs                0x12fc0           0x22          34   
.rodata                    0x12fe4           0x20          32  Read-only const 
.text                      0x13004           0x20          32  App's exec code 
.rodata                    0x13024           0x20          32  Read-only const 
.text.memchr               0x13044           0x20          32   
.text.__aeabi_l2f          0x13064           0x20          32   
.text.__wrap_printf        0x13084           0x20          32   
.text.__month_to_secs      0x130a4           0x20          32   
.text._get_heap_left_sp    0x130c4           0x20          32   
.text.__aeabi_fcmpeq       0x130e4           0x1e          30   
.text.__aeabi_ui2f         0x13102           0x1e          30   
.text.__dinit_copy         0x13120           0x1e          30   
.text.__simple_calloc      0x1313e           0x1c          28   
.text.__init_search_fl     0x1315c           0x1c          28   
.text.__aeabi_i2d          0x13178           0x1c          28   
.text.__aeabi_ui2d         0x13194           0x1c          28   
.text.__towrite            0x131b0           0x1a          26   
.text.strlen               0x131cc           0x18          24   
.text.strnlen              0x131e4           0x18          24   
.text.__vfprintf           0x131fc           0x18          24   
.text                      0x13214           0x18          24  App's exec code 
.text                      0x1322c           0x18          24  App's exec code 
.text                      0x13244           0x18          24  App's exec code 
.text.__expand_heap        0x1325c           0x16          22   
.text.__wrap_sprintf       0x13272           0x16          22   
.rodata                    0x13288           0x16          22  Read-only const 
.rodata                    0x132a0           0x14          20  Read-only const 
.text.memcpy               0x132b4           0x14          20   
.text.memset               0x132c8           0x14          20   
.text.strchr               0x132dc           0x14          20   
.text.__init_stdout        0x132f0           0x14          20   
.text.putchar              0x13304           0x14          20   
.text.__vsprintf           0x13318           0x14          20   
.text.__fwrite             0x1332c           0x14          20   
.text.stpcpy               0x13340           0x14          20   
.text.setbuf               0x13354           0x12          18   
.text.__dinit_clear        0x13366           0x12          18   
.text                      0x13378           0x10          16  App's exec code 
.text                      0x13388           0x10          16  App's exec code 
.text                      0x13398           0x10          16  App's exec code 
.text                      0x133a8           0x10          16  App's exec code 
.text.__aeabi_fsub         0x133b8           0x10          16   
.rodata.str1.1             0x133c8           0x10          16   
.text.gmtime               0x133d8           0x10          16   
.text.__init_stdio         0x133e8           0x10          16   
.text.fma                  0x133f8           0x10          16   
.text.tolower              0x13408            0xe          14   
.text.toupper              0x13416            0xe          14   
.text                      0x13424            0xc          12  App's exec code 
.rodata                    0x13430            0xc          12  Read-only const 
.text.strcpy               0x1343c            0xc          12   
.text.__fwrite_min         0x13448            0xa          10   
.text                      0x13454            0x8           8  App's exec code 
.text                      0x1345c            0x8           8  App's exec code 
.rodata.str1.4             0x13464            0x8           8   
.rodata.str1.1             0x1346c            0x8           8   
.text.putc                 0x13474            0x8           8   
.text.__get_stdout         0x1347c            0x8           8   
.rodata.str1.1             0x13484            0x7           7   
.rodata                    0x1348b            0x1           1  Read-only const 
.text.close                0x1348c            0x6           6   
.text.__dummy_decompres    0x13492            0x4           4   
.text.__dummy_fmt3         0x13496            0x4           4   
.text.__dummy_fmt4         0x1349a            0x4           4   
.text.__dummy              0x1349e            0x4           4   
.rodata.str1.1             0x134a2            0x4           4   
.rodata.str1.1             0x134a6            0x4           4   
.text                      0x134ac            0x4           4  App's exec code 
.text.lseek                0x134b0            0x4           4   
      Total ROM used  :     0x13494       78996  30.1% of 0x40000
        --------------------------------------------------------------------------
         Total Program Memory used  :     0x13494       78996  30.1% of 0x40000
        --------------------------------------------------------------------------


RAM Data-Memory Usage
section                    address  length [bytes]      (dec)  Description
-------                 ----------  -------------------------  -----------
.bss                    0x20000000          0xf60        3936  Uninitialized data 
.bss                    0x20000f60          0x478        1144  Uninitialized data 
.bss                    0x200013d8          0x408        1032  Uninitialized data 
.bss                    0x200017e0          0x218         536  Uninitialized data 
.bss                    0x200019f8          0x200         512  Uninitialized data 
.bss                    0x20001bf8          0x114         276  Uninitialized data 
.bss                    0x20001d0c            0x4           4  Uninitialized data 
.bss                    0x20001d10           0xe0         224  Uninitialized data 
.bss                    0x20001df0           0xcd         205  Uninitialized data 
.bss                    0x20001ebd            0x2           2  Uninitialized data 
.data                   0x20001ebf            0x1           1  Initialized data 
.bss                    0x20001ec0           0xc4         196  Uninitialized data 
.bss                    0x20001f84           0xc0         192  Uninitialized data 
.bss                    0x20002044           0x78         120  Uninitialized data 
.bss                    0x200020bc           0x68         104  Uninitialized data 
.bss                    0x20002124            0x4           4  Uninitialized data 
.bss                    0x20002128           0x60          96  Uninitialized data 
.bss                    0x20002188           0x50          80  Uninitialized data 
.bss                    0x200021d8           0x3c          60  Uninitialized data 
.bss                    0x20002214           0x2d          45  Uninitialized data 
.data                   0x20002242            0x2           2  Initialized data 
.bss                    0x20002244           0x2c          44  Uninitialized data 
.bss                    0x20002270           0x29          41  Uninitialized data 
.bss                    0x2000229c           0x28          40  Uninitialized data 
.bss                    0x200022c4           0x1d          29  Uninitialized data 
.bss                    0x200022e4           0x1c          28  Uninitialized data 
.bss                    0x20002300           0x13          19  Uninitialized data 
.data                   0x20002313            0x1           1  Initialized data 
.bss                    0x20002314            0xc          12  Uninitialized data 
.bss                    0x20002320            0x8           8  Uninitialized data 
.bss                    0x20002328            0x8           8  Uninitialized data 
.bss                    0x20002330            0x8           8  Uninitialized data 
.bss                    0x20002338            0x8           8  Uninitialized data 
.bss                    0x20002340            0x8           8  Uninitialized data 
.bss                    0x20002348            0x7           7  Uninitialized data 
.data                   0x2000234f            0x1           1  Initialized data 
.bss                    0x20002350            0x4           4  Uninitialized data 
.bss                    0x20002354            0x4           4  Uninitialized data 
.bss                    0x20002358            0x4           4  Uninitialized data 
.bss                    0x2000235c            0x4           4  Uninitialized data 
.bss                    0x20002360            0x4           4  Uninitialized data 
.data                   0x20002364          0x144         324  Initialized data 
.data                   0x200024a8           0x70         112  Initialized data 
.data                   0x20002518           0x6c         108  Initialized data 
.data                   0x20002584           0x60          96  Initialized data 
.data                   0x200025e4           0x25          37  Initialized data 
.data                   0x2000260c           0x20          32  Initialized data 
.data                   0x2000262c            0x4           4  Initialized data 
.data                   0x20002630            0x4           4  Initialized data 
.data                   0x20002634            0x2           2  Initialized data 
         Total RAM used  :      0x262c        9772  29.8% of 0x8000
        --------------------------------------------------------------------------
            Total Data Memory used  :      0x262c        9772  29.8% of 0x8000
        --------------------------------------------------------------------------


Dynamic Data-Memory Reservation
section                    address  length [bytes]      (dec)  Description
-------                 ----------  -------------------------  -----------
heap                    0x20002638          0x200         512  Reserved for heap 
stack                   0x20002850         0x57a0       22432  Reserved for stack 

        --------------------------------------------------------------------------

Microchip PIC32 Memory-Usage Report By Module

        text        data         bss         dec         hex    basename                                   filename
--------------------------------------------------------------------------------
        8868           0           0        8868        22a4    Icm426xxDriver_HL.o                    build/SAMD21_IOT_WG_ICM42688/production/_ext/1341251756/Icm426xxDriver_HL.o
        1528           1        3936        5465        1559    main.o                                 build/SAMD21_IOT_WG_ICM42688/production/_ext/1360937237/main.o
        5288           4          40        5332        14d4    m2m_wifi.o                             build/SAMD21_IOT_WG_ICM42688/production/_ext/121554788/m2m_wifi.o
        3472          37        1144        4653        122d    kb.o                                   build/SAMD21_IOT_WG_ICM42688/production/_ext/596309756/kb.o
        3700           0         276        3976         f88    wdrv_winc.o                            build/SAMD21_IOT_WG_ICM42688/production/_ext/907429946/wdrv_winc.o
        3176           0         536        3712         e80    pme.o                                  build/SAMD21_IOT_WG_ICM42688/production/_ext/596309756/pme.o
        3232           0         120        3352         d18    drv_spi.o                              build/SAMD21_IOT_WG_ICM42688/production/_ext/1660664302/drv_spi.o
        3048           0         205        3253         cb5    socket.o                               build/SAMD21_IOT_WG_ICM42688/production/_ext/548032175/socket.o
        2896           2         224        3122         c32    sys_time.o                             build/SAMD21_IOT_WG_ICM42688/production/_ext/386530258/sys_time.o
        1972           0           2        1974         7b6    nmspi.o                                build/SAMD21_IOT_WG_ICM42688/production/_ext/121554788/nmspi.o
        1796           0           4        1800         708    nmasic.o                               build/SAMD21_IOT_WG_ICM42688/production/_ext/121554788/nmasic.o
        1660           0           4        1664         680    spi_flash.o                            build/SAMD21_IOT_WG_ICM42688/production/_ext/609036575/spi_flash.o
        1592           0           0        1592         638    kb_output.o                            build/SAMD21_IOT_WG_ICM42688/production/_ext/596309756/kb_output.o
        1360           0          41        1401         579    m2m_hif.o                              build/SAMD21_IOT_WG_ICM42688/production/_ext/121554788/m2m_hif.o
        1280           1         104        1385         569    m2m_ota.o                              build/SAMD21_IOT_WG_ICM42688/production/_ext/121554788/m2m_ota.o
        1312           0           0        1312         520    data_init                              data_init
        1232           0           0        1232         4d0    __fmt_fp.o                             libc-musl.a
        1164           1           8        1173         495    m2m_ssl.o                              build/SAMD21_IOT_WG_ICM42688/production/_ext/121554788/m2m_ssl.o
           4         108        1032        1144         478    stdin.o                                libc-musl.a
        1024           0          96        1120         460    plib_dmac.o                            build/SAMD21_IOT_WG_ICM42688/production/_ext/1580516298/plib_dmac.o
        1045           0           0        1045         415    wdrv_winc_socket.o                     build/SAMD21_IOT_WG_ICM42688/production/_ext/907429946/wdrv_winc_socket.o
        1040           0           0        1040         410    __printf_core.o                        libc-musl.a
         984           0          45        1029         405    plib_sercom2_spi_master.o              build/SAMD21_IOT_WG_ICM42688/production/_ext/1014017276/plib_sercom2_spi_master.o
         980           0           0         980         3d4    wdrv_winc_host_file.o                  build/SAMD21_IOT_WG_ICM42688/production/_ext/907429946/wdrv_winc_host_file.o
         940           0           0         940         3ac    ma_symmetric.o                         build/SAMD21_IOT_WG_ICM42688/production/_ext/596309756/ma_symmetric.o
         900           0           0         900         384    wdrv_winc_sta.o                        build/SAMD21_IOT_WG_ICM42688/production/_ext/907429946/wdrv_winc_sta.o
         784           0           0         784         310    plib_sercom5_usart.o                   build/SAMD21_IOT_WG_ICM42688/production/_ext/177673482/plib_sercom5_usart.o
         612         112          60         784         310    kb_pipeline.o                          build/SAMD21_IOT_WG_ICM42688/production/_ext/596309756/kb_pipeline.o
         760           0           0         760         2f8    nmdrv.o                                build/SAMD21_IOT_WG_ICM42688/production/_ext/121554788/nmdrv.o
         724           0           0         724         2d4    wdrv_winc_authctx.o                    build/SAMD21_IOT_WG_ICM42688/production/_ext/907429946/wdrv_winc_authctx.o
         648           0           0         648         288    rb.o                                   build/SAMD21_IOT_WG_ICM42688/production/_ext/596309756/rb.o
         640           0           0         640         280    plib_sercom0_spi_master.o              build/SAMD21_IOT_WG_ICM42688/production/_ext/1014017276/plib_sercom0_spi_master.o
         596           0          19         615         267    winc1500_udp_client.o                  build/SAMD21_IOT_WG_ICM42688/production/_ext/1360937237/winc1500_udp_client.o
          84           0         512         596         254    sml_recognition_run.o                  build/SAMD21_IOT_WG_ICM42688/production/_ext/171618134/sml_recognition_run.o
         552           0           4         556         22c    icm42688_sensor.o                      build/SAMD21_IOT_WG_ICM42688/production/_ext/2048461350/icm42688_sensor.o
         356           0         196         552         228    initialization.o                       build/SAMD21_IOT_WG_ICM42688/production/_ext/1832905403/initialization.o
         508           0           0         508         1fc    Icm426xxTransport.o                    build/SAMD21_IOT_WG_ICM42688/production/_ext/1341251756/Icm426xxTransport.o
         508           0           0         508         1fc    ringbuffer.o                           build/SAMD21_IOT_WG_ICM42688/production/_ext/1360937237/ringbuffer.o
         488           0           0         488         1e8    __secs_to_tm.o                         libc-musl.a
         276           0         192         468         1d4    plib_eic.o                             build/SAMD21_IOT_WG_ICM42688/production/_ext/503204096/plib_eic.o
         456           0           0         456         1c8    __aeabi_dadd.o                         libm-fast-emfloat.a
         392           0          29         421         1a5    wdrv_winc_spi.o                        build/SAMD21_IOT_WG_ICM42688/production/_ext/101005277/wdrv_winc_spi.o
         400           0           0         400         190    wdrv_winc_bssctx.o                     build/SAMD21_IOT_WG_ICM42688/production/_ext/907429946/wdrv_winc_bssctx.o
         394           0           0         394         18a    __aeabi_dmul_aux.o                     libm-fast-emfloat.a
         388           0           0         388         184    plib_port.o                            build/SAMD21_IOT_WG_ICM42688/production/_ext/1580876256/plib_port.o
         380           0           0         380         17c    wdrv_winc_systime.o                    build/SAMD21_IOT_WG_ICM42688/production/_ext/907429946/wdrv_winc_systime.o
         352           0           7         359         167    ws2812.o                               build/SAMD21_IOT_WG_ICM42688/production/_ext/1360937237/ws2812.o
         348           0           0         348         15c    plib_nvmctrl.o                         build/SAMD21_IOT_WG_ICM42688/production/_ext/11470383/plib_nvmctrl.o
           0         324           0         324         144    pme_trained_neurons.o                  build/SAMD21_IOT_WG_ICM42688/production/_ext/596309756/pme_trained_neurons.o
         314           0           0         314         13a    __aeabi_fadd.o                         libm-fast-emfloat.a
         312           0           0         312         138    _divdi3.o                              libgcc.a
         304           0           8         312         138    plib_tc4.o                             build/SAMD21_IOT_WG_ICM42688/production/_ext/399410062/plib_tc4.o
         306           0           0         306         132    __fmt_x.o                              libc-musl.a
         288           0           8         296         128    plib_tc3.o                             build/SAMD21_IOT_WG_ICM42688/production/_ext/399410062/plib_tc3.o
         296           0           0         296         128    plib_nvic.o                            build/SAMD21_IOT_WG_ICM42688/production/_ext/1580823105/plib_nvic.o
         284           0           0         284         11c    plib_systick.o                         build/SAMD21_IOT_WG_ICM42688/production/_ext/223004715/plib_systick.o
         256           0           0         256         100    __year_to_secs.o                       libc-musl.a
         254           0           0         254          fe    __stdio_write.o                        libc-musl.a
         232           2           0         234          ea    nmbus.o                                build/SAMD21_IOT_WG_ICM42688/production/_ext/121554788/nmbus.o
         234           0           0         234          ea    _udivmoddi4.o                          libgcc.a
         220           0           4         224          e0    lite_free.o                            liblmalloc-musl.a
         216           0           0         216          d8    tr_min_max_scale.o                     build/SAMD21_IOT_WG_ICM42688/production/_ext/596309756/tr_min_max_scale.o
         212           0           0         212          d4    utils_model_stats_max_min.o            build/SAMD21_IOT_WG_ICM42688/production/_ext/596309756/utils_model_stats_max_min.o
         204           0           0         204          cc    plib_clock.o                           build/SAMD21_IOT_WG_ICM42688/production/_ext/1750425231/plib_clock.o
         196           0           0         196          c4    __aeabi_ddiv.o                         libm-fast-emfloat.a
         196           0           0         196          c4    fg_sampling_downsample.o               build/SAMD21_IOT_WG_ICM42688/production/_ext/596309756/fg_sampling_downsample.o
         192           0           0         192          c0    inet_ntop.o                            build/SAMD21_IOT_WG_ICM42688/production/_ext/548032175/inet_ntop.o
         190           0           0         190          be    __pop_int.o                            libc-musl.a
         182           0           0         182          b6    __aeabi_fmul.o                         libm-fast-emfloat.a
         180           0           0         180          b4    mean.o                                 build/SAMD21_IOT_WG_ICM42688/production/_ext/596309756/mean.o
         180           0           0         180          b4    floor.o                                libm-fast-emfloat.a
         178           0           0         178          b2    interrupts.o                           build/SAMD21_IOT_WG_ICM42688/production/_ext/1832905403/interrupts.o
         178           0           0         178          b2    __fmt_d.o                              libc-musl.a
         164           0          12         176          b0    sbrk.o                                 libpic32c.a
         168           0           0         168          a8    _divsi3.o                              libgcc.a
         160           0           0         160          a0    __tm_to_secs.o                         libc-musl.a
         152           0           0         152          98    fg_area_absolute_area_low_frequency.o  build/SAMD21_IOT_WG_ICM42688/production/_ext/596309756/fg_area_absolute_area_low_frequency.o
         148           0           0         148          94    flexible_flash.o                       build/SAMD21_IOT_WG_ICM42688/production/_ext/609036575/flexible_flash.o
         148           0           0         148          94    sortarray.o                            build/SAMD21_IOT_WG_ICM42688/production/_ext/596309756/sortarray.o
         148           0           0         148          94    __aeabi_fdiv.o                         libm-fast-emfloat.a
         148           0           0         148          94    inet_addr.o                            build/SAMD21_IOT_WG_ICM42688/production/_ext/548032175/inet_addr.o
         140           0           0         140          8c    _udivsi3.o                             libgcc.a
         124           0           0         124          7c    fg_stats_abs_mean.o                    build/SAMD21_IOT_WG_ICM42688/production/_ext/596309756/fg_stats_abs_mean.o
         116           0           8         124          7c    app.o                                  build/SAMD21_IOT_WG_ICM42688/production/_ext/1360937237/app.o
         120           0           0         120          78    utils_buffer_cumsum.o                  build/SAMD21_IOT_WG_ICM42688/production/_ext/596309756/utils_buffer_cumsum.o
         118           0           0         118          76    __cvt_u.o                              libc-musl.a
         116           0           0         116          74    utils_array_max_uint8.o                build/SAMD21_IOT_WG_ICM42688/production/_ext/596309756/utils_array_max_uint8.o
         108           0           0         108          6c    sys_int.o                              build/SAMD21_IOT_WG_ICM42688/production/_ext/1318297016/sys_int.o
          80           0          28         108          6c    crtbegin.o                             c:/program files/microchip/xc32/v4.60/bin/bin/../../lib/gcc/pic32c/8.3.1/thumb/v6-m/nofp/crtbegin.o
         100           4           0         104          68    lite_malloc.o                          liblmalloc-musl.a
           8          96           0         104          68    __stdout.o                             libc-musl.a
         104           0           0         104          68    __pop_ptr.o                            libc-musl.a
         100           0           0         100          64    utils_model_cross_difference.o         build/SAMD21_IOT_WG_ICM42688/production/_ext/596309756/utils_model_cross_difference.o
         100           0           0         100          64    __stdio_read.o                         libc-musl.a
          98           0           0          98          62    __aeabi_d2f.o                          libm-fast-emfloat.a
          96           0           0          96          60    fg_amplitude_peak_to_peak.o            build/SAMD21_IOT_WG_ICM42688/production/_ext/596309756/fg_amplitude_peak_to_peak.o
          96           0           0          96          60    strchrnul.o                            libc-size-musl.a
          94           0           0          94          5e    __libc_start_main.o                    libc-musl.a
          92           0           0          92          5c    fg_amplitude_global_p2p_low_frequency.obuild/SAMD21_IOT_WG_ICM42688/production/_ext/596309756/fg_amplitude_global_p2p_low_frequency.o
          92           0           0          92          5c    __stdio_close.o                        libc-musl.a
          88           0           0          88          58    sf_downsample_by_averaging.o           build/SAMD21_IOT_WG_ICM42688/production/_ext/596309756/sf_downsample_by_averaging.o
          87           0           0          87          57    __fmt_s.o                              libc-musl.a
          86           0           0          86          56    __fmt_u.o                              libc-musl.a
          82           0           4          86          56    data_init.o                            libpic32c.a
          80           0           0          80          50    setvbuf.o                              libc-musl.a
          80           0           0          80          50    __int_vsnprintf.o                      libc-musl.a
           0           0          80          80          50    libc.o                                 libc-musl.a
          80           0           0          80          50    utils_buffer_min_max.o                 build/SAMD21_IOT_WG_ICM42688/production/_ext/596309756/utils_buffer_min_max.o
          80           0           0          80          50    __month_to_secs.o                      libc-musl.a
          78           0           0          78          4e    __overflow.o                           libc-musl.a
          76           0           0          76          4c    save_sensor_data.o                     build/SAMD21_IOT_WG_ICM42688/production/_ext/596309756/save_sensor_data.o
          76           0           0          76          4c    mktime.o                               libc-musl.a
          76           0           0          76          4c    dsp_lsup_distance.o                    build/SAMD21_IOT_WG_ICM42688/production/_ext/596309756/dsp_lsup_distance.o
          74           0           0          74          4a    startup_xc32.o                         build/SAMD21_IOT_WG_ICM42688/production/_ext/1832905403/startup_xc32.o
          72           0           0          72          48    xc32_monitor.o                         build/SAMD21_IOT_WG_ICM42688/production/_ext/1357625803/xc32_monitor.o
          72           0           0          72          48    sorted_copy.o                          build/SAMD21_IOT_WG_ICM42688/production/_ext/596309756/sorted_copy.o
          72           0           0          72          48    _aeabi_ldivmod.o                       libgcc.a
          70           0           0          70          46    __out.o                                libc-musl.a
          68           0           0          68          44    sys_dma.o                              build/SAMD21_IOT_WG_ICM42688/production/_ext/1584719636/sys_dma.o
          68           0           0          68          44    _muldi3.o                              libgcc.a
          68           0           0          68          44    __aeabi_f2d.o                          libm-fast-emfloat.a
          68           0           0          68          44    __aeabi_dcmple.o                       libm-fast-emfloat.a
          64           0           0          64          40    atoi.o                                 libc-musl.a
          64           0           0          64          40    _aeabi_uldivmod.o                      libgcc.a
          64           0           0          64          40    wdrv_winc_gpio.o                       build/SAMD21_IOT_WG_ICM42688/production/_ext/1164161090/wdrv_winc_gpio.o
          62           0           0          62          3e    putc.o                                 libc-musl.a
          62           0           0          62          3e    __aeabi_dcmpgt.o                       libm-fast-emfloat.a
          62           0           0          62          3e    __aeabi_f2iz.o                         libm-fast-emfloat.a
          62           0           0          62          3e    __aeabi_dcmplt.o                       libm-fast-emfloat.a
          60           0           0          60          3c    _clzsi2.o                              libgcc.a
          16           0          44          60          3c    gmtime.o                               libc-musl.a
          60           0           0          60          3c    __putc.o                               libc-musl.a
          20          32           8          60          3c    stdout.o                               libc-musl.a
          56           0           0          56          38    gmtime_r.o                             libc-musl.a
          52           0           0          52          34    __aeabi_d2iz.o                         libm-fast-emfloat.a
          52           0           0          52          34    dsp_l1_distance.o                      build/SAMD21_IOT_WG_ICM42688/production/_ext/596309756/dsp_l1_distance.o
          52           0           0          52          34    bpabi.o                                libgcc.a
          50           0           0          50          32    __aeabi_fcmpge.o                       libm-fast-emfloat.a
          48           0           0          48          30    __aeabi_ul2f.o                         libm-fast-emfloat.a
          48           0           0          48          30    nm_common.o                            build/SAMD21_IOT_WG_ICM42688/production/_ext/90265895/nm_common.o
          46           0           0          46          2e    fwrite.o                               libc-musl.a
          46           0           0          46          2e    __aeabi_dcmpeq.o                       libm-fast-emfloat.a
          46           0           0          46          2e    __aeabi_d2uiz.o                        libm-fast-emfloat.a
          46           0           0          46          2e    __aeabi_fcmplt.o                       libm-fast-emfloat.a
          46           0           0          46          2e    __aeabi_fcmpgt.o                       libm-fast-emfloat.a
          42           0           0          42          2a    __pop_float.o                          libc-musl.a
          42           0           0          42          2a    __towrite_rw.o                         libc-musl.a
          40           0           0          40          28    puts.o                                 libc-musl.a
          40           0           0          40          28    readv.o                                libc-musl.a
          40           0           0          40          28    writev.o                               libc-musl.a
          40           0           0          40          28    wdrv_winc_eint.o                       build/SAMD21_IOT_WG_ICM42688/production/_ext/1164161090/wdrv_winc_eint.o
          38           0           0          38          26    __aeabi_i2f.o                          libm-fast-emfloat.a
          36           0           0          36          24    sg_windowing.o                         build/SAMD21_IOT_WG_ICM42688/production/_ext/596309756/sg_windowing.o
          36           0           0          36          24    __aeabi_f2uiz.o                        libm-fast-emfloat.a
          36           0           0          36          24    wdrv_winc_osal.o                       build/SAMD21_IOT_WG_ICM42688/production/_ext/1784303044/wdrv_winc_osal.o
          34           0           0          34          22    fputs.o                                libc-musl.a
          32           0           0          32          20    __aeabi_l2f.o                          libm-fast-emfloat.a
          32           0           0          32          20    utils_tr_sensor.o                      build/SAMD21_IOT_WG_ICM42688/production/_ext/596309756/utils_tr_sensor.o
          32           0           0          32          20    __sio_printf_cdeEfFgGnpsuxX.o          libc-musl.a
          32           0           0          32          20    memchr.o                               libc-size-musl.a
          30           0           0          30          1e    pic32_data_init_copy.o                 libpic32c.a
          30           0           0          30          1e    __aeabi_ui2f.o                         libm-fast-emfloat.a
          30           0           0          30          1e    __aeabi_fcmpeq.o                       libm-fast-emfloat.a
          28           0           0          28          1c    __aeabi_ui2d.o                         libm-fast-emfloat.a
          28           0           0          28          1c    __aeabi_i2d.o                          libm-fast-emfloat.a
          28           0           0          28          1c    lite_calloc.o                          liblmalloc-musl.a
          26           0           0          26          1a    __towrite.o                            libc-musl.a
          24           0           0          24          18    strnlen.o                              libc-size-musl.a
          24           0           0          24          18    __int_vfprintf.o                       libc-musl.a
          24           0           0          24          18    _ashldi3.o                             libgcc.a
          24           0           0          24          18    _lshrdi3.o                             libgcc.a
          24           0           0          24          18    strlen.o                               libc-size-musl.a
          24           0           0          24          18    _clzdi2.o                              libgcc.a
          22           0           0          22          16    expand_heap.o                          libc-musl.a
          22           0           0          22          16    __sio_sprintf_cdeEfFgGnpsuxX.o         libc-musl.a
          20           0           0          20          14    memset.o                               libc-size-musl.a
          20           0           0          20          14    memcpy.o                               libc-size-musl.a
          20           0           0          20          14    putchar.o                              libc-musl.a
          20           0           0          20          14    __int_vsprintf.o                       libc-musl.a
          20           0           0          20          14    __fwrite.o                             libc-musl.a
          20           0           0          20          14    strchr.o                               libc-size-musl.a
          20           0           0          20          14    stpcpy.o                               libc-size-musl.a
          18           0           0          18          12    pic32_data_init_clear.o                libpic32c.a
          18           0           0          18          12    setbuf.o                               libc-musl.a
          18           0           0          18          12    __init_stdio.o                         libc-musl.a
          16           0           0          16          10    __aeabi_fsub.o                         libm-fast-emfloat.a
          16           0           0          16          10    fma.o                                  libm-fast-emfloat.a
          16           0           0          16          10    dsp_dtw_distance.o                     build/SAMD21_IOT_WG_ICM42688/production/_ext/596309756/dsp_dtw_distance.o
          16           0           0          16          10    fg_stats_minimum.o                     build/SAMD21_IOT_WG_ICM42688/production/_ext/596309756/fg_stats_minimum.o
          16           0           0          16          10    crtn.o                                 c:/program files/microchip/xc32/v4.60/bin/bin/../../lib/gcc/pic32c/8.3.1/thumb/v6-m/nofp/crtn.o
          16           0           0          16          10    utils_buffer_abssum.o                  build/SAMD21_IOT_WG_ICM42688/production/_ext/596309756/utils_buffer_abssum.o
          16           0           0          16          10    fg_cross_p2p_difference.o              build/SAMD21_IOT_WG_ICM42688/production/_ext/596309756/fg_cross_p2p_difference.o
          14           0           0          14           e    tolower.o                              libc-musl.a
          14           0           0          14           e    toupper.o                              libc-musl.a
          12           0           0          12           c    utils_bitwise_abs_val.o                build/SAMD21_IOT_WG_ICM42688/production/_ext/596309756/utils_bitwise_abs_val.o
          12           0           0          12           c    strcpy.o                               libc-size-musl.a
           8           0           0           8           8    tasks.o                                build/SAMD21_IOT_WG_ICM42688/production/_ext/1832905403/tasks.o
           8           0           0           8           8    exceptions.o                           build/SAMD21_IOT_WG_ICM42688/production/_ext/1832905403/exceptions.o
           8           0           0           8           8    crti.o                                 c:/program files/microchip/xc32/v4.60/bin/bin/../../lib/gcc/pic32c/8.3.1/thumb/v6-m/nofp/crti.o
           6           0           0           6           6    close.o                                libpic32c.a
           4           0           0           4           4    _dvmd_tls.o                            libgcc.a
           0           0           4           4           4    __errno_location.o                     libc-musl.a
           4           0           0           4           4    lseek.o                                libpic32c.a
           0           0           4           4           4    __environ.o                            libc-musl.a
           2           0           0           2           2    __stderr.o                             libc-musl.a
--------------------------------------------------------------------------------
       79004         724        9048       88776       15ac8    dist/SAMD21_IOT_WG_ICM42688/production/samd21_iot_wand.X.production.elf


Discarded input sections

 .text          0x0000000000000000        0x0 c:/program files/microchip/xc32/v4.60/bin/bin/../../lib/gcc/pic32c/8.3.1/thumb/v6-m/nofp/crti.o
 .data          0x0000000000000000        0x0 c:/program files/microchip/xc32/v4.60/bin/bin/../../lib/gcc/pic32c/8.3.1/thumb/v6-m/nofp/crti.o
 .bss           0x0000000000000000        0x0 c:/program files/microchip/xc32/v4.60/bin/bin/../../lib/gcc/pic32c/8.3.1/thumb/v6-m/nofp/crti.o
 .xc_stack_usage.hdr
                0x0000000000000000        0xe c:/program files/microchip/xc32/v4.60/bin/bin/../../lib/gcc/pic32c/8.3.1/thumb/v6-m/nofp/crti.o
 .xc_stack_usage
                0x0000000000000000       0x26 c:/program files/microchip/xc32/v4.60/bin/bin/../../lib/gcc/pic32c/8.3.1/thumb/v6-m/nofp/crti.o
 .data          0x0000000000000000        0x4 c:/program files/microchip/xc32/v4.60/bin/bin/../../lib/gcc/pic32c/8.3.1/thumb/v6-m/nofp/crtbegin.o
 .xc_stack_usage
                0x0000000000000000       0x3c c:/program files/microchip/xc32/v4.60/bin/bin/../../lib/gcc/pic32c/8.3.1/thumb/v6-m/nofp/crtbegin.o
 .xc_stack_usage.hdr
                0x0000000000000000        0xe c:/program files/microchip/xc32/v4.60/bin/bin/../../lib/gcc/pic32c/8.3.1/thumb/v6-m/nofp/crtbegin.o
 .data          0x0000000000000000        0x0 build/SAMD21_IOT_WG_ICM42688/production/_ext/2048461350/icm42688_sensor.o
 .data          0x0000000000000000        0x0 build/SAMD21_IOT_WG_ICM42688/production/_ext/171618134/sml_recognition_run.o
 .data          0x0000000000000000        0x0 build/SAMD21_IOT_WG_ICM42688/production/_ext/1660664302/drv_spi.o
 .data          0x0000000000000000        0x0 build/SAMD21_IOT_WG_ICM42688/production/_ext/1164161090/wdrv_winc_gpio.o
 .bss           0x0000000000000000        0x0 build/SAMD21_IOT_WG_ICM42688/production/_ext/1164161090/wdrv_winc_gpio.o
 .data          0x0000000000000000        0x0 build/SAMD21_IOT_WG_ICM42688/production/_ext/1164161090/wdrv_winc_eint.o
 .bss           0x0000000000000000        0x0 build/SAMD21_IOT_WG_ICM42688/production/_ext/1164161090/wdrv_winc_eint.o
 .data          0x0000000000000000        0x0 build/SAMD21_IOT_WG_ICM42688/production/_ext/101005277/wdrv_winc_spi.o
 .data          0x0000000000000000        0x0 build/SAMD21_IOT_WG_ICM42688/production/_ext/90265895/nm_common.o
 .bss           0x0000000000000000        0x0 build/SAMD21_IOT_WG_ICM42688/production/_ext/90265895/nm_common.o
 .data          0x0000000000000000        0x0 build/SAMD21_IOT_WG_ICM42688/production/_ext/121554788/m2m_hif.o
 .data          0x0000000000000000        0x0 build/SAMD21_IOT_WG_ICM42688/production/_ext/121554788/nmspi.o
 .data          0x0000000000000000        0x0 build/SAMD21_IOT_WG_ICM42688/production/_ext/121554788/nmdrv.o
 .bss           0x0000000000000000        0x0 build/SAMD21_IOT_WG_ICM42688/production/_ext/121554788/nmdrv.o
 .text          0x0000000000000000       0x68 build/SAMD21_IOT_WG_ICM42688/production/_ext/121554788/m2m_periph.o
 .data          0x0000000000000000        0x0 build/SAMD21_IOT_WG_ICM42688/production/_ext/121554788/m2m_periph.o
 .bss           0x0000000000000000        0x0 build/SAMD21_IOT_WG_ICM42688/production/_ext/121554788/m2m_periph.o
 .debug_info    0x0000000000000000      0x60b build/SAMD21_IOT_WG_ICM42688/production/_ext/121554788/m2m_periph.o
 .debug_abbrev  0x0000000000000000      0x190 build/SAMD21_IOT_WG_ICM42688/production/_ext/121554788/m2m_periph.o
 .debug_loc     0x0000000000000000      0x455 build/SAMD21_IOT_WG_ICM42688/production/_ext/121554788/m2m_periph.o
 .debug_aranges
                0x0000000000000000       0x20 build/SAMD21_IOT_WG_ICM42688/production/_ext/121554788/m2m_periph.o
 .debug_line    0x0000000000000000      0x234 build/SAMD21_IOT_WG_ICM42688/production/_ext/121554788/m2m_periph.o
 .debug_str     0x0000000000000000      0x453 build/SAMD21_IOT_WG_ICM42688/production/_ext/121554788/m2m_periph.o
 .comment       0x0000000000000000       0x2c build/SAMD21_IOT_WG_ICM42688/production/_ext/121554788/m2m_periph.o
 .debug_frame   0x0000000000000000       0x7c build/SAMD21_IOT_WG_ICM42688/production/_ext/121554788/m2m_periph.o
 .ARM.attributes
                0x0000000000000000       0x2c build/SAMD21_IOT_WG_ICM42688/production/_ext/121554788/m2m_periph.o
 .data          0x0000000000000000        0x0 build/SAMD21_IOT_WG_ICM42688/production/_ext/121554788/nmasic.o
 .bss           0x0000000000000000        0x0 build/SAMD21_IOT_WG_ICM42688/production/_ext/121554788/nmbus.o
 .data          0x0000000000000000        0x0 build/SAMD21_IOT_WG_ICM42688/production/_ext/548032175/socket.o
 .data          0x0000000000000000        0x0 build/SAMD21_IOT_WG_ICM42688/production/_ext/548032175/inet_addr.o
 .bss           0x0000000000000000        0x0 build/SAMD21_IOT_WG_ICM42688/production/_ext/548032175/inet_addr.o
 .data          0x0000000000000000        0x0 build/SAMD21_IOT_WG_ICM42688/production/_ext/548032175/inet_ntop.o
 .bss           0x0000000000000000        0x0 build/SAMD21_IOT_WG_ICM42688/production/_ext/548032175/inet_ntop.o
 .data          0x0000000000000000        0x0 build/SAMD21_IOT_WG_ICM42688/production/_ext/609036575/flexible_flash.o
 .bss           0x0000000000000000        0x0 build/SAMD21_IOT_WG_ICM42688/production/_ext/609036575/flexible_flash.o
 .data          0x0000000000000000        0x0 build/SAMD21_IOT_WG_ICM42688/production/_ext/609036575/spi_flash.o
 .data          0x0000000000000000        0x0 build/SAMD21_IOT_WG_ICM42688/production/_ext/1784303044/wdrv_winc_osal.o
 .bss           0x0000000000000000        0x0 build/SAMD21_IOT_WG_ICM42688/production/_ext/1784303044/wdrv_winc_osal.o
 .text          0x0000000000000000      0x1f4 build/SAMD21_IOT_WG_ICM42688/production/_ext/907429946/wdrv_winc_softap.o
 .data          0x0000000000000000        0x0 build/SAMD21_IOT_WG_ICM42688/production/_ext/907429946/wdrv_winc_softap.o
 .bss           0x0000000000000000        0x0 build/SAMD21_IOT_WG_ICM42688/production/_ext/907429946/wdrv_winc_softap.o
 .debug_info    0x0000000000000000     0x157a build/SAMD21_IOT_WG_ICM42688/production/_ext/907429946/wdrv_winc_softap.o
 .debug_abbrev  0x0000000000000000      0x2bd build/SAMD21_IOT_WG_ICM42688/production/_ext/907429946/wdrv_winc_softap.o
 .debug_loc     0x0000000000000000      0x49e build/SAMD21_IOT_WG_ICM42688/production/_ext/907429946/wdrv_winc_softap.o
 .debug_aranges
                0x0000000000000000       0x20 build/SAMD21_IOT_WG_ICM42688/production/_ext/907429946/wdrv_winc_softap.o
 .debug_line    0x0000000000000000      0x610 build/SAMD21_IOT_WG_ICM42688/production/_ext/907429946/wdrv_winc_softap.o
 .debug_str     0x0000000000000000     0x1942 build/SAMD21_IOT_WG_ICM42688/production/_ext/907429946/wdrv_winc_softap.o
 .comment       0x0000000000000000       0x2c build/SAMD21_IOT_WG_ICM42688/production/_ext/907429946/wdrv_winc_softap.o
 .debug_frame   0x0000000000000000       0x6c build/SAMD21_IOT_WG_ICM42688/production/_ext/907429946/wdrv_winc_softap.o
 .ARM.attributes
                0x0000000000000000       0x2c build/SAMD21_IOT_WG_ICM42688/production/_ext/907429946/wdrv_winc_softap.o
 .text          0x0000000000000000      0x318 build/SAMD21_IOT_WG_ICM42688/production/_ext/907429946/wdrv_winc_bssfind.o
 .data          0x0000000000000000        0x0 build/SAMD21_IOT_WG_ICM42688/production/_ext/907429946/wdrv_winc_bssfind.o
 .bss           0x0000000000000000        0x0 build/SAMD21_IOT_WG_ICM42688/production/_ext/907429946/wdrv_winc_bssfind.o
 .debug_info    0x0000000000000000     0x17e2 build/SAMD21_IOT_WG_ICM42688/production/_ext/907429946/wdrv_winc_bssfind.o
 .debug_abbrev  0x0000000000000000      0x2e5 build/SAMD21_IOT_WG_ICM42688/production/_ext/907429946/wdrv_winc_bssfind.o
 .debug_loc     0x0000000000000000      0xcd6 build/SAMD21_IOT_WG_ICM42688/production/_ext/907429946/wdrv_winc_bssfind.o
 .debug_aranges
                0x0000000000000000       0x20 build/SAMD21_IOT_WG_ICM42688/production/_ext/907429946/wdrv_winc_bssfind.o
 .debug_line    0x0000000000000000      0x7e0 build/SAMD21_IOT_WG_ICM42688/production/_ext/907429946/wdrv_winc_bssfind.o
 .debug_str     0x0000000000000000     0x1c86 build/SAMD21_IOT_WG_ICM42688/production/_ext/907429946/wdrv_winc_bssfind.o
 .comment       0x0000000000000000       0x2c build/SAMD21_IOT_WG_ICM42688/production/_ext/907429946/wdrv_winc_bssfind.o
 .debug_frame   0x0000000000000000      0x110 build/SAMD21_IOT_WG_ICM42688/production/_ext/907429946/wdrv_winc_bssfind.o
 .ARM.attributes
                0x0000000000000000       0x2c build/SAMD21_IOT_WG_ICM42688/production/_ext/907429946/wdrv_winc_bssfind.o
 .data          0x0000000000000000        0x0 build/SAMD21_IOT_WG_ICM42688/production/_ext/907429946/wdrv_winc_sta.o
 .bss           0x0000000000000000        0x0 build/SAMD21_IOT_WG_ICM42688/production/_ext/907429946/wdrv_winc_sta.o
 .text          0x0000000000000000      0x148 build/SAMD21_IOT_WG_ICM42688/production/_ext/907429946/wdrv_winc_wps.o
 .data          0x0000000000000000        0x0 build/SAMD21_IOT_WG_ICM42688/production/_ext/907429946/wdrv_winc_wps.o
 .bss           0x0000000000000000        0x0 build/SAMD21_IOT_WG_ICM42688/production/_ext/907429946/wdrv_winc_wps.o
 .rodata.str1.4
                0x0000000000000000        0x8 build/SAMD21_IOT_WG_ICM42688/production/_ext/907429946/wdrv_winc_wps.o
 .debug_info    0x0000000000000000     0x1271 build/SAMD21_IOT_WG_ICM42688/production/_ext/907429946/wdrv_winc_wps.o
 .debug_abbrev  0x0000000000000000      0x2e5 build/SAMD21_IOT_WG_ICM42688/production/_ext/907429946/wdrv_winc_wps.o
 .debug_loc     0x0000000000000000      0x5d4 build/SAMD21_IOT_WG_ICM42688/production/_ext/907429946/wdrv_winc_wps.o
 .debug_aranges
                0x0000000000000000       0x20 build/SAMD21_IOT_WG_ICM42688/production/_ext/907429946/wdrv_winc_wps.o
 .debug_line    0x0000000000000000      0x471 build/SAMD21_IOT_WG_ICM42688/production/_ext/907429946/wdrv_winc_wps.o
 .debug_str     0x0000000000000000     0x172e build/SAMD21_IOT_WG_ICM42688/production/_ext/907429946/wdrv_winc_wps.o
 .comment       0x0000000000000000       0x2c build/SAMD21_IOT_WG_ICM42688/production/_ext/907429946/wdrv_winc_wps.o
 .debug_frame   0x0000000000000000       0x68 build/SAMD21_IOT_WG_ICM42688/production/_ext/907429946/wdrv_winc_wps.o
 .ARM.attributes
                0x0000000000000000       0x2c build/SAMD21_IOT_WG_ICM42688/production/_ext/907429946/wdrv_winc_wps.o
 .text          0x0000000000000000      0x168 build/SAMD21_IOT_WG_ICM42688/production/_ext/907429946/wdrv_winc_assoc.o
 .data          0x0000000000000000        0x0 build/SAMD21_IOT_WG_ICM42688/production/_ext/907429946/wdrv_winc_assoc.o
 .bss           0x0000000000000000        0x0 build/SAMD21_IOT_WG_ICM42688/production/_ext/907429946/wdrv_winc_assoc.o
 .debug_info    0x0000000000000000     0x130f build/SAMD21_IOT_WG_ICM42688/production/_ext/907429946/wdrv_winc_assoc.o
 .debug_abbrev  0x0000000000000000      0x287 build/SAMD21_IOT_WG_ICM42688/production/_ext/907429946/wdrv_winc_assoc.o
 .debug_loc     0x0000000000000000      0x8bf build/SAMD21_IOT_WG_ICM42688/production/_ext/907429946/wdrv_winc_assoc.o
 .debug_aranges
                0x0000000000000000       0x20 build/SAMD21_IOT_WG_ICM42688/production/_ext/907429946/wdrv_winc_assoc.o
 .debug_line    0x0000000000000000      0x560 build/SAMD21_IOT_WG_ICM42688/production/_ext/907429946/wdrv_winc_assoc.o
 .debug_str     0x0000000000000000     0x174e build/SAMD21_IOT_WG_ICM42688/production/_ext/907429946/wdrv_winc_assoc.o
 .comment       0x0000000000000000       0x2c build/SAMD21_IOT_WG_ICM42688/production/_ext/907429946/wdrv_winc_assoc.o
 .debug_frame   0x0000000000000000       0x88 build/SAMD21_IOT_WG_ICM42688/production/_ext/907429946/wdrv_winc_assoc.o
 .ARM.attributes
                0x0000000000000000       0x2c build/SAMD21_IOT_WG_ICM42688/production/_ext/907429946/wdrv_winc_assoc.o
 .data          0x0000000000000000        0x0 build/SAMD21_IOT_WG_ICM42688/production/_ext/907429946/wdrv_winc_socket.o
 .bss           0x0000000000000000        0x0 build/SAMD21_IOT_WG_ICM42688/production/_ext/907429946/wdrv_winc_socket.o
 .data          0x0000000000000000        0x0 build/SAMD21_IOT_WG_ICM42688/production/_ext/907429946/wdrv_winc_systime.o
 .bss           0x0000000000000000        0x0 build/SAMD21_IOT_WG_ICM42688/production/_ext/907429946/wdrv_winc_systime.o
 .text          0x0000000000000000      0x1cc build/SAMD21_IOT_WG_ICM42688/production/_ext/907429946/wdrv_winc_enterprise.o
 .data          0x0000000000000000        0x0 build/SAMD21_IOT_WG_ICM42688/production/_ext/907429946/wdrv_winc_enterprise.o
 .bss           0x0000000000000000        0x0 build/SAMD21_IOT_WG_ICM42688/production/_ext/907429946/wdrv_winc_enterprise.o
 .rodata        0x0000000000000000        0x4 build/SAMD21_IOT_WG_ICM42688/production/_ext/907429946/wdrv_winc_enterprise.o
 .debug_info    0x0000000000000000     0x1546 build/SAMD21_IOT_WG_ICM42688/production/_ext/907429946/wdrv_winc_enterprise.o
 .debug_abbrev  0x0000000000000000      0x297 build/SAMD21_IOT_WG_ICM42688/production/_ext/907429946/wdrv_winc_enterprise.o
 .debug_loc     0x0000000000000000      0x84a build/SAMD21_IOT_WG_ICM42688/production/_ext/907429946/wdrv_winc_enterprise.o
 .debug_aranges
                0x0000000000000000       0x20 build/SAMD21_IOT_WG_ICM42688/production/_ext/907429946/wdrv_winc_enterprise.o
 .debug_line    0x0000000000000000      0x5a8 build/SAMD21_IOT_WG_ICM42688/production/_ext/907429946/wdrv_winc_enterprise.o
 .debug_str     0x0000000000000000     0x197d build/SAMD21_IOT_WG_ICM42688/production/_ext/907429946/wdrv_winc_enterprise.o
 .comment       0x0000000000000000       0x2c build/SAMD21_IOT_WG_ICM42688/production/_ext/907429946/wdrv_winc_enterprise.o
 .debug_frame   0x0000000000000000       0xd4 build/SAMD21_IOT_WG_ICM42688/production/_ext/907429946/wdrv_winc_enterprise.o
 .ARM.attributes
                0x0000000000000000       0x2c build/SAMD21_IOT_WG_ICM42688/production/_ext/907429946/wdrv_winc_enterprise.o
 .text          0x0000000000000000      0x29c build/SAMD21_IOT_WG_ICM42688/production/_ext/907429946/wdrv_winc_nvm.o
 .data          0x0000000000000000        0x0 build/SAMD21_IOT_WG_ICM42688/production/_ext/907429946/wdrv_winc_nvm.o
 .bss           0x0000000000000000        0x0 build/SAMD21_IOT_WG_ICM42688/production/_ext/907429946/wdrv_winc_nvm.o
 .rodata        0x0000000000000000       0x18 build/SAMD21_IOT_WG_ICM42688/production/_ext/907429946/wdrv_winc_nvm.o
 .debug_info    0x0000000000000000     0x1972 build/SAMD21_IOT_WG_ICM42688/production/_ext/907429946/wdrv_winc_nvm.o
 .debug_abbrev  0x0000000000000000      0x375 build/SAMD21_IOT_WG_ICM42688/production/_ext/907429946/wdrv_winc_nvm.o
 .debug_loc     0x0000000000000000      0x898 build/SAMD21_IOT_WG_ICM42688/production/_ext/907429946/wdrv_winc_nvm.o
 .debug_aranges
                0x0000000000000000       0x20 build/SAMD21_IOT_WG_ICM42688/production/_ext/907429946/wdrv_winc_nvm.o
 .debug_ranges  0x0000000000000000       0x78 build/SAMD21_IOT_WG_ICM42688/production/_ext/907429946/wdrv_winc_nvm.o
 .debug_line    0x0000000000000000      0x76b build/SAMD21_IOT_WG_ICM42688/production/_ext/907429946/wdrv_winc_nvm.o
 .debug_str     0x0000000000000000     0x1e63 build/SAMD21_IOT_WG_ICM42688/production/_ext/907429946/wdrv_winc_nvm.o
 .comment       0x0000000000000000       0x2c build/SAMD21_IOT_WG_ICM42688/production/_ext/907429946/wdrv_winc_nvm.o
 .debug_frame   0x0000000000000000       0xb4 build/SAMD21_IOT_WG_ICM42688/production/_ext/907429946/wdrv_winc_nvm.o
 .ARM.attributes
                0x0000000000000000       0x2c build/SAMD21_IOT_WG_ICM42688/production/_ext/907429946/wdrv_winc_nvm.o
 .text          0x0000000000000000       0x68 build/SAMD21_IOT_WG_ICM42688/production/_ext/907429946/wdrv_winc_httpprovctx.o
 .data          0x0000000000000000        0x0 build/SAMD21_IOT_WG_ICM42688/production/_ext/907429946/wdrv_winc_httpprovctx.o
 .bss           0x0000000000000000        0x0 build/SAMD21_IOT_WG_ICM42688/production/_ext/907429946/wdrv_winc_httpprovctx.o
 .debug_info    0x0000000000000000      0x5c2 build/SAMD21_IOT_WG_ICM42688/production/_ext/907429946/wdrv_winc_httpprovctx.o
 .debug_abbrev  0x0000000000000000      0x1ea build/SAMD21_IOT_WG_ICM42688/production/_ext/907429946/wdrv_winc_httpprovctx.o
 .debug_loc     0x0000000000000000      0x195 build/SAMD21_IOT_WG_ICM42688/production/_ext/907429946/wdrv_winc_httpprovctx.o
 .debug_aranges
                0x0000000000000000       0x20 build/SAMD21_IOT_WG_ICM42688/production/_ext/907429946/wdrv_winc_httpprovctx.o
 .debug_line    0x0000000000000000      0x291 build/SAMD21_IOT_WG_ICM42688/production/_ext/907429946/wdrv_winc_httpprovctx.o
 .debug_str     0x0000000000000000      0x827 build/SAMD21_IOT_WG_ICM42688/production/_ext/907429946/wdrv_winc_httpprovctx.o
 .comment       0x0000000000000000       0x2c build/SAMD21_IOT_WG_ICM42688/production/_ext/907429946/wdrv_winc_httpprovctx.o
 .debug_frame   0x0000000000000000       0x5c build/SAMD21_IOT_WG_ICM42688/production/_ext/907429946/wdrv_winc_httpprovctx.o
 .ARM.attributes
                0x0000000000000000       0x2c build/SAMD21_IOT_WG_ICM42688/production/_ext/907429946/wdrv_winc_httpprovctx.o
 .text          0x0000000000000000       0xe8 build/SAMD21_IOT_WG_ICM42688/production/_ext/907429946/wdrv_winc_powersave.o
 .data          0x0000000000000000        0x0 build/SAMD21_IOT_WG_ICM42688/production/_ext/907429946/wdrv_winc_powersave.o
 .bss           0x0000000000000000        0x0 build/SAMD21_IOT_WG_ICM42688/production/_ext/907429946/wdrv_winc_powersave.o
 .debug_info    0x0000000000000000     0x12b0 build/SAMD21_IOT_WG_ICM42688/production/_ext/907429946/wdrv_winc_powersave.o
 .debug_abbrev  0x0000000000000000      0x239 build/SAMD21_IOT_WG_ICM42688/production/_ext/907429946/wdrv_winc_powersave.o
 .debug_loc     0x0000000000000000      0x422 build/SAMD21_IOT_WG_ICM42688/production/_ext/907429946/wdrv_winc_powersave.o
 .debug_aranges
                0x0000000000000000       0x20 build/SAMD21_IOT_WG_ICM42688/production/_ext/907429946/wdrv_winc_powersave.o
 .debug_line    0x0000000000000000      0x47b build/SAMD21_IOT_WG_ICM42688/production/_ext/907429946/wdrv_winc_powersave.o
 .debug_str     0x0000000000000000     0x1829 build/SAMD21_IOT_WG_ICM42688/production/_ext/907429946/wdrv_winc_powersave.o
 .comment       0x0000000000000000       0x2c build/SAMD21_IOT_WG_ICM42688/production/_ext/907429946/wdrv_winc_powersave.o
 .debug_frame   0x0000000000000000       0x78 build/SAMD21_IOT_WG_ICM42688/production/_ext/907429946/wdrv_winc_powersave.o
 .ARM.attributes
                0x0000000000000000       0x2c build/SAMD21_IOT_WG_ICM42688/production/_ext/907429946/wdrv_winc_powersave.o
 .data          0x0000000000000000        0x0 build/SAMD21_IOT_WG_ICM42688/production/_ext/907429946/wdrv_winc_authctx.o
 .bss           0x0000000000000000        0x0 build/SAMD21_IOT_WG_ICM42688/production/_ext/907429946/wdrv_winc_authctx.o
 .text          0x0000000000000000      0x2ec build/SAMD21_IOT_WG_ICM42688/production/_ext/907429946/wdrv_winc_ssl.o
 .data          0x0000000000000000        0x0 build/SAMD21_IOT_WG_ICM42688/production/_ext/907429946/wdrv_winc_ssl.o
 .bss           0x0000000000000000        0x0 build/SAMD21_IOT_WG_ICM42688/production/_ext/907429946/wdrv_winc_ssl.o
 .rodata        0x0000000000000000       0x58 build/SAMD21_IOT_WG_ICM42688/production/_ext/907429946/wdrv_winc_ssl.o
 .debug_info    0x0000000000000000     0x1a1a build/SAMD21_IOT_WG_ICM42688/production/_ext/907429946/wdrv_winc_ssl.o
 .debug_abbrev  0x0000000000000000      0x338 build/SAMD21_IOT_WG_ICM42688/production/_ext/907429946/wdrv_winc_ssl.o
 .debug_loc     0x0000000000000000      0x96a build/SAMD21_IOT_WG_ICM42688/production/_ext/907429946/wdrv_winc_ssl.o
 .debug_aranges
                0x0000000000000000       0x20 build/SAMD21_IOT_WG_ICM42688/production/_ext/907429946/wdrv_winc_ssl.o
 .debug_line    0x0000000000000000      0x6a4 build/SAMD21_IOT_WG_ICM42688/production/_ext/907429946/wdrv_winc_ssl.o
 .debug_str     0x0000000000000000     0x1db5 build/SAMD21_IOT_WG_ICM42688/production/_ext/907429946/wdrv_winc_ssl.o
 .comment       0x0000000000000000       0x2c build/SAMD21_IOT_WG_ICM42688/production/_ext/907429946/wdrv_winc_ssl.o
 .debug_frame   0x0000000000000000       0xfc build/SAMD21_IOT_WG_ICM42688/production/_ext/907429946/wdrv_winc_ssl.o
 .ARM.attributes
                0x0000000000000000       0x2c build/SAMD21_IOT_WG_ICM42688/production/_ext/907429946/wdrv_winc_ssl.o
 .text          0x0000000000000000      0x108 build/SAMD21_IOT_WG_ICM42688/production/_ext/907429946/wdrv_winc_custie.o
 .data          0x0000000000000000        0x0 build/SAMD21_IOT_WG_ICM42688/production/_ext/907429946/wdrv_winc_custie.o
 .bss           0x0000000000000000        0x0 build/SAMD21_IOT_WG_ICM42688/production/_ext/907429946/wdrv_winc_custie.o
 .debug_info    0x0000000000000000      0x39d build/SAMD21_IOT_WG_ICM42688/production/_ext/907429946/wdrv_winc_custie.o
 .debug_abbrev  0x0000000000000000      0x14e build/SAMD21_IOT_WG_ICM42688/production/_ext/907429946/wdrv_winc_custie.o
 .debug_loc     0x0000000000000000      0x3c7 build/SAMD21_IOT_WG_ICM42688/production/_ext/907429946/wdrv_winc_custie.o
 .debug_aranges
                0x0000000000000000       0x20 build/SAMD21_IOT_WG_ICM42688/production/_ext/907429946/wdrv_winc_custie.o
 .debug_line    0x0000000000000000      0x2c2 build/SAMD21_IOT_WG_ICM42688/production/_ext/907429946/wdrv_winc_custie.o
 .debug_str     0x0000000000000000      0x5da build/SAMD21_IOT_WG_ICM42688/production/_ext/907429946/wdrv_winc_custie.o
 .comment       0x0000000000000000       0x2c build/SAMD21_IOT_WG_ICM42688/production/_ext/907429946/wdrv_winc_custie.o
 .debug_frame   0x0000000000000000       0x6c build/SAMD21_IOT_WG_ICM42688/production/_ext/907429946/wdrv_winc_custie.o
 .ARM.attributes
                0x0000000000000000       0x2c build/SAMD21_IOT_WG_ICM42688/production/_ext/907429946/wdrv_winc_custie.o
 .data          0x0000000000000000        0x0 build/SAMD21_IOT_WG_ICM42688/production/_ext/907429946/wdrv_winc_host_file.o
 .bss           0x0000000000000000        0x0 build/SAMD21_IOT_WG_ICM42688/production/_ext/907429946/wdrv_winc_host_file.o
 .data          0x0000000000000000        0x0 build/SAMD21_IOT_WG_ICM42688/production/_ext/907429946/wdrv_winc.o
 .data          0x0000000000000000        0x0 build/SAMD21_IOT_WG_ICM42688/production/_ext/907429946/wdrv_winc_bssctx.o
 .bss           0x0000000000000000        0x0 build/SAMD21_IOT_WG_ICM42688/production/_ext/907429946/wdrv_winc_bssctx.o
 .data          0x0000000000000000        0x0 build/SAMD21_IOT_WG_ICM42688/production/_ext/1750425231/plib_clock.o
 .bss           0x0000000000000000        0x0 build/SAMD21_IOT_WG_ICM42688/production/_ext/1750425231/plib_clock.o
 .data          0x0000000000000000        0x0 build/SAMD21_IOT_WG_ICM42688/production/_ext/1580516298/plib_dmac.o
 .data          0x0000000000000000        0x0 build/SAMD21_IOT_WG_ICM42688/production/_ext/503204096/plib_eic.o
 .text          0x0000000000000000        0x4 build/SAMD21_IOT_WG_ICM42688/production/_ext/1752574717/plib_evsys.o
 .data          0x0000000000000000        0x0 build/SAMD21_IOT_WG_ICM42688/production/_ext/1752574717/plib_evsys.o
 .bss           0x0000000000000000        0x0 build/SAMD21_IOT_WG_ICM42688/production/_ext/1752574717/plib_evsys.o
 .debug_info    0x0000000000000000       0x97 build/SAMD21_IOT_WG_ICM42688/production/_ext/1752574717/plib_evsys.o
 .debug_abbrev  0x0000000000000000       0x44 build/SAMD21_IOT_WG_ICM42688/production/_ext/1752574717/plib_evsys.o
 .debug_aranges
                0x0000000000000000       0x20 build/SAMD21_IOT_WG_ICM42688/production/_ext/1752574717/plib_evsys.o
 .debug_line    0x0000000000000000       0x75 build/SAMD21_IOT_WG_ICM42688/production/_ext/1752574717/plib_evsys.o
 .debug_str     0x0000000000000000      0x29e build/SAMD21_IOT_WG_ICM42688/production/_ext/1752574717/plib_evsys.o
 .comment       0x0000000000000000       0x2c build/SAMD21_IOT_WG_ICM42688/production/_ext/1752574717/plib_evsys.o
 .debug_frame   0x0000000000000000       0x20 build/SAMD21_IOT_WG_ICM42688/production/_ext/1752574717/plib_evsys.o
 .ARM.attributes
                0x0000000000000000       0x2c build/SAMD21_IOT_WG_ICM42688/production/_ext/1752574717/plib_evsys.o
 .data          0x0000000000000000        0x0 build/SAMD21_IOT_WG_ICM42688/production/_ext/1580823105/plib_nvic.o
 .bss           0x0000000000000000        0x0 build/SAMD21_IOT_WG_ICM42688/production/_ext/1580823105/plib_nvic.o
 .data          0x0000000000000000        0x0 build/SAMD21_IOT_WG_ICM42688/production/_ext/11470383/plib_nvmctrl.o
 .bss           0x0000000000000000        0x0 build/SAMD21_IOT_WG_ICM42688/production/_ext/11470383/plib_nvmctrl.o
 .data          0x0000000000000000        0x0 build/SAMD21_IOT_WG_ICM42688/production/_ext/1580876256/plib_port.o
 .bss           0x0000000000000000        0x0 build/SAMD21_IOT_WG_ICM42688/production/_ext/1580876256/plib_port.o
 .data          0x0000000000000000        0x0 build/SAMD21_IOT_WG_ICM42688/production/_ext/1014017276/plib_sercom0_spi_master.o
 .bss           0x0000000000000000        0x0 build/SAMD21_IOT_WG_ICM42688/production/_ext/1014017276/plib_sercom0_spi_master.o
 .data          0x0000000000000000        0x0 build/SAMD21_IOT_WG_ICM42688/production/_ext/1014017276/plib_sercom2_spi_master.o
 .data          0x0000000000000000        0x0 build/SAMD21_IOT_WG_ICM42688/production/_ext/177673482/plib_sercom5_usart.o
 .bss           0x0000000000000000        0x0 build/SAMD21_IOT_WG_ICM42688/production/_ext/177673482/plib_sercom5_usart.o
 .data          0x0000000000000000        0x0 build/SAMD21_IOT_WG_ICM42688/production/_ext/223004715/plib_systick.o
 .bss           0x0000000000000000        0x0 build/SAMD21_IOT_WG_ICM42688/production/_ext/223004715/plib_systick.o
 .data          0x0000000000000000        0x0 build/SAMD21_IOT_WG_ICM42688/production/_ext/399410062/plib_tc3.o
 .data          0x0000000000000000        0x0 build/SAMD21_IOT_WG_ICM42688/production/_ext/399410062/plib_tc4.o
 .data          0x0000000000000000        0x0 build/SAMD21_IOT_WG_ICM42688/production/_ext/1357625803/xc32_monitor.o
 .bss           0x0000000000000000        0x0 build/SAMD21_IOT_WG_ICM42688/production/_ext/1357625803/xc32_monitor.o
 .data          0x0000000000000000        0x0 build/SAMD21_IOT_WG_ICM42688/production/_ext/1584719636/sys_dma.o
 .bss           0x0000000000000000        0x0 build/SAMD21_IOT_WG_ICM42688/production/_ext/1584719636/sys_dma.o
 .data          0x0000000000000000        0x0 build/SAMD21_IOT_WG_ICM42688/production/_ext/1318297016/sys_int.o
 .bss           0x0000000000000000        0x0 build/SAMD21_IOT_WG_ICM42688/production/_ext/1318297016/sys_int.o
 .data          0x0000000000000000        0x0 build/SAMD21_IOT_WG_ICM42688/production/_ext/1832905403/initialization.o
 .data          0x0000000000000000        0x0 build/SAMD21_IOT_WG_ICM42688/production/_ext/1832905403/interrupts.o
 .bss           0x0000000000000000        0x0 build/SAMD21_IOT_WG_ICM42688/production/_ext/1832905403/interrupts.o
 .data          0x0000000000000000        0x0 build/SAMD21_IOT_WG_ICM42688/production/_ext/1832905403/exceptions.o
 .bss           0x0000000000000000        0x0 build/SAMD21_IOT_WG_ICM42688/production/_ext/1832905403/exceptions.o
 .data          0x0000000000000000        0x0 build/SAMD21_IOT_WG_ICM42688/production/_ext/1832905403/startup_xc32.o
 .bss           0x0000000000000000        0x0 build/SAMD21_IOT_WG_ICM42688/production/_ext/1832905403/startup_xc32.o
 .text          0x0000000000000000        0x4 build/SAMD21_IOT_WG_ICM42688/production/_ext/1832905403/libc_syscalls.o
 .data          0x0000000000000000        0x0 build/SAMD21_IOT_WG_ICM42688/production/_ext/1832905403/libc_syscalls.o
 .bss           0x0000000000000000        0x0 build/SAMD21_IOT_WG_ICM42688/production/_ext/1832905403/libc_syscalls.o
 .debug_info    0x0000000000000000       0xa6 build/SAMD21_IOT_WG_ICM42688/production/_ext/1832905403/libc_syscalls.o
 .debug_abbrev  0x0000000000000000       0x5b build/SAMD21_IOT_WG_ICM42688/production/_ext/1832905403/libc_syscalls.o
 .debug_loc     0x0000000000000000       0x15 build/SAMD21_IOT_WG_ICM42688/production/_ext/1832905403/libc_syscalls.o
 .debug_aranges
                0x0000000000000000       0x20 build/SAMD21_IOT_WG_ICM42688/production/_ext/1832905403/libc_syscalls.o
 .debug_line    0x0000000000000000       0x6a build/SAMD21_IOT_WG_ICM42688/production/_ext/1832905403/libc_syscalls.o
 .debug_str     0x0000000000000000      0x280 build/SAMD21_IOT_WG_ICM42688/production/_ext/1832905403/libc_syscalls.o
 .comment       0x0000000000000000       0x2c build/SAMD21_IOT_WG_ICM42688/production/_ext/1832905403/libc_syscalls.o
 .debug_frame   0x0000000000000000       0x20 build/SAMD21_IOT_WG_ICM42688/production/_ext/1832905403/libc_syscalls.o
 .ARM.attributes
                0x0000000000000000       0x2c build/SAMD21_IOT_WG_ICM42688/production/_ext/1832905403/libc_syscalls.o
 .data          0x0000000000000000        0x0 build/SAMD21_IOT_WG_ICM42688/production/_ext/1832905403/tasks.o
 .bss           0x0000000000000000        0x0 build/SAMD21_IOT_WG_ICM42688/production/_ext/1832905403/tasks.o
 .data          0x0000000000000000        0x0 build/SAMD21_IOT_WG_ICM42688/production/_ext/1341251756/Icm426xxDriver_HL.o
 .bss           0x0000000000000000        0x0 build/SAMD21_IOT_WG_ICM42688/production/_ext/1341251756/Icm426xxDriver_HL.o
 .text          0x0000000000000000      0xd64 build/SAMD21_IOT_WG_ICM42688/production/_ext/1341251756/Icm426xxDriver_HL_apex.o
 .data          0x0000000000000000        0x0 build/SAMD21_IOT_WG_ICM42688/production/_ext/1341251756/Icm426xxDriver_HL_apex.o
 .bss           0x0000000000000000        0x0 build/SAMD21_IOT_WG_ICM42688/production/_ext/1341251756/Icm426xxDriver_HL_apex.o
 .debug_info    0x0000000000000000     0x2d26 build/SAMD21_IOT_WG_ICM42688/production/_ext/1341251756/Icm426xxDriver_HL_apex.o
 .debug_abbrev  0x0000000000000000      0x37d build/SAMD21_IOT_WG_ICM42688/production/_ext/1341251756/Icm426xxDriver_HL_apex.o
 .debug_loc     0x0000000000000000     0x1d25 build/SAMD21_IOT_WG_ICM42688/production/_ext/1341251756/Icm426xxDriver_HL_apex.o
 .debug_aranges
                0x0000000000000000       0x20 build/SAMD21_IOT_WG_ICM42688/production/_ext/1341251756/Icm426xxDriver_HL_apex.o
 .debug_ranges  0x0000000000000000       0x30 build/SAMD21_IOT_WG_ICM42688/production/_ext/1341251756/Icm426xxDriver_HL_apex.o
 .debug_line    0x0000000000000000     0x10ab build/SAMD21_IOT_WG_ICM42688/production/_ext/1341251756/Icm426xxDriver_HL_apex.o
 .debug_str     0x0000000000000000     0x2bcd build/SAMD21_IOT_WG_ICM42688/production/_ext/1341251756/Icm426xxDriver_HL_apex.o
 .comment       0x0000000000000000       0x2c build/SAMD21_IOT_WG_ICM42688/production/_ext/1341251756/Icm426xxDriver_HL_apex.o
 .debug_frame   0x0000000000000000      0x3c8 build/SAMD21_IOT_WG_ICM42688/production/_ext/1341251756/Icm426xxDriver_HL_apex.o
 .ARM.attributes
                0x0000000000000000       0x2c build/SAMD21_IOT_WG_ICM42688/production/_ext/1341251756/Icm426xxDriver_HL_apex.o
 .text          0x0000000000000000      0xa4c build/SAMD21_IOT_WG_ICM42688/production/_ext/1341251756/Icm426xxSelfTest.o
 .data          0x0000000000000000        0x0 build/SAMD21_IOT_WG_ICM42688/production/_ext/1341251756/Icm426xxSelfTest.o
 .bss           0x0000000000000000        0x0 build/SAMD21_IOT_WG_ICM42688/production/_ext/1341251756/Icm426xxSelfTest.o
 .debug_info    0x0000000000000000     0x1ae7 build/SAMD21_IOT_WG_ICM42688/production/_ext/1341251756/Icm426xxSelfTest.o
 .debug_abbrev  0x0000000000000000      0x3f3 build/SAMD21_IOT_WG_ICM42688/production/_ext/1341251756/Icm426xxSelfTest.o
 .debug_loc     0x0000000000000000     0x1352 build/SAMD21_IOT_WG_ICM42688/production/_ext/1341251756/Icm426xxSelfTest.o
 .debug_aranges
                0x0000000000000000       0x20 build/SAMD21_IOT_WG_ICM42688/production/_ext/1341251756/Icm426xxSelfTest.o
 .debug_ranges  0x0000000000000000      0x120 build/SAMD21_IOT_WG_ICM42688/production/_ext/1341251756/Icm426xxSelfTest.o
 .debug_line    0x0000000000000000      0xb01 build/SAMD21_IOT_WG_ICM42688/production/_ext/1341251756/Icm426xxSelfTest.o
 .debug_str     0x0000000000000000     0x1555 build/SAMD21_IOT_WG_ICM42688/production/_ext/1341251756/Icm426xxSelfTest.o
 .comment       0x0000000000000000       0x2c build/SAMD21_IOT_WG_ICM42688/production/_ext/1341251756/Icm426xxSelfTest.o
 .debug_frame   0x0000000000000000       0xc0 build/SAMD21_IOT_WG_ICM42688/production/_ext/1341251756/Icm426xxSelfTest.o
 .ARM.attributes
                0x0000000000000000       0x2c build/SAMD21_IOT_WG_ICM42688/production/_ext/1341251756/Icm426xxSelfTest.o
 .data          0x0000000000000000        0x0 build/SAMD21_IOT_WG_ICM42688/production/_ext/1341251756/Icm426xxTransport.o
 .bss           0x0000000000000000        0x0 build/SAMD21_IOT_WG_ICM42688/production/_ext/1341251756/Icm426xxTransport.o
 .text          0x0000000000000000       0x54 build/SAMD21_IOT_WG_ICM42688/production/_ext/596309756/array_contains.o
 .data          0x0000000000000000        0x0 build/SAMD21_IOT_WG_ICM42688/production/_ext/596309756/array_contains.o
 .bss           0x0000000000000000        0x0 build/SAMD21_IOT_WG_ICM42688/production/_ext/596309756/array_contains.o
 .debug_info    0x0000000000000000      0x172 build/SAMD21_IOT_WG_ICM42688/production/_ext/596309756/array_contains.o
 .debug_abbrev  0x0000000000000000       0xb5 build/SAMD21_IOT_WG_ICM42688/production/_ext/596309756/array_contains.o
 .debug_loc     0x0000000000000000      0x1c1 build/SAMD21_IOT_WG_ICM42688/production/_ext/596309756/array_contains.o
 .debug_aranges
                0x0000000000000000       0x20 build/SAMD21_IOT_WG_ICM42688/production/_ext/596309756/array_contains.o
 .debug_line    0x0000000000000000      0x10f build/SAMD21_IOT_WG_ICM42688/production/_ext/596309756/array_contains.o
 .debug_str     0x0000000000000000      0x2d9 build/SAMD21_IOT_WG_ICM42688/production/_ext/596309756/array_contains.o
 .comment       0x0000000000000000       0x2c build/SAMD21_IOT_WG_ICM42688/production/_ext/596309756/array_contains.o
 .debug_frame   0x0000000000000000       0x38 build/SAMD21_IOT_WG_ICM42688/production/_ext/596309756/array_contains.o
 .ARM.attributes
                0x0000000000000000       0x2c build/SAMD21_IOT_WG_ICM42688/production/_ext/596309756/array_contains.o
 .text          0x0000000000000000      0x128 build/SAMD21_IOT_WG_ICM42688/production/_ext/596309756/calc_area.o
 .data          0x0000000000000000        0x0 build/SAMD21_IOT_WG_ICM42688/production/_ext/596309756/calc_area.o
 .bss           0x0000000000000000        0x0 build/SAMD21_IOT_WG_ICM42688/production/_ext/596309756/calc_area.o
 .debug_info    0x0000000000000000      0x2ee build/SAMD21_IOT_WG_ICM42688/production/_ext/596309756/calc_area.o
 .debug_abbrev  0x0000000000000000      0x137 build/SAMD21_IOT_WG_ICM42688/production/_ext/596309756/calc_area.o
 .debug_loc     0x0000000000000000      0x3e1 build/SAMD21_IOT_WG_ICM42688/production/_ext/596309756/calc_area.o
 .debug_aranges
                0x0000000000000000       0x20 build/SAMD21_IOT_WG_ICM42688/production/_ext/596309756/calc_area.o
 .debug_ranges  0x0000000000000000       0x20 build/SAMD21_IOT_WG_ICM42688/production/_ext/596309756/calc_area.o
 .debug_line    0x0000000000000000      0x1d2 build/SAMD21_IOT_WG_ICM42688/production/_ext/596309756/calc_area.o
 .debug_str     0x0000000000000000      0x377 build/SAMD21_IOT_WG_ICM42688/production/_ext/596309756/calc_area.o
 .comment       0x0000000000000000       0x2c build/SAMD21_IOT_WG_ICM42688/production/_ext/596309756/calc_area.o
 .debug_frame   0x0000000000000000       0x3c build/SAMD21_IOT_WG_ICM42688/production/_ext/596309756/calc_area.o
 .ARM.attributes
                0x0000000000000000       0x2c build/SAMD21_IOT_WG_ICM42688/production/_ext/596309756/calc_area.o
 .text          0x0000000000000000       0x70 build/SAMD21_IOT_WG_ICM42688/production/_ext/596309756/column_to_row_complex.o
 .data          0x0000000000000000        0x0 build/SAMD21_IOT_WG_ICM42688/production/_ext/596309756/column_to_row_complex.o
 .bss           0x0000000000000000        0x0 build/SAMD21_IOT_WG_ICM42688/production/_ext/596309756/column_to_row_complex.o
 .debug_info    0x0000000000000000      0x230 build/SAMD21_IOT_WG_ICM42688/production/_ext/596309756/column_to_row_complex.o
 .debug_abbrev  0x0000000000000000       0xff build/SAMD21_IOT_WG_ICM42688/production/_ext/596309756/column_to_row_complex.o
 .debug_loc     0x0000000000000000      0x1b4 build/SAMD21_IOT_WG_ICM42688/production/_ext/596309756/column_to_row_complex.o
 .debug_aranges
                0x0000000000000000       0x20 build/SAMD21_IOT_WG_ICM42688/production/_ext/596309756/column_to_row_complex.o
 .debug_line    0x0000000000000000      0x133 build/SAMD21_IOT_WG_ICM42688/production/_ext/596309756/column_to_row_complex.o
 .debug_str     0x0000000000000000      0x326 build/SAMD21_IOT_WG_ICM42688/production/_ext/596309756/column_to_row_complex.o
 .comment       0x0000000000000000       0x2c build/SAMD21_IOT_WG_ICM42688/production/_ext/596309756/column_to_row_complex.o
 .debug_frame   0x0000000000000000       0x38 build/SAMD21_IOT_WG_ICM42688/production/_ext/596309756/column_to_row_complex.o
 .ARM.attributes
                0x0000000000000000       0x2c build/SAMD21_IOT_WG_ICM42688/production/_ext/596309756/column_to_row_complex.o
 .text          0x0000000000000000      0x168 build/SAMD21_IOT_WG_ICM42688/production/_ext/596309756/crossing_rate.o
 .data          0x0000000000000000        0x0 build/SAMD21_IOT_WG_ICM42688/production/_ext/596309756/crossing_rate.o
 .bss           0x0000000000000000        0x0 build/SAMD21_IOT_WG_ICM42688/production/_ext/596309756/crossing_rate.o
 .debug_info    0x0000000000000000      0x545 build/SAMD21_IOT_WG_ICM42688/production/_ext/596309756/crossing_rate.o
 .debug_abbrev  0x0000000000000000       0xe8 build/SAMD21_IOT_WG_ICM42688/production/_ext/596309756/crossing_rate.o
 .debug_loc     0x0000000000000000      0x877 build/SAMD21_IOT_WG_ICM42688/production/_ext/596309756/crossing_rate.o
 .debug_aranges
                0x0000000000000000       0x20 build/SAMD21_IOT_WG_ICM42688/production/_ext/596309756/crossing_rate.o
 .debug_ranges  0x0000000000000000       0xa0 build/SAMD21_IOT_WG_ICM42688/production/_ext/596309756/crossing_rate.o
 .debug_line    0x0000000000000000      0x2ca build/SAMD21_IOT_WG_ICM42688/production/_ext/596309756/crossing_rate.o
 .debug_str     0x0000000000000000      0x43a build/SAMD21_IOT_WG_ICM42688/production/_ext/596309756/crossing_rate.o
 .comment       0x0000000000000000       0x2c build/SAMD21_IOT_WG_ICM42688/production/_ext/596309756/crossing_rate.o
 .debug_frame   0x0000000000000000       0xc8 build/SAMD21_IOT_WG_ICM42688/production/_ext/596309756/crossing_rate.o
 .ARM.attributes
                0x0000000000000000       0x2c build/SAMD21_IOT_WG_ICM42688/production/_ext/596309756/crossing_rate.o
 .data          0x0000000000000000        0x0 build/SAMD21_IOT_WG_ICM42688/production/_ext/596309756/dsp_dtw_distance.o
 .bss           0x0000000000000000        0x0 build/SAMD21_IOT_WG_ICM42688/production/_ext/596309756/dsp_dtw_distance.o
 .data          0x0000000000000000        0x0 build/SAMD21_IOT_WG_ICM42688/production/_ext/596309756/dsp_l1_distance.o
 .bss           0x0000000000000000        0x0 build/SAMD21_IOT_WG_ICM42688/production/_ext/596309756/dsp_l1_distance.o
 .data          0x0000000000000000        0x0 build/SAMD21_IOT_WG_ICM42688/production/_ext/596309756/dsp_lsup_distance.o
 .bss           0x0000000000000000        0x0 build/SAMD21_IOT_WG_ICM42688/production/_ext/596309756/dsp_lsup_distance.o
 .text          0x0000000000000000      0x218 build/SAMD21_IOT_WG_ICM42688/production/_ext/596309756/fftr.o
 .data          0x0000000000000000        0x0 build/SAMD21_IOT_WG_ICM42688/production/_ext/596309756/fftr.o
 .bss           0x0000000000000000        0x0 build/SAMD21_IOT_WG_ICM42688/production/_ext/596309756/fftr.o
 .rodata        0x0000000000000000      0x400 build/SAMD21_IOT_WG_ICM42688/production/_ext/596309756/fftr.o
 .debug_info    0x0000000000000000      0x697 build/SAMD21_IOT_WG_ICM42688/production/_ext/596309756/fftr.o
 .debug_abbrev  0x0000000000000000      0x202 build/SAMD21_IOT_WG_ICM42688/production/_ext/596309756/fftr.o
 .debug_loc     0x0000000000000000      0x69c build/SAMD21_IOT_WG_ICM42688/production/_ext/596309756/fftr.o
 .debug_aranges
                0x0000000000000000       0x20 build/SAMD21_IOT_WG_ICM42688/production/_ext/596309756/fftr.o
 .debug_ranges  0x0000000000000000      0x1c0 build/SAMD21_IOT_WG_ICM42688/production/_ext/596309756/fftr.o
 .debug_line    0x0000000000000000      0x343 build/SAMD21_IOT_WG_ICM42688/production/_ext/596309756/fftr.o
 .debug_str     0x0000000000000000      0x3d7 build/SAMD21_IOT_WG_ICM42688/production/_ext/596309756/fftr.o
 .comment       0x0000000000000000       0x2c build/SAMD21_IOT_WG_ICM42688/production/_ext/596309756/fftr.o
 .debug_frame   0x0000000000000000       0x4c build/SAMD21_IOT_WG_ICM42688/production/_ext/596309756/fftr.o
 .ARM.attributes
                0x0000000000000000       0x2c build/SAMD21_IOT_WG_ICM42688/production/_ext/596309756/fftr.o
 .text          0x0000000000000000      0x1c4 build/SAMD21_IOT_WG_ICM42688/production/_ext/596309756/fftr_utils.o
 .data          0x0000000000000000        0x0 build/SAMD21_IOT_WG_ICM42688/production/_ext/596309756/fftr_utils.o
 .bss           0x0000000000000000        0x2 build/SAMD21_IOT_WG_ICM42688/production/_ext/596309756/fftr_utils.o
 .debug_info    0x0000000000000000      0x56e build/SAMD21_IOT_WG_ICM42688/production/_ext/596309756/fftr_utils.o
 .debug_abbrev  0x0000000000000000      0x1b1 build/SAMD21_IOT_WG_ICM42688/production/_ext/596309756/fftr_utils.o
 .debug_loc     0x0000000000000000      0x497 build/SAMD21_IOT_WG_ICM42688/production/_ext/596309756/fftr_utils.o
 .debug_aranges
                0x0000000000000000       0x20 build/SAMD21_IOT_WG_ICM42688/production/_ext/596309756/fftr_utils.o
 .debug_line    0x0000000000000000      0x2dc build/SAMD21_IOT_WG_ICM42688/production/_ext/596309756/fftr_utils.o
 .debug_str     0x0000000000000000      0x3ad build/SAMD21_IOT_WG_ICM42688/production/_ext/596309756/fftr_utils.o
 .comment       0x0000000000000000       0x2c build/SAMD21_IOT_WG_ICM42688/production/_ext/596309756/fftr_utils.o
 .debug_frame   0x0000000000000000       0xb4 build/SAMD21_IOT_WG_ICM42688/production/_ext/596309756/fftr_utils.o
 .ARM.attributes
                0x0000000000000000       0x2c build/SAMD21_IOT_WG_ICM42688/production/_ext/596309756/fftr_utils.o
 .data          0x0000000000000000        0x0 build/SAMD21_IOT_WG_ICM42688/production/_ext/596309756/fg_amplitude_global_p2p_low_frequency.o
 .bss           0x0000000000000000        0x0 build/SAMD21_IOT_WG_ICM42688/production/_ext/596309756/fg_amplitude_global_p2p_low_frequency.o
 .data          0x0000000000000000        0x0 build/SAMD21_IOT_WG_ICM42688/production/_ext/596309756/fg_amplitude_peak_to_peak.o
 .bss           0x0000000000000000        0x0 build/SAMD21_IOT_WG_ICM42688/production/_ext/596309756/fg_amplitude_peak_to_peak.o
 .data          0x0000000000000000        0x0 build/SAMD21_IOT_WG_ICM42688/production/_ext/596309756/fg_area_absolute_area_low_frequency.o
 .bss           0x0000000000000000        0x0 build/SAMD21_IOT_WG_ICM42688/production/_ext/596309756/fg_area_absolute_area_low_frequency.o
 .data          0x0000000000000000        0x0 build/SAMD21_IOT_WG_ICM42688/production/_ext/596309756/fg_cross_p2p_difference.o
 .bss           0x0000000000000000        0x0 build/SAMD21_IOT_WG_ICM42688/production/_ext/596309756/fg_cross_p2p_difference.o
 .data          0x0000000000000000        0x0 build/SAMD21_IOT_WG_ICM42688/production/_ext/596309756/fg_sampling_downsample.o
 .bss           0x0000000000000000        0x0 build/SAMD21_IOT_WG_ICM42688/production/_ext/596309756/fg_sampling_downsample.o
 .data          0x0000000000000000        0x0 build/SAMD21_IOT_WG_ICM42688/production/_ext/596309756/fg_stats_abs_mean.o
 .bss           0x0000000000000000        0x0 build/SAMD21_IOT_WG_ICM42688/production/_ext/596309756/fg_stats_abs_mean.o
 .data          0x0000000000000000        0x0 build/SAMD21_IOT_WG_ICM42688/production/_ext/596309756/fg_stats_minimum.o
 .bss           0x0000000000000000        0x0 build/SAMD21_IOT_WG_ICM42688/production/_ext/596309756/fg_stats_minimum.o
 .text          0x0000000000000000       0x90 build/SAMD21_IOT_WG_ICM42688/production/_ext/596309756/fixlog.o
 .data          0x0000000000000000        0x0 build/SAMD21_IOT_WG_ICM42688/production/_ext/596309756/fixlog.o
 .bss           0x0000000000000000        0x0 build/SAMD21_IOT_WG_ICM42688/production/_ext/596309756/fixlog.o
 .rodata        0x0000000000000000      0x6c0 build/SAMD21_IOT_WG_ICM42688/production/_ext/596309756/fixlog.o
 .debug_info    0x0000000000000000      0x2b2 build/SAMD21_IOT_WG_ICM42688/production/_ext/596309756/fixlog.o
 .debug_abbrev  0x0000000000000000      0x1f1 build/SAMD21_IOT_WG_ICM42688/production/_ext/596309756/fixlog.o
 .debug_loc     0x0000000000000000      0x1f9 build/SAMD21_IOT_WG_ICM42688/production/_ext/596309756/fixlog.o
 .debug_aranges
                0x0000000000000000       0x20 build/SAMD21_IOT_WG_ICM42688/production/_ext/596309756/fixlog.o
 .debug_line    0x0000000000000000      0x17e build/SAMD21_IOT_WG_ICM42688/production/_ext/596309756/fixlog.o
 .debug_str     0x0000000000000000      0x2fb build/SAMD21_IOT_WG_ICM42688/production/_ext/596309756/fixlog.o
 .comment       0x0000000000000000       0x2c build/SAMD21_IOT_WG_ICM42688/production/_ext/596309756/fixlog.o
 .debug_frame   0x0000000000000000       0x70 build/SAMD21_IOT_WG_ICM42688/production/_ext/596309756/fixlog.o
 .ARM.attributes
                0x0000000000000000       0x2c build/SAMD21_IOT_WG_ICM42688/production/_ext/596309756/fixlog.o
 .text          0x0000000000000000      0x4b0 build/SAMD21_IOT_WG_ICM42688/production/_ext/596309756/imfcc.o
 .data          0x0000000000000000        0x0 build/SAMD21_IOT_WG_ICM42688/production/_ext/596309756/imfcc.o
 .bss           0x0000000000000000        0x0 build/SAMD21_IOT_WG_ICM42688/production/_ext/596309756/imfcc.o
 .rodata        0x0000000000000000      0x9d4 build/SAMD21_IOT_WG_ICM42688/production/_ext/596309756/imfcc.o
 .debug_info    0x0000000000000000      0x9ce build/SAMD21_IOT_WG_ICM42688/production/_ext/596309756/imfcc.o
 .debug_abbrev  0x0000000000000000      0x28e build/SAMD21_IOT_WG_ICM42688/production/_ext/596309756/imfcc.o
 .debug_loc     0x0000000000000000      0xea8 build/SAMD21_IOT_WG_ICM42688/production/_ext/596309756/imfcc.o
 .debug_aranges
                0x0000000000000000       0x20 build/SAMD21_IOT_WG_ICM42688/production/_ext/596309756/imfcc.o
 .debug_ranges  0x0000000000000000       0x98 build/SAMD21_IOT_WG_ICM42688/production/_ext/596309756/imfcc.o
 .debug_line    0x0000000000000000      0x514 build/SAMD21_IOT_WG_ICM42688/production/_ext/596309756/imfcc.o
 .debug_str     0x0000000000000000      0x47f build/SAMD21_IOT_WG_ICM42688/production/_ext/596309756/imfcc.o
 .comment       0x0000000000000000       0x2c build/SAMD21_IOT_WG_ICM42688/production/_ext/596309756/imfcc.o
 .debug_frame   0x0000000000000000      0x110 build/SAMD21_IOT_WG_ICM42688/production/_ext/596309756/imfcc.o
 .ARM.attributes
                0x0000000000000000       0x2c build/SAMD21_IOT_WG_ICM42688/production/_ext/596309756/imfcc.o
 .data          0x0000000000000000        0x0 build/SAMD21_IOT_WG_ICM42688/production/_ext/596309756/kb_output.o
 .bss           0x0000000000000000        0x0 build/SAMD21_IOT_WG_ICM42688/production/_ext/596309756/kb_output.o
 .text          0x0000000000000000      0x3d4 build/SAMD21_IOT_WG_ICM42688/production/_ext/596309756/kb_post_processing.o
 .data          0x0000000000000000        0x0 build/SAMD21_IOT_WG_ICM42688/production/_ext/596309756/kb_post_processing.o
 .bss           0x0000000000000000        0x0 build/SAMD21_IOT_WG_ICM42688/production/_ext/596309756/kb_post_processing.o
 .debug_info    0x0000000000000000      0xb33 build/SAMD21_IOT_WG_ICM42688/production/_ext/596309756/kb_post_processing.o
 .debug_abbrev  0x0000000000000000      0x29b build/SAMD21_IOT_WG_ICM42688/production/_ext/596309756/kb_post_processing.o
 .debug_loc     0x0000000000000000      0xfe1 build/SAMD21_IOT_WG_ICM42688/production/_ext/596309756/kb_post_processing.o
 .debug_aranges
                0x0000000000000000       0x20 build/SAMD21_IOT_WG_ICM42688/production/_ext/596309756/kb_post_processing.o
 .debug_ranges  0x0000000000000000      0x210 build/SAMD21_IOT_WG_ICM42688/production/_ext/596309756/kb_post_processing.o
 .debug_line    0x0000000000000000      0x5df build/SAMD21_IOT_WG_ICM42688/production/_ext/596309756/kb_post_processing.o
 .debug_str     0x0000000000000000      0x422 build/SAMD21_IOT_WG_ICM42688/production/_ext/596309756/kb_post_processing.o
 .comment       0x0000000000000000       0x2c build/SAMD21_IOT_WG_ICM42688/production/_ext/596309756/kb_post_processing.o
 .debug_frame   0x0000000000000000      0x1ac build/SAMD21_IOT_WG_ICM42688/production/_ext/596309756/kb_post_processing.o
 .ARM.attributes
                0x0000000000000000       0x2c build/SAMD21_IOT_WG_ICM42688/production/_ext/596309756/kb_post_processing.o
 .text          0x0000000000000000      0x1ec build/SAMD21_IOT_WG_ICM42688/production/_ext/596309756/max_min_high_low_freq.o
 .data          0x0000000000000000        0x0 build/SAMD21_IOT_WG_ICM42688/production/_ext/596309756/max_min_high_low_freq.o
 .bss           0x0000000000000000        0x0 build/SAMD21_IOT_WG_ICM42688/production/_ext/596309756/max_min_high_low_freq.o
 .debug_info    0x0000000000000000      0x324 build/SAMD21_IOT_WG_ICM42688/production/_ext/596309756/max_min_high_low_freq.o
 .debug_abbrev  0x0000000000000000      0x144 build/SAMD21_IOT_WG_ICM42688/production/_ext/596309756/max_min_high_low_freq.o
 .debug_loc     0x0000000000000000      0x487 build/SAMD21_IOT_WG_ICM42688/production/_ext/596309756/max_min_high_low_freq.o
 .debug_aranges
                0x0000000000000000       0x20 build/SAMD21_IOT_WG_ICM42688/production/_ext/596309756/max_min_high_low_freq.o
 .debug_ranges  0x0000000000000000       0x18 build/SAMD21_IOT_WG_ICM42688/production/_ext/596309756/max_min_high_low_freq.o
 .debug_line    0x0000000000000000      0x2a6 build/SAMD21_IOT_WG_ICM42688/production/_ext/596309756/max_min_high_low_freq.o
 .debug_str     0x0000000000000000      0x369 build/SAMD21_IOT_WG_ICM42688/production/_ext/596309756/max_min_high_low_freq.o
 .comment       0x0000000000000000       0x2c build/SAMD21_IOT_WG_ICM42688/production/_ext/596309756/max_min_high_low_freq.o
 .debug_frame   0x0000000000000000       0x3c build/SAMD21_IOT_WG_ICM42688/production/_ext/596309756/max_min_high_low_freq.o
 .ARM.attributes
                0x0000000000000000       0x2c build/SAMD21_IOT_WG_ICM42688/production/_ext/596309756/max_min_high_low_freq.o
 .data          0x0000000000000000        0x0 build/SAMD21_IOT_WG_ICM42688/production/_ext/596309756/ma_symmetric.o
 .bss           0x0000000000000000        0x0 build/SAMD21_IOT_WG_ICM42688/production/_ext/596309756/ma_symmetric.o
 .data          0x0000000000000000        0x0 build/SAMD21_IOT_WG_ICM42688/production/_ext/596309756/mean.o
 .bss           0x0000000000000000        0x0 build/SAMD21_IOT_WG_ICM42688/production/_ext/596309756/mean.o
 .data          0x0000000000000000        0x0 build/SAMD21_IOT_WG_ICM42688/production/_ext/596309756/pme.o
 .text          0x0000000000000000        0x0 build/SAMD21_IOT_WG_ICM42688/production/_ext/596309756/pme_trained_neurons.o
 .bss           0x0000000000000000        0x0 build/SAMD21_IOT_WG_ICM42688/production/_ext/596309756/pme_trained_neurons.o
 .rodata        0x0000000000000000        0x4 build/SAMD21_IOT_WG_ICM42688/production/_ext/596309756/pme_trained_neurons.o
 .text          0x0000000000000000      0x154 build/SAMD21_IOT_WG_ICM42688/production/_ext/596309756/ratio_diff_impl.o
 .data          0x0000000000000000        0x0 build/SAMD21_IOT_WG_ICM42688/production/_ext/596309756/ratio_diff_impl.o
 .bss           0x0000000000000000        0x0 build/SAMD21_IOT_WG_ICM42688/production/_ext/596309756/ratio_diff_impl.o
 .debug_info    0x0000000000000000      0x265 build/SAMD21_IOT_WG_ICM42688/production/_ext/596309756/ratio_diff_impl.o
 .debug_abbrev  0x0000000000000000      0x101 build/SAMD21_IOT_WG_ICM42688/production/_ext/596309756/ratio_diff_impl.o
 .debug_loc     0x0000000000000000      0x414 build/SAMD21_IOT_WG_ICM42688/production/_ext/596309756/ratio_diff_impl.o
 .debug_aranges
                0x0000000000000000       0x20 build/SAMD21_IOT_WG_ICM42688/production/_ext/596309756/ratio_diff_impl.o
 .debug_line    0x0000000000000000      0x1d8 build/SAMD21_IOT_WG_ICM42688/production/_ext/596309756/ratio_diff_impl.o
 .debug_str     0x0000000000000000      0x32a build/SAMD21_IOT_WG_ICM42688/production/_ext/596309756/ratio_diff_impl.o
 .comment       0x0000000000000000       0x2c build/SAMD21_IOT_WG_ICM42688/production/_ext/596309756/ratio_diff_impl.o
 .debug_frame   0x0000000000000000       0x3c build/SAMD21_IOT_WG_ICM42688/production/_ext/596309756/ratio_diff_impl.o
 .ARM.attributes
                0x0000000000000000       0x2c build/SAMD21_IOT_WG_ICM42688/production/_ext/596309756/ratio_diff_impl.o
 .data          0x0000000000000000        0x0 build/SAMD21_IOT_WG_ICM42688/production/_ext/596309756/rb.o
 .bss           0x0000000000000000        0x0 build/SAMD21_IOT_WG_ICM42688/production/_ext/596309756/rb.o
 .data          0x0000000000000000        0x0 build/SAMD21_IOT_WG_ICM42688/production/_ext/596309756/save_sensor_data.o
 .bss           0x0000000000000000        0x0 build/SAMD21_IOT_WG_ICM42688/production/_ext/596309756/save_sensor_data.o
 .data          0x0000000000000000        0x0 build/SAMD21_IOT_WG_ICM42688/production/_ext/596309756/sf_downsample_by_averaging.o
 .bss           0x0000000000000000        0x0 build/SAMD21_IOT_WG_ICM42688/production/_ext/596309756/sf_downsample_by_averaging.o
 .text          0x0000000000000000       0x20 build/SAMD21_IOT_WG_ICM42688/production/_ext/596309756/sf_downsample_by_decimation.o
 .data          0x0000000000000000        0x0 build/SAMD21_IOT_WG_ICM42688/production/_ext/596309756/sf_downsample_by_decimation.o
 .bss           0x0000000000000000        0x0 build/SAMD21_IOT_WG_ICM42688/production/_ext/596309756/sf_downsample_by_decimation.o
 .debug_info    0x0000000000000000      0x210 build/SAMD21_IOT_WG_ICM42688/production/_ext/596309756/sf_downsample_by_decimation.o
 .debug_abbrev  0x0000000000000000       0xb7 build/SAMD21_IOT_WG_ICM42688/production/_ext/596309756/sf_downsample_by_decimation.o
 .debug_loc     0x0000000000000000       0xb2 build/SAMD21_IOT_WG_ICM42688/production/_ext/596309756/sf_downsample_by_decimation.o
 .debug_aranges
                0x0000000000000000       0x20 build/SAMD21_IOT_WG_ICM42688/production/_ext/596309756/sf_downsample_by_decimation.o
 .debug_line    0x0000000000000000       0xff build/SAMD21_IOT_WG_ICM42688/production/_ext/596309756/sf_downsample_by_decimation.o
 .debug_str     0x0000000000000000      0x343 build/SAMD21_IOT_WG_ICM42688/production/_ext/596309756/sf_downsample_by_decimation.o
 .comment       0x0000000000000000       0x2c build/SAMD21_IOT_WG_ICM42688/production/_ext/596309756/sf_downsample_by_decimation.o
 .debug_frame   0x0000000000000000       0x20 build/SAMD21_IOT_WG_ICM42688/production/_ext/596309756/sf_downsample_by_decimation.o
 .ARM.attributes
                0x0000000000000000       0x2c build/SAMD21_IOT_WG_ICM42688/production/_ext/596309756/sf_downsample_by_decimation.o
 .data          0x0000000000000000        0x0 build/SAMD21_IOT_WG_ICM42688/production/_ext/596309756/sg_windowing.o
 .bss           0x0000000000000000        0x0 build/SAMD21_IOT_WG_ICM42688/production/_ext/596309756/sg_windowing.o
 .data          0x0000000000000000        0x0 build/SAMD21_IOT_WG_ICM42688/production/_ext/596309756/sortarray.o
 .bss           0x0000000000000000        0x0 build/SAMD21_IOT_WG_ICM42688/production/_ext/596309756/sortarray.o
 .data          0x0000000000000000        0x0 build/SAMD21_IOT_WG_ICM42688/production/_ext/596309756/sorted_copy.o
 .bss           0x0000000000000000        0x0 build/SAMD21_IOT_WG_ICM42688/production/_ext/596309756/sorted_copy.o
 .text          0x0000000000000000       0xd0 build/SAMD21_IOT_WG_ICM42688/production/_ext/596309756/stats_percentile_presorted.o
 .data          0x0000000000000000        0x0 build/SAMD21_IOT_WG_ICM42688/production/_ext/596309756/stats_percentile_presorted.o
 .bss           0x0000000000000000        0x0 build/SAMD21_IOT_WG_ICM42688/production/_ext/596309756/stats_percentile_presorted.o
 .debug_info    0x0000000000000000      0x1b3 build/SAMD21_IOT_WG_ICM42688/production/_ext/596309756/stats_percentile_presorted.o
 .debug_abbrev  0x0000000000000000       0xf3 build/SAMD21_IOT_WG_ICM42688/production/_ext/596309756/stats_percentile_presorted.o
 .debug_loc     0x0000000000000000      0x217 build/SAMD21_IOT_WG_ICM42688/production/_ext/596309756/stats_percentile_presorted.o
 .debug_aranges
                0x0000000000000000       0x20 build/SAMD21_IOT_WG_ICM42688/production/_ext/596309756/stats_percentile_presorted.o
 .debug_line    0x0000000000000000      0x1b3 build/SAMD21_IOT_WG_ICM42688/production/_ext/596309756/stats_percentile_presorted.o
 .debug_str     0x0000000000000000      0x2f6 build/SAMD21_IOT_WG_ICM42688/production/_ext/596309756/stats_percentile_presorted.o
 .comment       0x0000000000000000       0x2c build/SAMD21_IOT_WG_ICM42688/production/_ext/596309756/stats_percentile_presorted.o
 .debug_frame   0x0000000000000000       0x38 build/SAMD21_IOT_WG_ICM42688/production/_ext/596309756/stats_percentile_presorted.o
 .ARM.attributes
                0x0000000000000000       0x2c build/SAMD21_IOT_WG_ICM42688/production/_ext/596309756/stats_percentile_presorted.o
 .text          0x0000000000000000       0x50 build/SAMD21_IOT_WG_ICM42688/production/_ext/596309756/stat_mean.o
 .data          0x0000000000000000        0x0 build/SAMD21_IOT_WG_ICM42688/production/_ext/596309756/stat_mean.o
 .bss           0x0000000000000000        0x0 build/SAMD21_IOT_WG_ICM42688/production/_ext/596309756/stat_mean.o
 .debug_info    0x0000000000000000      0x1dd build/SAMD21_IOT_WG_ICM42688/production/_ext/596309756/stat_mean.o
 .debug_abbrev  0x0000000000000000       0xdf build/SAMD21_IOT_WG_ICM42688/production/_ext/596309756/stat_mean.o
 .debug_loc     0x0000000000000000      0x168 build/SAMD21_IOT_WG_ICM42688/production/_ext/596309756/stat_mean.o
 .debug_aranges
                0x0000000000000000       0x20 build/SAMD21_IOT_WG_ICM42688/production/_ext/596309756/stat_mean.o
 .debug_line    0x0000000000000000       0xf3 build/SAMD21_IOT_WG_ICM42688/production/_ext/596309756/stat_mean.o
 .debug_str     0x0000000000000000      0x2ec build/SAMD21_IOT_WG_ICM42688/production/_ext/596309756/stat_mean.o
 .comment       0x0000000000000000       0x2c build/SAMD21_IOT_WG_ICM42688/production/_ext/596309756/stat_mean.o
 .debug_frame   0x0000000000000000       0x38 build/SAMD21_IOT_WG_ICM42688/production/_ext/596309756/stat_mean.o
 .ARM.attributes
                0x0000000000000000       0x2c build/SAMD21_IOT_WG_ICM42688/production/_ext/596309756/stat_mean.o
 .text          0x0000000000000000      0x220 build/SAMD21_IOT_WG_ICM42688/production/_ext/596309756/stat_moment.o
 .data          0x0000000000000000        0x0 build/SAMD21_IOT_WG_ICM42688/production/_ext/596309756/stat_moment.o
 .bss           0x0000000000000000        0x0 build/SAMD21_IOT_WG_ICM42688/production/_ext/596309756/stat_moment.o
 .debug_info    0x0000000000000000      0x514 build/SAMD21_IOT_WG_ICM42688/production/_ext/596309756/stat_moment.o
 .debug_abbrev  0x0000000000000000      0x205 build/SAMD21_IOT_WG_ICM42688/production/_ext/596309756/stat_moment.o
 .debug_loc     0x0000000000000000      0xaba build/SAMD21_IOT_WG_ICM42688/production/_ext/596309756/stat_moment.o
 .debug_aranges
                0x0000000000000000       0x20 build/SAMD21_IOT_WG_ICM42688/production/_ext/596309756/stat_moment.o
 .debug_ranges  0x0000000000000000       0x18 build/SAMD21_IOT_WG_ICM42688/production/_ext/596309756/stat_moment.o
 .debug_line    0x0000000000000000      0x2ef build/SAMD21_IOT_WG_ICM42688/production/_ext/596309756/stat_moment.o
 .debug_str     0x0000000000000000      0x320 build/SAMD21_IOT_WG_ICM42688/production/_ext/596309756/stat_moment.o
 .comment       0x0000000000000000       0x2c build/SAMD21_IOT_WG_ICM42688/production/_ext/596309756/stat_moment.o
 .debug_frame   0x0000000000000000       0x98 build/SAMD21_IOT_WG_ICM42688/production/_ext/596309756/stat_moment.o
 .ARM.attributes
                0x0000000000000000       0x2c build/SAMD21_IOT_WG_ICM42688/production/_ext/596309756/stat_moment.o
 .text          0x0000000000000000      0x170 build/SAMD21_IOT_WG_ICM42688/production/_ext/596309756/std.o
 .data          0x0000000000000000        0x0 build/SAMD21_IOT_WG_ICM42688/production/_ext/596309756/std.o
 .bss           0x0000000000000000        0x0 build/SAMD21_IOT_WG_ICM42688/production/_ext/596309756/std.o
 .debug_info    0x0000000000000000      0x46d build/SAMD21_IOT_WG_ICM42688/production/_ext/596309756/std.o
 .debug_abbrev  0x0000000000000000      0x154 build/SAMD21_IOT_WG_ICM42688/production/_ext/596309756/std.o
 .debug_loc     0x0000000000000000      0x56c build/SAMD21_IOT_WG_ICM42688/production/_ext/596309756/std.o
 .debug_aranges
                0x0000000000000000       0x20 build/SAMD21_IOT_WG_ICM42688/production/_ext/596309756/std.o
 .debug_line    0x0000000000000000      0x215 build/SAMD21_IOT_WG_ICM42688/production/_ext/596309756/std.o
 .debug_str     0x0000000000000000      0x329 build/SAMD21_IOT_WG_ICM42688/production/_ext/596309756/std.o
 .comment       0x0000000000000000       0x2c build/SAMD21_IOT_WG_ICM42688/production/_ext/596309756/std.o
 .debug_frame   0x0000000000000000       0xa4 build/SAMD21_IOT_WG_ICM42688/production/_ext/596309756/std.o
 .ARM.attributes
                0x0000000000000000       0x2c build/SAMD21_IOT_WG_ICM42688/production/_ext/596309756/std.o
 .text          0x0000000000000000       0x3c build/SAMD21_IOT_WG_ICM42688/production/_ext/596309756/st_absolute_average.o
 .data          0x0000000000000000        0x0 build/SAMD21_IOT_WG_ICM42688/production/_ext/596309756/st_absolute_average.o
 .bss           0x0000000000000000        0x0 build/SAMD21_IOT_WG_ICM42688/production/_ext/596309756/st_absolute_average.o
 .debug_info    0x0000000000000000      0x18c build/SAMD21_IOT_WG_ICM42688/production/_ext/596309756/st_absolute_average.o
 .debug_abbrev  0x0000000000000000       0xcb build/SAMD21_IOT_WG_ICM42688/production/_ext/596309756/st_absolute_average.o
 .debug_loc     0x0000000000000000      0x167 build/SAMD21_IOT_WG_ICM42688/production/_ext/596309756/st_absolute_average.o
 .debug_aranges
                0x0000000000000000       0x20 build/SAMD21_IOT_WG_ICM42688/production/_ext/596309756/st_absolute_average.o
 .debug_line    0x0000000000000000      0x101 build/SAMD21_IOT_WG_ICM42688/production/_ext/596309756/st_absolute_average.o
 .debug_str     0x0000000000000000      0x2ed build/SAMD21_IOT_WG_ICM42688/production/_ext/596309756/st_absolute_average.o
 .comment       0x0000000000000000       0x2c build/SAMD21_IOT_WG_ICM42688/production/_ext/596309756/st_absolute_average.o
 .debug_frame   0x0000000000000000       0x30 build/SAMD21_IOT_WG_ICM42688/production/_ext/596309756/st_absolute_average.o
 .ARM.attributes
                0x0000000000000000       0x2c build/SAMD21_IOT_WG_ICM42688/production/_ext/596309756/st_absolute_average.o
 .text          0x0000000000000000       0x38 build/SAMD21_IOT_WG_ICM42688/production/_ext/596309756/st_average.o
 .data          0x0000000000000000        0x0 build/SAMD21_IOT_WG_ICM42688/production/_ext/596309756/st_average.o
 .bss           0x0000000000000000        0x0 build/SAMD21_IOT_WG_ICM42688/production/_ext/596309756/st_average.o
 .debug_info    0x0000000000000000      0x18c build/SAMD21_IOT_WG_ICM42688/production/_ext/596309756/st_average.o
 .debug_abbrev  0x0000000000000000       0xcb build/SAMD21_IOT_WG_ICM42688/production/_ext/596309756/st_average.o
 .debug_loc     0x0000000000000000      0x167 build/SAMD21_IOT_WG_ICM42688/production/_ext/596309756/st_average.o
 .debug_aranges
                0x0000000000000000       0x20 build/SAMD21_IOT_WG_ICM42688/production/_ext/596309756/st_average.o
 .debug_line    0x0000000000000000       0xf5 build/SAMD21_IOT_WG_ICM42688/production/_ext/596309756/st_average.o
 .debug_str     0x0000000000000000      0x2e0 build/SAMD21_IOT_WG_ICM42688/production/_ext/596309756/st_average.o
 .comment       0x0000000000000000       0x2c build/SAMD21_IOT_WG_ICM42688/production/_ext/596309756/st_average.o
 .debug_frame   0x0000000000000000       0x30 build/SAMD21_IOT_WG_ICM42688/production/_ext/596309756/st_average.o
 .ARM.attributes
                0x0000000000000000       0x2c build/SAMD21_IOT_WG_ICM42688/production/_ext/596309756/st_average.o
 .text          0x0000000000000000       0x98 build/SAMD21_IOT_WG_ICM42688/production/_ext/596309756/st_high_pass_filter.o
 .data          0x0000000000000000        0x0 build/SAMD21_IOT_WG_ICM42688/production/_ext/596309756/st_high_pass_filter.o
 .bss           0x0000000000000000        0x0 build/SAMD21_IOT_WG_ICM42688/production/_ext/596309756/st_high_pass_filter.o
 .debug_info    0x0000000000000000      0x2a3 build/SAMD21_IOT_WG_ICM42688/production/_ext/596309756/st_high_pass_filter.o
 .debug_abbrev  0x0000000000000000       0xed build/SAMD21_IOT_WG_ICM42688/production/_ext/596309756/st_high_pass_filter.o
 .debug_loc     0x0000000000000000      0x1f4 build/SAMD21_IOT_WG_ICM42688/production/_ext/596309756/st_high_pass_filter.o
 .debug_aranges
                0x0000000000000000       0x20 build/SAMD21_IOT_WG_ICM42688/production/_ext/596309756/st_high_pass_filter.o
 .debug_line    0x0000000000000000      0x14b build/SAMD21_IOT_WG_ICM42688/production/_ext/596309756/st_high_pass_filter.o
 .debug_str     0x0000000000000000      0x33d build/SAMD21_IOT_WG_ICM42688/production/_ext/596309756/st_high_pass_filter.o
 .comment       0x0000000000000000       0x2c build/SAMD21_IOT_WG_ICM42688/production/_ext/596309756/st_high_pass_filter.o
 .debug_frame   0x0000000000000000       0x38 build/SAMD21_IOT_WG_ICM42688/production/_ext/596309756/st_high_pass_filter.o
 .ARM.attributes
                0x0000000000000000       0x2c build/SAMD21_IOT_WG_ICM42688/production/_ext/596309756/st_high_pass_filter.o
 .text          0x0000000000000000       0xf4 build/SAMD21_IOT_WG_ICM42688/production/_ext/596309756/st_moving_average.o
 .data          0x0000000000000000        0x0 build/SAMD21_IOT_WG_ICM42688/production/_ext/596309756/st_moving_average.o
 .bss           0x0000000000000000        0x0 build/SAMD21_IOT_WG_ICM42688/production/_ext/596309756/st_moving_average.o
 .debug_info    0x0000000000000000      0x4a7 build/SAMD21_IOT_WG_ICM42688/production/_ext/596309756/st_moving_average.o
 .debug_abbrev  0x0000000000000000      0x1cf build/SAMD21_IOT_WG_ICM42688/production/_ext/596309756/st_moving_average.o
 .debug_loc     0x0000000000000000      0x499 build/SAMD21_IOT_WG_ICM42688/production/_ext/596309756/st_moving_average.o
 .debug_aranges
                0x0000000000000000       0x20 build/SAMD21_IOT_WG_ICM42688/production/_ext/596309756/st_moving_average.o
 .debug_ranges  0x0000000000000000       0x78 build/SAMD21_IOT_WG_ICM42688/production/_ext/596309756/st_moving_average.o
 .debug_line    0x0000000000000000      0x1d2 build/SAMD21_IOT_WG_ICM42688/production/_ext/596309756/st_moving_average.o
 .debug_str     0x0000000000000000      0x385 build/SAMD21_IOT_WG_ICM42688/production/_ext/596309756/st_moving_average.o
 .comment       0x0000000000000000       0x2c build/SAMD21_IOT_WG_ICM42688/production/_ext/596309756/st_moving_average.o
 .debug_frame   0x0000000000000000       0x74 build/SAMD21_IOT_WG_ICM42688/production/_ext/596309756/st_moving_average.o
 .ARM.attributes
                0x0000000000000000       0x2c build/SAMD21_IOT_WG_ICM42688/production/_ext/596309756/st_moving_average.o
 .text          0x0000000000000000       0x4c build/SAMD21_IOT_WG_ICM42688/production/_ext/596309756/sum.o
 .data          0x0000000000000000        0x0 build/SAMD21_IOT_WG_ICM42688/production/_ext/596309756/sum.o
 .bss           0x0000000000000000        0x0 build/SAMD21_IOT_WG_ICM42688/production/_ext/596309756/sum.o
 .debug_info    0x0000000000000000      0x2a1 build/SAMD21_IOT_WG_ICM42688/production/_ext/596309756/sum.o
 .debug_abbrev  0x0000000000000000      0x12a build/SAMD21_IOT_WG_ICM42688/production/_ext/596309756/sum.o
 .debug_loc     0x0000000000000000      0x2f4 build/SAMD21_IOT_WG_ICM42688/production/_ext/596309756/sum.o
 .debug_aranges
                0x0000000000000000       0x20 build/SAMD21_IOT_WG_ICM42688/production/_ext/596309756/sum.o
 .debug_ranges  0x0000000000000000       0x20 build/SAMD21_IOT_WG_ICM42688/production/_ext/596309756/sum.o
 .debug_line    0x0000000000000000      0x129 build/SAMD21_IOT_WG_ICM42688/production/_ext/596309756/sum.o
 .debug_str     0x0000000000000000      0x2e6 build/SAMD21_IOT_WG_ICM42688/production/_ext/596309756/sum.o
 .comment       0x0000000000000000       0x2c build/SAMD21_IOT_WG_ICM42688/production/_ext/596309756/sum.o
 .debug_frame   0x0000000000000000       0x48 build/SAMD21_IOT_WG_ICM42688/production/_ext/596309756/sum.o
 .ARM.attributes
                0x0000000000000000       0x2c build/SAMD21_IOT_WG_ICM42688/production/_ext/596309756/sum.o
 .data          0x0000000000000000        0x0 build/SAMD21_IOT_WG_ICM42688/production/_ext/596309756/tr_min_max_scale.o
 .bss           0x0000000000000000        0x0 build/SAMD21_IOT_WG_ICM42688/production/_ext/596309756/tr_min_max_scale.o
 .text          0x0000000000000000      0x37c build/SAMD21_IOT_WG_ICM42688/production/_ext/596309756/utils_array.o
 .data          0x0000000000000000        0x0 build/SAMD21_IOT_WG_ICM42688/production/_ext/596309756/utils_array.o
 .bss           0x0000000000000000      0x404 build/SAMD21_IOT_WG_ICM42688/production/_ext/596309756/utils_array.o
 .debug_info    0x0000000000000000      0x57a build/SAMD21_IOT_WG_ICM42688/production/_ext/596309756/utils_array.o
 .debug_abbrev  0x0000000000000000      0x201 build/SAMD21_IOT_WG_ICM42688/production/_ext/596309756/utils_array.o
 .debug_loc     0x0000000000000000      0x856 build/SAMD21_IOT_WG_ICM42688/production/_ext/596309756/utils_array.o
 .debug_aranges
                0x0000000000000000       0x20 build/SAMD21_IOT_WG_ICM42688/production/_ext/596309756/utils_array.o
 .debug_line    0x0000000000000000      0x3b9 build/SAMD21_IOT_WG_ICM42688/production/_ext/596309756/utils_array.o
 .debug_str     0x0000000000000000      0x37d build/SAMD21_IOT_WG_ICM42688/production/_ext/596309756/utils_array.o
 .comment       0x0000000000000000       0x2c build/SAMD21_IOT_WG_ICM42688/production/_ext/596309756/utils_array.o
 .debug_frame   0x0000000000000000       0xe8 build/SAMD21_IOT_WG_ICM42688/production/_ext/596309756/utils_array.o
 .ARM.attributes
                0x0000000000000000       0x2c build/SAMD21_IOT_WG_ICM42688/production/_ext/596309756/utils_array.o
 .data          0x0000000000000000        0x0 build/SAMD21_IOT_WG_ICM42688/production/_ext/596309756/utils_array_max_uint8.o
 .bss           0x0000000000000000        0x0 build/SAMD21_IOT_WG_ICM42688/production/_ext/596309756/utils_array_max_uint8.o
 .data          0x0000000000000000        0x0 build/SAMD21_IOT_WG_ICM42688/production/_ext/596309756/utils_bitwise_abs_val.o
 .bss           0x0000000000000000        0x0 build/SAMD21_IOT_WG_ICM42688/production/_ext/596309756/utils_bitwise_abs_val.o
 .text          0x0000000000000000       0x24 build/SAMD21_IOT_WG_ICM42688/production/_ext/596309756/utils_buffer_absmean.o
 .data          0x0000000000000000        0x0 build/SAMD21_IOT_WG_ICM42688/production/_ext/596309756/utils_buffer_absmean.o
 .bss           0x0000000000000000        0x0 build/SAMD21_IOT_WG_ICM42688/production/_ext/596309756/utils_buffer_absmean.o
 .debug_info    0x0000000000000000      0x1f1 build/SAMD21_IOT_WG_ICM42688/production/_ext/596309756/utils_buffer_absmean.o
 .debug_abbrev  0x0000000000000000       0xce build/SAMD21_IOT_WG_ICM42688/production/_ext/596309756/utils_buffer_absmean.o
 .debug_loc     0x0000000000000000       0xcd build/SAMD21_IOT_WG_ICM42688/production/_ext/596309756/utils_buffer_absmean.o
 .debug_aranges
                0x0000000000000000       0x20 build/SAMD21_IOT_WG_ICM42688/production/_ext/596309756/utils_buffer_absmean.o
 .debug_line    0x0000000000000000       0xed build/SAMD21_IOT_WG_ICM42688/production/_ext/596309756/utils_buffer_absmean.o
 .debug_str     0x0000000000000000      0x31f build/SAMD21_IOT_WG_ICM42688/production/_ext/596309756/utils_buffer_absmean.o
 .comment       0x0000000000000000       0x2c build/SAMD21_IOT_WG_ICM42688/production/_ext/596309756/utils_buffer_absmean.o
 .debug_frame   0x0000000000000000       0x2c build/SAMD21_IOT_WG_ICM42688/production/_ext/596309756/utils_buffer_absmean.o
 .ARM.attributes
                0x0000000000000000       0x2c build/SAMD21_IOT_WG_ICM42688/production/_ext/596309756/utils_buffer_absmean.o
 .data          0x0000000000000000        0x0 build/SAMD21_IOT_WG_ICM42688/production/_ext/596309756/utils_buffer_abssum.o
 .bss           0x0000000000000000        0x0 build/SAMD21_IOT_WG_ICM42688/production/_ext/596309756/utils_buffer_abssum.o
 .text          0x0000000000000000       0x10 build/SAMD21_IOT_WG_ICM42688/production/_ext/596309756/utils_buffer_abs_max.o
 .data          0x0000000000000000        0x0 build/SAMD21_IOT_WG_ICM42688/production/_ext/596309756/utils_buffer_abs_max.o
 .bss           0x0000000000000000        0x0 build/SAMD21_IOT_WG_ICM42688/production/_ext/596309756/utils_buffer_abs_max.o
 .debug_info    0x0000000000000000      0x1e7 build/SAMD21_IOT_WG_ICM42688/production/_ext/596309756/utils_buffer_abs_max.o
 .debug_abbrev  0x0000000000000000       0xce build/SAMD21_IOT_WG_ICM42688/production/_ext/596309756/utils_buffer_abs_max.o
 .debug_loc     0x0000000000000000       0xc0 build/SAMD21_IOT_WG_ICM42688/production/_ext/596309756/utils_buffer_abs_max.o
 .debug_aranges
                0x0000000000000000       0x20 build/SAMD21_IOT_WG_ICM42688/production/_ext/596309756/utils_buffer_abs_max.o
 .debug_line    0x0000000000000000       0xd4 build/SAMD21_IOT_WG_ICM42688/production/_ext/596309756/utils_buffer_abs_max.o
 .debug_str     0x0000000000000000      0x308 build/SAMD21_IOT_WG_ICM42688/production/_ext/596309756/utils_buffer_abs_max.o
 .comment       0x0000000000000000       0x2c build/SAMD21_IOT_WG_ICM42688/production/_ext/596309756/utils_buffer_abs_max.o
 .debug_frame   0x0000000000000000       0x2c build/SAMD21_IOT_WG_ICM42688/production/_ext/596309756/utils_buffer_abs_max.o
 .ARM.attributes
                0x0000000000000000       0x2c build/SAMD21_IOT_WG_ICM42688/production/_ext/596309756/utils_buffer_abs_max.o
 .text          0x0000000000000000       0x3c build/SAMD21_IOT_WG_ICM42688/production/_ext/596309756/utils_buffer_argmax.o
 .data          0x0000000000000000        0x0 build/SAMD21_IOT_WG_ICM42688/production/_ext/596309756/utils_buffer_argmax.o
 .bss           0x0000000000000000        0x0 build/SAMD21_IOT_WG_ICM42688/production/_ext/596309756/utils_buffer_argmax.o
 .debug_info    0x0000000000000000      0x1f6 build/SAMD21_IOT_WG_ICM42688/production/_ext/596309756/utils_buffer_argmax.o
 .debug_abbrev  0x0000000000000000       0xdc build/SAMD21_IOT_WG_ICM42688/production/_ext/596309756/utils_buffer_argmax.o
 .debug_loc     0x0000000000000000      0x1c5 build/SAMD21_IOT_WG_ICM42688/production/_ext/596309756/utils_buffer_argmax.o
 .debug_aranges
                0x0000000000000000       0x20 build/SAMD21_IOT_WG_ICM42688/production/_ext/596309756/utils_buffer_argmax.o
 .debug_line    0x0000000000000000      0x107 build/SAMD21_IOT_WG_ICM42688/production/_ext/596309756/utils_buffer_argmax.o
 .debug_str     0x0000000000000000      0x30d build/SAMD21_IOT_WG_ICM42688/production/_ext/596309756/utils_buffer_argmax.o
 .comment       0x0000000000000000       0x2c build/SAMD21_IOT_WG_ICM42688/production/_ext/596309756/utils_buffer_argmax.o
 .debug_frame   0x0000000000000000       0x30 build/SAMD21_IOT_WG_ICM42688/production/_ext/596309756/utils_buffer_argmax.o
 .ARM.attributes
                0x0000000000000000       0x2c build/SAMD21_IOT_WG_ICM42688/production/_ext/596309756/utils_buffer_argmax.o
 .text          0x0000000000000000       0x90 build/SAMD21_IOT_WG_ICM42688/production/_ext/596309756/utils_buffer_autoscale.o
 .data          0x0000000000000000        0x0 build/SAMD21_IOT_WG_ICM42688/production/_ext/596309756/utils_buffer_autoscale.o
 .bss           0x0000000000000000        0x0 build/SAMD21_IOT_WG_ICM42688/production/_ext/596309756/utils_buffer_autoscale.o
 .debug_info    0x0000000000000000      0x237 build/SAMD21_IOT_WG_ICM42688/production/_ext/596309756/utils_buffer_autoscale.o
 .debug_abbrev  0x0000000000000000       0xf4 build/SAMD21_IOT_WG_ICM42688/production/_ext/596309756/utils_buffer_autoscale.o
 .debug_loc     0x0000000000000000      0x310 build/SAMD21_IOT_WG_ICM42688/production/_ext/596309756/utils_buffer_autoscale.o
 .debug_aranges
                0x0000000000000000       0x20 build/SAMD21_IOT_WG_ICM42688/production/_ext/596309756/utils_buffer_autoscale.o
 .debug_line    0x0000000000000000      0x14b build/SAMD21_IOT_WG_ICM42688/production/_ext/596309756/utils_buffer_autoscale.o
 .debug_str     0x0000000000000000      0x322 build/SAMD21_IOT_WG_ICM42688/production/_ext/596309756/utils_buffer_autoscale.o
 .comment       0x0000000000000000       0x2c build/SAMD21_IOT_WG_ICM42688/production/_ext/596309756/utils_buffer_autoscale.o
 .debug_frame   0x0000000000000000       0x34 build/SAMD21_IOT_WG_ICM42688/production/_ext/596309756/utils_buffer_autoscale.o
 .ARM.attributes
                0x0000000000000000       0x2c build/SAMD21_IOT_WG_ICM42688/production/_ext/596309756/utils_buffer_autoscale.o
 .data          0x0000000000000000        0x0 build/SAMD21_IOT_WG_ICM42688/production/_ext/596309756/utils_buffer_cumsum.o
 .bss           0x0000000000000000        0x0 build/SAMD21_IOT_WG_ICM42688/production/_ext/596309756/utils_buffer_cumsum.o
 .text          0x0000000000000000       0x7c build/SAMD21_IOT_WG_ICM42688/production/_ext/596309756/utils_buffer_max.o
 .data          0x0000000000000000        0x0 build/SAMD21_IOT_WG_ICM42688/production/_ext/596309756/utils_buffer_max.o
 .bss           0x0000000000000000        0x0 build/SAMD21_IOT_WG_ICM42688/production/_ext/596309756/utils_buffer_max.o
 .debug_info    0x0000000000000000      0x330 build/SAMD21_IOT_WG_ICM42688/production/_ext/596309756/utils_buffer_max.o
 .debug_abbrev  0x0000000000000000      0x144 build/SAMD21_IOT_WG_ICM42688/production/_ext/596309756/utils_buffer_max.o
 .debug_loc     0x0000000000000000      0x360 build/SAMD21_IOT_WG_ICM42688/production/_ext/596309756/utils_buffer_max.o
 .debug_aranges
                0x0000000000000000       0x20 build/SAMD21_IOT_WG_ICM42688/production/_ext/596309756/utils_buffer_max.o
 .debug_ranges  0x0000000000000000       0x18 build/SAMD21_IOT_WG_ICM42688/production/_ext/596309756/utils_buffer_max.o
 .debug_line    0x0000000000000000      0x185 build/SAMD21_IOT_WG_ICM42688/production/_ext/596309756/utils_buffer_max.o
 .debug_str     0x0000000000000000      0x31e build/SAMD21_IOT_WG_ICM42688/production/_ext/596309756/utils_buffer_max.o
 .comment       0x0000000000000000       0x2c build/SAMD21_IOT_WG_ICM42688/production/_ext/596309756/utils_buffer_max.o
 .debug_frame   0x0000000000000000       0x50 build/SAMD21_IOT_WG_ICM42688/production/_ext/596309756/utils_buffer_max.o
 .ARM.attributes
                0x0000000000000000       0x2c build/SAMD21_IOT_WG_ICM42688/production/_ext/596309756/utils_buffer_max.o
 .text          0x0000000000000000       0x24 build/SAMD21_IOT_WG_ICM42688/production/_ext/596309756/utils_buffer_mean.o
 .data          0x0000000000000000        0x0 build/SAMD21_IOT_WG_ICM42688/production/_ext/596309756/utils_buffer_mean.o
 .bss           0x0000000000000000        0x0 build/SAMD21_IOT_WG_ICM42688/production/_ext/596309756/utils_buffer_mean.o
 .debug_info    0x0000000000000000      0x1f1 build/SAMD21_IOT_WG_ICM42688/production/_ext/596309756/utils_buffer_mean.o
 .debug_abbrev  0x0000000000000000       0xce build/SAMD21_IOT_WG_ICM42688/production/_ext/596309756/utils_buffer_mean.o
 .debug_loc     0x0000000000000000       0xcd build/SAMD21_IOT_WG_ICM42688/production/_ext/596309756/utils_buffer_mean.o
 .debug_aranges
                0x0000000000000000       0x20 build/SAMD21_IOT_WG_ICM42688/production/_ext/596309756/utils_buffer_mean.o
 .debug_line    0x0000000000000000       0xea build/SAMD21_IOT_WG_ICM42688/production/_ext/596309756/utils_buffer_mean.o
 .debug_str     0x0000000000000000      0x313 build/SAMD21_IOT_WG_ICM42688/production/_ext/596309756/utils_buffer_mean.o
 .comment       0x0000000000000000       0x2c build/SAMD21_IOT_WG_ICM42688/production/_ext/596309756/utils_buffer_mean.o
 .debug_frame   0x0000000000000000       0x2c build/SAMD21_IOT_WG_ICM42688/production/_ext/596309756/utils_buffer_mean.o
 .ARM.attributes
                0x0000000000000000       0x2c build/SAMD21_IOT_WG_ICM42688/production/_ext/596309756/utils_buffer_mean.o
 .text          0x0000000000000000       0x34 build/SAMD21_IOT_WG_ICM42688/production/_ext/596309756/utils_buffer_median.o
 .data          0x0000000000000000        0x0 build/SAMD21_IOT_WG_ICM42688/production/_ext/596309756/utils_buffer_median.o
 .bss           0x0000000000000000        0x0 build/SAMD21_IOT_WG_ICM42688/production/_ext/596309756/utils_buffer_median.o
 .debug_info    0x0000000000000000      0x203 build/SAMD21_IOT_WG_ICM42688/production/_ext/596309756/utils_buffer_median.o
 .debug_abbrev  0x0000000000000000       0xe2 build/SAMD21_IOT_WG_ICM42688/production/_ext/596309756/utils_buffer_median.o
 .debug_loc     0x0000000000000000      0x125 build/SAMD21_IOT_WG_ICM42688/production/_ext/596309756/utils_buffer_median.o
 .debug_aranges
                0x0000000000000000       0x20 build/SAMD21_IOT_WG_ICM42688/production/_ext/596309756/utils_buffer_median.o
 .debug_line    0x0000000000000000      0x10b build/SAMD21_IOT_WG_ICM42688/production/_ext/596309756/utils_buffer_median.o
 .debug_str     0x0000000000000000      0x311 build/SAMD21_IOT_WG_ICM42688/production/_ext/596309756/utils_buffer_median.o
 .comment       0x0000000000000000       0x2c build/SAMD21_IOT_WG_ICM42688/production/_ext/596309756/utils_buffer_median.o
 .debug_frame   0x0000000000000000       0x28 build/SAMD21_IOT_WG_ICM42688/production/_ext/596309756/utils_buffer_median.o
 .ARM.attributes
                0x0000000000000000       0x2c build/SAMD21_IOT_WG_ICM42688/production/_ext/596309756/utils_buffer_median.o
 .text          0x0000000000000000       0x34 build/SAMD21_IOT_WG_ICM42688/production/_ext/596309756/utils_buffer_min.o
 .data          0x0000000000000000        0x0 build/SAMD21_IOT_WG_ICM42688/production/_ext/596309756/utils_buffer_min.o
 .bss           0x0000000000000000        0x0 build/SAMD21_IOT_WG_ICM42688/production/_ext/596309756/utils_buffer_min.o
 .debug_info    0x0000000000000000      0x1fc build/SAMD21_IOT_WG_ICM42688/production/_ext/596309756/utils_buffer_min.o
 .debug_abbrev  0x0000000000000000       0xcb build/SAMD21_IOT_WG_ICM42688/production/_ext/596309756/utils_buffer_min.o
 .debug_loc     0x0000000000000000      0x14f build/SAMD21_IOT_WG_ICM42688/production/_ext/596309756/utils_buffer_min.o
 .debug_aranges
                0x0000000000000000       0x20 build/SAMD21_IOT_WG_ICM42688/production/_ext/596309756/utils_buffer_min.o
 .debug_line    0x0000000000000000       0xed build/SAMD21_IOT_WG_ICM42688/production/_ext/596309756/utils_buffer_min.o
 .debug_str     0x0000000000000000      0x309 build/SAMD21_IOT_WG_ICM42688/production/_ext/596309756/utils_buffer_min.o
 .comment       0x0000000000000000       0x2c build/SAMD21_IOT_WG_ICM42688/production/_ext/596309756/utils_buffer_min.o
 .debug_frame   0x0000000000000000       0x2c build/SAMD21_IOT_WG_ICM42688/production/_ext/596309756/utils_buffer_min.o
 .ARM.attributes
                0x0000000000000000       0x2c build/SAMD21_IOT_WG_ICM42688/production/_ext/596309756/utils_buffer_min.o
 .data          0x0000000000000000        0x0 build/SAMD21_IOT_WG_ICM42688/production/_ext/596309756/utils_buffer_min_max.o
 .bss           0x0000000000000000        0x0 build/SAMD21_IOT_WG_ICM42688/production/_ext/596309756/utils_buffer_min_max.o
 .text          0x0000000000000000      0x104 build/SAMD21_IOT_WG_ICM42688/production/_ext/596309756/utils_buffer_pass_threshold.o
 .data          0x0000000000000000        0x0 build/SAMD21_IOT_WG_ICM42688/production/_ext/596309756/utils_buffer_pass_threshold.o
 .bss           0x0000000000000000        0x0 build/SAMD21_IOT_WG_ICM42688/production/_ext/596309756/utils_buffer_pass_threshold.o
 .debug_info    0x0000000000000000      0x300 build/SAMD21_IOT_WG_ICM42688/production/_ext/596309756/utils_buffer_pass_threshold.o
 .debug_abbrev  0x0000000000000000       0xf8 build/SAMD21_IOT_WG_ICM42688/production/_ext/596309756/utils_buffer_pass_threshold.o
 .debug_loc     0x0000000000000000      0x37e build/SAMD21_IOT_WG_ICM42688/production/_ext/596309756/utils_buffer_pass_threshold.o
 .debug_aranges
                0x0000000000000000       0x20 build/SAMD21_IOT_WG_ICM42688/production/_ext/596309756/utils_buffer_pass_threshold.o
 .debug_line    0x0000000000000000      0x178 build/SAMD21_IOT_WG_ICM42688/production/_ext/596309756/utils_buffer_pass_threshold.o
 .debug_str     0x0000000000000000      0x38a build/SAMD21_IOT_WG_ICM42688/production/_ext/596309756/utils_buffer_pass_threshold.o
 .comment       0x0000000000000000       0x2c build/SAMD21_IOT_WG_ICM42688/production/_ext/596309756/utils_buffer_pass_threshold.o
 .debug_frame   0x0000000000000000       0x58 build/SAMD21_IOT_WG_ICM42688/production/_ext/596309756/utils_buffer_pass_threshold.o
 .ARM.attributes
                0x0000000000000000       0x2c build/SAMD21_IOT_WG_ICM42688/production/_ext/596309756/utils_buffer_pass_threshold.o
 .text          0x0000000000000000       0x14 build/SAMD21_IOT_WG_ICM42688/production/_ext/596309756/utils_buffer_std.o
 .data          0x0000000000000000        0x0 build/SAMD21_IOT_WG_ICM42688/production/_ext/596309756/utils_buffer_std.o
 .bss           0x0000000000000000        0x0 build/SAMD21_IOT_WG_ICM42688/production/_ext/596309756/utils_buffer_std.o
 .debug_info    0x0000000000000000      0x208 build/SAMD21_IOT_WG_ICM42688/production/_ext/596309756/utils_buffer_std.o
 .debug_abbrev  0x0000000000000000       0xef build/SAMD21_IOT_WG_ICM42688/production/_ext/596309756/utils_buffer_std.o
 .debug_loc     0x0000000000000000       0xb4 build/SAMD21_IOT_WG_ICM42688/production/_ext/596309756/utils_buffer_std.o
 .debug_aranges
                0x0000000000000000       0x20 build/SAMD21_IOT_WG_ICM42688/production/_ext/596309756/utils_buffer_std.o
 .debug_line    0x0000000000000000      0x120 build/SAMD21_IOT_WG_ICM42688/production/_ext/596309756/utils_buffer_std.o
 .debug_str     0x0000000000000000      0x31b build/SAMD21_IOT_WG_ICM42688/production/_ext/596309756/utils_buffer_std.o
 .comment       0x0000000000000000       0x2c build/SAMD21_IOT_WG_ICM42688/production/_ext/596309756/utils_buffer_std.o
 .debug_frame   0x0000000000000000       0x28 build/SAMD21_IOT_WG_ICM42688/production/_ext/596309756/utils_buffer_std.o
 .ARM.attributes
                0x0000000000000000       0x2c build/SAMD21_IOT_WG_ICM42688/production/_ext/596309756/utils_buffer_std.o
 .text          0x0000000000000000       0x78 build/SAMD21_IOT_WG_ICM42688/production/_ext/596309756/utils_buffer_variance.o
 .data          0x0000000000000000        0x0 build/SAMD21_IOT_WG_ICM42688/production/_ext/596309756/utils_buffer_variance.o
 .bss           0x0000000000000000        0x0 build/SAMD21_IOT_WG_ICM42688/production/_ext/596309756/utils_buffer_variance.o
 .debug_info    0x0000000000000000      0x256 build/SAMD21_IOT_WG_ICM42688/production/_ext/596309756/utils_buffer_variance.o
 .debug_abbrev  0x0000000000000000       0xff build/SAMD21_IOT_WG_ICM42688/production/_ext/596309756/utils_buffer_variance.o
 .debug_loc     0x0000000000000000      0x1e1 build/SAMD21_IOT_WG_ICM42688/production/_ext/596309756/utils_buffer_variance.o
 .debug_aranges
                0x0000000000000000       0x20 build/SAMD21_IOT_WG_ICM42688/production/_ext/596309756/utils_buffer_variance.o
 .debug_ranges  0x0000000000000000       0x18 build/SAMD21_IOT_WG_ICM42688/production/_ext/596309756/utils_buffer_variance.o
 .debug_line    0x0000000000000000      0x13b build/SAMD21_IOT_WG_ICM42688/production/_ext/596309756/utils_buffer_variance.o
 .debug_str     0x0000000000000000      0x31f build/SAMD21_IOT_WG_ICM42688/production/_ext/596309756/utils_buffer_variance.o
 .comment       0x0000000000000000       0x2c build/SAMD21_IOT_WG_ICM42688/production/_ext/596309756/utils_buffer_variance.o
 .debug_frame   0x0000000000000000       0x3c build/SAMD21_IOT_WG_ICM42688/production/_ext/596309756/utils_buffer_variance.o
 .ARM.attributes
                0x0000000000000000       0x2c build/SAMD21_IOT_WG_ICM42688/production/_ext/596309756/utils_buffer_variance.o
 .text          0x0000000000000000      0x160 build/SAMD21_IOT_WG_ICM42688/production/_ext/596309756/utils_model_crossing_rate.o
 .data          0x0000000000000000        0x0 build/SAMD21_IOT_WG_ICM42688/production/_ext/596309756/utils_model_crossing_rate.o
 .bss           0x0000000000000000        0x0 build/SAMD21_IOT_WG_ICM42688/production/_ext/596309756/utils_model_crossing_rate.o
 .rodata.str1.4
                0x0000000000000000       0x14 build/SAMD21_IOT_WG_ICM42688/production/_ext/596309756/utils_model_crossing_rate.o
 .debug_info    0x0000000000000000      0x556 build/SAMD21_IOT_WG_ICM42688/production/_ext/596309756/utils_model_crossing_rate.o
 .debug_abbrev  0x0000000000000000      0x1c8 build/SAMD21_IOT_WG_ICM42688/production/_ext/596309756/utils_model_crossing_rate.o
 .debug_loc     0x0000000000000000      0x7d9 build/SAMD21_IOT_WG_ICM42688/production/_ext/596309756/utils_model_crossing_rate.o
 .debug_aranges
                0x0000000000000000       0x20 build/SAMD21_IOT_WG_ICM42688/production/_ext/596309756/utils_model_crossing_rate.o
 .debug_ranges  0x0000000000000000       0x70 build/SAMD21_IOT_WG_ICM42688/production/_ext/596309756/utils_model_crossing_rate.o
 .debug_line    0x0000000000000000      0x310 build/SAMD21_IOT_WG_ICM42688/production/_ext/596309756/utils_model_crossing_rate.o
 .debug_str     0x0000000000000000      0x50c build/SAMD21_IOT_WG_ICM42688/production/_ext/596309756/utils_model_crossing_rate.o
 .comment       0x0000000000000000       0x2c build/SAMD21_IOT_WG_ICM42688/production/_ext/596309756/utils_model_crossing_rate.o
 .debug_frame   0x0000000000000000       0x6c build/SAMD21_IOT_WG_ICM42688/production/_ext/596309756/utils_model_crossing_rate.o
 .ARM.attributes
                0x0000000000000000       0x2c build/SAMD21_IOT_WG_ICM42688/production/_ext/596309756/utils_model_crossing_rate.o
 .text          0x0000000000000000       0xdc build/SAMD21_IOT_WG_ICM42688/production/_ext/596309756/utils_model_cross_column.o
 .data          0x0000000000000000        0x0 build/SAMD21_IOT_WG_ICM42688/production/_ext/596309756/utils_model_cross_column.o
 .bss           0x0000000000000000        0x0 build/SAMD21_IOT_WG_ICM42688/production/_ext/596309756/utils_model_cross_column.o
 .debug_info    0x0000000000000000      0x6f6 build/SAMD21_IOT_WG_ICM42688/production/_ext/596309756/utils_model_cross_column.o
 .debug_abbrev  0x0000000000000000      0x11a build/SAMD21_IOT_WG_ICM42688/production/_ext/596309756/utils_model_cross_column.o
 .debug_loc     0x0000000000000000      0x32f build/SAMD21_IOT_WG_ICM42688/production/_ext/596309756/utils_model_cross_column.o
 .debug_aranges
                0x0000000000000000       0x20 build/SAMD21_IOT_WG_ICM42688/production/_ext/596309756/utils_model_cross_column.o
 .debug_line    0x0000000000000000      0x1d4 build/SAMD21_IOT_WG_ICM42688/production/_ext/596309756/utils_model_cross_column.o
 .debug_str     0x0000000000000000      0x669 build/SAMD21_IOT_WG_ICM42688/production/_ext/596309756/utils_model_cross_column.o
 .comment       0x0000000000000000       0x2c build/SAMD21_IOT_WG_ICM42688/production/_ext/596309756/utils_model_cross_column.o
 .debug_frame   0x0000000000000000       0x3c build/SAMD21_IOT_WG_ICM42688/production/_ext/596309756/utils_model_cross_column.o
 .ARM.attributes
                0x0000000000000000       0x2c build/SAMD21_IOT_WG_ICM42688/production/_ext/596309756/utils_model_cross_column.o
 .data          0x0000000000000000        0x0 build/SAMD21_IOT_WG_ICM42688/production/_ext/596309756/utils_model_cross_difference.o
 .bss           0x0000000000000000        0x0 build/SAMD21_IOT_WG_ICM42688/production/_ext/596309756/utils_model_cross_difference.o
 .text          0x0000000000000000       0xc8 build/SAMD21_IOT_WG_ICM42688/production/_ext/596309756/utils_model_mean_crossing_rate.o
 .data          0x0000000000000000        0x0 build/SAMD21_IOT_WG_ICM42688/production/_ext/596309756/utils_model_mean_crossing_rate.o
 .bss           0x0000000000000000        0x0 build/SAMD21_IOT_WG_ICM42688/production/_ext/596309756/utils_model_mean_crossing_rate.o
 .debug_info    0x0000000000000000      0x736 build/SAMD21_IOT_WG_ICM42688/production/_ext/596309756/utils_model_mean_crossing_rate.o
 .debug_abbrev  0x0000000000000000      0x16d build/SAMD21_IOT_WG_ICM42688/production/_ext/596309756/utils_model_mean_crossing_rate.o
 .debug_loc     0x0000000000000000      0x23e build/SAMD21_IOT_WG_ICM42688/production/_ext/596309756/utils_model_mean_crossing_rate.o
 .debug_aranges
                0x0000000000000000       0x20 build/SAMD21_IOT_WG_ICM42688/production/_ext/596309756/utils_model_mean_crossing_rate.o
 .debug_line    0x0000000000000000      0x190 build/SAMD21_IOT_WG_ICM42688/production/_ext/596309756/utils_model_mean_crossing_rate.o
 .debug_str     0x0000000000000000      0x6a3 build/SAMD21_IOT_WG_ICM42688/production/_ext/596309756/utils_model_mean_crossing_rate.o
 .comment       0x0000000000000000       0x2c build/SAMD21_IOT_WG_ICM42688/production/_ext/596309756/utils_model_mean_crossing_rate.o
 .debug_frame   0x0000000000000000       0x3c build/SAMD21_IOT_WG_ICM42688/production/_ext/596309756/utils_model_mean_crossing_rate.o
 .ARM.attributes
                0x0000000000000000       0x2c build/SAMD21_IOT_WG_ICM42688/production/_ext/596309756/utils_model_mean_crossing_rate.o
 .text          0x0000000000000000       0xf8 build/SAMD21_IOT_WG_ICM42688/production/_ext/596309756/utils_model_pct_time_over_sigma.o
 .data          0x0000000000000000        0x0 build/SAMD21_IOT_WG_ICM42688/production/_ext/596309756/utils_model_pct_time_over_sigma.o
 .bss           0x0000000000000000        0x0 build/SAMD21_IOT_WG_ICM42688/production/_ext/596309756/utils_model_pct_time_over_sigma.o
 .debug_info    0x0000000000000000      0x76d build/SAMD21_IOT_WG_ICM42688/production/_ext/596309756/utils_model_pct_time_over_sigma.o
 .debug_abbrev  0x0000000000000000      0x162 build/SAMD21_IOT_WG_ICM42688/production/_ext/596309756/utils_model_pct_time_over_sigma.o
 .debug_loc     0x0000000000000000      0x2ef build/SAMD21_IOT_WG_ICM42688/production/_ext/596309756/utils_model_pct_time_over_sigma.o
 .debug_aranges
                0x0000000000000000       0x20 build/SAMD21_IOT_WG_ICM42688/production/_ext/596309756/utils_model_pct_time_over_sigma.o
 .debug_ranges  0x0000000000000000       0x38 build/SAMD21_IOT_WG_ICM42688/production/_ext/596309756/utils_model_pct_time_over_sigma.o
 .debug_line    0x0000000000000000      0x1ca build/SAMD21_IOT_WG_ICM42688/production/_ext/596309756/utils_model_pct_time_over_sigma.o
 .debug_str     0x0000000000000000      0x685 build/SAMD21_IOT_WG_ICM42688/production/_ext/596309756/utils_model_pct_time_over_sigma.o
 .comment       0x0000000000000000       0x2c build/SAMD21_IOT_WG_ICM42688/production/_ext/596309756/utils_model_pct_time_over_sigma.o
 .debug_frame   0x0000000000000000       0x3c build/SAMD21_IOT_WG_ICM42688/production/_ext/596309756/utils_model_pct_time_over_sigma.o
 .ARM.attributes
                0x0000000000000000       0x2c build/SAMD21_IOT_WG_ICM42688/production/_ext/596309756/utils_model_pct_time_over_sigma.o
 .text          0x0000000000000000       0xb8 build/SAMD21_IOT_WG_ICM42688/production/_ext/596309756/utils_model_pct_time_over_threshold.o
 .data          0x0000000000000000        0x0 build/SAMD21_IOT_WG_ICM42688/production/_ext/596309756/utils_model_pct_time_over_threshold.o
 .bss           0x0000000000000000        0x0 build/SAMD21_IOT_WG_ICM42688/production/_ext/596309756/utils_model_pct_time_over_threshold.o
 .debug_info    0x0000000000000000      0x714 build/SAMD21_IOT_WG_ICM42688/production/_ext/596309756/utils_model_pct_time_over_threshold.o
 .debug_abbrev  0x0000000000000000      0x123 build/SAMD21_IOT_WG_ICM42688/production/_ext/596309756/utils_model_pct_time_over_threshold.o
 .debug_loc     0x0000000000000000      0x33b build/SAMD21_IOT_WG_ICM42688/production/_ext/596309756/utils_model_pct_time_over_threshold.o
 .debug_aranges
                0x0000000000000000       0x20 build/SAMD21_IOT_WG_ICM42688/production/_ext/596309756/utils_model_pct_time_over_threshold.o
 .debug_line    0x0000000000000000      0x196 build/SAMD21_IOT_WG_ICM42688/production/_ext/596309756/utils_model_pct_time_over_threshold.o
 .debug_str     0x0000000000000000      0x68d build/SAMD21_IOT_WG_ICM42688/production/_ext/596309756/utils_model_pct_time_over_threshold.o
 .comment       0x0000000000000000       0x2c build/SAMD21_IOT_WG_ICM42688/production/_ext/596309756/utils_model_pct_time_over_threshold.o
 .debug_frame   0x0000000000000000       0x3c build/SAMD21_IOT_WG_ICM42688/production/_ext/596309756/utils_model_pct_time_over_threshold.o
 .ARM.attributes
                0x0000000000000000       0x2c build/SAMD21_IOT_WG_ICM42688/production/_ext/596309756/utils_model_pct_time_over_threshold.o
 .data          0x0000000000000000        0x0 build/SAMD21_IOT_WG_ICM42688/production/_ext/596309756/utils_model_stats_max_min.o
 .bss           0x0000000000000000        0x0 build/SAMD21_IOT_WG_ICM42688/production/_ext/596309756/utils_model_stats_max_min.o
 .text          0x0000000000000000       0xd0 build/SAMD21_IOT_WG_ICM42688/production/_ext/596309756/utils_model_total_area.o
 .data          0x0000000000000000        0x0 build/SAMD21_IOT_WG_ICM42688/production/_ext/596309756/utils_model_total_area.o
 .bss           0x0000000000000000        0x0 build/SAMD21_IOT_WG_ICM42688/production/_ext/596309756/utils_model_total_area.o
 .debug_info    0x0000000000000000      0x6c4 build/SAMD21_IOT_WG_ICM42688/production/_ext/596309756/utils_model_total_area.o
 .debug_abbrev  0x0000000000000000      0x129 build/SAMD21_IOT_WG_ICM42688/production/_ext/596309756/utils_model_total_area.o
 .debug_loc     0x0000000000000000      0x27f build/SAMD21_IOT_WG_ICM42688/production/_ext/596309756/utils_model_total_area.o
 .debug_aranges
                0x0000000000000000       0x20 build/SAMD21_IOT_WG_ICM42688/production/_ext/596309756/utils_model_total_area.o
 .debug_line    0x0000000000000000      0x19c build/SAMD21_IOT_WG_ICM42688/production/_ext/596309756/utils_model_total_area.o
 .debug_str     0x0000000000000000      0x659 build/SAMD21_IOT_WG_ICM42688/production/_ext/596309756/utils_model_total_area.o
 .comment       0x0000000000000000       0x2c build/SAMD21_IOT_WG_ICM42688/production/_ext/596309756/utils_model_total_area.o
 .debug_frame   0x0000000000000000       0x3c build/SAMD21_IOT_WG_ICM42688/production/_ext/596309756/utils_model_total_area.o
 .ARM.attributes
                0x0000000000000000       0x2c build/SAMD21_IOT_WG_ICM42688/production/_ext/596309756/utils_model_total_area.o
 .text          0x0000000000000000       0xd8 build/SAMD21_IOT_WG_ICM42688/production/_ext/596309756/utils_model_total_energy.o
 .data          0x0000000000000000        0x0 build/SAMD21_IOT_WG_ICM42688/production/_ext/596309756/utils_model_total_energy.o
 .bss           0x0000000000000000        0x0 build/SAMD21_IOT_WG_ICM42688/production/_ext/596309756/utils_model_total_energy.o
 .debug_info    0x0000000000000000      0x6e2 build/SAMD21_IOT_WG_ICM42688/production/_ext/596309756/utils_model_total_energy.o
 .debug_abbrev  0x0000000000000000      0x11a build/SAMD21_IOT_WG_ICM42688/production/_ext/596309756/utils_model_total_energy.o
 .debug_loc     0x0000000000000000      0x315 build/SAMD21_IOT_WG_ICM42688/production/_ext/596309756/utils_model_total_energy.o
 .debug_aranges
                0x0000000000000000       0x20 build/SAMD21_IOT_WG_ICM42688/production/_ext/596309756/utils_model_total_energy.o
 .debug_line    0x0000000000000000      0x195 build/SAMD21_IOT_WG_ICM42688/production/_ext/596309756/utils_model_total_energy.o
 .debug_str     0x0000000000000000      0x656 build/SAMD21_IOT_WG_ICM42688/production/_ext/596309756/utils_model_total_energy.o
 .comment       0x0000000000000000       0x2c build/SAMD21_IOT_WG_ICM42688/production/_ext/596309756/utils_model_total_energy.o
 .debug_frame   0x0000000000000000       0x3c build/SAMD21_IOT_WG_ICM42688/production/_ext/596309756/utils_model_total_energy.o
 .ARM.attributes
                0x0000000000000000       0x2c build/SAMD21_IOT_WG_ICM42688/production/_ext/596309756/utils_model_total_energy.o
 .data          0x0000000000000000        0x0 build/SAMD21_IOT_WG_ICM42688/production/_ext/596309756/utils_tr_sensor.o
 .bss           0x0000000000000000        0x0 build/SAMD21_IOT_WG_ICM42688/production/_ext/596309756/utils_tr_sensor.o
 .text          0x0000000000000000      0x208 build/SAMD21_IOT_WG_ICM42688/production/_ext/299863938/ssi_comms.o
 .data          0x0000000000000000        0x8 build/SAMD21_IOT_WG_ICM42688/production/_ext/299863938/ssi_comms.o
 .bss           0x0000000000000000       0x20 build/SAMD21_IOT_WG_ICM42688/production/_ext/299863938/ssi_comms.o
 .rodata.str1.4
                0x0000000000000000       0x14 build/SAMD21_IOT_WG_ICM42688/production/_ext/299863938/ssi_comms.o
 .debug_info    0x0000000000000000      0x608 build/SAMD21_IOT_WG_ICM42688/production/_ext/299863938/ssi_comms.o
 .debug_abbrev  0x0000000000000000      0x2b0 build/SAMD21_IOT_WG_ICM42688/production/_ext/299863938/ssi_comms.o
 .debug_loc     0x0000000000000000      0x458 build/SAMD21_IOT_WG_ICM42688/production/_ext/299863938/ssi_comms.o
 .debug_aranges
                0x0000000000000000       0x20 build/SAMD21_IOT_WG_ICM42688/production/_ext/299863938/ssi_comms.o
 .debug_ranges  0x0000000000000000       0x48 build/SAMD21_IOT_WG_ICM42688/production/_ext/299863938/ssi_comms.o
 .debug_line    0x0000000000000000      0x31e build/SAMD21_IOT_WG_ICM42688/production/_ext/299863938/ssi_comms.o
 .debug_str     0x0000000000000000      0x43e build/SAMD21_IOT_WG_ICM42688/production/_ext/299863938/ssi_comms.o
 .comment       0x0000000000000000       0x2c build/SAMD21_IOT_WG_ICM42688/production/_ext/299863938/ssi_comms.o
 .debug_frame   0x0000000000000000      0x10c build/SAMD21_IOT_WG_ICM42688/production/_ext/299863938/ssi_comms.o
 .ARM.attributes
                0x0000000000000000       0x2c build/SAMD21_IOT_WG_ICM42688/production/_ext/299863938/ssi_comms.o
 .data          0x0000000000000000        0x0 build/SAMD21_IOT_WG_ICM42688/production/_ext/1360937237/ringbuffer.o
 .bss           0x0000000000000000        0x0 build/SAMD21_IOT_WG_ICM42688/production/_ext/1360937237/ringbuffer.o
 .data          0x0000000000000000        0x0 build/SAMD21_IOT_WG_ICM42688/production/_ext/1360937237/app.o
 .data          0x0000000000000000        0x0 build/SAMD21_IOT_WG_ICM42688/production/_ext/1360937237/ws2812.o
 .data          0x0000000000000000        0x0 build/SAMD21_IOT_WG_ICM42688/production/_ext/1360937237/winc1500_udp_client.o
 .text          0x0000000000000000        0x0 c:/program files/microchip/xc32/v4.60/bin/bin/../../lib/gcc/pic32c/8.3.1/../../../../pic32c/lib/thumb/v6-m/nofp\libpic32c.a(data_init.o)
 .data          0x0000000000000000        0x0 c:/program files/microchip/xc32/v4.60/bin/bin/../../lib/gcc/pic32c/8.3.1/../../../../pic32c/lib/thumb/v6-m/nofp\libpic32c.a(data_init.o)
 .xc_stack_usage
                0x0000000000000000       0x68 c:/program files/microchip/xc32/v4.60/bin/bin/../../lib/gcc/pic32c/8.3.1/../../../../pic32c/lib/thumb/v6-m/nofp\libpic32c.a(data_init.o)
 .xc_stack_usage.hdr
                0x0000000000000000        0xe c:/program files/microchip/xc32/v4.60/bin/bin/../../lib/gcc/pic32c/8.3.1/../../../../pic32c/lib/thumb/v6-m/nofp\libpic32c.a(data_init.o)
 .text          0x0000000000000000        0x0 c:/program files/microchip/xc32/v4.60/bin/bin/../../lib/gcc/pic32c/8.3.1/../../../../pic32c/lib/thumb/v6-m/nofp\libc-size-musl.a(memcpy.o)
 .data          0x0000000000000000        0x0 c:/program files/microchip/xc32/v4.60/bin/bin/../../lib/gcc/pic32c/8.3.1/../../../../pic32c/lib/thumb/v6-m/nofp\libc-size-musl.a(memcpy.o)
 .bss           0x0000000000000000        0x0 c:/program files/microchip/xc32/v4.60/bin/bin/../../lib/gcc/pic32c/8.3.1/../../../../pic32c/lib/thumb/v6-m/nofp\libc-size-musl.a(memcpy.o)
 .xc_stack_usage
                0x0000000000000000       0x14 c:/program files/microchip/xc32/v4.60/bin/bin/../../lib/gcc/pic32c/8.3.1/../../../../pic32c/lib/thumb/v6-m/nofp\libc-size-musl.a(memcpy.o)
 .xc_stack_usage.hdr
                0x0000000000000000        0xe c:/program files/microchip/xc32/v4.60/bin/bin/../../lib/gcc/pic32c/8.3.1/../../../../pic32c/lib/thumb/v6-m/nofp\libc-size-musl.a(memcpy.o)
 .text          0x0000000000000000        0x0 c:/program files/microchip/xc32/v4.60/bin/bin/../../lib/gcc/pic32c/8.3.1/../../../../pic32c/lib/thumb/v6-m/nofp\libc-size-musl.a(memset.o)
 .data          0x0000000000000000        0x0 c:/program files/microchip/xc32/v4.60/bin/bin/../../lib/gcc/pic32c/8.3.1/../../../../pic32c/lib/thumb/v6-m/nofp\libc-size-musl.a(memset.o)
 .bss           0x0000000000000000        0x0 c:/program files/microchip/xc32/v4.60/bin/bin/../../lib/gcc/pic32c/8.3.1/../../../../pic32c/lib/thumb/v6-m/nofp\libc-size-musl.a(memset.o)
 .xc_stack_usage
                0x0000000000000000       0x14 c:/program files/microchip/xc32/v4.60/bin/bin/../../lib/gcc/pic32c/8.3.1/../../../../pic32c/lib/thumb/v6-m/nofp\libc-size-musl.a(memset.o)
 .xc_stack_usage.hdr
                0x0000000000000000        0xe c:/program files/microchip/xc32/v4.60/bin/bin/../../lib/gcc/pic32c/8.3.1/../../../../pic32c/lib/thumb/v6-m/nofp\libc-size-musl.a(memset.o)
 .text          0x0000000000000000        0x0 c:/program files/microchip/xc32/v4.60/bin/bin/../../lib/gcc/pic32c/8.3.1/../../../../pic32c/lib/thumb/v6-m/nofp\libc-size-musl.a(strlen.o)
 .data          0x0000000000000000        0x0 c:/program files/microchip/xc32/v4.60/bin/bin/../../lib/gcc/pic32c/8.3.1/../../../../pic32c/lib/thumb/v6-m/nofp\libc-size-musl.a(strlen.o)
 .bss           0x0000000000000000        0x0 c:/program files/microchip/xc32/v4.60/bin/bin/../../lib/gcc/pic32c/8.3.1/../../../../pic32c/lib/thumb/v6-m/nofp\libc-size-musl.a(strlen.o)
 .xc_stack_usage
                0x0000000000000000       0x14 c:/program files/microchip/xc32/v4.60/bin/bin/../../lib/gcc/pic32c/8.3.1/../../../../pic32c/lib/thumb/v6-m/nofp\libc-size-musl.a(strlen.o)
 .xc_stack_usage.hdr
                0x0000000000000000        0xe c:/program files/microchip/xc32/v4.60/bin/bin/../../lib/gcc/pic32c/8.3.1/../../../../pic32c/lib/thumb/v6-m/nofp\libc-size-musl.a(strlen.o)
 .text          0x0000000000000000        0x0 c:/program files/microchip/xc32/v4.60/bin/bin/../../lib/gcc/pic32c/8.3.1/../../../../pic32c/lib/thumb/v6-m/nofp\libc-size-musl.a(strchr.o)
 .data          0x0000000000000000        0x0 c:/program files/microchip/xc32/v4.60/bin/bin/../../lib/gcc/pic32c/8.3.1/../../../../pic32c/lib/thumb/v6-m/nofp\libc-size-musl.a(strchr.o)
 .bss           0x0000000000000000        0x0 c:/program files/microchip/xc32/v4.60/bin/bin/../../lib/gcc/pic32c/8.3.1/../../../../pic32c/lib/thumb/v6-m/nofp\libc-size-musl.a(strchr.o)
 .xc_stack_usage
                0x0000000000000000       0x14 c:/program files/microchip/xc32/v4.60/bin/bin/../../lib/gcc/pic32c/8.3.1/../../../../pic32c/lib/thumb/v6-m/nofp\libc-size-musl.a(strchr.o)
 .xc_stack_usage.hdr
                0x0000000000000000        0xe c:/program files/microchip/xc32/v4.60/bin/bin/../../lib/gcc/pic32c/8.3.1/../../../../pic32c/lib/thumb/v6-m/nofp\libc-size-musl.a(strchr.o)
 .text          0x0000000000000000        0x0 c:/program files/microchip/xc32/v4.60/bin/bin/../../lib/gcc/pic32c/8.3.1/../../../../pic32c/lib/thumb/v6-m/nofp\libc-size-musl.a(strchrnul.o)
 .data          0x0000000000000000        0x0 c:/program files/microchip/xc32/v4.60/bin/bin/../../lib/gcc/pic32c/8.3.1/../../../../pic32c/lib/thumb/v6-m/nofp\libc-size-musl.a(strchrnul.o)
 .bss           0x0000000000000000        0x0 c:/program files/microchip/xc32/v4.60/bin/bin/../../lib/gcc/pic32c/8.3.1/../../../../pic32c/lib/thumb/v6-m/nofp\libc-size-musl.a(strchrnul.o)
 .xc_stack_usage
                0x0000000000000000       0x19 c:/program files/microchip/xc32/v4.60/bin/bin/../../lib/gcc/pic32c/8.3.1/../../../../pic32c/lib/thumb/v6-m/nofp\libc-size-musl.a(strchrnul.o)
 .xc_stack_usage.hdr
                0x0000000000000000        0xe c:/program files/microchip/xc32/v4.60/bin/bin/../../lib/gcc/pic32c/8.3.1/../../../../pic32c/lib/thumb/v6-m/nofp\libc-size-musl.a(strchrnul.o)
 .text          0x0000000000000000        0x0 c:/program files/microchip/xc32/v4.60/bin/bin/../../lib/gcc/pic32c/8.3.1/../../../../pic32c/lib/thumb/v6-m/nofp\libc-size-musl.a(strcmp.o)
 .data          0x0000000000000000        0x0 c:/program files/microchip/xc32/v4.60/bin/bin/../../lib/gcc/pic32c/8.3.1/../../../../pic32c/lib/thumb/v6-m/nofp\libc-size-musl.a(strcmp.o)
 .bss           0x0000000000000000        0x0 c:/program files/microchip/xc32/v4.60/bin/bin/../../lib/gcc/pic32c/8.3.1/../../../../pic32c/lib/thumb/v6-m/nofp\libc-size-musl.a(strcmp.o)
 .xc_stack_usage
                0x0000000000000000       0x14 c:/program files/microchip/xc32/v4.60/bin/bin/../../lib/gcc/pic32c/8.3.1/../../../../pic32c/lib/thumb/v6-m/nofp\libc-size-musl.a(strcmp.o)
 .text.strcmp   0x0000000000000000       0x16 c:/program files/microchip/xc32/v4.60/bin/bin/../../lib/gcc/pic32c/8.3.1/../../../../pic32c/lib/thumb/v6-m/nofp\libc-size-musl.a(strcmp.o)
 .xc_stack_usage.hdr
                0x0000000000000000        0xe c:/program files/microchip/xc32/v4.60/bin/bin/../../lib/gcc/pic32c/8.3.1/../../../../pic32c/lib/thumb/v6-m/nofp\libc-size-musl.a(strcmp.o)
 .debug_info    0x0000000000000000       0x95 c:/program files/microchip/xc32/v4.60/bin/bin/../../lib/gcc/pic32c/8.3.1/../../../../pic32c/lib/thumb/v6-m/nofp\libc-size-musl.a(strcmp.o)
 .debug_abbrev  0x0000000000000000       0x6e c:/program files/microchip/xc32/v4.60/bin/bin/../../lib/gcc/pic32c/8.3.1/../../../../pic32c/lib/thumb/v6-m/nofp\libc-size-musl.a(strcmp.o)
 .debug_loc     0x0000000000000000       0x96 c:/program files/microchip/xc32/v4.60/bin/bin/../../lib/gcc/pic32c/8.3.1/../../../../pic32c/lib/thumb/v6-m/nofp\libc-size-musl.a(strcmp.o)
 .debug_aranges
                0x0000000000000000       0x20 c:/program files/microchip/xc32/v4.60/bin/bin/../../lib/gcc/pic32c/8.3.1/../../../../pic32c/lib/thumb/v6-m/nofp\libc-size-musl.a(strcmp.o)
 .debug_ranges  0x0000000000000000       0x10 c:/program files/microchip/xc32/v4.60/bin/bin/../../lib/gcc/pic32c/8.3.1/../../../../pic32c/lib/thumb/v6-m/nofp\libc-size-musl.a(strcmp.o)
 .debug_line    0x0000000000000000       0xb9 c:/program files/microchip/xc32/v4.60/bin/bin/../../lib/gcc/pic32c/8.3.1/../../../../pic32c/lib/thumb/v6-m/nofp\libc-size-musl.a(strcmp.o)
 .debug_str     0x0000000000000000      0x1ff c:/program files/microchip/xc32/v4.60/bin/bin/../../lib/gcc/pic32c/8.3.1/../../../../pic32c/lib/thumb/v6-m/nofp\libc-size-musl.a(strcmp.o)
 .comment       0x0000000000000000       0x2c c:/program files/microchip/xc32/v4.60/bin/bin/../../lib/gcc/pic32c/8.3.1/../../../../pic32c/lib/thumb/v6-m/nofp\libc-size-musl.a(strcmp.o)
 .note.GNU-stack
                0x0000000000000000        0x0 c:/program files/microchip/xc32/v4.60/bin/bin/../../lib/gcc/pic32c/8.3.1/../../../../pic32c/lib/thumb/v6-m/nofp\libc-size-musl.a(strcmp.o)
 .debug_frame   0x0000000000000000       0x28 c:/program files/microchip/xc32/v4.60/bin/bin/../../lib/gcc/pic32c/8.3.1/../../../../pic32c/lib/thumb/v6-m/nofp\libc-size-musl.a(strcmp.o)
 .ARM.attributes
                0x0000000000000000       0x2e c:/program files/microchip/xc32/v4.60/bin/bin/../../lib/gcc/pic32c/8.3.1/../../../../pic32c/lib/thumb/v6-m/nofp\libc-size-musl.a(strcmp.o)
 .text          0x0000000000000000        0x0 c:/program files/microchip/xc32/v4.60/bin/bin/../../lib/gcc/pic32c/8.3.1/../../../../pic32c/lib/thumb/v6-m/nofp\libc-size-musl.a(strnlen.o)
 .data          0x0000000000000000        0x0 c:/program files/microchip/xc32/v4.60/bin/bin/../../lib/gcc/pic32c/8.3.1/../../../../pic32c/lib/thumb/v6-m/nofp\libc-size-musl.a(strnlen.o)
 .bss           0x0000000000000000        0x0 c:/program files/microchip/xc32/v4.60/bin/bin/../../lib/gcc/pic32c/8.3.1/../../../../pic32c/lib/thumb/v6-m/nofp\libc-size-musl.a(strnlen.o)
 .xc_stack_usage
                0x0000000000000000       0x15 c:/program files/microchip/xc32/v4.60/bin/bin/../../lib/gcc/pic32c/8.3.1/../../../../pic32c/lib/thumb/v6-m/nofp\libc-size-musl.a(strnlen.o)
 .xc_stack_usage.hdr
                0x0000000000000000        0xe c:/program files/microchip/xc32/v4.60/bin/bin/../../lib/gcc/pic32c/8.3.1/../../../../pic32c/lib/thumb/v6-m/nofp\libc-size-musl.a(strnlen.o)
 .text          0x0000000000000000        0x0 c:/program files/microchip/xc32/v4.60/bin/bin/../../lib/gcc/pic32c/8.3.1/../../../../pic32c/lib/thumb/v6-m/nofp\libc-size-musl.a(memchr.o)
 .data          0x0000000000000000        0x0 c:/program files/microchip/xc32/v4.60/bin/bin/../../lib/gcc/pic32c/8.3.1/../../../../pic32c/lib/thumb/v6-m/nofp\libc-size-musl.a(memchr.o)
 .bss           0x0000000000000000        0x0 c:/program files/microchip/xc32/v4.60/bin/bin/../../lib/gcc/pic32c/8.3.1/../../../../pic32c/lib/thumb/v6-m/nofp\libc-size-musl.a(memchr.o)
 .xc_stack_usage
                0x0000000000000000       0x14 c:/program files/microchip/xc32/v4.60/bin/bin/../../lib/gcc/pic32c/8.3.1/../../../../pic32c/lib/thumb/v6-m/nofp\libc-size-musl.a(memchr.o)
 .xc_stack_usage.hdr
                0x0000000000000000        0xe c:/program files/microchip/xc32/v4.60/bin/bin/../../lib/gcc/pic32c/8.3.1/../../../../pic32c/lib/thumb/v6-m/nofp\libc-size-musl.a(memchr.o)
 .text          0x0000000000000000        0x0 c:/program files/microchip/xc32/v4.60/bin/bin/../../lib/gcc/pic32c/8.3.1/../../../../pic32c/lib/thumb/v6-m/nofp\liblmalloc-musl.a(lite_calloc.o)
 .data          0x0000000000000000        0x0 c:/program files/microchip/xc32/v4.60/bin/bin/../../lib/gcc/pic32c/8.3.1/../../../../pic32c/lib/thumb/v6-m/nofp\liblmalloc-musl.a(lite_calloc.o)
 .bss           0x0000000000000000        0x0 c:/program files/microchip/xc32/v4.60/bin/bin/../../lib/gcc/pic32c/8.3.1/../../../../pic32c/lib/thumb/v6-m/nofp\liblmalloc-musl.a(lite_calloc.o)
 .xc_stack_usage
                0x0000000000000000       0x1d c:/program files/microchip/xc32/v4.60/bin/bin/../../lib/gcc/pic32c/8.3.1/../../../../pic32c/lib/thumb/v6-m/nofp\liblmalloc-musl.a(lite_calloc.o)
 .xc_stack_usage.hdr
                0x0000000000000000        0xe c:/program files/microchip/xc32/v4.60/bin/bin/../../lib/gcc/pic32c/8.3.1/../../../../pic32c/lib/thumb/v6-m/nofp\liblmalloc-musl.a(lite_calloc.o)
 .text          0x0000000000000000        0x0 c:/program files/microchip/xc32/v4.60/bin/bin/../../lib/gcc/pic32c/8.3.1/../../../../pic32c/lib/thumb/v6-m/nofp\liblmalloc-musl.a(lite_free.o)
 .data          0x0000000000000000        0x0 c:/program files/microchip/xc32/v4.60/bin/bin/../../lib/gcc/pic32c/8.3.1/../../../../pic32c/lib/thumb/v6-m/nofp\liblmalloc-musl.a(lite_free.o)
 .xc_stack_usage
                0x0000000000000000       0x59 c:/program files/microchip/xc32/v4.60/bin/bin/../../lib/gcc/pic32c/8.3.1/../../../../pic32c/lib/thumb/v6-m/nofp\liblmalloc-musl.a(lite_free.o)
 .xc_stack_usage.hdr
                0x0000000000000000        0xe c:/program files/microchip/xc32/v4.60/bin/bin/../../lib/gcc/pic32c/8.3.1/../../../../pic32c/lib/thumb/v6-m/nofp\liblmalloc-musl.a(lite_free.o)
 .text          0x0000000000000000        0x0 c:/program files/microchip/xc32/v4.60/bin/bin/../../lib/gcc/pic32c/8.3.1/../../../../pic32c/lib/thumb/v6-m/nofp\liblmalloc-musl.a(lite_malloc.o)
 .bss           0x0000000000000000        0x0 c:/program files/microchip/xc32/v4.60/bin/bin/../../lib/gcc/pic32c/8.3.1/../../../../pic32c/lib/thumb/v6-m/nofp\liblmalloc-musl.a(lite_malloc.o)
 .xc_stack_usage
                0x0000000000000000       0x1d c:/program files/microchip/xc32/v4.60/bin/bin/../../lib/gcc/pic32c/8.3.1/../../../../pic32c/lib/thumb/v6-m/nofp\liblmalloc-musl.a(lite_malloc.o)
 .xc_stack_usage.hdr
                0x0000000000000000        0xe c:/program files/microchip/xc32/v4.60/bin/bin/../../lib/gcc/pic32c/8.3.1/../../../../pic32c/lib/thumb/v6-m/nofp\liblmalloc-musl.a(lite_malloc.o)
 .ARM.attributes
                0x0000000000000000       0x2c c:/program files/microchip/xc32/v4.60/bin/bin/../../lib/gcc/pic32c/8.3.1/../../../../pic32c/lib/thumb/v6-m/nofp\libm-fast-emfloat.a(modff.o)
 .comment       0x0000000000000000       0x2c c:/program files/microchip/xc32/v4.60/bin/bin/../../lib/gcc/pic32c/8.3.1/../../../../pic32c/lib/thumb/v6-m/nofp\libm-fast-emfloat.a(modff.o)
 .text.modff    0x0000000000000000       0x34 c:/program files/microchip/xc32/v4.60/bin/bin/../../lib/gcc/pic32c/8.3.1/../../../../pic32c/lib/thumb/v6-m/nofp\libm-fast-emfloat.a(modff.o)
 .xc_stack_usage.hdr
                0x0000000000000000        0xe c:/program files/microchip/xc32/v4.60/bin/bin/../../lib/gcc/pic32c/8.3.1/../../../../pic32c/lib/thumb/v6-m/nofp\libm-fast-emfloat.a(modff.o)
 .xc_stack_usage
                0x0000000000000000       0x13 c:/program files/microchip/xc32/v4.60/bin/bin/../../lib/gcc/pic32c/8.3.1/../../../../pic32c/lib/thumb/v6-m/nofp\libm-fast-emfloat.a(modff.o)
 .ARM.attributes
                0x0000000000000000       0x2c c:/program files/microchip/xc32/v4.60/bin/bin/../../lib/gcc/pic32c/8.3.1/../../../../pic32c/lib/thumb/v6-m/nofp\libm-fast-emfloat.a(cos.o)
 .comment       0x0000000000000000       0x2c c:/program files/microchip/xc32/v4.60/bin/bin/../../lib/gcc/pic32c/8.3.1/../../../../pic32c/lib/thumb/v6-m/nofp\libm-fast-emfloat.a(cos.o)
 .text.cos      0x0000000000000000      0x120 c:/program files/microchip/xc32/v4.60/bin/bin/../../lib/gcc/pic32c/8.3.1/../../../../pic32c/lib/thumb/v6-m/nofp\libm-fast-emfloat.a(cos.o)
 .xc_stack_usage.hdr
                0x0000000000000000        0xe c:/program files/microchip/xc32/v4.60/bin/bin/../../lib/gcc/pic32c/8.3.1/../../../../pic32c/lib/thumb/v6-m/nofp\libm-fast-emfloat.a(cos.o)
 .xc_stack_usage
                0x0000000000000000       0x11 c:/program files/microchip/xc32/v4.60/bin/bin/../../lib/gcc/pic32c/8.3.1/../../../../pic32c/lib/thumb/v6-m/nofp\libm-fast-emfloat.a(cos.o)
 .ARM.attributes
                0x0000000000000000       0x2c c:/program files/microchip/xc32/v4.60/bin/bin/../../lib/gcc/pic32c/8.3.1/../../../../pic32c/lib/thumb/v6-m/nofp\libm-fast-emfloat.a(sqrt.o)
 .comment       0x0000000000000000       0x2c c:/program files/microchip/xc32/v4.60/bin/bin/../../lib/gcc/pic32c/8.3.1/../../../../pic32c/lib/thumb/v6-m/nofp\libm-fast-emfloat.a(sqrt.o)
 .text.sqrt     0x0000000000000000      0x118 c:/program files/microchip/xc32/v4.60/bin/bin/../../lib/gcc/pic32c/8.3.1/../../../../pic32c/lib/thumb/v6-m/nofp\libm-fast-emfloat.a(sqrt.o)
 .xc_stack_usage.hdr
                0x0000000000000000        0xe c:/program files/microchip/xc32/v4.60/bin/bin/../../lib/gcc/pic32c/8.3.1/../../../../pic32c/lib/thumb/v6-m/nofp\libm-fast-emfloat.a(sqrt.o)
 .xc_stack_usage
                0x0000000000000000       0x12 c:/program files/microchip/xc32/v4.60/bin/bin/../../lib/gcc/pic32c/8.3.1/../../../../pic32c/lib/thumb/v6-m/nofp\libm-fast-emfloat.a(sqrt.o)
 .ARM.attributes
                0x0000000000000000       0x2c c:/program files/microchip/xc32/v4.60/bin/bin/../../lib/gcc/pic32c/8.3.1/../../../../pic32c/lib/thumb/v6-m/nofp\libm-fast-emfloat.a(pow.o)
 .comment       0x0000000000000000       0x2c c:/program files/microchip/xc32/v4.60/bin/bin/../../lib/gcc/pic32c/8.3.1/../../../../pic32c/lib/thumb/v6-m/nofp\libm-fast-emfloat.a(pow.o)
 .text.pow      0x0000000000000000      0x460 c:/program files/microchip/xc32/v4.60/bin/bin/../../lib/gcc/pic32c/8.3.1/../../../../pic32c/lib/thumb/v6-m/nofp\libm-fast-emfloat.a(pow.o)
 .xc_stack_usage.hdr
                0x0000000000000000        0xe c:/program files/microchip/xc32/v4.60/bin/bin/../../lib/gcc/pic32c/8.3.1/../../../../pic32c/lib/thumb/v6-m/nofp\libm-fast-emfloat.a(pow.o)
 .xc_stack_usage
                0x0000000000000000       0x11 c:/program files/microchip/xc32/v4.60/bin/bin/../../lib/gcc/pic32c/8.3.1/../../../../pic32c/lib/thumb/v6-m/nofp\libm-fast-emfloat.a(pow.o)
 .ARM.attributes
                0x0000000000000000       0x2c c:/program files/microchip/xc32/v4.60/bin/bin/../../lib/gcc/pic32c/8.3.1/../../../../pic32c/lib/thumb/v6-m/nofp\libm-fast-emfloat.a(__SEGGER_RTL_float64_SinCos.o)
 .comment       0x0000000000000000       0x2c c:/program files/microchip/xc32/v4.60/bin/bin/../../lib/gcc/pic32c/8.3.1/../../../../pic32c/lib/thumb/v6-m/nofp\libm-fast-emfloat.a(__SEGGER_RTL_float64_SinCos.o)
 .rodata.__SEGGER_RTL_float64_SinCos
                0x0000000000000000       0x40 c:/program files/microchip/xc32/v4.60/bin/bin/../../lib/gcc/pic32c/8.3.1/../../../../pic32c/lib/thumb/v6-m/nofp\libm-fast-emfloat.a(__SEGGER_RTL_float64_SinCos.o)
 .xc_stack_usage.hdr
                0x0000000000000000        0xe c:/program files/microchip/xc32/v4.60/bin/bin/../../lib/gcc/pic32c/8.3.1/../../../../pic32c/lib/thumb/v6-m/nofp\libm-fast-emfloat.a(__SEGGER_RTL_float64_SinCos.o)
 .xc_stack_usage
                0x0000000000000000        0x0 c:/program files/microchip/xc32/v4.60/bin/bin/../../lib/gcc/pic32c/8.3.1/../../../../pic32c/lib/thumb/v6-m/nofp\libm-fast-emfloat.a(__SEGGER_RTL_float64_SinCos.o)
 .ARM.attributes
                0x0000000000000000       0x2c c:/program files/microchip/xc32/v4.60/bin/bin/../../lib/gcc/pic32c/8.3.1/../../../../pic32c/lib/thumb/v6-m/nofp\libm-fast-emfloat.a(__SEGGER_RTL_kahan_aT2.o)
 .comment       0x0000000000000000       0x2c c:/program files/microchip/xc32/v4.60/bin/bin/../../lib/gcc/pic32c/8.3.1/../../../../pic32c/lib/thumb/v6-m/nofp\libm-fast-emfloat.a(__SEGGER_RTL_kahan_aT2.o)
 .rodata.__SEGGER_RTL_kahan_aT2
                0x0000000000000000      0x100 c:/program files/microchip/xc32/v4.60/bin/bin/../../lib/gcc/pic32c/8.3.1/../../../../pic32c/lib/thumb/v6-m/nofp\libm-fast-emfloat.a(__SEGGER_RTL_kahan_aT2.o)
 .xc_stack_usage.hdr
                0x0000000000000000        0xe c:/program files/microchip/xc32/v4.60/bin/bin/../../lib/gcc/pic32c/8.3.1/../../../../pic32c/lib/thumb/v6-m/nofp\libm-fast-emfloat.a(__SEGGER_RTL_kahan_aT2.o)
 .xc_stack_usage
                0x0000000000000000        0x0 c:/program files/microchip/xc32/v4.60/bin/bin/../../lib/gcc/pic32c/8.3.1/../../../../pic32c/lib/thumb/v6-m/nofp\libm-fast-emfloat.a(__SEGGER_RTL_kahan_aT2.o)
 .xc_stack_usage.hdr
                0x0000000000000000        0xe c:/program files/microchip/xc32/v4.60/bin/bin/../../lib/gcc/pic32c/8.3.1/../../../../pic32c/lib/thumb/v6-m/nofp\libm-fast-emfloat.a(__aeabi_fadd.o)
 .xc_stack_usage
                0x0000000000000000       0x41 c:/program files/microchip/xc32/v4.60/bin/bin/../../lib/gcc/pic32c/8.3.1/../../../../pic32c/lib/thumb/v6-m/nofp\libm-fast-emfloat.a(__aeabi_fadd.o)
 .xc_stack_usage.hdr
                0x0000000000000000        0xe c:/program files/microchip/xc32/v4.60/bin/bin/../../lib/gcc/pic32c/8.3.1/../../../../pic32c/lib/thumb/v6-m/nofp\libm-fast-emfloat.a(__aeabi_dadd.o)
 .xc_stack_usage
                0x0000000000000000       0x41 c:/program files/microchip/xc32/v4.60/bin/bin/../../lib/gcc/pic32c/8.3.1/../../../../pic32c/lib/thumb/v6-m/nofp\libm-fast-emfloat.a(__aeabi_dadd.o)
 .xc_stack_usage.hdr
                0x0000000000000000        0xe c:/program files/microchip/xc32/v4.60/bin/bin/../../lib/gcc/pic32c/8.3.1/../../../../pic32c/lib/thumb/v6-m/nofp\libm-fast-emfloat.a(__aeabi_fsub.o)
 .xc_stack_usage
                0x0000000000000000       0x1a c:/program files/microchip/xc32/v4.60/bin/bin/../../lib/gcc/pic32c/8.3.1/../../../../pic32c/lib/thumb/v6-m/nofp\libm-fast-emfloat.a(__aeabi_fsub.o)
 .ARM.attributes
                0x0000000000000000       0x1c c:/program files/microchip/xc32/v4.60/bin/bin/../../lib/gcc/pic32c/8.3.1/../../../../pic32c/lib/thumb/v6-m/nofp\libm-fast-emfloat.a(__aeabi_dsub.o)
 .text.__aeabi_dsub
                0x0000000000000000       0x10 c:/program files/microchip/xc32/v4.60/bin/bin/../../lib/gcc/pic32c/8.3.1/../../../../pic32c/lib/thumb/v6-m/nofp\libm-fast-emfloat.a(__aeabi_dsub.o)
 .xc_stack_usage.hdr
                0x0000000000000000        0xe c:/program files/microchip/xc32/v4.60/bin/bin/../../lib/gcc/pic32c/8.3.1/../../../../pic32c/lib/thumb/v6-m/nofp\libm-fast-emfloat.a(__aeabi_dsub.o)
 .xc_stack_usage
                0x0000000000000000       0x1a c:/program files/microchip/xc32/v4.60/bin/bin/../../lib/gcc/pic32c/8.3.1/../../../../pic32c/lib/thumb/v6-m/nofp\libm-fast-emfloat.a(__aeabi_dsub.o)
 .xc_stack_usage.hdr
                0x0000000000000000        0xe c:/program files/microchip/xc32/v4.60/bin/bin/../../lib/gcc/pic32c/8.3.1/../../../../pic32c/lib/thumb/v6-m/nofp\libm-fast-emfloat.a(__aeabi_fmul.o)
 .xc_stack_usage
                0x0000000000000000       0x1a c:/program files/microchip/xc32/v4.60/bin/bin/../../lib/gcc/pic32c/8.3.1/../../../../pic32c/lib/thumb/v6-m/nofp\libm-fast-emfloat.a(__aeabi_fmul.o)
 .xc_stack_usage.hdr
                0x0000000000000000        0xe c:/program files/microchip/xc32/v4.60/bin/bin/../../lib/gcc/pic32c/8.3.1/../../../../pic32c/lib/thumb/v6-m/nofp\libm-fast-emfloat.a(__aeabi_dmul_aux.o)
 .xc_stack_usage
                0x0000000000000000       0x38 c:/program files/microchip/xc32/v4.60/bin/bin/../../lib/gcc/pic32c/8.3.1/../../../../pic32c/lib/thumb/v6-m/nofp\libm-fast-emfloat.a(__aeabi_dmul_aux.o)
 .xc_stack_usage.hdr
                0x0000000000000000        0xe c:/program files/microchip/xc32/v4.60/bin/bin/../../lib/gcc/pic32c/8.3.1/../../../../pic32c/lib/thumb/v6-m/nofp\libm-fast-emfloat.a(__aeabi_fdiv.o)
 .xc_stack_usage
                0x0000000000000000       0x1a c:/program files/microchip/xc32/v4.60/bin/bin/../../lib/gcc/pic32c/8.3.1/../../../../pic32c/lib/thumb/v6-m/nofp\libm-fast-emfloat.a(__aeabi_fdiv.o)
 .xc_stack_usage.hdr
                0x0000000000000000        0xe c:/program files/microchip/xc32/v4.60/bin/bin/../../lib/gcc/pic32c/8.3.1/../../../../pic32c/lib/thumb/v6-m/nofp\libm-fast-emfloat.a(__aeabi_ddiv.o)
 .xc_stack_usage
                0x0000000000000000       0x1a c:/program files/microchip/xc32/v4.60/bin/bin/../../lib/gcc/pic32c/8.3.1/../../../../pic32c/lib/thumb/v6-m/nofp\libm-fast-emfloat.a(__aeabi_ddiv.o)
 .ARM.attributes
                0x0000000000000000       0x1c c:/program files/microchip/xc32/v4.60/bin/bin/../../lib/gcc/pic32c/8.3.1/../../../../pic32c/lib/thumb/v6-m/nofp\libm-fast-emfloat.a(__aeabi_fcmple.o)
 .text.__aeabi_fcmple
                0x0000000000000000       0x32 c:/program files/microchip/xc32/v4.60/bin/bin/../../lib/gcc/pic32c/8.3.1/../../../../pic32c/lib/thumb/v6-m/nofp\libm-fast-emfloat.a(__aeabi_fcmple.o)
 .xc_stack_usage.hdr
                0x0000000000000000        0xe c:/program files/microchip/xc32/v4.60/bin/bin/../../lib/gcc/pic32c/8.3.1/../../../../pic32c/lib/thumb/v6-m/nofp\libm-fast-emfloat.a(__aeabi_fcmple.o)
 .xc_stack_usage
                0x0000000000000000       0x1c c:/program files/microchip/xc32/v4.60/bin/bin/../../lib/gcc/pic32c/8.3.1/../../../../pic32c/lib/thumb/v6-m/nofp\libm-fast-emfloat.a(__aeabi_fcmple.o)
 .xc_stack_usage.hdr
                0x0000000000000000        0xe c:/program files/microchip/xc32/v4.60/bin/bin/../../lib/gcc/pic32c/8.3.1/../../../../pic32c/lib/thumb/v6-m/nofp\libm-fast-emfloat.a(__aeabi_fcmpeq.o)
 .xc_stack_usage
                0x0000000000000000       0x1c c:/program files/microchip/xc32/v4.60/bin/bin/../../lib/gcc/pic32c/8.3.1/../../../../pic32c/lib/thumb/v6-m/nofp\libm-fast-emfloat.a(__aeabi_fcmpeq.o)
 .xc_stack_usage.hdr
                0x0000000000000000        0xe c:/program files/microchip/xc32/v4.60/bin/bin/../../lib/gcc/pic32c/8.3.1/../../../../pic32c/lib/thumb/v6-m/nofp\libm-fast-emfloat.a(__aeabi_dcmpeq.o)
 .xc_stack_usage
                0x0000000000000000       0x1c c:/program files/microchip/xc32/v4.60/bin/bin/../../lib/gcc/pic32c/8.3.1/../../../../pic32c/lib/thumb/v6-m/nofp\libm-fast-emfloat.a(__aeabi_dcmpeq.o)
 .xc_stack_usage.hdr
                0x0000000000000000        0xe c:/program files/microchip/xc32/v4.60/bin/bin/../../lib/gcc/pic32c/8.3.1/../../../../pic32c/lib/thumb/v6-m/nofp\libm-fast-emfloat.a(__aeabi_fcmpge.o)
 .xc_stack_usage
                0x0000000000000000       0x1c c:/program files/microchip/xc32/v4.60/bin/bin/../../lib/gcc/pic32c/8.3.1/../../../../pic32c/lib/thumb/v6-m/nofp\libm-fast-emfloat.a(__aeabi_fcmpge.o)
 .xc_stack_usage.hdr
                0x0000000000000000        0xe c:/program files/microchip/xc32/v4.60/bin/bin/../../lib/gcc/pic32c/8.3.1/../../../../pic32c/lib/thumb/v6-m/nofp\libm-fast-emfloat.a(__aeabi_fcmpgt.o)
 .xc_stack_usage
                0x0000000000000000       0x1c c:/program files/microchip/xc32/v4.60/bin/bin/../../lib/gcc/pic32c/8.3.1/../../../../pic32c/lib/thumb/v6-m/nofp\libm-fast-emfloat.a(__aeabi_fcmpgt.o)
 .xc_stack_usage.hdr
                0x0000000000000000        0xe c:/program files/microchip/xc32/v4.60/bin/bin/../../lib/gcc/pic32c/8.3.1/../../../../pic32c/lib/thumb/v6-m/nofp\libm-fast-emfloat.a(__aeabi_dcmpgt.o)
 .xc_stack_usage
                0x0000000000000000       0x1c c:/program files/microchip/xc32/v4.60/bin/bin/../../lib/gcc/pic32c/8.3.1/../../../../pic32c/lib/thumb/v6-m/nofp\libm-fast-emfloat.a(__aeabi_dcmpgt.o)
 .xc_stack_usage.hdr
                0x0000000000000000        0xe c:/program files/microchip/xc32/v4.60/bin/bin/../../lib/gcc/pic32c/8.3.1/../../../../pic32c/lib/thumb/v6-m/nofp\libm-fast-emfloat.a(__aeabi_fcmplt.o)
 .xc_stack_usage
                0x0000000000000000       0x1c c:/program files/microchip/xc32/v4.60/bin/bin/../../lib/gcc/pic32c/8.3.1/../../../../pic32c/lib/thumb/v6-m/nofp\libm-fast-emfloat.a(__aeabi_fcmplt.o)
 .xc_stack_usage.hdr
                0x0000000000000000        0xe c:/program files/microchip/xc32/v4.60/bin/bin/../../lib/gcc/pic32c/8.3.1/../../../../pic32c/lib/thumb/v6-m/nofp\libm-fast-emfloat.a(__aeabi_dcmplt.o)
 .xc_stack_usage
                0x0000000000000000       0x1c c:/program files/microchip/xc32/v4.60/bin/bin/../../lib/gcc/pic32c/8.3.1/../../../../pic32c/lib/thumb/v6-m/nofp\libm-fast-emfloat.a(__aeabi_dcmplt.o)
 .xc_stack_usage.hdr
                0x0000000000000000        0xe c:/program files/microchip/xc32/v4.60/bin/bin/../../lib/gcc/pic32c/8.3.1/../../../../pic32c/lib/thumb/v6-m/nofp\libm-fast-emfloat.a(__aeabi_f2iz.o)
 .xc_stack_usage
                0x0000000000000000       0x1a c:/program files/microchip/xc32/v4.60/bin/bin/../../lib/gcc/pic32c/8.3.1/../../../../pic32c/lib/thumb/v6-m/nofp\libm-fast-emfloat.a(__aeabi_f2iz.o)
 .xc_stack_usage.hdr
                0x0000000000000000        0xe c:/program files/microchip/xc32/v4.60/bin/bin/../../lib/gcc/pic32c/8.3.1/../../../../pic32c/lib/thumb/v6-m/nofp\libm-fast-emfloat.a(__aeabi_d2iz.o)
 .xc_stack_usage
                0x0000000000000000       0x1a c:/program files/microchip/xc32/v4.60/bin/bin/../../lib/gcc/pic32c/8.3.1/../../../../pic32c/lib/thumb/v6-m/nofp\libm-fast-emfloat.a(__aeabi_d2iz.o)
 .xc_stack_usage.hdr
                0x0000000000000000        0xe c:/program files/microchip/xc32/v4.60/bin/bin/../../lib/gcc/pic32c/8.3.1/../../../../pic32c/lib/thumb/v6-m/nofp\libm-fast-emfloat.a(__aeabi_f2uiz.o)
 .xc_stack_usage
                0x0000000000000000       0x1b c:/program files/microchip/xc32/v4.60/bin/bin/../../lib/gcc/pic32c/8.3.1/../../../../pic32c/lib/thumb/v6-m/nofp\libm-fast-emfloat.a(__aeabi_f2uiz.o)
 .xc_stack_usage.hdr
                0x0000000000000000        0xe c:/program files/microchip/xc32/v4.60/bin/bin/../../lib/gcc/pic32c/8.3.1/../../../../pic32c/lib/thumb/v6-m/nofp\libm-fast-emfloat.a(__aeabi_d2uiz.o)
 .xc_stack_usage
                0x0000000000000000       0x43 c:/program files/microchip/xc32/v4.60/bin/bin/../../lib/gcc/pic32c/8.3.1/../../../../pic32c/lib/thumb/v6-m/nofp\libm-fast-emfloat.a(__aeabi_d2uiz.o)
 .xc_stack_usage.hdr
                0x0000000000000000        0xe c:/program files/microchip/xc32/v4.60/bin/bin/../../lib/gcc/pic32c/8.3.1/../../../../pic32c/lib/thumb/v6-m/nofp\libm-fast-emfloat.a(__aeabi_i2f.o)
 .xc_stack_usage
                0x0000000000000000       0x19 c:/program files/microchip/xc32/v4.60/bin/bin/../../lib/gcc/pic32c/8.3.1/../../../../pic32c/lib/thumb/v6-m/nofp\libm-fast-emfloat.a(__aeabi_i2f.o)
 .xc_stack_usage.hdr
                0x0000000000000000        0xe c:/program files/microchip/xc32/v4.60/bin/bin/../../lib/gcc/pic32c/8.3.1/../../../../pic32c/lib/thumb/v6-m/nofp\libm-fast-emfloat.a(__aeabi_i2d.o)
 .xc_stack_usage
                0x0000000000000000       0x19 c:/program files/microchip/xc32/v4.60/bin/bin/../../lib/gcc/pic32c/8.3.1/../../../../pic32c/lib/thumb/v6-m/nofp\libm-fast-emfloat.a(__aeabi_i2d.o)
 .xc_stack_usage.hdr
                0x0000000000000000        0xe c:/program files/microchip/xc32/v4.60/bin/bin/../../lib/gcc/pic32c/8.3.1/../../../../pic32c/lib/thumb/v6-m/nofp\libm-fast-emfloat.a(__aeabi_l2f.o)
 .xc_stack_usage
                0x0000000000000000       0x19 c:/program files/microchip/xc32/v4.60/bin/bin/../../lib/gcc/pic32c/8.3.1/../../../../pic32c/lib/thumb/v6-m/nofp\libm-fast-emfloat.a(__aeabi_l2f.o)
 .xc_stack_usage.hdr
                0x0000000000000000        0xe c:/program files/microchip/xc32/v4.60/bin/bin/../../lib/gcc/pic32c/8.3.1/../../../../pic32c/lib/thumb/v6-m/nofp\libm-fast-emfloat.a(__aeabi_ui2f.o)
 .xc_stack_usage
                0x0000000000000000       0x1a c:/program files/microchip/xc32/v4.60/bin/bin/../../lib/gcc/pic32c/8.3.1/../../../../pic32c/lib/thumb/v6-m/nofp\libm-fast-emfloat.a(__aeabi_ui2f.o)
 .xc_stack_usage.hdr
                0x0000000000000000        0xe c:/program files/microchip/xc32/v4.60/bin/bin/../../lib/gcc/pic32c/8.3.1/../../../../pic32c/lib/thumb/v6-m/nofp\libm-fast-emfloat.a(__aeabi_ui2d.o)
 .xc_stack_usage
                0x0000000000000000       0x1a c:/program files/microchip/xc32/v4.60/bin/bin/../../lib/gcc/pic32c/8.3.1/../../../../pic32c/lib/thumb/v6-m/nofp\libm-fast-emfloat.a(__aeabi_ui2d.o)
 .xc_stack_usage.hdr
                0x0000000000000000        0xe c:/program files/microchip/xc32/v4.60/bin/bin/../../lib/gcc/pic32c/8.3.1/../../../../pic32c/lib/thumb/v6-m/nofp\libm-fast-emfloat.a(__aeabi_ul2f.o)
 .xc_stack_usage
                0x0000000000000000       0x1a c:/program files/microchip/xc32/v4.60/bin/bin/../../lib/gcc/pic32c/8.3.1/../../../../pic32c/lib/thumb/v6-m/nofp\libm-fast-emfloat.a(__aeabi_ul2f.o)
 .xc_stack_usage.hdr
                0x0000000000000000        0xe c:/program files/microchip/xc32/v4.60/bin/bin/../../lib/gcc/pic32c/8.3.1/../../../../pic32c/lib/thumb/v6-m/nofp\libm-fast-emfloat.a(__aeabi_f2d.o)
 .xc_stack_usage
                0x0000000000000000       0x19 c:/program files/microchip/xc32/v4.60/bin/bin/../../lib/gcc/pic32c/8.3.1/../../../../pic32c/lib/thumb/v6-m/nofp\libm-fast-emfloat.a(__aeabi_f2d.o)
 .xc_stack_usage.hdr
                0x0000000000000000        0xe c:/program files/microchip/xc32/v4.60/bin/bin/../../lib/gcc/pic32c/8.3.1/../../../../pic32c/lib/thumb/v6-m/nofp\libm-fast-emfloat.a(__aeabi_d2f.o)
 .xc_stack_usage
                0x0000000000000000       0x19 c:/program files/microchip/xc32/v4.60/bin/bin/../../lib/gcc/pic32c/8.3.1/../../../../pic32c/lib/thumb/v6-m/nofp\libm-fast-emfloat.a(__aeabi_d2f.o)
 .ARM.attributes
                0x0000000000000000       0x2c c:/program files/microchip/xc32/v4.60/bin/bin/../../lib/gcc/pic32c/8.3.1/../../../../pic32c/lib/thumb/v6-m/nofp\libm-fast-emfloat.a(__SEGGER_RTL_float64_PolyEvalP.o)
 .comment       0x0000000000000000       0x2c c:/program files/microchip/xc32/v4.60/bin/bin/../../lib/gcc/pic32c/8.3.1/../../../../pic32c/lib/thumb/v6-m/nofp\libm-fast-emfloat.a(__SEGGER_RTL_float64_PolyEvalP.o)
 .text.__SEGGER_RTL_float64_PolyEvalP
                0x0000000000000000       0xd4 c:/program files/microchip/xc32/v4.60/bin/bin/../../lib/gcc/pic32c/8.3.1/../../../../pic32c/lib/thumb/v6-m/nofp\libm-fast-emfloat.a(__SEGGER_RTL_float64_PolyEvalP.o)
 .xc_stack_usage.hdr
                0x0000000000000000        0xe c:/program files/microchip/xc32/v4.60/bin/bin/../../lib/gcc/pic32c/8.3.1/../../../../pic32c/lib/thumb/v6-m/nofp\libm-fast-emfloat.a(__SEGGER_RTL_float64_PolyEvalP.o)
 .xc_stack_usage
                0x0000000000000000       0x2c c:/program files/microchip/xc32/v4.60/bin/bin/../../lib/gcc/pic32c/8.3.1/../../../../pic32c/lib/thumb/v6-m/nofp\libm-fast-emfloat.a(__SEGGER_RTL_float64_PolyEvalP.o)
 .ARM.attributes
                0x0000000000000000       0x2c c:/program files/microchip/xc32/v4.60/bin/bin/../../lib/gcc/pic32c/8.3.1/../../../../pic32c/lib/thumb/v6-m/nofp\libm-fast-emfloat.a(ldexp.o)
 .comment       0x0000000000000000       0x2c c:/program files/microchip/xc32/v4.60/bin/bin/../../lib/gcc/pic32c/8.3.1/../../../../pic32c/lib/thumb/v6-m/nofp\libm-fast-emfloat.a(ldexp.o)
 .text.ldexp    0x0000000000000000       0x54 c:/program files/microchip/xc32/v4.60/bin/bin/../../lib/gcc/pic32c/8.3.1/../../../../pic32c/lib/thumb/v6-m/nofp\libm-fast-emfloat.a(ldexp.o)
 .xc_stack_usage.hdr
                0x0000000000000000        0xe c:/program files/microchip/xc32/v4.60/bin/bin/../../lib/gcc/pic32c/8.3.1/../../../../pic32c/lib/thumb/v6-m/nofp\libm-fast-emfloat.a(ldexp.o)
 .xc_stack_usage
                0x0000000000000000       0x13 c:/program files/microchip/xc32/v4.60/bin/bin/../../lib/gcc/pic32c/8.3.1/../../../../pic32c/lib/thumb/v6-m/nofp\libm-fast-emfloat.a(ldexp.o)
 .ARM.attributes
                0x0000000000000000       0x2c c:/program files/microchip/xc32/v4.60/bin/bin/../../lib/gcc/pic32c/8.3.1/../../../../pic32c/lib/thumb/v6-m/nofp\libm-fast-emfloat.a(log.o)
 .comment       0x0000000000000000       0x2c c:/program files/microchip/xc32/v4.60/bin/bin/../../lib/gcc/pic32c/8.3.1/../../../../pic32c/lib/thumb/v6-m/nofp\libm-fast-emfloat.a(log.o)
 .text.log      0x0000000000000000      0x1dc c:/program files/microchip/xc32/v4.60/bin/bin/../../lib/gcc/pic32c/8.3.1/../../../../pic32c/lib/thumb/v6-m/nofp\libm-fast-emfloat.a(log.o)
 .xc_stack_usage.hdr
                0x0000000000000000        0xe c:/program files/microchip/xc32/v4.60/bin/bin/../../lib/gcc/pic32c/8.3.1/../../../../pic32c/lib/thumb/v6-m/nofp\libm-fast-emfloat.a(log.o)
 .xc_stack_usage
                0x0000000000000000       0x11 c:/program files/microchip/xc32/v4.60/bin/bin/../../lib/gcc/pic32c/8.3.1/../../../../pic32c/lib/thumb/v6-m/nofp\libm-fast-emfloat.a(log.o)
 .ARM.attributes
                0x0000000000000000       0x2c c:/program files/microchip/xc32/v4.60/bin/bin/../../lib/gcc/pic32c/8.3.1/../../../../pic32c/lib/thumb/v6-m/nofp\libm-fast-emfloat.a(exp.o)
 .comment       0x0000000000000000       0x2c c:/program files/microchip/xc32/v4.60/bin/bin/../../lib/gcc/pic32c/8.3.1/../../../../pic32c/lib/thumb/v6-m/nofp\libm-fast-emfloat.a(exp.o)
 .text.exp      0x0000000000000000      0x20c c:/program files/microchip/xc32/v4.60/bin/bin/../../lib/gcc/pic32c/8.3.1/../../../../pic32c/lib/thumb/v6-m/nofp\libm-fast-emfloat.a(exp.o)
 .xc_stack_usage.hdr
                0x0000000000000000        0xe c:/program files/microchip/xc32/v4.60/bin/bin/../../lib/gcc/pic32c/8.3.1/../../../../pic32c/lib/thumb/v6-m/nofp\libm-fast-emfloat.a(exp.o)
 .xc_stack_usage
                0x0000000000000000       0x11 c:/program files/microchip/xc32/v4.60/bin/bin/../../lib/gcc/pic32c/8.3.1/../../../../pic32c/lib/thumb/v6-m/nofp\libm-fast-emfloat.a(exp.o)
 .ARM.attributes
                0x0000000000000000       0x2c c:/program files/microchip/xc32/v4.60/bin/bin/../../lib/gcc/pic32c/8.3.1/../../../../pic32c/lib/thumb/v6-m/nofp\libm-fast-emfloat.a(__SEGGER_RTL_float64_Log.o)
 .comment       0x0000000000000000       0x2c c:/program files/microchip/xc32/v4.60/bin/bin/../../lib/gcc/pic32c/8.3.1/../../../../pic32c/lib/thumb/v6-m/nofp\libm-fast-emfloat.a(__SEGGER_RTL_float64_Log.o)
 .rodata.__SEGGER_RTL_float64_Log
                0x0000000000000000       0x28 c:/program files/microchip/xc32/v4.60/bin/bin/../../lib/gcc/pic32c/8.3.1/../../../../pic32c/lib/thumb/v6-m/nofp\libm-fast-emfloat.a(__SEGGER_RTL_float64_Log.o)
 .xc_stack_usage.hdr
                0x0000000000000000        0xe c:/program files/microchip/xc32/v4.60/bin/bin/../../lib/gcc/pic32c/8.3.1/../../../../pic32c/lib/thumb/v6-m/nofp\libm-fast-emfloat.a(__SEGGER_RTL_float64_Log.o)
 .xc_stack_usage
                0x0000000000000000        0x0 c:/program files/microchip/xc32/v4.60/bin/bin/../../lib/gcc/pic32c/8.3.1/../../../../pic32c/lib/thumb/v6-m/nofp\libm-fast-emfloat.a(__SEGGER_RTL_float64_Log.o)
 .ARM.attributes
                0x0000000000000000       0x2c c:/program files/microchip/xc32/v4.60/bin/bin/../../lib/gcc/pic32c/8.3.1/../../../../pic32c/lib/thumb/v6-m/nofp\libm-fast-emfloat.a(__SEGGER_RTL_float64_PolyEvalQ.o)
 .comment       0x0000000000000000       0x2c c:/program files/microchip/xc32/v4.60/bin/bin/../../lib/gcc/pic32c/8.3.1/../../../../pic32c/lib/thumb/v6-m/nofp\libm-fast-emfloat.a(__SEGGER_RTL_float64_PolyEvalQ.o)
 .text.__SEGGER_RTL_float64_PolyEvalQ
                0x0000000000000000       0x80 c:/program files/microchip/xc32/v4.60/bin/bin/../../lib/gcc/pic32c/8.3.1/../../../../pic32c/lib/thumb/v6-m/nofp\libm-fast-emfloat.a(__SEGGER_RTL_float64_PolyEvalQ.o)
 .xc_stack_usage.hdr
                0x0000000000000000        0xe c:/program files/microchip/xc32/v4.60/bin/bin/../../lib/gcc/pic32c/8.3.1/../../../../pic32c/lib/thumb/v6-m/nofp\libm-fast-emfloat.a(__SEGGER_RTL_float64_PolyEvalQ.o)
 .xc_stack_usage
                0x0000000000000000       0x2c c:/program files/microchip/xc32/v4.60/bin/bin/../../lib/gcc/pic32c/8.3.1/../../../../pic32c/lib/thumb/v6-m/nofp\libm-fast-emfloat.a(__SEGGER_RTL_float64_PolyEvalQ.o)
 .ARM.attributes
                0x0000000000000000       0x2c c:/program files/microchip/xc32/v4.60/bin/bin/../../lib/gcc/pic32c/8.3.1/../../../../pic32c/lib/thumb/v6-m/nofp\libm-fast-emfloat.a(frexp.o)
 .comment       0x0000000000000000       0x2c c:/program files/microchip/xc32/v4.60/bin/bin/../../lib/gcc/pic32c/8.3.1/../../../../pic32c/lib/thumb/v6-m/nofp\libm-fast-emfloat.a(frexp.o)
 .text.frexp    0x0000000000000000       0x40 c:/program files/microchip/xc32/v4.60/bin/bin/../../lib/gcc/pic32c/8.3.1/../../../../pic32c/lib/thumb/v6-m/nofp\libm-fast-emfloat.a(frexp.o)
 .xc_stack_usage.hdr
                0x0000000000000000        0xe c:/program files/microchip/xc32/v4.60/bin/bin/../../lib/gcc/pic32c/8.3.1/../../../../pic32c/lib/thumb/v6-m/nofp\libm-fast-emfloat.a(frexp.o)
 .xc_stack_usage
                0x0000000000000000       0x13 c:/program files/microchip/xc32/v4.60/bin/bin/../../lib/gcc/pic32c/8.3.1/../../../../pic32c/lib/thumb/v6-m/nofp\libm-fast-emfloat.a(frexp.o)
 .text          0x0000000000000000        0x0 c:/program files/microchip/xc32/v4.60/bin/bin/../../lib/gcc/pic32c/8.3.1/../../../../pic32c/lib/thumb/v6-m/nofp\libc-musl.a(__libc_start_main.o)
 .data          0x0000000000000000        0x0 c:/program files/microchip/xc32/v4.60/bin/bin/../../lib/gcc/pic32c/8.3.1/../../../../pic32c/lib/thumb/v6-m/nofp\libc-musl.a(__libc_start_main.o)
 .bss           0x0000000000000000        0x0 c:/program files/microchip/xc32/v4.60/bin/bin/../../lib/gcc/pic32c/8.3.1/../../../../pic32c/lib/thumb/v6-m/nofp\libc-musl.a(__libc_start_main.o)
 .xc_stack_usage
                0x0000000000000000       0x34 c:/program files/microchip/xc32/v4.60/bin/bin/../../lib/gcc/pic32c/8.3.1/../../../../pic32c/lib/thumb/v6-m/nofp\libc-musl.a(__libc_start_main.o)
 .xc_stack_usage.hdr
                0x0000000000000000        0xe c:/program files/microchip/xc32/v4.60/bin/bin/../../lib/gcc/pic32c/8.3.1/../../../../pic32c/lib/thumb/v6-m/nofp\libc-musl.a(__libc_start_main.o)
 .text          0x0000000000000000        0x0 c:/program files/microchip/xc32/v4.60/bin/bin/../../lib/gcc/pic32c/8.3.1/../../../../pic32c/lib/thumb/v6-m/nofp\libc-musl.a(__errno_location.o)
 .data          0x0000000000000000        0x0 c:/program files/microchip/xc32/v4.60/bin/bin/../../lib/gcc/pic32c/8.3.1/../../../../pic32c/lib/thumb/v6-m/nofp\libc-musl.a(__errno_location.o)
 .xc_stack_usage.hdr
                0x0000000000000000        0xe c:/program files/microchip/xc32/v4.60/bin/bin/../../lib/gcc/pic32c/8.3.1/../../../../pic32c/lib/thumb/v6-m/nofp\libc-musl.a(__errno_location.o)
 .text          0x0000000000000000        0x0 c:/program files/microchip/xc32/v4.60/bin/bin/../../lib/gcc/pic32c/8.3.1/../../../../pic32c/lib/thumb/v6-m/nofp\libc-musl.a(libc.o)
 .data          0x0000000000000000        0x0 c:/program files/microchip/xc32/v4.60/bin/bin/../../lib/gcc/pic32c/8.3.1/../../../../pic32c/lib/thumb/v6-m/nofp\libc-musl.a(libc.o)
 .xc_stack_usage.hdr
                0x0000000000000000        0xe c:/program files/microchip/xc32/v4.60/bin/bin/../../lib/gcc/pic32c/8.3.1/../../../../pic32c/lib/thumb/v6-m/nofp\libc-musl.a(libc.o)
 .text          0x0000000000000000        0x0 c:/program files/microchip/xc32/v4.60/bin/bin/../../lib/gcc/pic32c/8.3.1/../../../../pic32c/lib/thumb/v6-m/nofp\libc-musl.a(expand_heap.o)
 .data          0x0000000000000000        0x0 c:/program files/microchip/xc32/v4.60/bin/bin/../../lib/gcc/pic32c/8.3.1/../../../../pic32c/lib/thumb/v6-m/nofp\libc-musl.a(expand_heap.o)
 .bss           0x0000000000000000        0x0 c:/program files/microchip/xc32/v4.60/bin/bin/../../lib/gcc/pic32c/8.3.1/../../../../pic32c/lib/thumb/v6-m/nofp\libc-musl.a(expand_heap.o)
 .xc_stack_usage
                0x0000000000000000       0x1b c:/program files/microchip/xc32/v4.60/bin/bin/../../lib/gcc/pic32c/8.3.1/../../../../pic32c/lib/thumb/v6-m/nofp\libc-musl.a(expand_heap.o)
 .xc_stack_usage.hdr
                0x0000000000000000        0xe c:/program files/microchip/xc32/v4.60/bin/bin/../../lib/gcc/pic32c/8.3.1/../../../../pic32c/lib/thumb/v6-m/nofp\libc-musl.a(expand_heap.o)
 .text          0x0000000000000000        0x0 c:/program files/microchip/xc32/v4.60/bin/bin/../../lib/gcc/pic32c/8.3.1/../../../../pic32c/lib/thumb/v6-m/nofp\libc-musl.a(__sio_printf_cdeEfFgGnpsuxX.o)
 .data          0x0000000000000000        0x0 c:/program files/microchip/xc32/v4.60/bin/bin/../../lib/gcc/pic32c/8.3.1/../../../../pic32c/lib/thumb/v6-m/nofp\libc-musl.a(__sio_printf_cdeEfFgGnpsuxX.o)
 .bss           0x0000000000000000        0x0 c:/program files/microchip/xc32/v4.60/bin/bin/../../lib/gcc/pic32c/8.3.1/../../../../pic32c/lib/thumb/v6-m/nofp\libc-musl.a(__sio_printf_cdeEfFgGnpsuxX.o)
 .xc_stack_usage
                0x0000000000000000       0x44 c:/program files/microchip/xc32/v4.60/bin/bin/../../lib/gcc/pic32c/8.3.1/../../../../pic32c/lib/thumb/v6-m/nofp\libc-musl.a(__sio_printf_cdeEfFgGnpsuxX.o)
 .text.__sio_printf_cdeEfFgGnpsuxX
                0x0000000000000000       0x24 c:/program files/microchip/xc32/v4.60/bin/bin/../../lib/gcc/pic32c/8.3.1/../../../../pic32c/lib/thumb/v6-m/nofp\libc-musl.a(__sio_printf_cdeEfFgGnpsuxX.o)
 .xc_stack_usage.hdr
                0x0000000000000000        0xe c:/program files/microchip/xc32/v4.60/bin/bin/../../lib/gcc/pic32c/8.3.1/../../../../pic32c/lib/thumb/v6-m/nofp\libc-musl.a(__sio_printf_cdeEfFgGnpsuxX.o)
 .text          0x0000000000000000        0x0 c:/program files/microchip/xc32/v4.60/bin/bin/../../lib/gcc/pic32c/8.3.1/../../../../pic32c/lib/thumb/v6-m/nofp\libc-musl.a(__sio_sprintf_cdeEfFgGnpsuxX.o)
 .data          0x0000000000000000        0x0 c:/program files/microchip/xc32/v4.60/bin/bin/../../lib/gcc/pic32c/8.3.1/../../../../pic32c/lib/thumb/v6-m/nofp\libc-musl.a(__sio_sprintf_cdeEfFgGnpsuxX.o)
 .bss           0x0000000000000000        0x0 c:/program files/microchip/xc32/v4.60/bin/bin/../../lib/gcc/pic32c/8.3.1/../../../../pic32c/lib/thumb/v6-m/nofp\libc-musl.a(__sio_sprintf_cdeEfFgGnpsuxX.o)
 .xc_stack_usage
                0x0000000000000000       0x46 c:/program files/microchip/xc32/v4.60/bin/bin/../../lib/gcc/pic32c/8.3.1/../../../../pic32c/lib/thumb/v6-m/nofp\libc-musl.a(__sio_sprintf_cdeEfFgGnpsuxX.o)
 .text.__sio_sprintf_cdeEfFgGnpsuxX
                0x0000000000000000       0x24 c:/program files/microchip/xc32/v4.60/bin/bin/../../lib/gcc/pic32c/8.3.1/../../../../pic32c/lib/thumb/v6-m/nofp\libc-musl.a(__sio_sprintf_cdeEfFgGnpsuxX.o)
 .xc_stack_usage.hdr
                0x0000000000000000        0xe c:/program files/microchip/xc32/v4.60/bin/bin/../../lib/gcc/pic32c/8.3.1/../../../../pic32c/lib/thumb/v6-m/nofp\libc-musl.a(__sio_sprintf_cdeEfFgGnpsuxX.o)
 .text          0x0000000000000000        0x0 c:/program files/microchip/xc32/v4.60/bin/bin/../../lib/gcc/pic32c/8.3.1/../../../../pic32c/lib/thumb/v6-m/nofp\libc-musl.a(__fmt_d.o)
 .data          0x0000000000000000        0x0 c:/program files/microchip/xc32/v4.60/bin/bin/../../lib/gcc/pic32c/8.3.1/../../../../pic32c/lib/thumb/v6-m/nofp\libc-musl.a(__fmt_d.o)
 .bss           0x0000000000000000        0x0 c:/program files/microchip/xc32/v4.60/bin/bin/../../lib/gcc/pic32c/8.3.1/../../../../pic32c/lib/thumb/v6-m/nofp\libc-musl.a(__fmt_d.o)
 .xc_stack_usage
                0x0000000000000000       0x15 c:/program files/microchip/xc32/v4.60/bin/bin/../../lib/gcc/pic32c/8.3.1/../../../../pic32c/lib/thumb/v6-m/nofp\libc-musl.a(__fmt_d.o)
 .xc_stack_usage.hdr
                0x0000000000000000        0xe c:/program files/microchip/xc32/v4.60/bin/bin/../../lib/gcc/pic32c/8.3.1/../../../../pic32c/lib/thumb/v6-m/nofp\libc-musl.a(__fmt_d.o)
 .text          0x0000000000000000        0x0 c:/program files/microchip/xc32/v4.60/bin/bin/../../lib/gcc/pic32c/8.3.1/../../../../pic32c/lib/thumb/v6-m/nofp\libc-musl.a(__fmt_fp.o)
 .data          0x0000000000000000        0x0 c:/program files/microchip/xc32/v4.60/bin/bin/../../lib/gcc/pic32c/8.3.1/../../../../pic32c/lib/thumb/v6-m/nofp\libc-musl.a(__fmt_fp.o)
 .bss           0x0000000000000000        0x0 c:/program files/microchip/xc32/v4.60/bin/bin/../../lib/gcc/pic32c/8.3.1/../../../../pic32c/lib/thumb/v6-m/nofp\libc-musl.a(__fmt_fp.o)
 .xc_stack_usage
                0x0000000000000000       0x16 c:/program files/microchip/xc32/v4.60/bin/bin/../../lib/gcc/pic32c/8.3.1/../../../../pic32c/lib/thumb/v6-m/nofp\libc-musl.a(__fmt_fp.o)
 .xc_stack_usage.hdr
                0x0000000000000000        0xe c:/program files/microchip/xc32/v4.60/bin/bin/../../lib/gcc/pic32c/8.3.1/../../../../pic32c/lib/thumb/v6-m/nofp\libc-musl.a(__fmt_fp.o)
 .text          0x0000000000000000        0x0 c:/program files/microchip/xc32/v4.60/bin/bin/../../lib/gcc/pic32c/8.3.1/../../../../pic32c/lib/thumb/v6-m/nofp\libc-musl.a(__fmt_s.o)
 .data          0x0000000000000000        0x0 c:/program files/microchip/xc32/v4.60/bin/bin/../../lib/gcc/pic32c/8.3.1/../../../../pic32c/lib/thumb/v6-m/nofp\libc-musl.a(__fmt_s.o)
 .bss           0x0000000000000000        0x0 c:/program files/microchip/xc32/v4.60/bin/bin/../../lib/gcc/pic32c/8.3.1/../../../../pic32c/lib/thumb/v6-m/nofp\libc-musl.a(__fmt_s.o)
 .xc_stack_usage
                0x0000000000000000       0x15 c:/program files/microchip/xc32/v4.60/bin/bin/../../lib/gcc/pic32c/8.3.1/../../../../pic32c/lib/thumb/v6-m/nofp\libc-musl.a(__fmt_s.o)
 .xc_stack_usage.hdr
                0x0000000000000000        0xe c:/program files/microchip/xc32/v4.60/bin/bin/../../lib/gcc/pic32c/8.3.1/../../../../pic32c/lib/thumb/v6-m/nofp\libc-musl.a(__fmt_s.o)
 .text          0x0000000000000000        0x0 c:/program files/microchip/xc32/v4.60/bin/bin/../../lib/gcc/pic32c/8.3.1/../../../../pic32c/lib/thumb/v6-m/nofp\libc-musl.a(__fmt_u.o)
 .data          0x0000000000000000        0x0 c:/program files/microchip/xc32/v4.60/bin/bin/../../lib/gcc/pic32c/8.3.1/../../../../pic32c/lib/thumb/v6-m/nofp\libc-musl.a(__fmt_u.o)
 .bss           0x0000000000000000        0x0 c:/program files/microchip/xc32/v4.60/bin/bin/../../lib/gcc/pic32c/8.3.1/../../../../pic32c/lib/thumb/v6-m/nofp\libc-musl.a(__fmt_u.o)
 .xc_stack_usage
                0x0000000000000000       0x15 c:/program files/microchip/xc32/v4.60/bin/bin/../../lib/gcc/pic32c/8.3.1/../../../../pic32c/lib/thumb/v6-m/nofp\libc-musl.a(__fmt_u.o)
 .xc_stack_usage.hdr
                0x0000000000000000        0xe c:/program files/microchip/xc32/v4.60/bin/bin/../../lib/gcc/pic32c/8.3.1/../../../../pic32c/lib/thumb/v6-m/nofp\libc-musl.a(__fmt_u.o)
 .text          0x0000000000000000        0x0 c:/program files/microchip/xc32/v4.60/bin/bin/../../lib/gcc/pic32c/8.3.1/../../../../pic32c/lib/thumb/v6-m/nofp\libc-musl.a(__fmt_x.o)
 .data          0x0000000000000000        0x0 c:/program files/microchip/xc32/v4.60/bin/bin/../../lib/gcc/pic32c/8.3.1/../../../../pic32c/lib/thumb/v6-m/nofp\libc-musl.a(__fmt_x.o)
 .bss           0x0000000000000000        0x0 c:/program files/microchip/xc32/v4.60/bin/bin/../../lib/gcc/pic32c/8.3.1/../../../../pic32c/lib/thumb/v6-m/nofp\libc-musl.a(__fmt_x.o)
 .xc_stack_usage
                0x0000000000000000       0x15 c:/program files/microchip/xc32/v4.60/bin/bin/../../lib/gcc/pic32c/8.3.1/../../../../pic32c/lib/thumb/v6-m/nofp\libc-musl.a(__fmt_x.o)
 .xc_stack_usage.hdr
                0x0000000000000000        0xe c:/program files/microchip/xc32/v4.60/bin/bin/../../lib/gcc/pic32c/8.3.1/../../../../pic32c/lib/thumb/v6-m/nofp\libc-musl.a(__fmt_x.o)
 .text          0x0000000000000000        0x0 c:/program files/microchip/xc32/v4.60/bin/bin/../../lib/gcc/pic32c/8.3.1/../../../../pic32c/lib/thumb/v6-m/nofp\libc-musl.a(__pop_float.o)
 .data          0x0000000000000000        0x0 c:/program files/microchip/xc32/v4.60/bin/bin/../../lib/gcc/pic32c/8.3.1/../../../../pic32c/lib/thumb/v6-m/nofp\libc-musl.a(__pop_float.o)
 .bss           0x0000000000000000        0x0 c:/program files/microchip/xc32/v4.60/bin/bin/../../lib/gcc/pic32c/8.3.1/../../../../pic32c/lib/thumb/v6-m/nofp\libc-musl.a(__pop_float.o)
 .xc_stack_usage
                0x0000000000000000       0x19 c:/program files/microchip/xc32/v4.60/bin/bin/../../lib/gcc/pic32c/8.3.1/../../../../pic32c/lib/thumb/v6-m/nofp\libc-musl.a(__pop_float.o)
 .xc_stack_usage.hdr
                0x0000000000000000        0xe c:/program files/microchip/xc32/v4.60/bin/bin/../../lib/gcc/pic32c/8.3.1/../../../../pic32c/lib/thumb/v6-m/nofp\libc-musl.a(__pop_float.o)
 .text          0x0000000000000000        0x0 c:/program files/microchip/xc32/v4.60/bin/bin/../../lib/gcc/pic32c/8.3.1/../../../../pic32c/lib/thumb/v6-m/nofp\libc-musl.a(__pop_int.o)
 .data          0x0000000000000000        0x0 c:/program files/microchip/xc32/v4.60/bin/bin/../../lib/gcc/pic32c/8.3.1/../../../../pic32c/lib/thumb/v6-m/nofp\libc-musl.a(__pop_int.o)
 .bss           0x0000000000000000        0x0 c:/program files/microchip/xc32/v4.60/bin/bin/../../lib/gcc/pic32c/8.3.1/../../../../pic32c/lib/thumb/v6-m/nofp\libc-musl.a(__pop_int.o)
 .xc_stack_usage
                0x0000000000000000       0x17 c:/program files/microchip/xc32/v4.60/bin/bin/../../lib/gcc/pic32c/8.3.1/../../../../pic32c/lib/thumb/v6-m/nofp\libc-musl.a(__pop_int.o)
 .xc_stack_usage.hdr
                0x0000000000000000        0xe c:/program files/microchip/xc32/v4.60/bin/bin/../../lib/gcc/pic32c/8.3.1/../../../../pic32c/lib/thumb/v6-m/nofp\libc-musl.a(__pop_int.o)
 .text          0x0000000000000000        0x0 c:/program files/microchip/xc32/v4.60/bin/bin/../../lib/gcc/pic32c/8.3.1/../../../../pic32c/lib/thumb/v6-m/nofp\libc-musl.a(__pop_ptr.o)
 .data          0x0000000000000000        0x0 c:/program files/microchip/xc32/v4.60/bin/bin/../../lib/gcc/pic32c/8.3.1/../../../../pic32c/lib/thumb/v6-m/nofp\libc-musl.a(__pop_ptr.o)
 .bss           0x0000000000000000        0x0 c:/program files/microchip/xc32/v4.60/bin/bin/../../lib/gcc/pic32c/8.3.1/../../../../pic32c/lib/thumb/v6-m/nofp\libc-musl.a(__pop_ptr.o)
 .xc_stack_usage
                0x0000000000000000       0x17 c:/program files/microchip/xc32/v4.60/bin/bin/../../lib/gcc/pic32c/8.3.1/../../../../pic32c/lib/thumb/v6-m/nofp\libc-musl.a(__pop_ptr.o)
 .xc_stack_usage.hdr
                0x0000000000000000        0xe c:/program files/microchip/xc32/v4.60/bin/bin/../../lib/gcc/pic32c/8.3.1/../../../../pic32c/lib/thumb/v6-m/nofp\libc-musl.a(__pop_ptr.o)
 .text          0x0000000000000000        0x0 c:/program files/microchip/xc32/v4.60/bin/bin/../../lib/gcc/pic32c/8.3.1/../../../../pic32c/lib/thumb/v6-m/nofp\libc-musl.a(__printf_core.o)
 .data          0x0000000000000000        0x0 c:/program files/microchip/xc32/v4.60/bin/bin/../../lib/gcc/pic32c/8.3.1/../../../../pic32c/lib/thumb/v6-m/nofp\libc-musl.a(__printf_core.o)
 .bss           0x0000000000000000        0x0 c:/program files/microchip/xc32/v4.60/bin/bin/../../lib/gcc/pic32c/8.3.1/../../../../pic32c/lib/thumb/v6-m/nofp\libc-musl.a(__printf_core.o)
 .xc_stack_usage
                0x0000000000000000       0xaf c:/program files/microchip/xc32/v4.60/bin/bin/../../lib/gcc/pic32c/8.3.1/../../../../pic32c/lib/thumb/v6-m/nofp\libc-musl.a(__printf_core.o)
 .text.__string_out
                0x0000000000000000       0x2a c:/program files/microchip/xc32/v4.60/bin/bin/../../lib/gcc/pic32c/8.3.1/../../../../pic32c/lib/thumb/v6-m/nofp\libc-musl.a(__printf_core.o)
 .text.__dummy_fmts
                0x0000000000000000        0x4 c:/program files/microchip/xc32/v4.60/bin/bin/../../lib/gcc/pic32c/8.3.1/../../../../pic32c/lib/thumb/v6-m/nofp\libc-musl.a(__printf_core.o)
 .xc_stack_usage.hdr
                0x0000000000000000        0xe c:/program files/microchip/xc32/v4.60/bin/bin/../../lib/gcc/pic32c/8.3.1/../../../../pic32c/lib/thumb/v6-m/nofp\libc-musl.a(__printf_core.o)
 .text          0x0000000000000000        0x0 c:/program files/microchip/xc32/v4.60/bin/bin/../../lib/gcc/pic32c/8.3.1/../../../../pic32c/lib/thumb/v6-m/nofp\libc-musl.a(stdin.o)
 .xc_stack_usage
                0x0000000000000000       0x33 c:/program files/microchip/xc32/v4.60/bin/bin/../../lib/gcc/pic32c/8.3.1/../../../../pic32c/lib/thumb/v6-m/nofp\libc-musl.a(stdin.o)
 .xc_stack_usage.hdr
                0x0000000000000000        0xe c:/program files/microchip/xc32/v4.60/bin/bin/../../lib/gcc/pic32c/8.3.1/../../../../pic32c/lib/thumb/v6-m/nofp\libc-musl.a(stdin.o)
 .text          0x0000000000000000        0x0 c:/program files/microchip/xc32/v4.60/bin/bin/../../lib/gcc/pic32c/8.3.1/../../../../pic32c/lib/thumb/v6-m/nofp\libc-musl.a(stdout.o)
 .xc_stack_usage
                0x0000000000000000       0x51 c:/program files/microchip/xc32/v4.60/bin/bin/../../lib/gcc/pic32c/8.3.1/../../../../pic32c/lib/thumb/v6-m/nofp\libc-musl.a(stdout.o)
 .text.__dummy  0x0000000000000000        0x8 c:/program files/microchip/xc32/v4.60/bin/bin/../../lib/gcc/pic32c/8.3.1/../../../../pic32c/lib/thumb/v6-m/nofp\libc-musl.a(stdout.o)
 .xc_stack_usage.hdr
                0x0000000000000000        0xe c:/program files/microchip/xc32/v4.60/bin/bin/../../lib/gcc/pic32c/8.3.1/../../../../pic32c/lib/thumb/v6-m/nofp\libc-musl.a(stdout.o)
 .text          0x0000000000000000        0x0 c:/program files/microchip/xc32/v4.60/bin/bin/../../lib/gcc/pic32c/8.3.1/../../../../pic32c/lib/thumb/v6-m/nofp\libc-musl.a(putchar.o)
 .data          0x0000000000000000        0x0 c:/program files/microchip/xc32/v4.60/bin/bin/../../lib/gcc/pic32c/8.3.1/../../../../pic32c/lib/thumb/v6-m/nofp\libc-musl.a(putchar.o)
 .bss           0x0000000000000000        0x0 c:/program files/microchip/xc32/v4.60/bin/bin/../../lib/gcc/pic32c/8.3.1/../../../../pic32c/lib/thumb/v6-m/nofp\libc-musl.a(putchar.o)
 .xc_stack_usage
                0x0000000000000000       0x15 c:/program files/microchip/xc32/v4.60/bin/bin/../../lib/gcc/pic32c/8.3.1/../../../../pic32c/lib/thumb/v6-m/nofp\libc-musl.a(putchar.o)
 .xc_stack_usage.hdr
                0x0000000000000000        0xe c:/program files/microchip/xc32/v4.60/bin/bin/../../lib/gcc/pic32c/8.3.1/../../../../pic32c/lib/thumb/v6-m/nofp\libc-musl.a(putchar.o)
 .text          0x0000000000000000        0x0 c:/program files/microchip/xc32/v4.60/bin/bin/../../lib/gcc/pic32c/8.3.1/../../../../pic32c/lib/thumb/v6-m/nofp\libc-musl.a(puts.o)
 .data          0x0000000000000000        0x0 c:/program files/microchip/xc32/v4.60/bin/bin/../../lib/gcc/pic32c/8.3.1/../../../../pic32c/lib/thumb/v6-m/nofp\libc-musl.a(puts.o)
 .bss           0x0000000000000000        0x0 c:/program files/microchip/xc32/v4.60/bin/bin/../../lib/gcc/pic32c/8.3.1/../../../../pic32c/lib/thumb/v6-m/nofp\libc-musl.a(puts.o)
 .xc_stack_usage
                0x0000000000000000       0x12 c:/program files/microchip/xc32/v4.60/bin/bin/../../lib/gcc/pic32c/8.3.1/../../../../pic32c/lib/thumb/v6-m/nofp\libc-musl.a(puts.o)
 .xc_stack_usage.hdr
                0x0000000000000000        0xe c:/program files/microchip/xc32/v4.60/bin/bin/../../lib/gcc/pic32c/8.3.1/../../../../pic32c/lib/thumb/v6-m/nofp\libc-musl.a(puts.o)
 .text          0x0000000000000000        0x0 c:/program files/microchip/xc32/v4.60/bin/bin/../../lib/gcc/pic32c/8.3.1/../../../../pic32c/lib/thumb/v6-m/nofp\libc-musl.a(setbuf.o)
 .data          0x0000000000000000        0x0 c:/program files/microchip/xc32/v4.60/bin/bin/../../lib/gcc/pic32c/8.3.1/../../../../pic32c/lib/thumb/v6-m/nofp\libc-musl.a(setbuf.o)
 .bss           0x0000000000000000        0x0 c:/program files/microchip/xc32/v4.60/bin/bin/../../lib/gcc/pic32c/8.3.1/../../../../pic32c/lib/thumb/v6-m/nofp\libc-musl.a(setbuf.o)
 .xc_stack_usage
                0x0000000000000000       0x14 c:/program files/microchip/xc32/v4.60/bin/bin/../../lib/gcc/pic32c/8.3.1/../../../../pic32c/lib/thumb/v6-m/nofp\libc-musl.a(setbuf.o)
 .xc_stack_usage.hdr
                0x0000000000000000        0xe c:/program files/microchip/xc32/v4.60/bin/bin/../../lib/gcc/pic32c/8.3.1/../../../../pic32c/lib/thumb/v6-m/nofp\libc-musl.a(setbuf.o)
 .text          0x0000000000000000        0x0 c:/program files/microchip/xc32/v4.60/bin/bin/../../lib/gcc/pic32c/8.3.1/../../../../pic32c/lib/thumb/v6-m/nofp\libc-musl.a(atoi.o)
 .data          0x0000000000000000        0x0 c:/program files/microchip/xc32/v4.60/bin/bin/../../lib/gcc/pic32c/8.3.1/../../../../pic32c/lib/thumb/v6-m/nofp\libc-musl.a(atoi.o)
 .bss           0x0000000000000000        0x0 c:/program files/microchip/xc32/v4.60/bin/bin/../../lib/gcc/pic32c/8.3.1/../../../../pic32c/lib/thumb/v6-m/nofp\libc-musl.a(atoi.o)
 .xc_stack_usage
                0x0000000000000000       0x12 c:/program files/microchip/xc32/v4.60/bin/bin/../../lib/gcc/pic32c/8.3.1/../../../../pic32c/lib/thumb/v6-m/nofp\libc-musl.a(atoi.o)
 .xc_stack_usage.hdr
                0x0000000000000000        0xe c:/program files/microchip/xc32/v4.60/bin/bin/../../lib/gcc/pic32c/8.3.1/../../../../pic32c/lib/thumb/v6-m/nofp\libc-musl.a(atoi.o)
 .text          0x0000000000000000        0x0 c:/program files/microchip/xc32/v4.60/bin/bin/../../lib/gcc/pic32c/8.3.1/../../../../pic32c/lib/thumb/v6-m/nofp\libc-musl.a(gmtime.o)
 .data          0x0000000000000000        0x0 c:/program files/microchip/xc32/v4.60/bin/bin/../../lib/gcc/pic32c/8.3.1/../../../../pic32c/lib/thumb/v6-m/nofp\libc-musl.a(gmtime.o)
 .xc_stack_usage
                0x0000000000000000       0x14 c:/program files/microchip/xc32/v4.60/bin/bin/../../lib/gcc/pic32c/8.3.1/../../../../pic32c/lib/thumb/v6-m/nofp\libc-musl.a(gmtime.o)
 .xc_stack_usage.hdr
                0x0000000000000000        0xe c:/program files/microchip/xc32/v4.60/bin/bin/../../lib/gcc/pic32c/8.3.1/../../../../pic32c/lib/thumb/v6-m/nofp\libc-musl.a(gmtime.o)
 .text          0x0000000000000000        0x0 c:/program files/microchip/xc32/v4.60/bin/bin/../../lib/gcc/pic32c/8.3.1/../../../../pic32c/lib/thumb/v6-m/nofp\libc-musl.a(gmtime_r.o)
 .data          0x0000000000000000        0x0 c:/program files/microchip/xc32/v4.60/bin/bin/../../lib/gcc/pic32c/8.3.1/../../../../pic32c/lib/thumb/v6-m/nofp\libc-musl.a(gmtime_r.o)
 .bss           0x0000000000000000        0x0 c:/program files/microchip/xc32/v4.60/bin/bin/../../lib/gcc/pic32c/8.3.1/../../../../pic32c/lib/thumb/v6-m/nofp\libc-musl.a(gmtime_r.o)
 .xc_stack_usage
                0x0000000000000000       0x18 c:/program files/microchip/xc32/v4.60/bin/bin/../../lib/gcc/pic32c/8.3.1/../../../../pic32c/lib/thumb/v6-m/nofp\libc-musl.a(gmtime_r.o)
 .xc_stack_usage.hdr
                0x0000000000000000        0xe c:/program files/microchip/xc32/v4.60/bin/bin/../../lib/gcc/pic32c/8.3.1/../../../../pic32c/lib/thumb/v6-m/nofp\libc-musl.a(gmtime_r.o)
 .text          0x0000000000000000        0x0 c:/program files/microchip/xc32/v4.60/bin/bin/../../lib/gcc/pic32c/8.3.1/../../../../pic32c/lib/thumb/v6-m/nofp\libc-musl.a(mktime.o)
 .data          0x0000000000000000        0x0 c:/program files/microchip/xc32/v4.60/bin/bin/../../lib/gcc/pic32c/8.3.1/../../../../pic32c/lib/thumb/v6-m/nofp\libc-musl.a(mktime.o)
 .bss           0x0000000000000000        0x0 c:/program files/microchip/xc32/v4.60/bin/bin/../../lib/gcc/pic32c/8.3.1/../../../../pic32c/lib/thumb/v6-m/nofp\libc-musl.a(mktime.o)
 .xc_stack_usage
                0x0000000000000000       0x14 c:/program files/microchip/xc32/v4.60/bin/bin/../../lib/gcc/pic32c/8.3.1/../../../../pic32c/lib/thumb/v6-m/nofp\libc-musl.a(mktime.o)
 .xc_stack_usage.hdr
                0x0000000000000000        0xe c:/program files/microchip/xc32/v4.60/bin/bin/../../lib/gcc/pic32c/8.3.1/../../../../pic32c/lib/thumb/v6-m/nofp\libc-musl.a(mktime.o)
 .text          0x0000000000000000        0x0 c:/program files/microchip/xc32/v4.60/bin/bin/../../lib/gcc/pic32c/8.3.1/../../../../pic32c/lib/thumb/v6-m/nofp\libc-musl.a(tolower.o)
 .data          0x0000000000000000        0x0 c:/program files/microchip/xc32/v4.60/bin/bin/../../lib/gcc/pic32c/8.3.1/../../../../pic32c/lib/thumb/v6-m/nofp\libc-musl.a(tolower.o)
 .bss           0x0000000000000000        0x0 c:/program files/microchip/xc32/v4.60/bin/bin/../../lib/gcc/pic32c/8.3.1/../../../../pic32c/lib/thumb/v6-m/nofp\libc-musl.a(tolower.o)
 .xc_stack_usage
                0x0000000000000000       0x2e c:/program files/microchip/xc32/v4.60/bin/bin/../../lib/gcc/pic32c/8.3.1/../../../../pic32c/lib/thumb/v6-m/nofp\libc-musl.a(tolower.o)
 .text.__tolower_l
                0x0000000000000000        0x8 c:/program files/microchip/xc32/v4.60/bin/bin/../../lib/gcc/pic32c/8.3.1/../../../../pic32c/lib/thumb/v6-m/nofp\libc-musl.a(tolower.o)
 .xc_stack_usage.hdr
                0x0000000000000000        0xe c:/program files/microchip/xc32/v4.60/bin/bin/../../lib/gcc/pic32c/8.3.1/../../../../pic32c/lib/thumb/v6-m/nofp\libc-musl.a(tolower.o)
 .text          0x0000000000000000        0x0 c:/program files/microchip/xc32/v4.60/bin/bin/../../lib/gcc/pic32c/8.3.1/../../../../pic32c/lib/thumb/v6-m/nofp\libc-musl.a(toupper.o)
 .data          0x0000000000000000        0x0 c:/program files/microchip/xc32/v4.60/bin/bin/../../lib/gcc/pic32c/8.3.1/../../../../pic32c/lib/thumb/v6-m/nofp\libc-musl.a(toupper.o)
 .bss           0x0000000000000000        0x0 c:/program files/microchip/xc32/v4.60/bin/bin/../../lib/gcc/pic32c/8.3.1/../../../../pic32c/lib/thumb/v6-m/nofp\libc-musl.a(toupper.o)
 .xc_stack_usage
                0x0000000000000000       0x2e c:/program files/microchip/xc32/v4.60/bin/bin/../../lib/gcc/pic32c/8.3.1/../../../../pic32c/lib/thumb/v6-m/nofp\libc-musl.a(toupper.o)
 .text.__toupper_l
                0x0000000000000000        0x8 c:/program files/microchip/xc32/v4.60/bin/bin/../../lib/gcc/pic32c/8.3.1/../../../../pic32c/lib/thumb/v6-m/nofp\libc-musl.a(toupper.o)
 .xc_stack_usage.hdr
                0x0000000000000000        0xe c:/program files/microchip/xc32/v4.60/bin/bin/../../lib/gcc/pic32c/8.3.1/../../../../pic32c/lib/thumb/v6-m/nofp\libc-musl.a(toupper.o)
 .text          0x0000000000000000        0x0 c:/program files/microchip/xc32/v4.60/bin/bin/../../lib/gcc/pic32c/8.3.1/../../../../pic32c/lib/thumb/v6-m/nofp\libc-musl.a(__environ.o)
 .data          0x0000000000000000        0x0 c:/program files/microchip/xc32/v4.60/bin/bin/../../lib/gcc/pic32c/8.3.1/../../../../pic32c/lib/thumb/v6-m/nofp\libc-musl.a(__environ.o)
 .xc_stack_usage.hdr
                0x0000000000000000        0xe c:/program files/microchip/xc32/v4.60/bin/bin/../../lib/gcc/pic32c/8.3.1/../../../../pic32c/lib/thumb/v6-m/nofp\libc-musl.a(__environ.o)
 .text          0x0000000000000000        0x0 c:/program files/microchip/xc32/v4.60/bin/bin/../../lib/gcc/pic32c/8.3.1/../../../../pic32c/lib/thumb/v6-m/nofp\libc-musl.a(__int_vfprintf.o)
 .data          0x0000000000000000        0x0 c:/program files/microchip/xc32/v4.60/bin/bin/../../lib/gcc/pic32c/8.3.1/../../../../pic32c/lib/thumb/v6-m/nofp\libc-musl.a(__int_vfprintf.o)
 .bss           0x0000000000000000        0x0 c:/program files/microchip/xc32/v4.60/bin/bin/../../lib/gcc/pic32c/8.3.1/../../../../pic32c/lib/thumb/v6-m/nofp\libc-musl.a(__int_vfprintf.o)
 .xc_stack_usage
                0x0000000000000000       0x18 c:/program files/microchip/xc32/v4.60/bin/bin/../../lib/gcc/pic32c/8.3.1/../../../../pic32c/lib/thumb/v6-m/nofp\libc-musl.a(__int_vfprintf.o)
 .xc_stack_usage.hdr
                0x0000000000000000        0xe c:/program files/microchip/xc32/v4.60/bin/bin/../../lib/gcc/pic32c/8.3.1/../../../../pic32c/lib/thumb/v6-m/nofp\libc-musl.a(__int_vfprintf.o)
 .text          0x0000000000000000        0x0 c:/program files/microchip/xc32/v4.60/bin/bin/../../lib/gcc/pic32c/8.3.1/../../../../pic32c/lib/thumb/v6-m/nofp\libc-musl.a(__int_vsprintf.o)
 .data          0x0000000000000000        0x0 c:/program files/microchip/xc32/v4.60/bin/bin/../../lib/gcc/pic32c/8.3.1/../../../../pic32c/lib/thumb/v6-m/nofp\libc-musl.a(__int_vsprintf.o)
 .bss           0x0000000000000000        0x0 c:/program files/microchip/xc32/v4.60/bin/bin/../../lib/gcc/pic32c/8.3.1/../../../../pic32c/lib/thumb/v6-m/nofp\libc-musl.a(__int_vsprintf.o)
 .xc_stack_usage
                0x0000000000000000       0x18 c:/program files/microchip/xc32/v4.60/bin/bin/../../lib/gcc/pic32c/8.3.1/../../../../pic32c/lib/thumb/v6-m/nofp\libc-musl.a(__int_vsprintf.o)
 .xc_stack_usage.hdr
                0x0000000000000000        0xe c:/program files/microchip/xc32/v4.60/bin/bin/../../lib/gcc/pic32c/8.3.1/../../../../pic32c/lib/thumb/v6-m/nofp\libc-musl.a(__int_vsprintf.o)
 .text          0x0000000000000000        0x0 c:/program files/microchip/xc32/v4.60/bin/bin/../../lib/gcc/pic32c/8.3.1/../../../../pic32c/lib/thumb/v6-m/nofp\libc-musl.a(fputs.o)
 .data          0x0000000000000000        0x0 c:/program files/microchip/xc32/v4.60/bin/bin/../../lib/gcc/pic32c/8.3.1/../../../../pic32c/lib/thumb/v6-m/nofp\libc-musl.a(fputs.o)
 .bss           0x0000000000000000        0x0 c:/program files/microchip/xc32/v4.60/bin/bin/../../lib/gcc/pic32c/8.3.1/../../../../pic32c/lib/thumb/v6-m/nofp\libc-musl.a(fputs.o)
 .xc_stack_usage
                0x0000000000000000       0x13 c:/program files/microchip/xc32/v4.60/bin/bin/../../lib/gcc/pic32c/8.3.1/../../../../pic32c/lib/thumb/v6-m/nofp\libc-musl.a(fputs.o)
 .xc_stack_usage.hdr
                0x0000000000000000        0xe c:/program files/microchip/xc32/v4.60/bin/bin/../../lib/gcc/pic32c/8.3.1/../../../../pic32c/lib/thumb/v6-m/nofp\libc-musl.a(fputs.o)
 .text          0x0000000000000000        0x0 c:/program files/microchip/xc32/v4.60/bin/bin/../../lib/gcc/pic32c/8.3.1/../../../../pic32c/lib/thumb/v6-m/nofp\libc-musl.a(__cvt_u.o)
 .data          0x0000000000000000        0x0 c:/program files/microchip/xc32/v4.60/bin/bin/../../lib/gcc/pic32c/8.3.1/../../../../pic32c/lib/thumb/v6-m/nofp\libc-musl.a(__cvt_u.o)
 .bss           0x0000000000000000        0x0 c:/program files/microchip/xc32/v4.60/bin/bin/../../lib/gcc/pic32c/8.3.1/../../../../pic32c/lib/thumb/v6-m/nofp\libc-musl.a(__cvt_u.o)
 .xc_stack_usage
                0x0000000000000000       0x15 c:/program files/microchip/xc32/v4.60/bin/bin/../../lib/gcc/pic32c/8.3.1/../../../../pic32c/lib/thumb/v6-m/nofp\libc-musl.a(__cvt_u.o)
 .xc_stack_usage.hdr
                0x0000000000000000        0xe c:/program files/microchip/xc32/v4.60/bin/bin/../../lib/gcc/pic32c/8.3.1/../../../../pic32c/lib/thumb/v6-m/nofp\libc-musl.a(__cvt_u.o)
 .text          0x0000000000000000        0x0 c:/program files/microchip/xc32/v4.60/bin/bin/../../lib/gcc/pic32c/8.3.1/../../../../pic32c/lib/thumb/v6-m/nofp\libc-musl.a(__io_init_needed.o)
 .data          0x0000000000000000        0x0 c:/program files/microchip/xc32/v4.60/bin/bin/../../lib/gcc/pic32c/8.3.1/../../../../pic32c/lib/thumb/v6-m/nofp\libc-musl.a(__io_init_needed.o)
 .bss           0x0000000000000000        0x0 c:/program files/microchip/xc32/v4.60/bin/bin/../../lib/gcc/pic32c/8.3.1/../../../../pic32c/lib/thumb/v6-m/nofp\libc-musl.a(__io_init_needed.o)
 .xc_stack_usage
                0x0000000000000000       0x40 c:/program files/microchip/xc32/v4.60/bin/bin/../../lib/gcc/pic32c/8.3.1/../../../../pic32c/lib/thumb/v6-m/nofp\libc-musl.a(__io_init_needed.o)
 .xc_stack_usage.hdr
                0x0000000000000000        0xe c:/program files/microchip/xc32/v4.60/bin/bin/../../lib/gcc/pic32c/8.3.1/../../../../pic32c/lib/thumb/v6-m/nofp\libc-musl.a(__io_init_needed.o)
 .debug_info    0x0000000000000000       0xea c:/program files/microchip/xc32/v4.60/bin/bin/../../lib/gcc/pic32c/8.3.1/../../../../pic32c/lib/thumb/v6-m/nofp\libc-musl.a(__io_init_needed.o)
 .debug_abbrev  0x0000000000000000       0x81 c:/program files/microchip/xc32/v4.60/bin/bin/../../lib/gcc/pic32c/8.3.1/../../../../pic32c/lib/thumb/v6-m/nofp\libc-musl.a(__io_init_needed.o)
 .debug_loc     0x0000000000000000       0x40 c:/program files/microchip/xc32/v4.60/bin/bin/../../lib/gcc/pic32c/8.3.1/../../../../pic32c/lib/thumb/v6-m/nofp\libc-musl.a(__io_init_needed.o)
 .debug_aranges
                0x0000000000000000       0x28 c:/program files/microchip/xc32/v4.60/bin/bin/../../lib/gcc/pic32c/8.3.1/../../../../pic32c/lib/thumb/v6-m/nofp\libc-musl.a(__io_init_needed.o)
 .debug_ranges  0x0000000000000000       0x18 c:/program files/microchip/xc32/v4.60/bin/bin/../../lib/gcc/pic32c/8.3.1/../../../../pic32c/lib/thumb/v6-m/nofp\libc-musl.a(__io_init_needed.o)
 .debug_line    0x0000000000000000      0x137 c:/program files/microchip/xc32/v4.60/bin/bin/../../lib/gcc/pic32c/8.3.1/../../../../pic32c/lib/thumb/v6-m/nofp\libc-musl.a(__io_init_needed.o)
 .debug_str     0x0000000000000000      0x2d4 c:/program files/microchip/xc32/v4.60/bin/bin/../../lib/gcc/pic32c/8.3.1/../../../../pic32c/lib/thumb/v6-m/nofp\libc-musl.a(__io_init_needed.o)
 .comment       0x0000000000000000       0x2c c:/program files/microchip/xc32/v4.60/bin/bin/../../lib/gcc/pic32c/8.3.1/../../../../pic32c/lib/thumb/v6-m/nofp\libc-musl.a(__io_init_needed.o)
 .note.GNU-stack
                0x0000000000000000        0x0 c:/program files/microchip/xc32/v4.60/bin/bin/../../lib/gcc/pic32c/8.3.1/../../../../pic32c/lib/thumb/v6-m/nofp\libc-musl.a(__io_init_needed.o)
 .debug_frame   0x0000000000000000       0x40 c:/program files/microchip/xc32/v4.60/bin/bin/../../lib/gcc/pic32c/8.3.1/../../../../pic32c/lib/thumb/v6-m/nofp\libc-musl.a(__io_init_needed.o)
 .ARM.attributes
                0x0000000000000000       0x2e c:/program files/microchip/xc32/v4.60/bin/bin/../../lib/gcc/pic32c/8.3.1/../../../../pic32c/lib/thumb/v6-m/nofp\libc-musl.a(__io_init_needed.o)
 .text          0x0000000000000000        0x0 c:/program files/microchip/xc32/v4.60/bin/bin/../../lib/gcc/pic32c/8.3.1/../../../../pic32c/lib/thumb/v6-m/nofp\libc-musl.a(__io_rw_needed.o)
 .data          0x0000000000000000        0x0 c:/program files/microchip/xc32/v4.60/bin/bin/../../lib/gcc/pic32c/8.3.1/../../../../pic32c/lib/thumb/v6-m/nofp\libc-musl.a(__io_rw_needed.o)
 .bss           0x0000000000000000        0x0 c:/program files/microchip/xc32/v4.60/bin/bin/../../lib/gcc/pic32c/8.3.1/../../../../pic32c/lib/thumb/v6-m/nofp\libc-musl.a(__io_rw_needed.o)
 .xc_stack_usage
                0x0000000000000000       0x1c c:/program files/microchip/xc32/v4.60/bin/bin/../../lib/gcc/pic32c/8.3.1/../../../../pic32c/lib/thumb/v6-m/nofp\libc-musl.a(__io_rw_needed.o)
 .xc_stack_usage.hdr
                0x0000000000000000        0xe c:/program files/microchip/xc32/v4.60/bin/bin/../../lib/gcc/pic32c/8.3.1/../../../../pic32c/lib/thumb/v6-m/nofp\libc-musl.a(__io_rw_needed.o)
 .debug_info    0x0000000000000000       0xfd c:/program files/microchip/xc32/v4.60/bin/bin/../../lib/gcc/pic32c/8.3.1/../../../../pic32c/lib/thumb/v6-m/nofp\libc-musl.a(__io_rw_needed.o)
 .debug_abbrev  0x0000000000000000       0x67 c:/program files/microchip/xc32/v4.60/bin/bin/../../lib/gcc/pic32c/8.3.1/../../../../pic32c/lib/thumb/v6-m/nofp\libc-musl.a(__io_rw_needed.o)
 .debug_loc     0x0000000000000000       0x20 c:/program files/microchip/xc32/v4.60/bin/bin/../../lib/gcc/pic32c/8.3.1/../../../../pic32c/lib/thumb/v6-m/nofp\libc-musl.a(__io_rw_needed.o)
 .debug_aranges
                0x0000000000000000       0x20 c:/program files/microchip/xc32/v4.60/bin/bin/../../lib/gcc/pic32c/8.3.1/../../../../pic32c/lib/thumb/v6-m/nofp\libc-musl.a(__io_rw_needed.o)
 .debug_ranges  0x0000000000000000       0x10 c:/program files/microchip/xc32/v4.60/bin/bin/../../lib/gcc/pic32c/8.3.1/../../../../pic32c/lib/thumb/v6-m/nofp\libc-musl.a(__io_rw_needed.o)
 .debug_line    0x0000000000000000      0x12d c:/program files/microchip/xc32/v4.60/bin/bin/../../lib/gcc/pic32c/8.3.1/../../../../pic32c/lib/thumb/v6-m/nofp\libc-musl.a(__io_rw_needed.o)
 .debug_str     0x0000000000000000      0x2e3 c:/program files/microchip/xc32/v4.60/bin/bin/../../lib/gcc/pic32c/8.3.1/../../../../pic32c/lib/thumb/v6-m/nofp\libc-musl.a(__io_rw_needed.o)
 .comment       0x0000000000000000       0x2c c:/program files/microchip/xc32/v4.60/bin/bin/../../lib/gcc/pic32c/8.3.1/../../../../pic32c/lib/thumb/v6-m/nofp\libc-musl.a(__io_rw_needed.o)
 .note.GNU-stack
                0x0000000000000000        0x0 c:/program files/microchip/xc32/v4.60/bin/bin/../../lib/gcc/pic32c/8.3.1/../../../../pic32c/lib/thumb/v6-m/nofp\libc-musl.a(__io_rw_needed.o)
 .debug_frame   0x0000000000000000       0x28 c:/program files/microchip/xc32/v4.60/bin/bin/../../lib/gcc/pic32c/8.3.1/../../../../pic32c/lib/thumb/v6-m/nofp\libc-musl.a(__io_rw_needed.o)
 .ARM.attributes
                0x0000000000000000       0x2e c:/program files/microchip/xc32/v4.60/bin/bin/../../lib/gcc/pic32c/8.3.1/../../../../pic32c/lib/thumb/v6-m/nofp\libc-musl.a(__io_rw_needed.o)
 .text          0x0000000000000000        0x0 c:/program files/microchip/xc32/v4.60/bin/bin/../../lib/gcc/pic32c/8.3.1/../../../../pic32c/lib/thumb/v6-m/nofp\libc-musl.a(__stdio_read.o)
 .data          0x0000000000000000        0x0 c:/program files/microchip/xc32/v4.60/bin/bin/../../lib/gcc/pic32c/8.3.1/../../../../pic32c/lib/thumb/v6-m/nofp\libc-musl.a(__stdio_read.o)
 .bss           0x0000000000000000        0x0 c:/program files/microchip/xc32/v4.60/bin/bin/../../lib/gcc/pic32c/8.3.1/../../../../pic32c/lib/thumb/v6-m/nofp\libc-musl.a(__stdio_read.o)
 .xc_stack_usage
                0x0000000000000000       0x1a c:/program files/microchip/xc32/v4.60/bin/bin/../../lib/gcc/pic32c/8.3.1/../../../../pic32c/lib/thumb/v6-m/nofp\libc-musl.a(__stdio_read.o)
 .xc_stack_usage.hdr
                0x0000000000000000        0xe c:/program files/microchip/xc32/v4.60/bin/bin/../../lib/gcc/pic32c/8.3.1/../../../../pic32c/lib/thumb/v6-m/nofp\libc-musl.a(__stdio_read.o)
 .text          0x0000000000000000        0x0 c:/program files/microchip/xc32/v4.60/bin/bin/../../lib/gcc/pic32c/8.3.1/../../../../pic32c/lib/thumb/v6-m/nofp\libc-musl.a(__towrite_rw.o)
 .data          0x0000000000000000        0x0 c:/program files/microchip/xc32/v4.60/bin/bin/../../lib/gcc/pic32c/8.3.1/../../../../pic32c/lib/thumb/v6-m/nofp\libc-musl.a(__towrite_rw.o)
 .bss           0x0000000000000000        0x0 c:/program files/microchip/xc32/v4.60/bin/bin/../../lib/gcc/pic32c/8.3.1/../../../../pic32c/lib/thumb/v6-m/nofp\libc-musl.a(__towrite_rw.o)
 .xc_stack_usage
                0x0000000000000000       0x1a c:/program files/microchip/xc32/v4.60/bin/bin/../../lib/gcc/pic32c/8.3.1/../../../../pic32c/lib/thumb/v6-m/nofp\libc-musl.a(__towrite_rw.o)
 .xc_stack_usage.hdr
                0x0000000000000000        0xe c:/program files/microchip/xc32/v4.60/bin/bin/../../lib/gcc/pic32c/8.3.1/../../../../pic32c/lib/thumb/v6-m/nofp\libc-musl.a(__towrite_rw.o)
 .text          0x0000000000000000        0x0 c:/program files/microchip/xc32/v4.60/bin/bin/../../lib/gcc/pic32c/8.3.1/../../../../pic32c/lib/thumb/v6-m/nofp\libc-musl.a(fwrite.o)
 .data          0x0000000000000000        0x0 c:/program files/microchip/xc32/v4.60/bin/bin/../../lib/gcc/pic32c/8.3.1/../../../../pic32c/lib/thumb/v6-m/nofp\libc-musl.a(fwrite.o)
 .bss           0x0000000000000000        0x0 c:/program files/microchip/xc32/v4.60/bin/bin/../../lib/gcc/pic32c/8.3.1/../../../../pic32c/lib/thumb/v6-m/nofp\libc-musl.a(fwrite.o)
 .xc_stack_usage
                0x0000000000000000       0x2e c:/program files/microchip/xc32/v4.60/bin/bin/../../lib/gcc/pic32c/8.3.1/../../../../pic32c/lib/thumb/v6-m/nofp\libc-musl.a(fwrite.o)
 .text.__fwrite_min
                0x0000000000000000        0xa c:/program files/microchip/xc32/v4.60/bin/bin/../../lib/gcc/pic32c/8.3.1/../../../../pic32c/lib/thumb/v6-m/nofp\libc-musl.a(fwrite.o)
 .xc_stack_usage.hdr
                0x0000000000000000        0xe c:/program files/microchip/xc32/v4.60/bin/bin/../../lib/gcc/pic32c/8.3.1/../../../../pic32c/lib/thumb/v6-m/nofp\libc-musl.a(fwrite.o)
 .text          0x0000000000000000        0x0 c:/program files/microchip/xc32/v4.60/bin/bin/../../lib/gcc/pic32c/8.3.1/../../../../pic32c/lib/thumb/v6-m/nofp\libc-musl.a(putc.o)
 .data          0x0000000000000000        0x0 c:/program files/microchip/xc32/v4.60/bin/bin/../../lib/gcc/pic32c/8.3.1/../../../../pic32c/lib/thumb/v6-m/nofp\libc-musl.a(putc.o)
 .bss           0x0000000000000000        0x0 c:/program files/microchip/xc32/v4.60/bin/bin/../../lib/gcc/pic32c/8.3.1/../../../../pic32c/lib/thumb/v6-m/nofp\libc-musl.a(putc.o)
 .xc_stack_usage
                0x0000000000000000       0x4f c:/program files/microchip/xc32/v4.60/bin/bin/../../lib/gcc/pic32c/8.3.1/../../../../pic32c/lib/thumb/v6-m/nofp\libc-musl.a(putc.o)
 .xc_stack_usage.hdr
                0x0000000000000000        0xe c:/program files/microchip/xc32/v4.60/bin/bin/../../lib/gcc/pic32c/8.3.1/../../../../pic32c/lib/thumb/v6-m/nofp\libc-musl.a(putc.o)
 .text          0x0000000000000000        0x0 c:/program files/microchip/xc32/v4.60/bin/bin/../../lib/gcc/pic32c/8.3.1/../../../../pic32c/lib/thumb/v6-m/nofp\libc-musl.a(setvbuf.o)
 .data          0x0000000000000000        0x0 c:/program files/microchip/xc32/v4.60/bin/bin/../../lib/gcc/pic32c/8.3.1/../../../../pic32c/lib/thumb/v6-m/nofp\libc-musl.a(setvbuf.o)
 .bss           0x0000000000000000        0x0 c:/program files/microchip/xc32/v4.60/bin/bin/../../lib/gcc/pic32c/8.3.1/../../../../pic32c/lib/thumb/v6-m/nofp\libc-musl.a(setvbuf.o)
 .xc_stack_usage
                0x0000000000000000       0x36 c:/program files/microchip/xc32/v4.60/bin/bin/../../lib/gcc/pic32c/8.3.1/../../../../pic32c/lib/thumb/v6-m/nofp\libc-musl.a(setvbuf.o)
 .xc_stack_usage.hdr
                0x0000000000000000        0xe c:/program files/microchip/xc32/v4.60/bin/bin/../../lib/gcc/pic32c/8.3.1/../../../../pic32c/lib/thumb/v6-m/nofp\libc-musl.a(setvbuf.o)
 .text          0x0000000000000000        0x0 c:/program files/microchip/xc32/v4.60/bin/bin/../../lib/gcc/pic32c/8.3.1/../../../../pic32c/lib/thumb/v6-m/nofp\libc-musl.a(__tm_to_secs.o)
 .data          0x0000000000000000        0x0 c:/program files/microchip/xc32/v4.60/bin/bin/../../lib/gcc/pic32c/8.3.1/../../../../pic32c/lib/thumb/v6-m/nofp\libc-musl.a(__tm_to_secs.o)
 .bss           0x0000000000000000        0x0 c:/program files/microchip/xc32/v4.60/bin/bin/../../lib/gcc/pic32c/8.3.1/../../../../pic32c/lib/thumb/v6-m/nofp\libc-musl.a(__tm_to_secs.o)
 .xc_stack_usage
                0x0000000000000000       0x1a c:/program files/microchip/xc32/v4.60/bin/bin/../../lib/gcc/pic32c/8.3.1/../../../../pic32c/lib/thumb/v6-m/nofp\libc-musl.a(__tm_to_secs.o)
 .xc_stack_usage.hdr
                0x0000000000000000        0xe c:/program files/microchip/xc32/v4.60/bin/bin/../../lib/gcc/pic32c/8.3.1/../../../../pic32c/lib/thumb/v6-m/nofp\libc-musl.a(__tm_to_secs.o)
 .text          0x0000000000000000        0x0 c:/program files/microchip/xc32/v4.60/bin/bin/../../lib/gcc/pic32c/8.3.1/../../../../pic32c/lib/thumb/v6-m/nofp\libc-musl.a(__year_to_secs.o)
 .data          0x0000000000000000        0x0 c:/program files/microchip/xc32/v4.60/bin/bin/../../lib/gcc/pic32c/8.3.1/../../../../pic32c/lib/thumb/v6-m/nofp\libc-musl.a(__year_to_secs.o)
 .bss           0x0000000000000000        0x0 c:/program files/microchip/xc32/v4.60/bin/bin/../../lib/gcc/pic32c/8.3.1/../../../../pic32c/lib/thumb/v6-m/nofp\libc-musl.a(__year_to_secs.o)
 .xc_stack_usage
                0x0000000000000000       0x1c c:/program files/microchip/xc32/v4.60/bin/bin/../../lib/gcc/pic32c/8.3.1/../../../../pic32c/lib/thumb/v6-m/nofp\libc-musl.a(__year_to_secs.o)
 .xc_stack_usage.hdr
                0x0000000000000000        0xe c:/program files/microchip/xc32/v4.60/bin/bin/../../lib/gcc/pic32c/8.3.1/../../../../pic32c/lib/thumb/v6-m/nofp\libc-musl.a(__year_to_secs.o)
 .text          0x0000000000000000        0x0 c:/program files/microchip/xc32/v4.60/bin/bin/../../lib/gcc/pic32c/8.3.1/../../../../pic32c/lib/thumb/v6-m/nofp\libc-musl.a(__secs_to_tm.o)
 .data          0x0000000000000000        0x0 c:/program files/microchip/xc32/v4.60/bin/bin/../../lib/gcc/pic32c/8.3.1/../../../../pic32c/lib/thumb/v6-m/nofp\libc-musl.a(__secs_to_tm.o)
 .bss           0x0000000000000000        0x0 c:/program files/microchip/xc32/v4.60/bin/bin/../../lib/gcc/pic32c/8.3.1/../../../../pic32c/lib/thumb/v6-m/nofp\libc-musl.a(__secs_to_tm.o)
 .xc_stack_usage
                0x0000000000000000       0x1a c:/program files/microchip/xc32/v4.60/bin/bin/../../lib/gcc/pic32c/8.3.1/../../../../pic32c/lib/thumb/v6-m/nofp\libc-musl.a(__secs_to_tm.o)
 .xc_stack_usage.hdr
                0x0000000000000000        0xe c:/program files/microchip/xc32/v4.60/bin/bin/../../lib/gcc/pic32c/8.3.1/../../../../pic32c/lib/thumb/v6-m/nofp\libc-musl.a(__secs_to_tm.o)
 .text          0x0000000000000000        0x0 c:/program files/microchip/xc32/v4.60/bin/bin/../../lib/gcc/pic32c/8.3.1/../../../../pic32c/lib/thumb/v6-m/nofp\libc-musl.a(readv.o)
 .data          0x0000000000000000        0x0 c:/program files/microchip/xc32/v4.60/bin/bin/../../lib/gcc/pic32c/8.3.1/../../../../pic32c/lib/thumb/v6-m/nofp\libc-musl.a(readv.o)
 .bss           0x0000000000000000        0x0 c:/program files/microchip/xc32/v4.60/bin/bin/../../lib/gcc/pic32c/8.3.1/../../../../pic32c/lib/thumb/v6-m/nofp\libc-musl.a(readv.o)
 .xc_stack_usage
                0x0000000000000000       0x15 c:/program files/microchip/xc32/v4.60/bin/bin/../../lib/gcc/pic32c/8.3.1/../../../../pic32c/lib/thumb/v6-m/nofp\libc-musl.a(readv.o)
 .xc_stack_usage.hdr
                0x0000000000000000        0xe c:/program files/microchip/xc32/v4.60/bin/bin/../../lib/gcc/pic32c/8.3.1/../../../../pic32c/lib/thumb/v6-m/nofp\libc-musl.a(readv.o)
 .text          0x0000000000000000        0x0 c:/program files/microchip/xc32/v4.60/bin/bin/../../lib/gcc/pic32c/8.3.1/../../../../pic32c/lib/thumb/v6-m/nofp\libc-musl.a(__int_vsnprintf.o)
 .data          0x0000000000000000        0x0 c:/program files/microchip/xc32/v4.60/bin/bin/../../lib/gcc/pic32c/8.3.1/../../../../pic32c/lib/thumb/v6-m/nofp\libc-musl.a(__int_vsnprintf.o)
 .bss           0x0000000000000000        0x0 c:/program files/microchip/xc32/v4.60/bin/bin/../../lib/gcc/pic32c/8.3.1/../../../../pic32c/lib/thumb/v6-m/nofp\libc-musl.a(__int_vsnprintf.o)
 .xc_stack_usage
                0x0000000000000000       0x19 c:/program files/microchip/xc32/v4.60/bin/bin/../../lib/gcc/pic32c/8.3.1/../../../../pic32c/lib/thumb/v6-m/nofp\libc-musl.a(__int_vsnprintf.o)
 .xc_stack_usage.hdr
                0x0000000000000000        0xe c:/program files/microchip/xc32/v4.60/bin/bin/../../lib/gcc/pic32c/8.3.1/../../../../pic32c/lib/thumb/v6-m/nofp\libc-musl.a(__int_vsnprintf.o)
 .text          0x0000000000000000        0x0 c:/program files/microchip/xc32/v4.60/bin/bin/../../lib/gcc/pic32c/8.3.1/../../../../pic32c/lib/thumb/v6-m/nofp\libc-musl.a(__fopen_rw.o)
 .data          0x0000000000000000        0x0 c:/program files/microchip/xc32/v4.60/bin/bin/../../lib/gcc/pic32c/8.3.1/../../../../pic32c/lib/thumb/v6-m/nofp\libc-musl.a(__fopen_rw.o)
 .bss           0x0000000000000000        0x0 c:/program files/microchip/xc32/v4.60/bin/bin/../../lib/gcc/pic32c/8.3.1/../../../../pic32c/lib/thumb/v6-m/nofp\libc-musl.a(__fopen_rw.o)
 .xc_stack_usage
                0x0000000000000000       0x18 c:/program files/microchip/xc32/v4.60/bin/bin/../../lib/gcc/pic32c/8.3.1/../../../../pic32c/lib/thumb/v6-m/nofp\libc-musl.a(__fopen_rw.o)
 .text.__fopen_rw
                0x0000000000000000       0x4c c:/program files/microchip/xc32/v4.60/bin/bin/../../lib/gcc/pic32c/8.3.1/../../../../pic32c/lib/thumb/v6-m/nofp\libc-musl.a(__fopen_rw.o)
 .xc_stack_usage.hdr
                0x0000000000000000        0xe c:/program files/microchip/xc32/v4.60/bin/bin/../../lib/gcc/pic32c/8.3.1/../../../../pic32c/lib/thumb/v6-m/nofp\libc-musl.a(__fopen_rw.o)
 .debug_info    0x0000000000000000      0x3dc c:/program files/microchip/xc32/v4.60/bin/bin/../../lib/gcc/pic32c/8.3.1/../../../../pic32c/lib/thumb/v6-m/nofp\libc-musl.a(__fopen_rw.o)
 .debug_abbrev  0x0000000000000000      0x12c c:/program files/microchip/xc32/v4.60/bin/bin/../../lib/gcc/pic32c/8.3.1/../../../../pic32c/lib/thumb/v6-m/nofp\libc-musl.a(__fopen_rw.o)
 .debug_loc     0x0000000000000000       0x4f c:/program files/microchip/xc32/v4.60/bin/bin/../../lib/gcc/pic32c/8.3.1/../../../../pic32c/lib/thumb/v6-m/nofp\libc-musl.a(__fopen_rw.o)
 .debug_aranges
                0x0000000000000000       0x20 c:/program files/microchip/xc32/v4.60/bin/bin/../../lib/gcc/pic32c/8.3.1/../../../../pic32c/lib/thumb/v6-m/nofp\libc-musl.a(__fopen_rw.o)
 .debug_ranges  0x0000000000000000       0x10 c:/program files/microchip/xc32/v4.60/bin/bin/../../lib/gcc/pic32c/8.3.1/../../../../pic32c/lib/thumb/v6-m/nofp\libc-musl.a(__fopen_rw.o)
 .debug_line    0x0000000000000000      0x28e c:/program files/microchip/xc32/v4.60/bin/bin/../../lib/gcc/pic32c/8.3.1/../../../../pic32c/lib/thumb/v6-m/nofp\libc-musl.a(__fopen_rw.o)
 .debug_str     0x0000000000000000      0x355 c:/program files/microchip/xc32/v4.60/bin/bin/../../lib/gcc/pic32c/8.3.1/../../../../pic32c/lib/thumb/v6-m/nofp\libc-musl.a(__fopen_rw.o)
 .comment       0x0000000000000000       0x2c c:/program files/microchip/xc32/v4.60/bin/bin/../../lib/gcc/pic32c/8.3.1/../../../../pic32c/lib/thumb/v6-m/nofp\libc-musl.a(__fopen_rw.o)
 .note.GNU-stack
                0x0000000000000000        0x0 c:/program files/microchip/xc32/v4.60/bin/bin/../../lib/gcc/pic32c/8.3.1/../../../../pic32c/lib/thumb/v6-m/nofp\libc-musl.a(__fopen_rw.o)
 .debug_frame   0x0000000000000000       0x28 c:/program files/microchip/xc32/v4.60/bin/bin/../../lib/gcc/pic32c/8.3.1/../../../../pic32c/lib/thumb/v6-m/nofp\libc-musl.a(__fopen_rw.o)
 .ARM.attributes
                0x0000000000000000       0x2e c:/program files/microchip/xc32/v4.60/bin/bin/../../lib/gcc/pic32c/8.3.1/../../../../pic32c/lib/thumb/v6-m/nofp\libc-musl.a(__fopen_rw.o)
 .text          0x0000000000000000        0x0 c:/program files/microchip/xc32/v4.60/bin/bin/../../lib/gcc/pic32c/8.3.1/../../../../pic32c/lib/thumb/v6-m/nofp\libc-musl.a(__ftello_rw.o)
 .data          0x0000000000000000        0x0 c:/program files/microchip/xc32/v4.60/bin/bin/../../lib/gcc/pic32c/8.3.1/../../../../pic32c/lib/thumb/v6-m/nofp\libc-musl.a(__ftello_rw.o)
 .bss           0x0000000000000000        0x0 c:/program files/microchip/xc32/v4.60/bin/bin/../../lib/gcc/pic32c/8.3.1/../../../../pic32c/lib/thumb/v6-m/nofp\libc-musl.a(__ftello_rw.o)
 .xc_stack_usage
                0x0000000000000000       0x1d c:/program files/microchip/xc32/v4.60/bin/bin/../../lib/gcc/pic32c/8.3.1/../../../../pic32c/lib/thumb/v6-m/nofp\libc-musl.a(__ftello_rw.o)
 .text.__ftello_adj_rw
                0x0000000000000000       0x28 c:/program files/microchip/xc32/v4.60/bin/bin/../../lib/gcc/pic32c/8.3.1/../../../../pic32c/lib/thumb/v6-m/nofp\libc-musl.a(__ftello_rw.o)
 .xc_stack_usage.hdr
                0x0000000000000000        0xe c:/program files/microchip/xc32/v4.60/bin/bin/../../lib/gcc/pic32c/8.3.1/../../../../pic32c/lib/thumb/v6-m/nofp\libc-musl.a(__ftello_rw.o)
 .debug_info    0x0000000000000000      0x34a c:/program files/microchip/xc32/v4.60/bin/bin/../../lib/gcc/pic32c/8.3.1/../../../../pic32c/lib/thumb/v6-m/nofp\libc-musl.a(__ftello_rw.o)
 .debug_abbrev  0x0000000000000000      0x10b c:/program files/microchip/xc32/v4.60/bin/bin/../../lib/gcc/pic32c/8.3.1/../../../../pic32c/lib/thumb/v6-m/nofp\libc-musl.a(__ftello_rw.o)
 .debug_loc     0x0000000000000000       0x45 c:/program files/microchip/xc32/v4.60/bin/bin/../../lib/gcc/pic32c/8.3.1/../../../../pic32c/lib/thumb/v6-m/nofp\libc-musl.a(__ftello_rw.o)
 .debug_aranges
                0x0000000000000000       0x20 c:/program files/microchip/xc32/v4.60/bin/bin/../../lib/gcc/pic32c/8.3.1/../../../../pic32c/lib/thumb/v6-m/nofp\libc-musl.a(__ftello_rw.o)
 .debug_ranges  0x0000000000000000       0x10 c:/program files/microchip/xc32/v4.60/bin/bin/../../lib/gcc/pic32c/8.3.1/../../../../pic32c/lib/thumb/v6-m/nofp\libc-musl.a(__ftello_rw.o)
 .debug_line    0x0000000000000000      0x1d2 c:/program files/microchip/xc32/v4.60/bin/bin/../../lib/gcc/pic32c/8.3.1/../../../../pic32c/lib/thumb/v6-m/nofp\libc-musl.a(__ftello_rw.o)
 .debug_str     0x0000000000000000      0x33f c:/program files/microchip/xc32/v4.60/bin/bin/../../lib/gcc/pic32c/8.3.1/../../../../pic32c/lib/thumb/v6-m/nofp\libc-musl.a(__ftello_rw.o)
 .comment       0x0000000000000000       0x2c c:/program files/microchip/xc32/v4.60/bin/bin/../../lib/gcc/pic32c/8.3.1/../../../../pic32c/lib/thumb/v6-m/nofp\libc-musl.a(__ftello_rw.o)
 .note.GNU-stack
                0x0000000000000000        0x0 c:/program files/microchip/xc32/v4.60/bin/bin/../../lib/gcc/pic32c/8.3.1/../../../../pic32c/lib/thumb/v6-m/nofp\libc-musl.a(__ftello_rw.o)
 .debug_frame   0x0000000000000000       0x2c c:/program files/microchip/xc32/v4.60/bin/bin/../../lib/gcc/pic32c/8.3.1/../../../../pic32c/lib/thumb/v6-m/nofp\libc-musl.a(__ftello_rw.o)
 .ARM.attributes
                0x0000000000000000       0x2e c:/program files/microchip/xc32/v4.60/bin/bin/../../lib/gcc/pic32c/8.3.1/../../../../pic32c/lib/thumb/v6-m/nofp\libc-musl.a(__ftello_rw.o)
 .text          0x0000000000000000        0x0 c:/program files/microchip/xc32/v4.60/bin/bin/../../lib/gcc/pic32c/8.3.1/../../../../pic32c/lib/thumb/v6-m/nofp\libc-musl.a(__init_stdio.o)
 .data          0x0000000000000000        0x0 c:/program files/microchip/xc32/v4.60/bin/bin/../../lib/gcc/pic32c/8.3.1/../../../../pic32c/lib/thumb/v6-m/nofp\libc-musl.a(__init_stdio.o)
 .bss           0x0000000000000000        0x0 c:/program files/microchip/xc32/v4.60/bin/bin/../../lib/gcc/pic32c/8.3.1/../../../../pic32c/lib/thumb/v6-m/nofp\libc-musl.a(__init_stdio.o)
 .xc_stack_usage
                0x0000000000000000       0x2f c:/program files/microchip/xc32/v4.60/bin/bin/../../lib/gcc/pic32c/8.3.1/../../../../pic32c/lib/thumb/v6-m/nofp\libc-musl.a(__init_stdio.o)
 .xc_stack_usage.hdr
                0x0000000000000000        0xe c:/program files/microchip/xc32/v4.60/bin/bin/../../lib/gcc/pic32c/8.3.1/../../../../pic32c/lib/thumb/v6-m/nofp\libc-musl.a(__init_stdio.o)
 .text          0x0000000000000000        0x0 c:/program files/microchip/xc32/v4.60/bin/bin/../../lib/gcc/pic32c/8.3.1/../../../../pic32c/lib/thumb/v6-m/nofp\libc-musl.a(__io_buf_needed.o)
 .data          0x0000000000000000        0x0 c:/program files/microchip/xc32/v4.60/bin/bin/../../lib/gcc/pic32c/8.3.1/../../../../pic32c/lib/thumb/v6-m/nofp\libc-musl.a(__io_buf_needed.o)
 .bss           0x0000000000000000        0x0 c:/program files/microchip/xc32/v4.60/bin/bin/../../lib/gcc/pic32c/8.3.1/../../../../pic32c/lib/thumb/v6-m/nofp\libc-musl.a(__io_buf_needed.o)
 .xc_stack_usage
                0x0000000000000000       0x1d c:/program files/microchip/xc32/v4.60/bin/bin/../../lib/gcc/pic32c/8.3.1/../../../../pic32c/lib/thumb/v6-m/nofp\libc-musl.a(__io_buf_needed.o)
 .xc_stack_usage.hdr
                0x0000000000000000        0xe c:/program files/microchip/xc32/v4.60/bin/bin/../../lib/gcc/pic32c/8.3.1/../../../../pic32c/lib/thumb/v6-m/nofp\libc-musl.a(__io_buf_needed.o)
 .debug_info    0x0000000000000000      0x142 c:/program files/microchip/xc32/v4.60/bin/bin/../../lib/gcc/pic32c/8.3.1/../../../../pic32c/lib/thumb/v6-m/nofp\libc-musl.a(__io_buf_needed.o)
 .debug_abbrev  0x0000000000000000       0x67 c:/program files/microchip/xc32/v4.60/bin/bin/../../lib/gcc/pic32c/8.3.1/../../../../pic32c/lib/thumb/v6-m/nofp\libc-musl.a(__io_buf_needed.o)
 .debug_loc     0x0000000000000000       0x20 c:/program files/microchip/xc32/v4.60/bin/bin/../../lib/gcc/pic32c/8.3.1/../../../../pic32c/lib/thumb/v6-m/nofp\libc-musl.a(__io_buf_needed.o)
 .debug_aranges
                0x0000000000000000       0x20 c:/program files/microchip/xc32/v4.60/bin/bin/../../lib/gcc/pic32c/8.3.1/../../../../pic32c/lib/thumb/v6-m/nofp\libc-musl.a(__io_buf_needed.o)
 .debug_ranges  0x0000000000000000       0x10 c:/program files/microchip/xc32/v4.60/bin/bin/../../lib/gcc/pic32c/8.3.1/../../../../pic32c/lib/thumb/v6-m/nofp\libc-musl.a(__io_buf_needed.o)
 .debug_line    0x0000000000000000      0x131 c:/program files/microchip/xc32/v4.60/bin/bin/../../lib/gcc/pic32c/8.3.1/../../../../pic32c/lib/thumb/v6-m/nofp\libc-musl.a(__io_buf_needed.o)
 .debug_str     0x0000000000000000      0x30f c:/program files/microchip/xc32/v4.60/bin/bin/../../lib/gcc/pic32c/8.3.1/../../../../pic32c/lib/thumb/v6-m/nofp\libc-musl.a(__io_buf_needed.o)
 .comment       0x0000000000000000       0x2c c:/program files/microchip/xc32/v4.60/bin/bin/../../lib/gcc/pic32c/8.3.1/../../../../pic32c/lib/thumb/v6-m/nofp\libc-musl.a(__io_buf_needed.o)
 .note.GNU-stack
                0x0000000000000000        0x0 c:/program files/microchip/xc32/v4.60/bin/bin/../../lib/gcc/pic32c/8.3.1/../../../../pic32c/lib/thumb/v6-m/nofp\libc-musl.a(__io_buf_needed.o)
 .debug_frame   0x0000000000000000       0x28 c:/program files/microchip/xc32/v4.60/bin/bin/../../lib/gcc/pic32c/8.3.1/../../../../pic32c/lib/thumb/v6-m/nofp\libc-musl.a(__io_buf_needed.o)
 .ARM.attributes
                0x0000000000000000       0x2e c:/program files/microchip/xc32/v4.60/bin/bin/../../lib/gcc/pic32c/8.3.1/../../../../pic32c/lib/thumb/v6-m/nofp\libc-musl.a(__io_buf_needed.o)
 .text          0x0000000000000000        0x0 c:/program files/microchip/xc32/v4.60/bin/bin/../../lib/gcc/pic32c/8.3.1/../../../../pic32c/lib/thumb/v6-m/nofp\libc-musl.a(__io_file_needed.o)
 .data          0x0000000000000000        0x0 c:/program files/microchip/xc32/v4.60/bin/bin/../../lib/gcc/pic32c/8.3.1/../../../../pic32c/lib/thumb/v6-m/nofp\libc-musl.a(__io_file_needed.o)
 .bss           0x0000000000000000        0x0 c:/program files/microchip/xc32/v4.60/bin/bin/../../lib/gcc/pic32c/8.3.1/../../../../pic32c/lib/thumb/v6-m/nofp\libc-musl.a(__io_file_needed.o)
 .xc_stack_usage
                0x0000000000000000       0x1e c:/program files/microchip/xc32/v4.60/bin/bin/../../lib/gcc/pic32c/8.3.1/../../../../pic32c/lib/thumb/v6-m/nofp\libc-musl.a(__io_file_needed.o)
 .xc_stack_usage.hdr
                0x0000000000000000        0xe c:/program files/microchip/xc32/v4.60/bin/bin/../../lib/gcc/pic32c/8.3.1/../../../../pic32c/lib/thumb/v6-m/nofp\libc-musl.a(__io_file_needed.o)
 .debug_info    0x0000000000000000       0xb8 c:/program files/microchip/xc32/v4.60/bin/bin/../../lib/gcc/pic32c/8.3.1/../../../../pic32c/lib/thumb/v6-m/nofp\libc-musl.a(__io_file_needed.o)
 .debug_abbrev  0x0000000000000000       0x67 c:/program files/microchip/xc32/v4.60/bin/bin/../../lib/gcc/pic32c/8.3.1/../../../../pic32c/lib/thumb/v6-m/nofp\libc-musl.a(__io_file_needed.o)
 .debug_loc     0x0000000000000000       0x20 c:/program files/microchip/xc32/v4.60/bin/bin/../../lib/gcc/pic32c/8.3.1/../../../../pic32c/lib/thumb/v6-m/nofp\libc-musl.a(__io_file_needed.o)
 .debug_aranges
                0x0000000000000000       0x20 c:/program files/microchip/xc32/v4.60/bin/bin/../../lib/gcc/pic32c/8.3.1/../../../../pic32c/lib/thumb/v6-m/nofp\libc-musl.a(__io_file_needed.o)
 .debug_ranges  0x0000000000000000       0x10 c:/program files/microchip/xc32/v4.60/bin/bin/../../lib/gcc/pic32c/8.3.1/../../../../pic32c/lib/thumb/v6-m/nofp\libc-musl.a(__io_file_needed.o)
 .debug_line    0x0000000000000000       0xb6 c:/program files/microchip/xc32/v4.60/bin/bin/../../lib/gcc/pic32c/8.3.1/../../../../pic32c/lib/thumb/v6-m/nofp\libc-musl.a(__io_file_needed.o)
 .debug_str     0x0000000000000000      0x2a7 c:/program files/microchip/xc32/v4.60/bin/bin/../../lib/gcc/pic32c/8.3.1/../../../../pic32c/lib/thumb/v6-m/nofp\libc-musl.a(__io_file_needed.o)
 .comment       0x0000000000000000       0x2c c:/program files/microchip/xc32/v4.60/bin/bin/../../lib/gcc/pic32c/8.3.1/../../../../pic32c/lib/thumb/v6-m/nofp\libc-musl.a(__io_file_needed.o)
 .note.GNU-stack
                0x0000000000000000        0x0 c:/program files/microchip/xc32/v4.60/bin/bin/../../lib/gcc/pic32c/8.3.1/../../../../pic32c/lib/thumb/v6-m/nofp\libc-musl.a(__io_file_needed.o)
 .debug_frame   0x0000000000000000       0x28 c:/program files/microchip/xc32/v4.60/bin/bin/../../lib/gcc/pic32c/8.3.1/../../../../pic32c/lib/thumb/v6-m/nofp\libc-musl.a(__io_file_needed.o)
 .ARM.attributes
                0x0000000000000000       0x2e c:/program files/microchip/xc32/v4.60/bin/bin/../../lib/gcc/pic32c/8.3.1/../../../../pic32c/lib/thumb/v6-m/nofp\libc-musl.a(__io_file_needed.o)
 .text          0x0000000000000000        0x0 c:/program files/microchip/xc32/v4.60/bin/bin/../../lib/gcc/pic32c/8.3.1/../../../../pic32c/lib/thumb/v6-m/nofp\libc-musl.a(__io_std_needed.o)
 .data          0x0000000000000000        0x0 c:/program files/microchip/xc32/v4.60/bin/bin/../../lib/gcc/pic32c/8.3.1/../../../../pic32c/lib/thumb/v6-m/nofp\libc-musl.a(__io_std_needed.o)
 .bss           0x0000000000000000        0x0 c:/program files/microchip/xc32/v4.60/bin/bin/../../lib/gcc/pic32c/8.3.1/../../../../pic32c/lib/thumb/v6-m/nofp\libc-musl.a(__io_std_needed.o)
 .xc_stack_usage
                0x0000000000000000       0x1d c:/program files/microchip/xc32/v4.60/bin/bin/../../lib/gcc/pic32c/8.3.1/../../../../pic32c/lib/thumb/v6-m/nofp\libc-musl.a(__io_std_needed.o)
 .xc_stack_usage.hdr
                0x0000000000000000        0xe c:/program files/microchip/xc32/v4.60/bin/bin/../../lib/gcc/pic32c/8.3.1/../../../../pic32c/lib/thumb/v6-m/nofp\libc-musl.a(__io_std_needed.o)
 .debug_info    0x0000000000000000      0x12b c:/program files/microchip/xc32/v4.60/bin/bin/../../lib/gcc/pic32c/8.3.1/../../../../pic32c/lib/thumb/v6-m/nofp\libc-musl.a(__io_std_needed.o)
 .debug_abbrev  0x0000000000000000       0x67 c:/program files/microchip/xc32/v4.60/bin/bin/../../lib/gcc/pic32c/8.3.1/../../../../pic32c/lib/thumb/v6-m/nofp\libc-musl.a(__io_std_needed.o)
 .debug_loc     0x0000000000000000       0x20 c:/program files/microchip/xc32/v4.60/bin/bin/../../lib/gcc/pic32c/8.3.1/../../../../pic32c/lib/thumb/v6-m/nofp\libc-musl.a(__io_std_needed.o)
 .debug_aranges
                0x0000000000000000       0x20 c:/program files/microchip/xc32/v4.60/bin/bin/../../lib/gcc/pic32c/8.3.1/../../../../pic32c/lib/thumb/v6-m/nofp\libc-musl.a(__io_std_needed.o)
 .debug_ranges  0x0000000000000000       0x10 c:/program files/microchip/xc32/v4.60/bin/bin/../../lib/gcc/pic32c/8.3.1/../../../../pic32c/lib/thumb/v6-m/nofp\libc-musl.a(__io_std_needed.o)
 .debug_line    0x0000000000000000      0x130 c:/program files/microchip/xc32/v4.60/bin/bin/../../lib/gcc/pic32c/8.3.1/../../../../pic32c/lib/thumb/v6-m/nofp\libc-musl.a(__io_std_needed.o)
 .debug_str     0x0000000000000000      0x303 c:/program files/microchip/xc32/v4.60/bin/bin/../../lib/gcc/pic32c/8.3.1/../../../../pic32c/lib/thumb/v6-m/nofp\libc-musl.a(__io_std_needed.o)
 .comment       0x0000000000000000       0x2c c:/program files/microchip/xc32/v4.60/bin/bin/../../lib/gcc/pic32c/8.3.1/../../../../pic32c/lib/thumb/v6-m/nofp\libc-musl.a(__io_std_needed.o)
 .note.GNU-stack
                0x0000000000000000        0x0 c:/program files/microchip/xc32/v4.60/bin/bin/../../lib/gcc/pic32c/8.3.1/../../../../pic32c/lib/thumb/v6-m/nofp\libc-musl.a(__io_std_needed.o)
 .debug_frame   0x0000000000000000       0x28 c:/program files/microchip/xc32/v4.60/bin/bin/../../lib/gcc/pic32c/8.3.1/../../../../pic32c/lib/thumb/v6-m/nofp\libc-musl.a(__io_std_needed.o)
 .ARM.attributes
                0x0000000000000000       0x2e c:/program files/microchip/xc32/v4.60/bin/bin/../../lib/gcc/pic32c/8.3.1/../../../../pic32c/lib/thumb/v6-m/nofp\libc-musl.a(__io_std_needed.o)
 .text          0x0000000000000000        0x0 c:/program files/microchip/xc32/v4.60/bin/bin/../../lib/gcc/pic32c/8.3.1/../../../../pic32c/lib/thumb/v6-m/nofp\libc-musl.a(__out.o)
 .data          0x0000000000000000        0x0 c:/program files/microchip/xc32/v4.60/bin/bin/../../lib/gcc/pic32c/8.3.1/../../../../pic32c/lib/thumb/v6-m/nofp\libc-musl.a(__out.o)
 .bss           0x0000000000000000        0x0 c:/program files/microchip/xc32/v4.60/bin/bin/../../lib/gcc/pic32c/8.3.1/../../../../pic32c/lib/thumb/v6-m/nofp\libc-musl.a(__out.o)
 .xc_stack_usage
                0x0000000000000000       0x2d c:/program files/microchip/xc32/v4.60/bin/bin/../../lib/gcc/pic32c/8.3.1/../../../../pic32c/lib/thumb/v6-m/nofp\libc-musl.a(__out.o)
 .xc_stack_usage.hdr
                0x0000000000000000        0xe c:/program files/microchip/xc32/v4.60/bin/bin/../../lib/gcc/pic32c/8.3.1/../../../../pic32c/lib/thumb/v6-m/nofp\libc-musl.a(__out.o)
 .text          0x0000000000000000        0x0 c:/program files/microchip/xc32/v4.60/bin/bin/../../lib/gcc/pic32c/8.3.1/../../../../pic32c/lib/thumb/v6-m/nofp\libc-musl.a(__putc.o)
 .data          0x0000000000000000        0x0 c:/program files/microchip/xc32/v4.60/bin/bin/../../lib/gcc/pic32c/8.3.1/../../../../pic32c/lib/thumb/v6-m/nofp\libc-musl.a(__putc.o)
 .bss           0x0000000000000000        0x0 c:/program files/microchip/xc32/v4.60/bin/bin/../../lib/gcc/pic32c/8.3.1/../../../../pic32c/lib/thumb/v6-m/nofp\libc-musl.a(__putc.o)
 .xc_stack_usage
                0x0000000000000000       0x14 c:/program files/microchip/xc32/v4.60/bin/bin/../../lib/gcc/pic32c/8.3.1/../../../../pic32c/lib/thumb/v6-m/nofp\libc-musl.a(__putc.o)
 .xc_stack_usage.hdr
                0x0000000000000000        0xe c:/program files/microchip/xc32/v4.60/bin/bin/../../lib/gcc/pic32c/8.3.1/../../../../pic32c/lib/thumb/v6-m/nofp\libc-musl.a(__putc.o)
 .text          0x0000000000000000        0x0 c:/program files/microchip/xc32/v4.60/bin/bin/../../lib/gcc/pic32c/8.3.1/../../../../pic32c/lib/thumb/v6-m/nofp\libc-musl.a(__stderr.o)
 .data          0x0000000000000000       0x60 c:/program files/microchip/xc32/v4.60/bin/bin/../../lib/gcc/pic32c/8.3.1/../../../../pic32c/lib/thumb/v6-m/nofp\libc-musl.a(__stderr.o)
 .bss           0x0000000000000000        0x0 c:/program files/microchip/xc32/v4.60/bin/bin/../../lib/gcc/pic32c/8.3.1/../../../../pic32c/lib/thumb/v6-m/nofp\libc-musl.a(__stderr.o)
 .xc_stack_usage
                0x0000000000000000       0x50 c:/program files/microchip/xc32/v4.60/bin/bin/../../lib/gcc/pic32c/8.3.1/../../../../pic32c/lib/thumb/v6-m/nofp\libc-musl.a(__stderr.o)
 .text.__get_stderr
                0x0000000000000000        0x8 c:/program files/microchip/xc32/v4.60/bin/bin/../../lib/gcc/pic32c/8.3.1/../../../../pic32c/lib/thumb/v6-m/nofp\libc-musl.a(__stderr.o)
 .xc_stack_usage.hdr
                0x0000000000000000        0xe c:/program files/microchip/xc32/v4.60/bin/bin/../../lib/gcc/pic32c/8.3.1/../../../../pic32c/lib/thumb/v6-m/nofp\libc-musl.a(__stderr.o)
 .text          0x0000000000000000        0x0 c:/program files/microchip/xc32/v4.60/bin/bin/../../lib/gcc/pic32c/8.3.1/../../../../pic32c/lib/thumb/v6-m/nofp\libc-musl.a(__stdio_close.o)
 .data          0x0000000000000000        0x0 c:/program files/microchip/xc32/v4.60/bin/bin/../../lib/gcc/pic32c/8.3.1/../../../../pic32c/lib/thumb/v6-m/nofp\libc-musl.a(__stdio_close.o)
 .bss           0x0000000000000000        0x0 c:/program files/microchip/xc32/v4.60/bin/bin/../../lib/gcc/pic32c/8.3.1/../../../../pic32c/lib/thumb/v6-m/nofp\libc-musl.a(__stdio_close.o)
 .xc_stack_usage
                0x0000000000000000       0x39 c:/program files/microchip/xc32/v4.60/bin/bin/../../lib/gcc/pic32c/8.3.1/../../../../pic32c/lib/thumb/v6-m/nofp\libc-musl.a(__stdio_close.o)
 .text.__stdio_close
                0x0000000000000000       0x44 c:/program files/microchip/xc32/v4.60/bin/bin/../../lib/gcc/pic32c/8.3.1/../../../../pic32c/lib/thumb/v6-m/nofp\libc-musl.a(__stdio_close.o)
 .xc_stack_usage.hdr
                0x0000000000000000        0xe c:/program files/microchip/xc32/v4.60/bin/bin/../../lib/gcc/pic32c/8.3.1/../../../../pic32c/lib/thumb/v6-m/nofp\libc-musl.a(__stdio_close.o)
 .text          0x0000000000000000        0x0 c:/program files/microchip/xc32/v4.60/bin/bin/../../lib/gcc/pic32c/8.3.1/../../../../pic32c/lib/thumb/v6-m/nofp\libc-musl.a(__stdio_exit.o)
 .data          0x0000000000000000        0x0 c:/program files/microchip/xc32/v4.60/bin/bin/../../lib/gcc/pic32c/8.3.1/../../../../pic32c/lib/thumb/v6-m/nofp\libc-musl.a(__stdio_exit.o)
 .bss           0x0000000000000000        0x4 c:/program files/microchip/xc32/v4.60/bin/bin/../../lib/gcc/pic32c/8.3.1/../../../../pic32c/lib/thumb/v6-m/nofp\libc-musl.a(__stdio_exit.o)
 .xc_stack_usage
                0x0000000000000000       0x45 c:/program files/microchip/xc32/v4.60/bin/bin/../../lib/gcc/pic32c/8.3.1/../../../../pic32c/lib/thumb/v6-m/nofp\libc-musl.a(__stdio_exit.o)
 .text.__dummy  0x0000000000000000        0x2 c:/program files/microchip/xc32/v4.60/bin/bin/../../lib/gcc/pic32c/8.3.1/../../../../pic32c/lib/thumb/v6-m/nofp\libc-musl.a(__stdio_exit.o)
 .text.__dummy1
                0x0000000000000000        0x4 c:/program files/microchip/xc32/v4.60/bin/bin/../../lib/gcc/pic32c/8.3.1/../../../../pic32c/lib/thumb/v6-m/nofp\libc-musl.a(__stdio_exit.o)
 .text.__stdio_exit
                0x0000000000000000       0x34 c:/program files/microchip/xc32/v4.60/bin/bin/../../lib/gcc/pic32c/8.3.1/../../../../pic32c/lib/thumb/v6-m/nofp\libc-musl.a(__stdio_exit.o)
 .xc_stack_usage.hdr
                0x0000000000000000        0xe c:/program files/microchip/xc32/v4.60/bin/bin/../../lib/gcc/pic32c/8.3.1/../../../../pic32c/lib/thumb/v6-m/nofp\libc-musl.a(__stdio_exit.o)
 .debug_info    0x0000000000000000      0x2dd c:/program files/microchip/xc32/v4.60/bin/bin/../../lib/gcc/pic32c/8.3.1/../../../../pic32c/lib/thumb/v6-m/nofp\libc-musl.a(__stdio_exit.o)
 .debug_abbrev  0x0000000000000000      0x173 c:/program files/microchip/xc32/v4.60/bin/bin/../../lib/gcc/pic32c/8.3.1/../../../../pic32c/lib/thumb/v6-m/nofp\libc-musl.a(__stdio_exit.o)
 .debug_loc     0x0000000000000000       0x45 c:/program files/microchip/xc32/v4.60/bin/bin/../../lib/gcc/pic32c/8.3.1/../../../../pic32c/lib/thumb/v6-m/nofp\libc-musl.a(__stdio_exit.o)
 .debug_aranges
                0x0000000000000000       0x30 c:/program files/microchip/xc32/v4.60/bin/bin/../../lib/gcc/pic32c/8.3.1/../../../../pic32c/lib/thumb/v6-m/nofp\libc-musl.a(__stdio_exit.o)
 .debug_ranges  0x0000000000000000       0x20 c:/program files/microchip/xc32/v4.60/bin/bin/../../lib/gcc/pic32c/8.3.1/../../../../pic32c/lib/thumb/v6-m/nofp\libc-musl.a(__stdio_exit.o)
 .debug_line    0x0000000000000000      0x178 c:/program files/microchip/xc32/v4.60/bin/bin/../../lib/gcc/pic32c/8.3.1/../../../../pic32c/lib/thumb/v6-m/nofp\libc-musl.a(__stdio_exit.o)
 .debug_str     0x0000000000000000      0x32c c:/program files/microchip/xc32/v4.60/bin/bin/../../lib/gcc/pic32c/8.3.1/../../../../pic32c/lib/thumb/v6-m/nofp\libc-musl.a(__stdio_exit.o)
 .comment       0x0000000000000000       0x2c c:/program files/microchip/xc32/v4.60/bin/bin/../../lib/gcc/pic32c/8.3.1/../../../../pic32c/lib/thumb/v6-m/nofp\libc-musl.a(__stdio_exit.o)
 .note.GNU-stack
                0x0000000000000000        0x0 c:/program files/microchip/xc32/v4.60/bin/bin/../../lib/gcc/pic32c/8.3.1/../../../../pic32c/lib/thumb/v6-m/nofp\libc-musl.a(__stdio_exit.o)
 .debug_frame   0x0000000000000000       0x48 c:/program files/microchip/xc32/v4.60/bin/bin/../../lib/gcc/pic32c/8.3.1/../../../../pic32c/lib/thumb/v6-m/nofp\libc-musl.a(__stdio_exit.o)
 .ARM.attributes
                0x0000000000000000       0x2e c:/program files/microchip/xc32/v4.60/bin/bin/../../lib/gcc/pic32c/8.3.1/../../../../pic32c/lib/thumb/v6-m/nofp\libc-musl.a(__stdio_exit.o)
 .text          0x0000000000000000        0x0 c:/program files/microchip/xc32/v4.60/bin/bin/../../lib/gcc/pic32c/8.3.1/../../../../pic32c/lib/thumb/v6-m/nofp\libc-musl.a(__stdio_write.o)
 .data          0x0000000000000000        0x0 c:/program files/microchip/xc32/v4.60/bin/bin/../../lib/gcc/pic32c/8.3.1/../../../../pic32c/lib/thumb/v6-m/nofp\libc-musl.a(__stdio_write.o)
 .bss           0x0000000000000000        0x0 c:/program files/microchip/xc32/v4.60/bin/bin/../../lib/gcc/pic32c/8.3.1/../../../../pic32c/lib/thumb/v6-m/nofp\libc-musl.a(__stdio_write.o)
 .xc_stack_usage
                0x0000000000000000       0x42 c:/program files/microchip/xc32/v4.60/bin/bin/../../lib/gcc/pic32c/8.3.1/../../../../pic32c/lib/thumb/v6-m/nofp\libc-musl.a(__stdio_write.o)
 .xc_stack_usage.hdr
                0x0000000000000000        0xe c:/program files/microchip/xc32/v4.60/bin/bin/../../lib/gcc/pic32c/8.3.1/../../../../pic32c/lib/thumb/v6-m/nofp\libc-musl.a(__stdio_write.o)
 .text          0x0000000000000000        0x0 c:/program files/microchip/xc32/v4.60/bin/bin/../../lib/gcc/pic32c/8.3.1/../../../../pic32c/lib/thumb/v6-m/nofp\libc-musl.a(__stdout.o)
 .bss           0x0000000000000000        0x0 c:/program files/microchip/xc32/v4.60/bin/bin/../../lib/gcc/pic32c/8.3.1/../../../../pic32c/lib/thumb/v6-m/nofp\libc-musl.a(__stdout.o)
 .xc_stack_usage
                0x0000000000000000       0x50 c:/program files/microchip/xc32/v4.60/bin/bin/../../lib/gcc/pic32c/8.3.1/../../../../pic32c/lib/thumb/v6-m/nofp\libc-musl.a(__stdout.o)
 .text.__dummy  0x0000000000000000        0x2 c:/program files/microchip/xc32/v4.60/bin/bin/../../lib/gcc/pic32c/8.3.1/../../../../pic32c/lib/thumb/v6-m/nofp\libc-musl.a(__stdout.o)
 .xc_stack_usage.hdr
                0x0000000000000000        0xe c:/program files/microchip/xc32/v4.60/bin/bin/../../lib/gcc/pic32c/8.3.1/../../../../pic32c/lib/thumb/v6-m/nofp\libc-musl.a(__stdout.o)
 .text          0x0000000000000000        0x0 c:/program files/microchip/xc32/v4.60/bin/bin/../../lib/gcc/pic32c/8.3.1/../../../../pic32c/lib/thumb/v6-m/nofp\libc-musl.a(__towrite.o)
 .data          0x0000000000000000        0x0 c:/program files/microchip/xc32/v4.60/bin/bin/../../lib/gcc/pic32c/8.3.1/../../../../pic32c/lib/thumb/v6-m/nofp\libc-musl.a(__towrite.o)
 .bss           0x0000000000000000        0x0 c:/program files/microchip/xc32/v4.60/bin/bin/../../lib/gcc/pic32c/8.3.1/../../../../pic32c/lib/thumb/v6-m/nofp\libc-musl.a(__towrite.o)
 .xc_stack_usage
                0x0000000000000000       0x2c c:/program files/microchip/xc32/v4.60/bin/bin/../../lib/gcc/pic32c/8.3.1/../../../../pic32c/lib/thumb/v6-m/nofp\libc-musl.a(__towrite.o)
 .text.__dummy  0x0000000000000000        0x4 c:/program files/microchip/xc32/v4.60/bin/bin/../../lib/gcc/pic32c/8.3.1/../../../../pic32c/lib/thumb/v6-m/nofp\libc-musl.a(__towrite.o)
 .xc_stack_usage.hdr
                0x0000000000000000        0xe c:/program files/microchip/xc32/v4.60/bin/bin/../../lib/gcc/pic32c/8.3.1/../../../../pic32c/lib/thumb/v6-m/nofp\libc-musl.a(__towrite.o)
 .text          0x0000000000000000        0x0 c:/program files/microchip/xc32/v4.60/bin/bin/../../lib/gcc/pic32c/8.3.1/../../../../pic32c/lib/thumb/v6-m/nofp\libc-musl.a(__month_to_secs.o)
 .data          0x0000000000000000        0x0 c:/program files/microchip/xc32/v4.60/bin/bin/../../lib/gcc/pic32c/8.3.1/../../../../pic32c/lib/thumb/v6-m/nofp\libc-musl.a(__month_to_secs.o)
 .bss           0x0000000000000000        0x0 c:/program files/microchip/xc32/v4.60/bin/bin/../../lib/gcc/pic32c/8.3.1/../../../../pic32c/lib/thumb/v6-m/nofp\libc-musl.a(__month_to_secs.o)
 .xc_stack_usage
                0x0000000000000000       0x1d c:/program files/microchip/xc32/v4.60/bin/bin/../../lib/gcc/pic32c/8.3.1/../../../../pic32c/lib/thumb/v6-m/nofp\libc-musl.a(__month_to_secs.o)
 .xc_stack_usage.hdr
                0x0000000000000000        0xe c:/program files/microchip/xc32/v4.60/bin/bin/../../lib/gcc/pic32c/8.3.1/../../../../pic32c/lib/thumb/v6-m/nofp\libc-musl.a(__month_to_secs.o)
 .text          0x0000000000000000        0x0 c:/program files/microchip/xc32/v4.60/bin/bin/../../lib/gcc/pic32c/8.3.1/../../../../pic32c/lib/thumb/v6-m/nofp\libc-musl.a(writev.o)
 .data          0x0000000000000000        0x0 c:/program files/microchip/xc32/v4.60/bin/bin/../../lib/gcc/pic32c/8.3.1/../../../../pic32c/lib/thumb/v6-m/nofp\libc-musl.a(writev.o)
 .bss           0x0000000000000000        0x0 c:/program files/microchip/xc32/v4.60/bin/bin/../../lib/gcc/pic32c/8.3.1/../../../../pic32c/lib/thumb/v6-m/nofp\libc-musl.a(writev.o)
 .xc_stack_usage
                0x0000000000000000       0x16 c:/program files/microchip/xc32/v4.60/bin/bin/../../lib/gcc/pic32c/8.3.1/../../../../pic32c/lib/thumb/v6-m/nofp\libc-musl.a(writev.o)
 .xc_stack_usage.hdr
                0x0000000000000000        0xe c:/program files/microchip/xc32/v4.60/bin/bin/../../lib/gcc/pic32c/8.3.1/../../../../pic32c/lib/thumb/v6-m/nofp\libc-musl.a(writev.o)
 .text          0x0000000000000000        0x0 c:/program files/microchip/xc32/v4.60/bin/bin/../../lib/gcc/pic32c/8.3.1/../../../../pic32c/lib/thumb/v6-m/nofp\libc-musl.a(__overflow.o)
 .data          0x0000000000000000        0x0 c:/program files/microchip/xc32/v4.60/bin/bin/../../lib/gcc/pic32c/8.3.1/../../../../pic32c/lib/thumb/v6-m/nofp\libc-musl.a(__overflow.o)
 .bss           0x0000000000000000        0x0 c:/program files/microchip/xc32/v4.60/bin/bin/../../lib/gcc/pic32c/8.3.1/../../../../pic32c/lib/thumb/v6-m/nofp\libc-musl.a(__overflow.o)
 .xc_stack_usage
                0x0000000000000000       0x18 c:/program files/microchip/xc32/v4.60/bin/bin/../../lib/gcc/pic32c/8.3.1/../../../../pic32c/lib/thumb/v6-m/nofp\libc-musl.a(__overflow.o)
 .xc_stack_usage.hdr
                0x0000000000000000        0xe c:/program files/microchip/xc32/v4.60/bin/bin/../../lib/gcc/pic32c/8.3.1/../../../../pic32c/lib/thumb/v6-m/nofp\libc-musl.a(__overflow.o)
 .text          0x0000000000000000        0x0 c:/program files/microchip/xc32/v4.60/bin/bin/../../lib/gcc/pic32c/8.3.1/../../../../pic32c/lib/thumb/v6-m/nofp\libc-musl.a(__fclose.o)
 .data          0x0000000000000000        0x0 c:/program files/microchip/xc32/v4.60/bin/bin/../../lib/gcc/pic32c/8.3.1/../../../../pic32c/lib/thumb/v6-m/nofp\libc-musl.a(__fclose.o)
 .bss           0x0000000000000000        0x0 c:/program files/microchip/xc32/v4.60/bin/bin/../../lib/gcc/pic32c/8.3.1/../../../../pic32c/lib/thumb/v6-m/nofp\libc-musl.a(__fclose.o)
 .xc_stack_usage
                0x0000000000000000       0x16 c:/program files/microchip/xc32/v4.60/bin/bin/../../lib/gcc/pic32c/8.3.1/../../../../pic32c/lib/thumb/v6-m/nofp\libc-musl.a(__fclose.o)
 .text.__fclose
                0x0000000000000000       0x12 c:/program files/microchip/xc32/v4.60/bin/bin/../../lib/gcc/pic32c/8.3.1/../../../../pic32c/lib/thumb/v6-m/nofp\libc-musl.a(__fclose.o)
 .xc_stack_usage.hdr
                0x0000000000000000        0xe c:/program files/microchip/xc32/v4.60/bin/bin/../../lib/gcc/pic32c/8.3.1/../../../../pic32c/lib/thumb/v6-m/nofp\libc-musl.a(__fclose.o)
 .debug_info    0x0000000000000000      0x1ba c:/program files/microchip/xc32/v4.60/bin/bin/../../lib/gcc/pic32c/8.3.1/../../../../pic32c/lib/thumb/v6-m/nofp\libc-musl.a(__fclose.o)
 .debug_abbrev  0x0000000000000000       0xdd c:/program files/microchip/xc32/v4.60/bin/bin/../../lib/gcc/pic32c/8.3.1/../../../../pic32c/lib/thumb/v6-m/nofp\libc-musl.a(__fclose.o)
 .debug_loc     0x0000000000000000       0x77 c:/program files/microchip/xc32/v4.60/bin/bin/../../lib/gcc/pic32c/8.3.1/../../../../pic32c/lib/thumb/v6-m/nofp\libc-musl.a(__fclose.o)
 .debug_aranges
                0x0000000000000000       0x20 c:/program files/microchip/xc32/v4.60/bin/bin/../../lib/gcc/pic32c/8.3.1/../../../../pic32c/lib/thumb/v6-m/nofp\libc-musl.a(__fclose.o)
 .debug_ranges  0x0000000000000000       0x10 c:/program files/microchip/xc32/v4.60/bin/bin/../../lib/gcc/pic32c/8.3.1/../../../../pic32c/lib/thumb/v6-m/nofp\libc-musl.a(__fclose.o)
 .debug_line    0x0000000000000000      0x151 c:/program files/microchip/xc32/v4.60/bin/bin/../../lib/gcc/pic32c/8.3.1/../../../../pic32c/lib/thumb/v6-m/nofp\libc-musl.a(__fclose.o)
 .debug_str     0x0000000000000000      0x2c9 c:/program files/microchip/xc32/v4.60/bin/bin/../../lib/gcc/pic32c/8.3.1/../../../../pic32c/lib/thumb/v6-m/nofp\libc-musl.a(__fclose.o)
 .comment       0x0000000000000000       0x2c c:/program files/microchip/xc32/v4.60/bin/bin/../../lib/gcc/pic32c/8.3.1/../../../../pic32c/lib/thumb/v6-m/nofp\libc-musl.a(__fclose.o)
 .note.GNU-stack
                0x0000000000000000        0x0 c:/program files/microchip/xc32/v4.60/bin/bin/../../lib/gcc/pic32c/8.3.1/../../../../pic32c/lib/thumb/v6-m/nofp\libc-musl.a(__fclose.o)
 .debug_frame   0x0000000000000000       0x28 c:/program files/microchip/xc32/v4.60/bin/bin/../../lib/gcc/pic32c/8.3.1/../../../../pic32c/lib/thumb/v6-m/nofp\libc-musl.a(__fclose.o)
 .ARM.attributes
                0x0000000000000000       0x2e c:/program files/microchip/xc32/v4.60/bin/bin/../../lib/gcc/pic32c/8.3.1/../../../../pic32c/lib/thumb/v6-m/nofp\libc-musl.a(__fclose.o)
 .text          0x0000000000000000        0x0 c:/program files/microchip/xc32/v4.60/bin/bin/../../lib/gcc/pic32c/8.3.1/../../../../pic32c/lib/thumb/v6-m/nofp\libc-musl.a(__fopen.o)
 .data          0x0000000000000000        0x0 c:/program files/microchip/xc32/v4.60/bin/bin/../../lib/gcc/pic32c/8.3.1/../../../../pic32c/lib/thumb/v6-m/nofp\libc-musl.a(__fopen.o)
 .bss           0x0000000000000000        0x0 c:/program files/microchip/xc32/v4.60/bin/bin/../../lib/gcc/pic32c/8.3.1/../../../../pic32c/lib/thumb/v6-m/nofp\libc-musl.a(__fopen.o)
 .xc_stack_usage
                0x0000000000000000       0x43 c:/program files/microchip/xc32/v4.60/bin/bin/../../lib/gcc/pic32c/8.3.1/../../../../pic32c/lib/thumb/v6-m/nofp\libc-musl.a(__fopen.o)
 .text.__dummy  0x0000000000000000        0x4 c:/program files/microchip/xc32/v4.60/bin/bin/../../lib/gcc/pic32c/8.3.1/../../../../pic32c/lib/thumb/v6-m/nofp\libc-musl.a(__fopen.o)
 .text.__fopen_std
                0x0000000000000000       0x30 c:/program files/microchip/xc32/v4.60/bin/bin/../../lib/gcc/pic32c/8.3.1/../../../../pic32c/lib/thumb/v6-m/nofp\libc-musl.a(__fopen.o)
 .text.__fopen  0x0000000000000000        0x8 c:/program files/microchip/xc32/v4.60/bin/bin/../../lib/gcc/pic32c/8.3.1/../../../../pic32c/lib/thumb/v6-m/nofp\libc-musl.a(__fopen.o)
 .xc_stack_usage.hdr
                0x0000000000000000        0xe c:/program files/microchip/xc32/v4.60/bin/bin/../../lib/gcc/pic32c/8.3.1/../../../../pic32c/lib/thumb/v6-m/nofp\libc-musl.a(__fopen.o)
 .debug_info    0x0000000000000000      0x2e2 c:/program files/microchip/xc32/v4.60/bin/bin/../../lib/gcc/pic32c/8.3.1/../../../../pic32c/lib/thumb/v6-m/nofp\libc-musl.a(__fopen.o)
 .debug_abbrev  0x0000000000000000      0x17c c:/program files/microchip/xc32/v4.60/bin/bin/../../lib/gcc/pic32c/8.3.1/../../../../pic32c/lib/thumb/v6-m/nofp\libc-musl.a(__fopen.o)
 .debug_loc     0x0000000000000000       0x94 c:/program files/microchip/xc32/v4.60/bin/bin/../../lib/gcc/pic32c/8.3.1/../../../../pic32c/lib/thumb/v6-m/nofp\libc-musl.a(__fopen.o)
 .debug_aranges
                0x0000000000000000       0x30 c:/program files/microchip/xc32/v4.60/bin/bin/../../lib/gcc/pic32c/8.3.1/../../../../pic32c/lib/thumb/v6-m/nofp\libc-musl.a(__fopen.o)
 .debug_ranges  0x0000000000000000       0x20 c:/program files/microchip/xc32/v4.60/bin/bin/../../lib/gcc/pic32c/8.3.1/../../../../pic32c/lib/thumb/v6-m/nofp\libc-musl.a(__fopen.o)
 .debug_line    0x0000000000000000      0x21c c:/program files/microchip/xc32/v4.60/bin/bin/../../lib/gcc/pic32c/8.3.1/../../../../pic32c/lib/thumb/v6-m/nofp\libc-musl.a(__fopen.o)
 .debug_str     0x0000000000000000      0x306 c:/program files/microchip/xc32/v4.60/bin/bin/../../lib/gcc/pic32c/8.3.1/../../../../pic32c/lib/thumb/v6-m/nofp\libc-musl.a(__fopen.o)
 .comment       0x0000000000000000       0x2c c:/program files/microchip/xc32/v4.60/bin/bin/../../lib/gcc/pic32c/8.3.1/../../../../pic32c/lib/thumb/v6-m/nofp\libc-musl.a(__fopen.o)
 .note.GNU-stack
                0x0000000000000000        0x0 c:/program files/microchip/xc32/v4.60/bin/bin/../../lib/gcc/pic32c/8.3.1/../../../../pic32c/lib/thumb/v6-m/nofp\libc-musl.a(__fopen.o)
 .debug_frame   0x0000000000000000       0x50 c:/program files/microchip/xc32/v4.60/bin/bin/../../lib/gcc/pic32c/8.3.1/../../../../pic32c/lib/thumb/v6-m/nofp\libc-musl.a(__fopen.o)
 .ARM.attributes
                0x0000000000000000       0x2e c:/program files/microchip/xc32/v4.60/bin/bin/../../lib/gcc/pic32c/8.3.1/../../../../pic32c/lib/thumb/v6-m/nofp\libc-musl.a(__fopen.o)
 .text          0x0000000000000000        0x0 c:/program files/microchip/xc32/v4.60/bin/bin/../../lib/gcc/pic32c/8.3.1/../../../../pic32c/lib/thumb/v6-m/nofp\libc-musl.a(__fseeko.o)
 .data          0x0000000000000000        0x0 c:/program files/microchip/xc32/v4.60/bin/bin/../../lib/gcc/pic32c/8.3.1/../../../../pic32c/lib/thumb/v6-m/nofp\libc-musl.a(__fseeko.o)
 .bss           0x0000000000000000        0x0 c:/program files/microchip/xc32/v4.60/bin/bin/../../lib/gcc/pic32c/8.3.1/../../../../pic32c/lib/thumb/v6-m/nofp\libc-musl.a(__fseeko.o)
 .xc_stack_usage
                0x0000000000000000       0x16 c:/program files/microchip/xc32/v4.60/bin/bin/../../lib/gcc/pic32c/8.3.1/../../../../pic32c/lib/thumb/v6-m/nofp\libc-musl.a(__fseeko.o)
 .text.__fseeko
                0x0000000000000000        0x8 c:/program files/microchip/xc32/v4.60/bin/bin/../../lib/gcc/pic32c/8.3.1/../../../../pic32c/lib/thumb/v6-m/nofp\libc-musl.a(__fseeko.o)
 .xc_stack_usage.hdr
                0x0000000000000000        0xe c:/program files/microchip/xc32/v4.60/bin/bin/../../lib/gcc/pic32c/8.3.1/../../../../pic32c/lib/thumb/v6-m/nofp\libc-musl.a(__fseeko.o)
 .debug_info    0x0000000000000000      0x26a c:/program files/microchip/xc32/v4.60/bin/bin/../../lib/gcc/pic32c/8.3.1/../../../../pic32c/lib/thumb/v6-m/nofp\libc-musl.a(__fseeko.o)
 .debug_abbrev  0x0000000000000000       0xf8 c:/program files/microchip/xc32/v4.60/bin/bin/../../lib/gcc/pic32c/8.3.1/../../../../pic32c/lib/thumb/v6-m/nofp\libc-musl.a(__fseeko.o)
 .debug_loc     0x0000000000000000       0x8f c:/program files/microchip/xc32/v4.60/bin/bin/../../lib/gcc/pic32c/8.3.1/../../../../pic32c/lib/thumb/v6-m/nofp\libc-musl.a(__fseeko.o)
 .debug_aranges
                0x0000000000000000       0x20 c:/program files/microchip/xc32/v4.60/bin/bin/../../lib/gcc/pic32c/8.3.1/../../../../pic32c/lib/thumb/v6-m/nofp\libc-musl.a(__fseeko.o)
 .debug_ranges  0x0000000000000000       0x10 c:/program files/microchip/xc32/v4.60/bin/bin/../../lib/gcc/pic32c/8.3.1/../../../../pic32c/lib/thumb/v6-m/nofp\libc-musl.a(__fseeko.o)
 .debug_line    0x0000000000000000      0x13f c:/program files/microchip/xc32/v4.60/bin/bin/../../lib/gcc/pic32c/8.3.1/../../../../pic32c/lib/thumb/v6-m/nofp\libc-musl.a(__fseeko.o)
 .debug_str     0x0000000000000000      0x2e6 c:/program files/microchip/xc32/v4.60/bin/bin/../../lib/gcc/pic32c/8.3.1/../../../../pic32c/lib/thumb/v6-m/nofp\libc-musl.a(__fseeko.o)
 .comment       0x0000000000000000       0x2c c:/program files/microchip/xc32/v4.60/bin/bin/../../lib/gcc/pic32c/8.3.1/../../../../pic32c/lib/thumb/v6-m/nofp\libc-musl.a(__fseeko.o)
 .note.GNU-stack
                0x0000000000000000        0x0 c:/program files/microchip/xc32/v4.60/bin/bin/../../lib/gcc/pic32c/8.3.1/../../../../pic32c/lib/thumb/v6-m/nofp\libc-musl.a(__fseeko.o)
 .debug_frame   0x0000000000000000       0x28 c:/program files/microchip/xc32/v4.60/bin/bin/../../lib/gcc/pic32c/8.3.1/../../../../pic32c/lib/thumb/v6-m/nofp\libc-musl.a(__fseeko.o)
 .ARM.attributes
                0x0000000000000000       0x2e c:/program files/microchip/xc32/v4.60/bin/bin/../../lib/gcc/pic32c/8.3.1/../../../../pic32c/lib/thumb/v6-m/nofp\libc-musl.a(__fseeko.o)
 .text          0x0000000000000000        0x0 c:/program files/microchip/xc32/v4.60/bin/bin/../../lib/gcc/pic32c/8.3.1/../../../../pic32c/lib/thumb/v6-m/nofp\libc-musl.a(__ftello.o)
 .data          0x0000000000000000        0x0 c:/program files/microchip/xc32/v4.60/bin/bin/../../lib/gcc/pic32c/8.3.1/../../../../pic32c/lib/thumb/v6-m/nofp\libc-musl.a(__ftello.o)
 .bss           0x0000000000000000        0x0 c:/program files/microchip/xc32/v4.60/bin/bin/../../lib/gcc/pic32c/8.3.1/../../../../pic32c/lib/thumb/v6-m/nofp\libc-musl.a(__ftello.o)
 .xc_stack_usage
                0x0000000000000000       0x2f c:/program files/microchip/xc32/v4.60/bin/bin/../../lib/gcc/pic32c/8.3.1/../../../../pic32c/lib/thumb/v6-m/nofp\libc-musl.a(__ftello.o)
 .text.__dummy  0x0000000000000000       0x1a c:/program files/microchip/xc32/v4.60/bin/bin/../../lib/gcc/pic32c/8.3.1/../../../../pic32c/lib/thumb/v6-m/nofp\libc-musl.a(__ftello.o)
 .text.__ftello_adj
                0x0000000000000000        0x8 c:/program files/microchip/xc32/v4.60/bin/bin/../../lib/gcc/pic32c/8.3.1/../../../../pic32c/lib/thumb/v6-m/nofp\libc-musl.a(__ftello.o)
 .xc_stack_usage.hdr
                0x0000000000000000        0xe c:/program files/microchip/xc32/v4.60/bin/bin/../../lib/gcc/pic32c/8.3.1/../../../../pic32c/lib/thumb/v6-m/nofp\libc-musl.a(__ftello.o)
 .debug_info    0x0000000000000000      0x29a c:/program files/microchip/xc32/v4.60/bin/bin/../../lib/gcc/pic32c/8.3.1/../../../../pic32c/lib/thumb/v6-m/nofp\libc-musl.a(__ftello.o)
 .debug_abbrev  0x0000000000000000      0x100 c:/program files/microchip/xc32/v4.60/bin/bin/../../lib/gcc/pic32c/8.3.1/../../../../pic32c/lib/thumb/v6-m/nofp\libc-musl.a(__ftello.o)
 .debug_loc     0x0000000000000000       0xd4 c:/program files/microchip/xc32/v4.60/bin/bin/../../lib/gcc/pic32c/8.3.1/../../../../pic32c/lib/thumb/v6-m/nofp\libc-musl.a(__ftello.o)
 .debug_aranges
                0x0000000000000000       0x28 c:/program files/microchip/xc32/v4.60/bin/bin/../../lib/gcc/pic32c/8.3.1/../../../../pic32c/lib/thumb/v6-m/nofp\libc-musl.a(__ftello.o)
 .debug_ranges  0x0000000000000000       0x18 c:/program files/microchip/xc32/v4.60/bin/bin/../../lib/gcc/pic32c/8.3.1/../../../../pic32c/lib/thumb/v6-m/nofp\libc-musl.a(__ftello.o)
 .debug_line    0x0000000000000000      0x175 c:/program files/microchip/xc32/v4.60/bin/bin/../../lib/gcc/pic32c/8.3.1/../../../../pic32c/lib/thumb/v6-m/nofp\libc-musl.a(__ftello.o)
 .debug_str     0x0000000000000000      0x2eb c:/program files/microchip/xc32/v4.60/bin/bin/../../lib/gcc/pic32c/8.3.1/../../../../pic32c/lib/thumb/v6-m/nofp\libc-musl.a(__ftello.o)
 .comment       0x0000000000000000       0x2c c:/program files/microchip/xc32/v4.60/bin/bin/../../lib/gcc/pic32c/8.3.1/../../../../pic32c/lib/thumb/v6-m/nofp\libc-musl.a(__ftello.o)
 .note.GNU-stack
                0x0000000000000000        0x0 c:/program files/microchip/xc32/v4.60/bin/bin/../../lib/gcc/pic32c/8.3.1/../../../../pic32c/lib/thumb/v6-m/nofp\libc-musl.a(__ftello.o)
 .debug_frame   0x0000000000000000       0x40 c:/program files/microchip/xc32/v4.60/bin/bin/../../lib/gcc/pic32c/8.3.1/../../../../pic32c/lib/thumb/v6-m/nofp\libc-musl.a(__ftello.o)
 .ARM.attributes
                0x0000000000000000       0x2e c:/program files/microchip/xc32/v4.60/bin/bin/../../lib/gcc/pic32c/8.3.1/../../../../pic32c/lib/thumb/v6-m/nofp\libc-musl.a(__ftello.o)
 .text          0x0000000000000000        0x0 c:/program files/microchip/xc32/v4.60/bin/bin/../../lib/gcc/pic32c/8.3.1/../../../../pic32c/lib/thumb/v6-m/nofp\libc-musl.a(__fwrite.o)
 .data          0x0000000000000000        0x0 c:/program files/microchip/xc32/v4.60/bin/bin/../../lib/gcc/pic32c/8.3.1/../../../../pic32c/lib/thumb/v6-m/nofp\libc-musl.a(__fwrite.o)
 .bss           0x0000000000000000        0x0 c:/program files/microchip/xc32/v4.60/bin/bin/../../lib/gcc/pic32c/8.3.1/../../../../pic32c/lib/thumb/v6-m/nofp\libc-musl.a(__fwrite.o)
 .xc_stack_usage
                0x0000000000000000       0x36 c:/program files/microchip/xc32/v4.60/bin/bin/../../lib/gcc/pic32c/8.3.1/../../../../pic32c/lib/thumb/v6-m/nofp\libc-musl.a(__fwrite.o)
 .xc_stack_usage.hdr
                0x0000000000000000        0xe c:/program files/microchip/xc32/v4.60/bin/bin/../../lib/gcc/pic32c/8.3.1/../../../../pic32c/lib/thumb/v6-m/nofp\libc-musl.a(__fwrite.o)
 .xc_stack_usage.hdr
                0x0000000000000000        0xe c:/program files/microchip/xc32/v4.60/bin/bin/../../lib/gcc/pic32c/8.3.1/../../../../pic32c/lib/thumb/v6-m/nofp\libm-fast-emfloat.a(fma.o)
 .xc_stack_usage
                0x0000000000000000       0x11 c:/program files/microchip/xc32/v4.60/bin/bin/../../lib/gcc/pic32c/8.3.1/../../../../pic32c/lib/thumb/v6-m/nofp\libm-fast-emfloat.a(fma.o)
 .xc_stack_usage.hdr
                0x0000000000000000        0xe c:/program files/microchip/xc32/v4.60/bin/bin/../../lib/gcc/pic32c/8.3.1/../../../../pic32c/lib/thumb/v6-m/nofp\libm-fast-emfloat.a(floor.o)
 .xc_stack_usage
                0x0000000000000000       0x13 c:/program files/microchip/xc32/v4.60/bin/bin/../../lib/gcc/pic32c/8.3.1/../../../../pic32c/lib/thumb/v6-m/nofp\libm-fast-emfloat.a(floor.o)
 .xc_stack_usage.hdr
                0x0000000000000000        0xe c:/program files/microchip/xc32/v4.60/bin/bin/../../lib/gcc/pic32c/8.3.1/../../../../pic32c/lib/thumb/v6-m/nofp\libm-fast-emfloat.a(__aeabi_dcmple.o)
 .xc_stack_usage
                0x0000000000000000       0x1c c:/program files/microchip/xc32/v4.60/bin/bin/../../lib/gcc/pic32c/8.3.1/../../../../pic32c/lib/thumb/v6-m/nofp\libm-fast-emfloat.a(__aeabi_dcmple.o)
 .data          0x0000000000000000        0x0 c:/program files/microchip/xc32/v4.60/bin/bin/../../lib/gcc/pic32c/8.3.1/thumb/v6-m/nofp\libgcc.a(_udivsi3.o)
 .bss           0x0000000000000000        0x0 c:/program files/microchip/xc32/v4.60/bin/bin/../../lib/gcc/pic32c/8.3.1/thumb/v6-m/nofp\libgcc.a(_udivsi3.o)
 .xc_stack_usage.hdr
                0x0000000000000000        0xe c:/program files/microchip/xc32/v4.60/bin/bin/../../lib/gcc/pic32c/8.3.1/thumb/v6-m/nofp\libgcc.a(_udivsi3.o)
 .xc_stack_usage
                0x0000000000000000       0x35 c:/program files/microchip/xc32/v4.60/bin/bin/../../lib/gcc/pic32c/8.3.1/thumb/v6-m/nofp\libgcc.a(_udivsi3.o)
 .data          0x0000000000000000        0x0 c:/program files/microchip/xc32/v4.60/bin/bin/../../lib/gcc/pic32c/8.3.1/thumb/v6-m/nofp\libgcc.a(_divsi3.o)
 .bss           0x0000000000000000        0x0 c:/program files/microchip/xc32/v4.60/bin/bin/../../lib/gcc/pic32c/8.3.1/thumb/v6-m/nofp\libgcc.a(_divsi3.o)
 .xc_stack_usage.hdr
                0x0000000000000000        0xe c:/program files/microchip/xc32/v4.60/bin/bin/../../lib/gcc/pic32c/8.3.1/thumb/v6-m/nofp\libgcc.a(_divsi3.o)
 .xc_stack_usage
                0x0000000000000000       0x33 c:/program files/microchip/xc32/v4.60/bin/bin/../../lib/gcc/pic32c/8.3.1/thumb/v6-m/nofp\libgcc.a(_divsi3.o)
 .data          0x0000000000000000        0x0 c:/program files/microchip/xc32/v4.60/bin/bin/../../lib/gcc/pic32c/8.3.1/thumb/v6-m/nofp\libgcc.a(_dvmd_tls.o)
 .bss           0x0000000000000000        0x0 c:/program files/microchip/xc32/v4.60/bin/bin/../../lib/gcc/pic32c/8.3.1/thumb/v6-m/nofp\libgcc.a(_dvmd_tls.o)
 .xc_stack_usage.hdr
                0x0000000000000000        0xe c:/program files/microchip/xc32/v4.60/bin/bin/../../lib/gcc/pic32c/8.3.1/thumb/v6-m/nofp\libgcc.a(_dvmd_tls.o)
 .xc_stack_usage
                0x0000000000000000       0x36 c:/program files/microchip/xc32/v4.60/bin/bin/../../lib/gcc/pic32c/8.3.1/thumb/v6-m/nofp\libgcc.a(_dvmd_tls.o)
 .data          0x0000000000000000        0x0 c:/program files/microchip/xc32/v4.60/bin/bin/../../lib/gcc/pic32c/8.3.1/thumb/v6-m/nofp\libgcc.a(_aeabi_ldivmod.o)
 .bss           0x0000000000000000        0x0 c:/program files/microchip/xc32/v4.60/bin/bin/../../lib/gcc/pic32c/8.3.1/thumb/v6-m/nofp\libgcc.a(_aeabi_ldivmod.o)
 .xc_stack_usage.hdr
                0x0000000000000000        0xe c:/program files/microchip/xc32/v4.60/bin/bin/../../lib/gcc/pic32c/8.3.1/thumb/v6-m/nofp\libgcc.a(_aeabi_ldivmod.o)
 .xc_stack_usage
                0x0000000000000000       0x1d c:/program files/microchip/xc32/v4.60/bin/bin/../../lib/gcc/pic32c/8.3.1/thumb/v6-m/nofp\libgcc.a(_aeabi_ldivmod.o)
 .data          0x0000000000000000        0x0 c:/program files/microchip/xc32/v4.60/bin/bin/../../lib/gcc/pic32c/8.3.1/thumb/v6-m/nofp\libgcc.a(_aeabi_uldivmod.o)
 .bss           0x0000000000000000        0x0 c:/program files/microchip/xc32/v4.60/bin/bin/../../lib/gcc/pic32c/8.3.1/thumb/v6-m/nofp\libgcc.a(_aeabi_uldivmod.o)
 .xc_stack_usage.hdr
                0x0000000000000000        0xe c:/program files/microchip/xc32/v4.60/bin/bin/../../lib/gcc/pic32c/8.3.1/thumb/v6-m/nofp\libgcc.a(_aeabi_uldivmod.o)
 .xc_stack_usage
                0x0000000000000000       0x1e c:/program files/microchip/xc32/v4.60/bin/bin/../../lib/gcc/pic32c/8.3.1/thumb/v6-m/nofp\libgcc.a(_aeabi_uldivmod.o)
 .data          0x0000000000000000        0x0 c:/program files/microchip/xc32/v4.60/bin/bin/../../lib/gcc/pic32c/8.3.1/thumb/v6-m/nofp\libgcc.a(_muldi3.o)
 .bss           0x0000000000000000        0x0 c:/program files/microchip/xc32/v4.60/bin/bin/../../lib/gcc/pic32c/8.3.1/thumb/v6-m/nofp\libgcc.a(_muldi3.o)
 .xc_stack_usage
                0x0000000000000000       0x16 c:/program files/microchip/xc32/v4.60/bin/bin/../../lib/gcc/pic32c/8.3.1/thumb/v6-m/nofp\libgcc.a(_muldi3.o)
 .xc_stack_usage.hdr
                0x0000000000000000        0xe c:/program files/microchip/xc32/v4.60/bin/bin/../../lib/gcc/pic32c/8.3.1/thumb/v6-m/nofp\libgcc.a(_muldi3.o)
 .data          0x0000000000000000        0x0 c:/program files/microchip/xc32/v4.60/bin/bin/../../lib/gcc/pic32c/8.3.1/thumb/v6-m/nofp\libgcc.a(_udivmoddi4.o)
 .bss           0x0000000000000000        0x0 c:/program files/microchip/xc32/v4.60/bin/bin/../../lib/gcc/pic32c/8.3.1/thumb/v6-m/nofp\libgcc.a(_udivmoddi4.o)
 .xc_stack_usage
                0x0000000000000000       0x1a c:/program files/microchip/xc32/v4.60/bin/bin/../../lib/gcc/pic32c/8.3.1/thumb/v6-m/nofp\libgcc.a(_udivmoddi4.o)
 .ARM.extab     0x0000000000000000        0x0 c:/program files/microchip/xc32/v4.60/bin/bin/../../lib/gcc/pic32c/8.3.1/thumb/v6-m/nofp\libgcc.a(_udivmoddi4.o)
 .xc_stack_usage.hdr
                0x0000000000000000        0xe c:/program files/microchip/xc32/v4.60/bin/bin/../../lib/gcc/pic32c/8.3.1/thumb/v6-m/nofp\libgcc.a(_udivmoddi4.o)
 .data          0x0000000000000000        0x0 c:/program files/microchip/xc32/v4.60/bin/bin/../../lib/gcc/pic32c/8.3.1/thumb/v6-m/nofp\libgcc.a(bpabi.o)
 .bss           0x0000000000000000        0x0 c:/program files/microchip/xc32/v4.60/bin/bin/../../lib/gcc/pic32c/8.3.1/thumb/v6-m/nofp\libgcc.a(bpabi.o)
 .xc_stack_usage
                0x0000000000000000       0x22 c:/program files/microchip/xc32/v4.60/bin/bin/../../lib/gcc/pic32c/8.3.1/thumb/v6-m/nofp\libgcc.a(bpabi.o)
 .xc_stack_usage.hdr
                0x0000000000000000        0xe c:/program files/microchip/xc32/v4.60/bin/bin/../../lib/gcc/pic32c/8.3.1/thumb/v6-m/nofp\libgcc.a(bpabi.o)
 .data          0x0000000000000000        0x0 c:/program files/microchip/xc32/v4.60/bin/bin/../../lib/gcc/pic32c/8.3.1/thumb/v6-m/nofp\libgcc.a(_lshrdi3.o)
 .bss           0x0000000000000000        0x0 c:/program files/microchip/xc32/v4.60/bin/bin/../../lib/gcc/pic32c/8.3.1/thumb/v6-m/nofp\libgcc.a(_lshrdi3.o)
 .xc_stack_usage.hdr
                0x0000000000000000        0xe c:/program files/microchip/xc32/v4.60/bin/bin/../../lib/gcc/pic32c/8.3.1/thumb/v6-m/nofp\libgcc.a(_lshrdi3.o)
 .xc_stack_usage
                0x0000000000000000       0x17 c:/program files/microchip/xc32/v4.60/bin/bin/../../lib/gcc/pic32c/8.3.1/thumb/v6-m/nofp\libgcc.a(_lshrdi3.o)
 .data          0x0000000000000000        0x0 c:/program files/microchip/xc32/v4.60/bin/bin/../../lib/gcc/pic32c/8.3.1/thumb/v6-m/nofp\libgcc.a(_ashldi3.o)
 .bss           0x0000000000000000        0x0 c:/program files/microchip/xc32/v4.60/bin/bin/../../lib/gcc/pic32c/8.3.1/thumb/v6-m/nofp\libgcc.a(_ashldi3.o)
 .xc_stack_usage.hdr
                0x0000000000000000        0xe c:/program files/microchip/xc32/v4.60/bin/bin/../../lib/gcc/pic32c/8.3.1/thumb/v6-m/nofp\libgcc.a(_ashldi3.o)
 .xc_stack_usage
                0x0000000000000000       0x17 c:/program files/microchip/xc32/v4.60/bin/bin/../../lib/gcc/pic32c/8.3.1/thumb/v6-m/nofp\libgcc.a(_ashldi3.o)
 .data          0x0000000000000000        0x0 c:/program files/microchip/xc32/v4.60/bin/bin/../../lib/gcc/pic32c/8.3.1/thumb/v6-m/nofp\libgcc.a(_clzdi2.o)
 .bss           0x0000000000000000        0x0 c:/program files/microchip/xc32/v4.60/bin/bin/../../lib/gcc/pic32c/8.3.1/thumb/v6-m/nofp\libgcc.a(_clzdi2.o)
 .xc_stack_usage.hdr
                0x0000000000000000        0xe c:/program files/microchip/xc32/v4.60/bin/bin/../../lib/gcc/pic32c/8.3.1/thumb/v6-m/nofp\libgcc.a(_clzdi2.o)
 .xc_stack_usage
                0x0000000000000000       0x16 c:/program files/microchip/xc32/v4.60/bin/bin/../../lib/gcc/pic32c/8.3.1/thumb/v6-m/nofp\libgcc.a(_clzdi2.o)
 .data          0x0000000000000000        0x0 c:/program files/microchip/xc32/v4.60/bin/bin/../../lib/gcc/pic32c/8.3.1/thumb/v6-m/nofp\libgcc.a(_divdi3.o)
 .bss           0x0000000000000000        0x0 c:/program files/microchip/xc32/v4.60/bin/bin/../../lib/gcc/pic32c/8.3.1/thumb/v6-m/nofp\libgcc.a(_divdi3.o)
 .xc_stack_usage
                0x0000000000000000       0x16 c:/program files/microchip/xc32/v4.60/bin/bin/../../lib/gcc/pic32c/8.3.1/thumb/v6-m/nofp\libgcc.a(_divdi3.o)
 .ARM.extab     0x0000000000000000        0x0 c:/program files/microchip/xc32/v4.60/bin/bin/../../lib/gcc/pic32c/8.3.1/thumb/v6-m/nofp\libgcc.a(_divdi3.o)
 .xc_stack_usage.hdr
                0x0000000000000000        0xe c:/program files/microchip/xc32/v4.60/bin/bin/../../lib/gcc/pic32c/8.3.1/thumb/v6-m/nofp\libgcc.a(_divdi3.o)
 .data          0x0000000000000000        0x0 c:/program files/microchip/xc32/v4.60/bin/bin/../../lib/gcc/pic32c/8.3.1/thumb/v6-m/nofp\libgcc.a(_clzsi2.o)
 .bss           0x0000000000000000        0x0 c:/program files/microchip/xc32/v4.60/bin/bin/../../lib/gcc/pic32c/8.3.1/thumb/v6-m/nofp\libgcc.a(_clzsi2.o)
 .xc_stack_usage.hdr
                0x0000000000000000        0xe c:/program files/microchip/xc32/v4.60/bin/bin/../../lib/gcc/pic32c/8.3.1/thumb/v6-m/nofp\libgcc.a(_clzsi2.o)
 .xc_stack_usage
                0x0000000000000000       0x16 c:/program files/microchip/xc32/v4.60/bin/bin/../../lib/gcc/pic32c/8.3.1/thumb/v6-m/nofp\libgcc.a(_clzsi2.o)
 .text          0x0000000000000000        0x0 c:/program files/microchip/xc32/v4.60/bin/bin/../../lib/gcc/pic32c/8.3.1/../../../../pic32c/lib/thumb/v6-m/nofp\libpic32c.a(close.o)
 .data          0x0000000000000000        0x0 c:/program files/microchip/xc32/v4.60/bin/bin/../../lib/gcc/pic32c/8.3.1/../../../../pic32c/lib/thumb/v6-m/nofp\libpic32c.a(close.o)
 .bss           0x0000000000000000        0x0 c:/program files/microchip/xc32/v4.60/bin/bin/../../lib/gcc/pic32c/8.3.1/../../../../pic32c/lib/thumb/v6-m/nofp\libpic32c.a(close.o)
 .xc_stack_usage
                0x0000000000000000       0x13 c:/program files/microchip/xc32/v4.60/bin/bin/../../lib/gcc/pic32c/8.3.1/../../../../pic32c/lib/thumb/v6-m/nofp\libpic32c.a(close.o)
 .gnu.warning.closestub
                0x0000000000000000        0x0 c:/program files/microchip/xc32/v4.60/bin/bin/../../lib/gcc/pic32c/8.3.1/../../../../pic32c/lib/thumb/v6-m/nofp\libpic32c.a(close.o)
 .xc_stack_usage.hdr
                0x0000000000000000        0xe c:/program files/microchip/xc32/v4.60/bin/bin/../../lib/gcc/pic32c/8.3.1/../../../../pic32c/lib/thumb/v6-m/nofp\libpic32c.a(close.o)
 .text          0x0000000000000000        0x0 c:/program files/microchip/xc32/v4.60/bin/bin/../../lib/gcc/pic32c/8.3.1/../../../../pic32c/lib/thumb/v6-m/nofp\libpic32c.a(lseek.o)
 .data          0x0000000000000000        0x0 c:/program files/microchip/xc32/v4.60/bin/bin/../../lib/gcc/pic32c/8.3.1/../../../../pic32c/lib/thumb/v6-m/nofp\libpic32c.a(lseek.o)
 .bss           0x0000000000000000        0x0 c:/program files/microchip/xc32/v4.60/bin/bin/../../lib/gcc/pic32c/8.3.1/../../../../pic32c/lib/thumb/v6-m/nofp\libpic32c.a(lseek.o)
 .xc_stack_usage
                0x0000000000000000       0x13 c:/program files/microchip/xc32/v4.60/bin/bin/../../lib/gcc/pic32c/8.3.1/../../../../pic32c/lib/thumb/v6-m/nofp\libpic32c.a(lseek.o)
 .xc_stack_usage.hdr
                0x0000000000000000        0xe c:/program files/microchip/xc32/v4.60/bin/bin/../../lib/gcc/pic32c/8.3.1/../../../../pic32c/lib/thumb/v6-m/nofp\libpic32c.a(lseek.o)
 .text          0x0000000000000000        0x0 c:/program files/microchip/xc32/v4.60/bin/bin/../../lib/gcc/pic32c/8.3.1/../../../../pic32c/lib/thumb/v6-m/nofp\libpic32c.a(sbrk.o)
 .data          0x0000000000000000        0x0 c:/program files/microchip/xc32/v4.60/bin/bin/../../lib/gcc/pic32c/8.3.1/../../../../pic32c/lib/thumb/v6-m/nofp\libpic32c.a(sbrk.o)
 .xc_stack_usage
                0x0000000000000000       0x4d c:/program files/microchip/xc32/v4.60/bin/bin/../../lib/gcc/pic32c/8.3.1/../../../../pic32c/lib/thumb/v6-m/nofp\libpic32c.a(sbrk.o)
 .xc_stack_usage.hdr
                0x0000000000000000        0xe c:/program files/microchip/xc32/v4.60/bin/bin/../../lib/gcc/pic32c/8.3.1/../../../../pic32c/lib/thumb/v6-m/nofp\libpic32c.a(sbrk.o)
 .text          0x0000000000000000        0x0 c:/program files/microchip/xc32/v4.60/bin/bin/../../lib/gcc/pic32c/8.3.1/../../../../pic32c/lib/thumb/v6-m/nofp\libc-size-musl.a(strcpy.o)
 .data          0x0000000000000000        0x0 c:/program files/microchip/xc32/v4.60/bin/bin/../../lib/gcc/pic32c/8.3.1/../../../../pic32c/lib/thumb/v6-m/nofp\libc-size-musl.a(strcpy.o)
 .bss           0x0000000000000000        0x0 c:/program files/microchip/xc32/v4.60/bin/bin/../../lib/gcc/pic32c/8.3.1/../../../../pic32c/lib/thumb/v6-m/nofp\libc-size-musl.a(strcpy.o)
 .xc_stack_usage
                0x0000000000000000       0x14 c:/program files/microchip/xc32/v4.60/bin/bin/../../lib/gcc/pic32c/8.3.1/../../../../pic32c/lib/thumb/v6-m/nofp\libc-size-musl.a(strcpy.o)
 .xc_stack_usage.hdr
                0x0000000000000000        0xe c:/program files/microchip/xc32/v4.60/bin/bin/../../lib/gcc/pic32c/8.3.1/../../../../pic32c/lib/thumb/v6-m/nofp\libc-size-musl.a(strcpy.o)
 .text          0x0000000000000000        0x0 c:/program files/microchip/xc32/v4.60/bin/bin/../../lib/gcc/pic32c/8.3.1/../../../../pic32c/lib/thumb/v6-m/nofp\libc-size-musl.a(stpcpy.o)
 .data          0x0000000000000000        0x0 c:/program files/microchip/xc32/v4.60/bin/bin/../../lib/gcc/pic32c/8.3.1/../../../../pic32c/lib/thumb/v6-m/nofp\libc-size-musl.a(stpcpy.o)
 .bss           0x0000000000000000        0x0 c:/program files/microchip/xc32/v4.60/bin/bin/../../lib/gcc/pic32c/8.3.1/../../../../pic32c/lib/thumb/v6-m/nofp\libc-size-musl.a(stpcpy.o)
 .xc_stack_usage
                0x0000000000000000       0x14 c:/program files/microchip/xc32/v4.60/bin/bin/../../lib/gcc/pic32c/8.3.1/../../../../pic32c/lib/thumb/v6-m/nofp\libc-size-musl.a(stpcpy.o)
 .xc_stack_usage.hdr
                0x0000000000000000        0xe c:/program files/microchip/xc32/v4.60/bin/bin/../../lib/gcc/pic32c/8.3.1/../../../../pic32c/lib/thumb/v6-m/nofp\libc-size-musl.a(stpcpy.o)
 .text          0x0000000000000000        0x0 c:/program files/microchip/xc32/v4.60/bin/bin/../../lib/gcc/pic32c/8.3.1/thumb/v6-m/nofp/crtend.o
 .data          0x0000000000000000        0x0 c:/program files/microchip/xc32/v4.60/bin/bin/../../lib/gcc/pic32c/8.3.1/thumb/v6-m/nofp/crtend.o
 .bss           0x0000000000000000        0x0 c:/program files/microchip/xc32/v4.60/bin/bin/../../lib/gcc/pic32c/8.3.1/thumb/v6-m/nofp/crtend.o
 .eh_frame      0x0000000000000000        0x4 c:/program files/microchip/xc32/v4.60/bin/bin/../../lib/gcc/pic32c/8.3.1/thumb/v6-m/nofp/crtend.o
 .xc_stack_usage.hdr
                0x0000000000000000        0xe c:/program files/microchip/xc32/v4.60/bin/bin/../../lib/gcc/pic32c/8.3.1/thumb/v6-m/nofp/crtend.o
 .comment       0x0000000000000000       0x2c c:/program files/microchip/xc32/v4.60/bin/bin/../../lib/gcc/pic32c/8.3.1/thumb/v6-m/nofp/crtend.o
 .ARM.attributes
                0x0000000000000000       0x2c c:/program files/microchip/xc32/v4.60/bin/bin/../../lib/gcc/pic32c/8.3.1/thumb/v6-m/nofp/crtend.o
 .text          0x0000000000000000        0x0 c:/program files/microchip/xc32/v4.60/bin/bin/../../lib/gcc/pic32c/8.3.1/thumb/v6-m/nofp/crtn.o
 .data          0x0000000000000000        0x0 c:/program files/microchip/xc32/v4.60/bin/bin/../../lib/gcc/pic32c/8.3.1/thumb/v6-m/nofp/crtn.o
 .bss           0x0000000000000000        0x0 c:/program files/microchip/xc32/v4.60/bin/bin/../../lib/gcc/pic32c/8.3.1/thumb/v6-m/nofp/crtn.o
 .xc_stack_usage.hdr
                0x0000000000000000        0xe c:/program files/microchip/xc32/v4.60/bin/bin/../../lib/gcc/pic32c/8.3.1/thumb/v6-m/nofp/crtn.o
 .text          0x0000000000000000        0x0 c:/program files/microchip/xc32/v4.60/bin/bin/../../lib/gcc/pic32c/8.3.1/../../../../pic32c/lib/thumb/v6-m/nofp\libpic32c.a(pic32_data_init_clear.o)
 .data          0x0000000000000000        0x0 c:/program files/microchip/xc32/v4.60/bin/bin/../../lib/gcc/pic32c/8.3.1/../../../../pic32c/lib/thumb/v6-m/nofp\libpic32c.a(pic32_data_init_clear.o)
 .bss           0x0000000000000000        0x0 c:/program files/microchip/xc32/v4.60/bin/bin/../../lib/gcc/pic32c/8.3.1/../../../../pic32c/lib/thumb/v6-m/nofp\libpic32c.a(pic32_data_init_clear.o)
 .xc_stack_usage
                0x0000000000000000       0x1b c:/program files/microchip/xc32/v4.60/bin/bin/../../lib/gcc/pic32c/8.3.1/../../../../pic32c/lib/thumb/v6-m/nofp\libpic32c.a(pic32_data_init_clear.o)
 .xc_stack_usage.hdr
                0x0000000000000000        0xe c:/program files/microchip/xc32/v4.60/bin/bin/../../lib/gcc/pic32c/8.3.1/../../../../pic32c/lib/thumb/v6-m/nofp\libpic32c.a(pic32_data_init_clear.o)
 .text          0x0000000000000000        0x0 c:/program files/microchip/xc32/v4.60/bin/bin/../../lib/gcc/pic32c/8.3.1/../../../../pic32c/lib/thumb/v6-m/nofp\libpic32c.a(pic32_data_init_copy.o)
 .data          0x0000000000000000        0x0 c:/program files/microchip/xc32/v4.60/bin/bin/../../lib/gcc/pic32c/8.3.1/../../../../pic32c/lib/thumb/v6-m/nofp\libpic32c.a(pic32_data_init_copy.o)
 .bss           0x0000000000000000        0x0 c:/program files/microchip/xc32/v4.60/bin/bin/../../lib/gcc/pic32c/8.3.1/../../../../pic32c/lib/thumb/v6-m/nofp\libpic32c.a(pic32_data_init_copy.o)
 .xc_stack_usage
                0x0000000000000000       0x1a c:/program files/microchip/xc32/v4.60/bin/bin/../../lib/gcc/pic32c/8.3.1/../../../../pic32c/lib/thumb/v6-m/nofp\libpic32c.a(pic32_data_init_copy.o)
 .xc_stack_usage.hdr
                0x0000000000000000        0xe c:/program files/microchip/xc32/v4.60/bin/bin/../../lib/gcc/pic32c/8.3.1/../../../../pic32c/lib/thumb/v6-m/nofp\libpic32c.a(pic32_data_init_copy.o)

Memory Configuration

Name             Origin             Length             Attributes
rom              0x0000000000000000 0x0000000000040000 xrl
ram              0x0000000020000000 0x0000000000008000 xw !r
config_00804000  0x0000000000804000 0x0000000000000004
config_00804004  0x0000000000804004 0x0000000000000004
*default*        0x0000000000000000 0xffffffffffffffff

Linker script and memory map

LOAD c:/program files/microchip/xc32/v4.60/bin/bin/../../lib/gcc/pic32c/8.3.1/thumb/v6-m/nofp/crti.o
LOAD c:/program files/microchip/xc32/v4.60/bin/bin/../../lib/gcc/pic32c/8.3.1/thumb/v6-m/nofp/crtbegin.o
LOAD build/SAMD21_IOT_WG_ICM42688/production/_ext/2048461350/icm42688_sensor.o
LOAD build/SAMD21_IOT_WG_ICM42688/production/_ext/171618134/sml_recognition_run.o
LOAD build/SAMD21_IOT_WG_ICM42688/production/_ext/1660664302/drv_spi.o
LOAD build/SAMD21_IOT_WG_ICM42688/production/_ext/1164161090/wdrv_winc_gpio.o
LOAD build/SAMD21_IOT_WG_ICM42688/production/_ext/1164161090/wdrv_winc_eint.o
LOAD build/SAMD21_IOT_WG_ICM42688/production/_ext/101005277/wdrv_winc_spi.o
LOAD build/SAMD21_IOT_WG_ICM42688/production/_ext/90265895/nm_common.o
LOAD build/SAMD21_IOT_WG_ICM42688/production/_ext/121554788/m2m_ssl.o
LOAD build/SAMD21_IOT_WG_ICM42688/production/_ext/121554788/m2m_hif.o
LOAD build/SAMD21_IOT_WG_ICM42688/production/_ext/121554788/m2m_wifi.o
LOAD build/SAMD21_IOT_WG_ICM42688/production/_ext/121554788/nmspi.o
LOAD build/SAMD21_IOT_WG_ICM42688/production/_ext/121554788/nmdrv.o
LOAD build/SAMD21_IOT_WG_ICM42688/production/_ext/121554788/m2m_periph.o
LOAD build/SAMD21_IOT_WG_ICM42688/production/_ext/121554788/m2m_ota.o
LOAD build/SAMD21_IOT_WG_ICM42688/production/_ext/121554788/nmasic.o
LOAD build/SAMD21_IOT_WG_ICM42688/production/_ext/121554788/nmbus.o
LOAD build/SAMD21_IOT_WG_ICM42688/production/_ext/548032175/socket.o
LOAD build/SAMD21_IOT_WG_ICM42688/production/_ext/548032175/inet_addr.o
LOAD build/SAMD21_IOT_WG_ICM42688/production/_ext/548032175/inet_ntop.o
LOAD build/SAMD21_IOT_WG_ICM42688/production/_ext/609036575/flexible_flash.o
LOAD build/SAMD21_IOT_WG_ICM42688/production/_ext/609036575/spi_flash.o
LOAD build/SAMD21_IOT_WG_ICM42688/production/_ext/1784303044/wdrv_winc_osal.o
LOAD build/SAMD21_IOT_WG_ICM42688/production/_ext/907429946/wdrv_winc_softap.o
LOAD build/SAMD21_IOT_WG_ICM42688/production/_ext/907429946/wdrv_winc_bssfind.o
LOAD build/SAMD21_IOT_WG_ICM42688/production/_ext/907429946/wdrv_winc_sta.o
LOAD build/SAMD21_IOT_WG_ICM42688/production/_ext/907429946/wdrv_winc_wps.o
LOAD build/SAMD21_IOT_WG_ICM42688/production/_ext/907429946/wdrv_winc_assoc.o
LOAD build/SAMD21_IOT_WG_ICM42688/production/_ext/907429946/wdrv_winc_socket.o
LOAD build/SAMD21_IOT_WG_ICM42688/production/_ext/907429946/wdrv_winc_systime.o
LOAD build/SAMD21_IOT_WG_ICM42688/production/_ext/907429946/wdrv_winc_enterprise.o
LOAD build/SAMD21_IOT_WG_ICM42688/production/_ext/907429946/wdrv_winc_nvm.o
LOAD build/SAMD21_IOT_WG_ICM42688/production/_ext/907429946/wdrv_winc_httpprovctx.o
LOAD build/SAMD21_IOT_WG_ICM42688/production/_ext/907429946/wdrv_winc_powersave.o
LOAD build/SAMD21_IOT_WG_ICM42688/production/_ext/907429946/wdrv_winc_authctx.o
LOAD build/SAMD21_IOT_WG_ICM42688/production/_ext/907429946/wdrv_winc_ssl.o
LOAD build/SAMD21_IOT_WG_ICM42688/production/_ext/907429946/wdrv_winc_custie.o
LOAD build/SAMD21_IOT_WG_ICM42688/production/_ext/907429946/wdrv_winc_host_file.o
LOAD build/SAMD21_IOT_WG_ICM42688/production/_ext/907429946/wdrv_winc.o
LOAD build/SAMD21_IOT_WG_ICM42688/production/_ext/907429946/wdrv_winc_bssctx.o
LOAD build/SAMD21_IOT_WG_ICM42688/production/_ext/1750425231/plib_clock.o
LOAD build/SAMD21_IOT_WG_ICM42688/production/_ext/1580516298/plib_dmac.o
LOAD build/SAMD21_IOT_WG_ICM42688/production/_ext/503204096/plib_eic.o
LOAD build/SAMD21_IOT_WG_ICM42688/production/_ext/1752574717/plib_evsys.o
LOAD build/SAMD21_IOT_WG_ICM42688/production/_ext/1580823105/plib_nvic.o
LOAD build/SAMD21_IOT_WG_ICM42688/production/_ext/11470383/plib_nvmctrl.o
LOAD build/SAMD21_IOT_WG_ICM42688/production/_ext/1580876256/plib_port.o
LOAD build/SAMD21_IOT_WG_ICM42688/production/_ext/1014017276/plib_sercom0_spi_master.o
LOAD build/SAMD21_IOT_WG_ICM42688/production/_ext/1014017276/plib_sercom2_spi_master.o
LOAD build/SAMD21_IOT_WG_ICM42688/production/_ext/177673482/plib_sercom5_usart.o
LOAD build/SAMD21_IOT_WG_ICM42688/production/_ext/223004715/plib_systick.o
LOAD build/SAMD21_IOT_WG_ICM42688/production/_ext/399410062/plib_tc3.o
LOAD build/SAMD21_IOT_WG_ICM42688/production/_ext/399410062/plib_tc4.o
LOAD build/SAMD21_IOT_WG_ICM42688/production/_ext/1357625803/xc32_monitor.o
LOAD build/SAMD21_IOT_WG_ICM42688/production/_ext/1584719636/sys_dma.o
LOAD build/SAMD21_IOT_WG_ICM42688/production/_ext/1318297016/sys_int.o
LOAD build/SAMD21_IOT_WG_ICM42688/production/_ext/386530258/sys_time.o
LOAD build/SAMD21_IOT_WG_ICM42688/production/_ext/1832905403/initialization.o
LOAD build/SAMD21_IOT_WG_ICM42688/production/_ext/1832905403/interrupts.o
LOAD build/SAMD21_IOT_WG_ICM42688/production/_ext/1832905403/exceptions.o
LOAD build/SAMD21_IOT_WG_ICM42688/production/_ext/1832905403/startup_xc32.o
LOAD build/SAMD21_IOT_WG_ICM42688/production/_ext/1832905403/libc_syscalls.o
LOAD build/SAMD21_IOT_WG_ICM42688/production/_ext/1832905403/tasks.o
LOAD build/SAMD21_IOT_WG_ICM42688/production/_ext/1341251756/Icm426xxDriver_HL.o
LOAD build/SAMD21_IOT_WG_ICM42688/production/_ext/1341251756/Icm426xxDriver_HL_apex.o
LOAD build/SAMD21_IOT_WG_ICM42688/production/_ext/1341251756/Icm426xxSelfTest.o
LOAD build/SAMD21_IOT_WG_ICM42688/production/_ext/1341251756/Icm426xxTransport.o
LOAD build/SAMD21_IOT_WG_ICM42688/production/_ext/596309756/array_contains.o
LOAD build/SAMD21_IOT_WG_ICM42688/production/_ext/596309756/calc_area.o
LOAD build/SAMD21_IOT_WG_ICM42688/production/_ext/596309756/column_to_row_complex.o
LOAD build/SAMD21_IOT_WG_ICM42688/production/_ext/596309756/crossing_rate.o
LOAD build/SAMD21_IOT_WG_ICM42688/production/_ext/596309756/dsp_dtw_distance.o
LOAD build/SAMD21_IOT_WG_ICM42688/production/_ext/596309756/dsp_l1_distance.o
LOAD build/SAMD21_IOT_WG_ICM42688/production/_ext/596309756/dsp_lsup_distance.o
LOAD build/SAMD21_IOT_WG_ICM42688/production/_ext/596309756/fftr.o
LOAD build/SAMD21_IOT_WG_ICM42688/production/_ext/596309756/fftr_utils.o
LOAD build/SAMD21_IOT_WG_ICM42688/production/_ext/596309756/fg_amplitude_global_p2p_low_frequency.o
LOAD build/SAMD21_IOT_WG_ICM42688/production/_ext/596309756/fg_amplitude_peak_to_peak.o
LOAD build/SAMD21_IOT_WG_ICM42688/production/_ext/596309756/fg_area_absolute_area_low_frequency.o
LOAD build/SAMD21_IOT_WG_ICM42688/production/_ext/596309756/fg_cross_p2p_difference.o
LOAD build/SAMD21_IOT_WG_ICM42688/production/_ext/596309756/fg_sampling_downsample.o
LOAD build/SAMD21_IOT_WG_ICM42688/production/_ext/596309756/fg_stats_abs_mean.o
LOAD build/SAMD21_IOT_WG_ICM42688/production/_ext/596309756/fg_stats_minimum.o
LOAD build/SAMD21_IOT_WG_ICM42688/production/_ext/596309756/fixlog.o
LOAD build/SAMD21_IOT_WG_ICM42688/production/_ext/596309756/imfcc.o
LOAD build/SAMD21_IOT_WG_ICM42688/production/_ext/596309756/kb.o
LOAD build/SAMD21_IOT_WG_ICM42688/production/_ext/596309756/kb_output.o
LOAD build/SAMD21_IOT_WG_ICM42688/production/_ext/596309756/kb_pipeline.o
LOAD build/SAMD21_IOT_WG_ICM42688/production/_ext/596309756/kb_post_processing.o
LOAD build/SAMD21_IOT_WG_ICM42688/production/_ext/596309756/max_min_high_low_freq.o
LOAD build/SAMD21_IOT_WG_ICM42688/production/_ext/596309756/ma_symmetric.o
LOAD build/SAMD21_IOT_WG_ICM42688/production/_ext/596309756/mean.o
LOAD build/SAMD21_IOT_WG_ICM42688/production/_ext/596309756/pme.o
LOAD build/SAMD21_IOT_WG_ICM42688/production/_ext/596309756/pme_trained_neurons.o
LOAD build/SAMD21_IOT_WG_ICM42688/production/_ext/596309756/ratio_diff_impl.o
LOAD build/SAMD21_IOT_WG_ICM42688/production/_ext/596309756/rb.o
LOAD build/SAMD21_IOT_WG_ICM42688/production/_ext/596309756/save_sensor_data.o
LOAD build/SAMD21_IOT_WG_ICM42688/production/_ext/596309756/sf_downsample_by_averaging.o
LOAD build/SAMD21_IOT_WG_ICM42688/production/_ext/596309756/sf_downsample_by_decimation.o
LOAD build/SAMD21_IOT_WG_ICM42688/production/_ext/596309756/sg_windowing.o
LOAD build/SAMD21_IOT_WG_ICM42688/production/_ext/596309756/sortarray.o
LOAD build/SAMD21_IOT_WG_ICM42688/production/_ext/596309756/sorted_copy.o
LOAD build/SAMD21_IOT_WG_ICM42688/production/_ext/596309756/stats_percentile_presorted.o
LOAD build/SAMD21_IOT_WG_ICM42688/production/_ext/596309756/stat_mean.o
LOAD build/SAMD21_IOT_WG_ICM42688/production/_ext/596309756/stat_moment.o
LOAD build/SAMD21_IOT_WG_ICM42688/production/_ext/596309756/std.o
LOAD build/SAMD21_IOT_WG_ICM42688/production/_ext/596309756/st_absolute_average.o
LOAD build/SAMD21_IOT_WG_ICM42688/production/_ext/596309756/st_average.o
LOAD build/SAMD21_IOT_WG_ICM42688/production/_ext/596309756/st_high_pass_filter.o
LOAD build/SAMD21_IOT_WG_ICM42688/production/_ext/596309756/st_moving_average.o
LOAD build/SAMD21_IOT_WG_ICM42688/production/_ext/596309756/sum.o
LOAD build/SAMD21_IOT_WG_ICM42688/production/_ext/596309756/tr_min_max_scale.o
LOAD build/SAMD21_IOT_WG_ICM42688/production/_ext/596309756/utils_array.o
LOAD build/SAMD21_IOT_WG_ICM42688/production/_ext/596309756/utils_array_max_uint8.o
LOAD build/SAMD21_IOT_WG_ICM42688/production/_ext/596309756/utils_bitwise_abs_val.o
LOAD build/SAMD21_IOT_WG_ICM42688/production/_ext/596309756/utils_buffer_absmean.o
LOAD build/SAMD21_IOT_WG_ICM42688/production/_ext/596309756/utils_buffer_abssum.o
LOAD build/SAMD21_IOT_WG_ICM42688/production/_ext/596309756/utils_buffer_abs_max.o
LOAD build/SAMD21_IOT_WG_ICM42688/production/_ext/596309756/utils_buffer_argmax.o
LOAD build/SAMD21_IOT_WG_ICM42688/production/_ext/596309756/utils_buffer_autoscale.o
LOAD build/SAMD21_IOT_WG_ICM42688/production/_ext/596309756/utils_buffer_cumsum.o
LOAD build/SAMD21_IOT_WG_ICM42688/production/_ext/596309756/utils_buffer_max.o
LOAD build/SAMD21_IOT_WG_ICM42688/production/_ext/596309756/utils_buffer_mean.o
LOAD build/SAMD21_IOT_WG_ICM42688/production/_ext/596309756/utils_buffer_median.o
LOAD build/SAMD21_IOT_WG_ICM42688/production/_ext/596309756/utils_buffer_min.o
LOAD build/SAMD21_IOT_WG_ICM42688/production/_ext/596309756/utils_buffer_min_max.o
LOAD build/SAMD21_IOT_WG_ICM42688/production/_ext/596309756/utils_buffer_pass_threshold.o
LOAD build/SAMD21_IOT_WG_ICM42688/production/_ext/596309756/utils_buffer_std.o
LOAD build/SAMD21_IOT_WG_ICM42688/production/_ext/596309756/utils_buffer_variance.o
LOAD build/SAMD21_IOT_WG_ICM42688/production/_ext/596309756/utils_model_crossing_rate.o
LOAD build/SAMD21_IOT_WG_ICM42688/production/_ext/596309756/utils_model_cross_column.o
LOAD build/SAMD21_IOT_WG_ICM42688/production/_ext/596309756/utils_model_cross_difference.o
LOAD build/SAMD21_IOT_WG_ICM42688/production/_ext/596309756/utils_model_mean_crossing_rate.o
LOAD build/SAMD21_IOT_WG_ICM42688/production/_ext/596309756/utils_model_pct_time_over_sigma.o
LOAD build/SAMD21_IOT_WG_ICM42688/production/_ext/596309756/utils_model_pct_time_over_threshold.o
LOAD build/SAMD21_IOT_WG_ICM42688/production/_ext/596309756/utils_model_stats_max_min.o
LOAD build/SAMD21_IOT_WG_ICM42688/production/_ext/596309756/utils_model_total_area.o
LOAD build/SAMD21_IOT_WG_ICM42688/production/_ext/596309756/utils_model_total_energy.o
LOAD build/SAMD21_IOT_WG_ICM42688/production/_ext/596309756/utils_tr_sensor.o
LOAD build/SAMD21_IOT_WG_ICM42688/production/_ext/299863938/ssi_comms.o
LOAD build/SAMD21_IOT_WG_ICM42688/production/_ext/1360937237/main.o
LOAD build/SAMD21_IOT_WG_ICM42688/production/_ext/1360937237/ringbuffer.o
LOAD build/SAMD21_IOT_WG_ICM42688/production/_ext/1360937237/app.o
LOAD build/SAMD21_IOT_WG_ICM42688/production/_ext/1360937237/ws2812.o
LOAD build/SAMD21_IOT_WG_ICM42688/production/_ext/1360937237/winc1500_udp_client.o
                0x0000000000000001                __MPLAB_BUILD = 0x1
                0x0000000000040000                __rom_end = (ORIGIN (rom) + LENGTH (rom))
                0x0000000020008000                __ram_end = (ORIGIN (ram) + LENGTH (ram))

.config_00804000
                0x0000000000804000        0x4
 *(.config_00804000)
 .config_00804000
                0x0000000000804000        0x4 build/SAMD21_IOT_WG_ICM42688/production/_ext/1832905403/initialization.o
                0x0000000000804000                __config_00804000

.config_00804004
                0x0000000000804004        0x4
 *(.config_00804004)
 .config_00804004
                0x0000000000804004        0x4 build/SAMD21_IOT_WG_ICM42688/production/_ext/1832905403/initialization.o
                0x0000000000804004                __config_00804004

.vectors        0x0000000000000000       0xb0
                0x0000000000000000                . = ALIGN (0x4)
                0x0000000000000000                _sfixed = .
 *(.vectors .vectors.* .vectors_default .vectors_default.*)
 .vectors       0x0000000000000000       0xb0 build/SAMD21_IOT_WG_ICM42688/production/_ext/1832905403/interrupts.o
                0x0000000000000000                exception_table
 *(.isr_vector)
 *(.reset*)
 *(.after_vectors)

.text           0x00000000000000b0       0x20
                0x00000000000000b0                . = ALIGN (0x4)
 *(.glue_7t)
 .glue_7t       0x00000000000000b0        0x0 linker stubs
 *(.glue_7)
 .glue_7        0x00000000000000b0        0x0 linker stubs
 *(.gnu.linkonce.r.*)
 *(.ARM.extab* .gnu.linkonce.armextab.*)
                0x00000000000000b0                . = ALIGN (0x4)
 *(.init)
 .init          0x00000000000000b0        0x4 c:/program files/microchip/xc32/v4.60/bin/bin/../../lib/gcc/pic32c/8.3.1/thumb/v6-m/nofp/crti.o
                0x00000000000000b0                _init
 .init          0x00000000000000b4        0x8 c:/program files/microchip/xc32/v4.60/bin/bin/../../lib/gcc/pic32c/8.3.1/thumb/v6-m/nofp/crtn.o
                0x00000000000000bc                . = ALIGN (0x4)
                0x00000000000000bc                __preinit_array_start = .
 *(.preinit_array)
                0x00000000000000bc                __preinit_array_end = .
                0x00000000000000bc                . = ALIGN (0x4)
                0x00000000000000bc                __init_array_start = .
 *(SORT_BY_NAME(.init_array.*))
 *(.init_array)
 .init_array    0x00000000000000bc        0x4 c:/program files/microchip/xc32/v4.60/bin/bin/../../lib/gcc/pic32c/8.3.1/thumb/v6-m/nofp/crtbegin.o
                0x00000000000000c0                __init_array_end = .
                0x00000000000000c0                . = ALIGN (0x4)
 *crtbegin.o(.ctors)
 *(EXCLUDE_FILE(*crtend.o) .ctors)
 *(SORT_BY_NAME(.ctors.*))
 *crtend.o(.ctors)
                0x00000000000000c0                . = ALIGN (0x4)
 *(.fini)
 .fini          0x00000000000000c0        0x4 c:/program files/microchip/xc32/v4.60/bin/bin/../../lib/gcc/pic32c/8.3.1/thumb/v6-m/nofp/crti.o
                0x00000000000000c0                _fini
 .fini          0x00000000000000c4        0x8 c:/program files/microchip/xc32/v4.60/bin/bin/../../lib/gcc/pic32c/8.3.1/thumb/v6-m/nofp/crtn.o
                0x00000000000000cc                . = ALIGN (0x4)
                0x00000000000000cc                __fini_array_start = .
 *(.fini_array)
 .fini_array    0x00000000000000cc        0x4 c:/program files/microchip/xc32/v4.60/bin/bin/../../lib/gcc/pic32c/8.3.1/thumb/v6-m/nofp/crtbegin.o
 *(SORT_BY_NAME(.fini_array.*))
                0x00000000000000d0                __fini_array_end = .
 *crtbegin.o(.dtors)
 *(EXCLUDE_FILE(*crtend.o) .dtors)
 *(SORT_BY_NAME(.dtors.*))
 *crtend.o(.dtors)
                0x00000000000000d0                . = ALIGN (0x4)
                0x00000000000000d0                _efixed = .
                [!provide]                        PROVIDE (__exidx_start = .)

.ARM.exidx      0x00000000000000d0       0x10
 *(.ARM.exidx* .gnu.linkonce.armexidx.*)
 .ARM.exidx     0x00000000000000d8        0x8 c:/program files/microchip/xc32/v4.60/bin/bin/../../lib/gcc/pic32c/8.3.1/thumb/v6-m/nofp\libgcc.a(_udivmoddi4.o)
 .ARM.exidx     0x00000000000000d0        0x8 c:/program files/microchip/xc32/v4.60/bin/bin/../../lib/gcc/pic32c/8.3.1/thumb/v6-m/nofp\libgcc.a(_divdi3.o)
                [!provide]                        PROVIDE (__exidx_end = .)
                0x00000000000000e0                . = ALIGN (0x4)
                0x00000000000000e0                _etext = .

.bss            0x0000000020000000        0x0
                0x0000000020000000                . = ALIGN (0x4)
                0x0000000020000000                __bss_start__ = .
                0x0000000020000000                _sbss = .
                0x0000000020000000                _szero = .
 *(COMMON)
                0x0000000020000000                . = ALIGN (0x4)
                0x0000000020000000                __bss_end__ = .
                0x0000000020000000                _ebss = .
                0x0000000020000000                _ezero = .
                0x0000000020000000                . = ALIGN (0x4)
                0x0000000020000000                _end = .
                0x0000000020007fff                _ram_end_ = ((ORIGIN (ram) + LENGTH (ram)) - 0x1)
                0x0000000000000200                _min_heap_size = 0x200
START GROUP
LOAD c:/program files/microchip/xc32/v4.60/bin/bin/../../lib/gcc/pic32c/8.3.1/../../../../pic32c/lib/thumb/v6-m/nofp\libpic32c.a
LOAD c:/program files/microchip/xc32/v4.60/bin/bin/../../lib/gcc/pic32c/8.3.1/../../../../pic32c/lib/thumb/v6-m/nofp\libc-size-musl.a
LOAD c:/program files/microchip/xc32/v4.60/bin/bin/../../lib/gcc/pic32c/8.3.1/../../../../pic32c/lib/thumb/v6-m/nofp\liblmalloc-musl.a
LOAD c:/program files/microchip/xc32/v4.60/bin/bin/../../lib/gcc/pic32c/8.3.1/../../../../pic32c/lib/thumb/v6-m/nofp\libm-fast-emfloat.a
LOAD c:/program files/microchip/xc32/v4.60/bin/bin/../../lib/gcc/pic32c/8.3.1/../../../../pic32c/lib/thumb/v6-m/nofp\libm-musl.a
LOAD c:/program files/microchip/xc32/v4.60/bin/bin/../../lib/gcc/pic32c/8.3.1/../../../../pic32c/lib/thumb/v6-m/nofp\libc-musl.a
LOAD c:/program files/microchip/xc32/v4.60/bin/bin/../../lib/gcc/pic32c/8.3.1/../../../../pic32c/lib/thumb/v6-m/nofp\libm-fast-emfloat.a
LOAD c:/program files/microchip/xc32/v4.60/bin/bin/../../lib/gcc/pic32c/8.3.1/../../../../pic32c/lib/thumb/v6-m/nofp\libm-musl.a
LOAD c:/program files/microchip/xc32/v4.60/bin/bin/../../lib/gcc/pic32c/8.3.1/thumb/v6-m/nofp\libgcc.a
END GROUP
LOAD c:/program files/microchip/xc32/v4.60/bin/bin/../../lib/gcc/pic32c/8.3.1/thumb/v6-m/nofp/crtend.o
LOAD c:/program files/microchip/xc32/v4.60/bin/bin/../../lib/gcc/pic32c/8.3.1/thumb/v6-m/nofp/crtn.o
OUTPUT(dist/SAMD21_IOT_WG_ICM42688/production/samd21_iot_wand.X.production.elf elf32-littlearm)
LOAD data_init
LOAD stack

.ARM.attributes
                0x0000000000000000       0x2a
 .ARM.attributes
                0x0000000000000000       0x1e c:/program files/microchip/xc32/v4.60/bin/bin/../../lib/gcc/pic32c/8.3.1/thumb/v6-m/nofp/crti.o
 .ARM.attributes
                0x000000000000001e       0x2c c:/program files/microchip/xc32/v4.60/bin/bin/../../lib/gcc/pic32c/8.3.1/thumb/v6-m/nofp/crtbegin.o
 .ARM.attributes
                0x000000000000004a       0x2c build/SAMD21_IOT_WG_ICM42688/production/_ext/2048461350/icm42688_sensor.o
 .ARM.attributes
                0x0000000000000076       0x2c build/SAMD21_IOT_WG_ICM42688/production/_ext/171618134/sml_recognition_run.o
 .ARM.attributes
                0x00000000000000a2       0x2c build/SAMD21_IOT_WG_ICM42688/production/_ext/1660664302/drv_spi.o
 .ARM.attributes
                0x00000000000000ce       0x2c build/SAMD21_IOT_WG_ICM42688/production/_ext/1164161090/wdrv_winc_gpio.o
 .ARM.attributes
                0x00000000000000fa       0x2c build/SAMD21_IOT_WG_ICM42688/production/_ext/1164161090/wdrv_winc_eint.o
 .ARM.attributes
                0x0000000000000126       0x2c build/SAMD21_IOT_WG_ICM42688/production/_ext/101005277/wdrv_winc_spi.o
 .ARM.attributes
                0x0000000000000152       0x2c build/SAMD21_IOT_WG_ICM42688/production/_ext/90265895/nm_common.o
 .ARM.attributes
                0x000000000000017e       0x2c build/SAMD21_IOT_WG_ICM42688/production/_ext/121554788/m2m_ssl.o
 .ARM.attributes
                0x00000000000001aa       0x2c build/SAMD21_IOT_WG_ICM42688/production/_ext/121554788/m2m_hif.o
 .ARM.attributes
                0x00000000000001d6       0x2c build/SAMD21_IOT_WG_ICM42688/production/_ext/121554788/m2m_wifi.o
 .ARM.attributes
                0x0000000000000202       0x2c build/SAMD21_IOT_WG_ICM42688/production/_ext/121554788/nmspi.o
 .ARM.attributes
                0x000000000000022e       0x2c build/SAMD21_IOT_WG_ICM42688/production/_ext/121554788/nmdrv.o
 .ARM.attributes
                0x000000000000025a       0x2c build/SAMD21_IOT_WG_ICM42688/production/_ext/121554788/m2m_ota.o
 .ARM.attributes
                0x0000000000000286       0x2c build/SAMD21_IOT_WG_ICM42688/production/_ext/121554788/nmasic.o
 .ARM.attributes
                0x00000000000002b2       0x2c build/SAMD21_IOT_WG_ICM42688/production/_ext/121554788/nmbus.o
 .ARM.attributes
                0x00000000000002de       0x2c build/SAMD21_IOT_WG_ICM42688/production/_ext/548032175/socket.o
 .ARM.attributes
                0x000000000000030a       0x2c build/SAMD21_IOT_WG_ICM42688/production/_ext/548032175/inet_addr.o
 .ARM.attributes
                0x0000000000000336       0x2c build/SAMD21_IOT_WG_ICM42688/production/_ext/548032175/inet_ntop.o
 .ARM.attributes
                0x0000000000000362       0x2c build/SAMD21_IOT_WG_ICM42688/production/_ext/609036575/flexible_flash.o
 .ARM.attributes
                0x000000000000038e       0x2c build/SAMD21_IOT_WG_ICM42688/production/_ext/609036575/spi_flash.o
 .ARM.attributes
                0x00000000000003ba       0x2c build/SAMD21_IOT_WG_ICM42688/production/_ext/1784303044/wdrv_winc_osal.o
 .ARM.attributes
                0x00000000000003e6       0x2c build/SAMD21_IOT_WG_ICM42688/production/_ext/907429946/wdrv_winc_sta.o
 .ARM.attributes
                0x0000000000000412       0x2c build/SAMD21_IOT_WG_ICM42688/production/_ext/907429946/wdrv_winc_socket.o
 .ARM.attributes
                0x000000000000043e       0x2c build/SAMD21_IOT_WG_ICM42688/production/_ext/907429946/wdrv_winc_systime.o
 .ARM.attributes
                0x000000000000046a       0x2c build/SAMD21_IOT_WG_ICM42688/production/_ext/907429946/wdrv_winc_authctx.o
 .ARM.attributes
                0x0000000000000496       0x2c build/SAMD21_IOT_WG_ICM42688/production/_ext/907429946/wdrv_winc_host_file.o
 .ARM.attributes
                0x00000000000004c2       0x2c build/SAMD21_IOT_WG_ICM42688/production/_ext/907429946/wdrv_winc.o
 .ARM.attributes
                0x00000000000004ee       0x2c build/SAMD21_IOT_WG_ICM42688/production/_ext/907429946/wdrv_winc_bssctx.o
 .ARM.attributes
                0x000000000000051a       0x2c build/SAMD21_IOT_WG_ICM42688/production/_ext/1750425231/plib_clock.o
 .ARM.attributes
                0x0000000000000546       0x2c build/SAMD21_IOT_WG_ICM42688/production/_ext/1580516298/plib_dmac.o
 .ARM.attributes
                0x0000000000000572       0x2c build/SAMD21_IOT_WG_ICM42688/production/_ext/503204096/plib_eic.o
 .ARM.attributes
                0x000000000000059e       0x2c build/SAMD21_IOT_WG_ICM42688/production/_ext/1580823105/plib_nvic.o
 .ARM.attributes
                0x00000000000005ca       0x2c build/SAMD21_IOT_WG_ICM42688/production/_ext/11470383/plib_nvmctrl.o
 .ARM.attributes
                0x00000000000005f6       0x2c build/SAMD21_IOT_WG_ICM42688/production/_ext/1580876256/plib_port.o
 .ARM.attributes
                0x0000000000000622       0x2c build/SAMD21_IOT_WG_ICM42688/production/_ext/1014017276/plib_sercom0_spi_master.o
 .ARM.attributes
                0x000000000000064e       0x2c build/SAMD21_IOT_WG_ICM42688/production/_ext/1014017276/plib_sercom2_spi_master.o
 .ARM.attributes
                0x000000000000067a       0x2c build/SAMD21_IOT_WG_ICM42688/production/_ext/177673482/plib_sercom5_usart.o
 .ARM.attributes
                0x00000000000006a6       0x2c build/SAMD21_IOT_WG_ICM42688/production/_ext/223004715/plib_systick.o
 .ARM.attributes
                0x00000000000006d2       0x2c build/SAMD21_IOT_WG_ICM42688/production/_ext/399410062/plib_tc3.o
 .ARM.attributes
                0x00000000000006fe       0x2c build/SAMD21_IOT_WG_ICM42688/production/_ext/399410062/plib_tc4.o
 .ARM.attributes
                0x000000000000072a       0x2c build/SAMD21_IOT_WG_ICM42688/production/_ext/1357625803/xc32_monitor.o
 .ARM.attributes
                0x0000000000000756       0x2c build/SAMD21_IOT_WG_ICM42688/production/_ext/1584719636/sys_dma.o
 .ARM.attributes
                0x0000000000000782       0x2c build/SAMD21_IOT_WG_ICM42688/production/_ext/1318297016/sys_int.o
 .ARM.attributes
                0x00000000000007ae       0x2c build/SAMD21_IOT_WG_ICM42688/production/_ext/386530258/sys_time.o
 .ARM.attributes
                0x00000000000007da       0x2c build/SAMD21_IOT_WG_ICM42688/production/_ext/1832905403/initialization.o
 .ARM.attributes
                0x0000000000000806       0x2c build/SAMD21_IOT_WG_ICM42688/production/_ext/1832905403/interrupts.o
 .ARM.attributes
                0x0000000000000832       0x2c build/SAMD21_IOT_WG_ICM42688/production/_ext/1832905403/exceptions.o
 .ARM.attributes
                0x000000000000085e       0x2c build/SAMD21_IOT_WG_ICM42688/production/_ext/1832905403/startup_xc32.o
 .ARM.attributes
                0x000000000000088a       0x2c build/SAMD21_IOT_WG_ICM42688/production/_ext/1832905403/tasks.o
 .ARM.attributes
                0x00000000000008b6       0x2c build/SAMD21_IOT_WG_ICM42688/production/_ext/1341251756/Icm426xxDriver_HL.o
 .ARM.attributes
                0x00000000000008e2       0x2c build/SAMD21_IOT_WG_ICM42688/production/_ext/1341251756/Icm426xxTransport.o
 .ARM.attributes
                0x000000000000090e       0x2c build/SAMD21_IOT_WG_ICM42688/production/_ext/596309756/dsp_dtw_distance.o
 .ARM.attributes
                0x000000000000093a       0x2c build/SAMD21_IOT_WG_ICM42688/production/_ext/596309756/dsp_l1_distance.o
 .ARM.attributes
                0x0000000000000966       0x2c build/SAMD21_IOT_WG_ICM42688/production/_ext/596309756/dsp_lsup_distance.o
 .ARM.attributes
                0x0000000000000992       0x2c build/SAMD21_IOT_WG_ICM42688/production/_ext/596309756/fg_amplitude_global_p2p_low_frequency.o
 .ARM.attributes
                0x00000000000009be       0x2c build/SAMD21_IOT_WG_ICM42688/production/_ext/596309756/fg_amplitude_peak_to_peak.o
 .ARM.attributes
                0x00000000000009ea       0x2c build/SAMD21_IOT_WG_ICM42688/production/_ext/596309756/fg_area_absolute_area_low_frequency.o
 .ARM.attributes
                0x0000000000000a16       0x2c build/SAMD21_IOT_WG_ICM42688/production/_ext/596309756/fg_cross_p2p_difference.o
 .ARM.attributes
                0x0000000000000a42       0x2c build/SAMD21_IOT_WG_ICM42688/production/_ext/596309756/fg_sampling_downsample.o
 .ARM.attributes
                0x0000000000000a6e       0x2c build/SAMD21_IOT_WG_ICM42688/production/_ext/596309756/fg_stats_abs_mean.o
 .ARM.attributes
                0x0000000000000a9a       0x2c build/SAMD21_IOT_WG_ICM42688/production/_ext/596309756/fg_stats_minimum.o
 .ARM.attributes
                0x0000000000000ac6       0x2c build/SAMD21_IOT_WG_ICM42688/production/_ext/596309756/kb.o
 .ARM.attributes
                0x0000000000000af2       0x2c build/SAMD21_IOT_WG_ICM42688/production/_ext/596309756/kb_output.o
 .ARM.attributes
                0x0000000000000b1e       0x2c build/SAMD21_IOT_WG_ICM42688/production/_ext/596309756/kb_pipeline.o
 .ARM.attributes
                0x0000000000000b4a       0x2c build/SAMD21_IOT_WG_ICM42688/production/_ext/596309756/ma_symmetric.o
 .ARM.attributes
                0x0000000000000b76       0x2c build/SAMD21_IOT_WG_ICM42688/production/_ext/596309756/mean.o
 .ARM.attributes
                0x0000000000000ba2       0x2c build/SAMD21_IOT_WG_ICM42688/production/_ext/596309756/pme.o
 .ARM.attributes
                0x0000000000000bce       0x32 build/SAMD21_IOT_WG_ICM42688/production/_ext/596309756/pme_trained_neurons.o
 .ARM.attributes
                0x0000000000000c00       0x2c build/SAMD21_IOT_WG_ICM42688/production/_ext/596309756/rb.o
 .ARM.attributes
                0x0000000000000c2c       0x2c build/SAMD21_IOT_WG_ICM42688/production/_ext/596309756/save_sensor_data.o
 .ARM.attributes
                0x0000000000000c58       0x2c build/SAMD21_IOT_WG_ICM42688/production/_ext/596309756/sf_downsample_by_averaging.o
 .ARM.attributes
                0x0000000000000c84       0x2c build/SAMD21_IOT_WG_ICM42688/production/_ext/596309756/sg_windowing.o
 .ARM.attributes
                0x0000000000000cb0       0x2c build/SAMD21_IOT_WG_ICM42688/production/_ext/596309756/sortarray.o
 .ARM.attributes
                0x0000000000000cdc       0x2c build/SAMD21_IOT_WG_ICM42688/production/_ext/596309756/sorted_copy.o
 .ARM.attributes
                0x0000000000000d08       0x2c build/SAMD21_IOT_WG_ICM42688/production/_ext/596309756/tr_min_max_scale.o
 .ARM.attributes
                0x0000000000000d34       0x2c build/SAMD21_IOT_WG_ICM42688/production/_ext/596309756/utils_array_max_uint8.o
 .ARM.attributes
                0x0000000000000d60       0x2c build/SAMD21_IOT_WG_ICM42688/production/_ext/596309756/utils_bitwise_abs_val.o
 .ARM.attributes
                0x0000000000000d8c       0x2c build/SAMD21_IOT_WG_ICM42688/production/_ext/596309756/utils_buffer_abssum.o
 .ARM.attributes
                0x0000000000000db8       0x2c build/SAMD21_IOT_WG_ICM42688/production/_ext/596309756/utils_buffer_cumsum.o
 .ARM.attributes
                0x0000000000000de4       0x2c build/SAMD21_IOT_WG_ICM42688/production/_ext/596309756/utils_buffer_min_max.o
 .ARM.attributes
                0x0000000000000e10       0x2c build/SAMD21_IOT_WG_ICM42688/production/_ext/596309756/utils_model_cross_difference.o
 .ARM.attributes
                0x0000000000000e3c       0x2c build/SAMD21_IOT_WG_ICM42688/production/_ext/596309756/utils_model_stats_max_min.o
 .ARM.attributes
                0x0000000000000e68       0x2c build/SAMD21_IOT_WG_ICM42688/production/_ext/596309756/utils_tr_sensor.o
 .ARM.attributes
                0x0000000000000e94       0x2c build/SAMD21_IOT_WG_ICM42688/production/_ext/1360937237/main.o
 .ARM.attributes
                0x0000000000000ec0       0x2c build/SAMD21_IOT_WG_ICM42688/production/_ext/1360937237/ringbuffer.o
 .ARM.attributes
                0x0000000000000eec       0x2c build/SAMD21_IOT_WG_ICM42688/production/_ext/1360937237/app.o
 .ARM.attributes
                0x0000000000000f18       0x2c build/SAMD21_IOT_WG_ICM42688/production/_ext/1360937237/ws2812.o
 .ARM.attributes
                0x0000000000000f44       0x2c build/SAMD21_IOT_WG_ICM42688/production/_ext/1360937237/winc1500_udp_client.o
 .ARM.attributes
                0x0000000000000f70       0x2c c:/program files/microchip/xc32/v4.60/bin/bin/../../lib/gcc/pic32c/8.3.1/../../../../pic32c/lib/thumb/v6-m/nofp\libpic32c.a(data_init.o)
 .ARM.attributes
                0x0000000000000f9c       0x2e c:/program files/microchip/xc32/v4.60/bin/bin/../../lib/gcc/pic32c/8.3.1/../../../../pic32c/lib/thumb/v6-m/nofp\libc-size-musl.a(memcpy.o)
 .ARM.attributes
                0x0000000000000fca       0x2e c:/program files/microchip/xc32/v4.60/bin/bin/../../lib/gcc/pic32c/8.3.1/../../../../pic32c/lib/thumb/v6-m/nofp\libc-size-musl.a(memset.o)
 .ARM.attributes
                0x0000000000000ff8       0x2e c:/program files/microchip/xc32/v4.60/bin/bin/../../lib/gcc/pic32c/8.3.1/../../../../pic32c/lib/thumb/v6-m/nofp\libc-size-musl.a(strlen.o)
 .ARM.attributes
                0x0000000000001026       0x2e c:/program files/microchip/xc32/v4.60/bin/bin/../../lib/gcc/pic32c/8.3.1/../../../../pic32c/lib/thumb/v6-m/nofp\libc-size-musl.a(strchr.o)
 .ARM.attributes
                0x0000000000001054       0x2e c:/program files/microchip/xc32/v4.60/bin/bin/../../lib/gcc/pic32c/8.3.1/../../../../pic32c/lib/thumb/v6-m/nofp\libc-size-musl.a(strchrnul.o)
 .ARM.attributes
                0x0000000000001082       0x2e c:/program files/microchip/xc32/v4.60/bin/bin/../../lib/gcc/pic32c/8.3.1/../../../../pic32c/lib/thumb/v6-m/nofp\libc-size-musl.a(strnlen.o)
 .ARM.attributes
                0x00000000000010b0       0x2e c:/program files/microchip/xc32/v4.60/bin/bin/../../lib/gcc/pic32c/8.3.1/../../../../pic32c/lib/thumb/v6-m/nofp\libc-size-musl.a(memchr.o)
 .ARM.attributes
                0x00000000000010de       0x2e c:/program files/microchip/xc32/v4.60/bin/bin/../../lib/gcc/pic32c/8.3.1/../../../../pic32c/lib/thumb/v6-m/nofp\liblmalloc-musl.a(lite_calloc.o)
 .ARM.attributes
                0x000000000000110c       0x2e c:/program files/microchip/xc32/v4.60/bin/bin/../../lib/gcc/pic32c/8.3.1/../../../../pic32c/lib/thumb/v6-m/nofp\liblmalloc-musl.a(lite_free.o)
 .ARM.attributes
                0x000000000000113a       0x2e c:/program files/microchip/xc32/v4.60/bin/bin/../../lib/gcc/pic32c/8.3.1/../../../../pic32c/lib/thumb/v6-m/nofp\liblmalloc-musl.a(lite_malloc.o)
 .ARM.attributes
                0x0000000000001168       0x1c c:/program files/microchip/xc32/v4.60/bin/bin/../../lib/gcc/pic32c/8.3.1/../../../../pic32c/lib/thumb/v6-m/nofp\libm-fast-emfloat.a(__aeabi_fadd.o)
 .ARM.attributes
                0x0000000000001184       0x1c c:/program files/microchip/xc32/v4.60/bin/bin/../../lib/gcc/pic32c/8.3.1/../../../../pic32c/lib/thumb/v6-m/nofp\libm-fast-emfloat.a(__aeabi_dadd.o)
 .ARM.attributes
                0x00000000000011a0       0x1c c:/program files/microchip/xc32/v4.60/bin/bin/../../lib/gcc/pic32c/8.3.1/../../../../pic32c/lib/thumb/v6-m/nofp\libm-fast-emfloat.a(__aeabi_fsub.o)
 .ARM.attributes
                0x00000000000011bc       0x1c c:/program files/microchip/xc32/v4.60/bin/bin/../../lib/gcc/pic32c/8.3.1/../../../../pic32c/lib/thumb/v6-m/nofp\libm-fast-emfloat.a(__aeabi_fmul.o)
 .ARM.attributes
                0x00000000000011d8       0x1c c:/program files/microchip/xc32/v4.60/bin/bin/../../lib/gcc/pic32c/8.3.1/../../../../pic32c/lib/thumb/v6-m/nofp\libm-fast-emfloat.a(__aeabi_dmul_aux.o)
 .ARM.attributes
                0x00000000000011f4       0x1c c:/program files/microchip/xc32/v4.60/bin/bin/../../lib/gcc/pic32c/8.3.1/../../../../pic32c/lib/thumb/v6-m/nofp\libm-fast-emfloat.a(__aeabi_fdiv.o)
 .ARM.attributes
                0x0000000000001210       0x1c c:/program files/microchip/xc32/v4.60/bin/bin/../../lib/gcc/pic32c/8.3.1/../../../../pic32c/lib/thumb/v6-m/nofp\libm-fast-emfloat.a(__aeabi_ddiv.o)
 .ARM.attributes
                0x000000000000122c       0x1c c:/program files/microchip/xc32/v4.60/bin/bin/../../lib/gcc/pic32c/8.3.1/../../../../pic32c/lib/thumb/v6-m/nofp\libm-fast-emfloat.a(__aeabi_fcmpeq.o)
 .ARM.attributes
                0x0000000000001248       0x1c c:/program files/microchip/xc32/v4.60/bin/bin/../../lib/gcc/pic32c/8.3.1/../../../../pic32c/lib/thumb/v6-m/nofp\libm-fast-emfloat.a(__aeabi_dcmpeq.o)
 .ARM.attributes
                0x0000000000001264       0x1c c:/program files/microchip/xc32/v4.60/bin/bin/../../lib/gcc/pic32c/8.3.1/../../../../pic32c/lib/thumb/v6-m/nofp\libm-fast-emfloat.a(__aeabi_fcmpge.o)
 .ARM.attributes
                0x0000000000001280       0x1c c:/program files/microchip/xc32/v4.60/bin/bin/../../lib/gcc/pic32c/8.3.1/../../../../pic32c/lib/thumb/v6-m/nofp\libm-fast-emfloat.a(__aeabi_fcmpgt.o)
 .ARM.attributes
                0x000000000000129c       0x1c c:/program files/microchip/xc32/v4.60/bin/bin/../../lib/gcc/pic32c/8.3.1/../../../../pic32c/lib/thumb/v6-m/nofp\libm-fast-emfloat.a(__aeabi_dcmpgt.o)
 .ARM.attributes
                0x00000000000012b8       0x1c c:/program files/microchip/xc32/v4.60/bin/bin/../../lib/gcc/pic32c/8.3.1/../../../../pic32c/lib/thumb/v6-m/nofp\libm-fast-emfloat.a(__aeabi_fcmplt.o)
 .ARM.attributes
                0x00000000000012d4       0x1c c:/program files/microchip/xc32/v4.60/bin/bin/../../lib/gcc/pic32c/8.3.1/../../../../pic32c/lib/thumb/v6-m/nofp\libm-fast-emfloat.a(__aeabi_dcmplt.o)
 .ARM.attributes
                0x00000000000012f0       0x1c c:/program files/microchip/xc32/v4.60/bin/bin/../../lib/gcc/pic32c/8.3.1/../../../../pic32c/lib/thumb/v6-m/nofp\libm-fast-emfloat.a(__aeabi_f2iz.o)
 .ARM.attributes
                0x000000000000130c       0x1c c:/program files/microchip/xc32/v4.60/bin/bin/../../lib/gcc/pic32c/8.3.1/../../../../pic32c/lib/thumb/v6-m/nofp\libm-fast-emfloat.a(__aeabi_d2iz.o)
 .ARM.attributes
                0x0000000000001328       0x1c c:/program files/microchip/xc32/v4.60/bin/bin/../../lib/gcc/pic32c/8.3.1/../../../../pic32c/lib/thumb/v6-m/nofp\libm-fast-emfloat.a(__aeabi_f2uiz.o)
 .ARM.attributes
                0x0000000000001344       0x1c c:/program files/microchip/xc32/v4.60/bin/bin/../../lib/gcc/pic32c/8.3.1/../../../../pic32c/lib/thumb/v6-m/nofp\libm-fast-emfloat.a(__aeabi_d2uiz.o)
 .ARM.attributes
                0x0000000000001360       0x1c c:/program files/microchip/xc32/v4.60/bin/bin/../../lib/gcc/pic32c/8.3.1/../../../../pic32c/lib/thumb/v6-m/nofp\libm-fast-emfloat.a(__aeabi_i2f.o)
 .ARM.attributes
                0x000000000000137c       0x1c c:/program files/microchip/xc32/v4.60/bin/bin/../../lib/gcc/pic32c/8.3.1/../../../../pic32c/lib/thumb/v6-m/nofp\libm-fast-emfloat.a(__aeabi_i2d.o)
 .ARM.attributes
                0x0000000000001398       0x1c c:/program files/microchip/xc32/v4.60/bin/bin/../../lib/gcc/pic32c/8.3.1/../../../../pic32c/lib/thumb/v6-m/nofp\libm-fast-emfloat.a(__aeabi_l2f.o)
 .ARM.attributes
                0x00000000000013b4       0x1c c:/program files/microchip/xc32/v4.60/bin/bin/../../lib/gcc/pic32c/8.3.1/../../../../pic32c/lib/thumb/v6-m/nofp\libm-fast-emfloat.a(__aeabi_ui2f.o)
 .ARM.attributes
                0x00000000000013d0       0x1c c:/program files/microchip/xc32/v4.60/bin/bin/../../lib/gcc/pic32c/8.3.1/../../../../pic32c/lib/thumb/v6-m/nofp\libm-fast-emfloat.a(__aeabi_ui2d.o)
 .ARM.attributes
                0x00000000000013ec       0x1c c:/program files/microchip/xc32/v4.60/bin/bin/../../lib/gcc/pic32c/8.3.1/../../../../pic32c/lib/thumb/v6-m/nofp\libm-fast-emfloat.a(__aeabi_ul2f.o)
 .ARM.attributes
                0x0000000000001408       0x1c c:/program files/microchip/xc32/v4.60/bin/bin/../../lib/gcc/pic32c/8.3.1/../../../../pic32c/lib/thumb/v6-m/nofp\libm-fast-emfloat.a(__aeabi_f2d.o)
 .ARM.attributes
                0x0000000000001424       0x1c c:/program files/microchip/xc32/v4.60/bin/bin/../../lib/gcc/pic32c/8.3.1/../../../../pic32c/lib/thumb/v6-m/nofp\libm-fast-emfloat.a(__aeabi_d2f.o)
 .ARM.attributes
                0x0000000000001440       0x2e c:/program files/microchip/xc32/v4.60/bin/bin/../../lib/gcc/pic32c/8.3.1/../../../../pic32c/lib/thumb/v6-m/nofp\libc-musl.a(__libc_start_main.o)
 .ARM.attributes
                0x000000000000146e       0x2e c:/program files/microchip/xc32/v4.60/bin/bin/../../lib/gcc/pic32c/8.3.1/../../../../pic32c/lib/thumb/v6-m/nofp\libc-musl.a(__errno_location.o)
 .ARM.attributes
                0x000000000000149c       0x2e c:/program files/microchip/xc32/v4.60/bin/bin/../../lib/gcc/pic32c/8.3.1/../../../../pic32c/lib/thumb/v6-m/nofp\libc-musl.a(libc.o)
 .ARM.attributes
                0x00000000000014ca       0x2e c:/program files/microchip/xc32/v4.60/bin/bin/../../lib/gcc/pic32c/8.3.1/../../../../pic32c/lib/thumb/v6-m/nofp\libc-musl.a(expand_heap.o)
 .ARM.attributes
                0x00000000000014f8       0x2e c:/program files/microchip/xc32/v4.60/bin/bin/../../lib/gcc/pic32c/8.3.1/../../../../pic32c/lib/thumb/v6-m/nofp\libc-musl.a(__sio_printf_cdeEfFgGnpsuxX.o)
 .ARM.attributes
                0x0000000000001526       0x2e c:/program files/microchip/xc32/v4.60/bin/bin/../../lib/gcc/pic32c/8.3.1/../../../../pic32c/lib/thumb/v6-m/nofp\libc-musl.a(__sio_sprintf_cdeEfFgGnpsuxX.o)
 .ARM.attributes
                0x0000000000001554       0x2e c:/program files/microchip/xc32/v4.60/bin/bin/../../lib/gcc/pic32c/8.3.1/../../../../pic32c/lib/thumb/v6-m/nofp\libc-musl.a(__fmt_d.o)
 .ARM.attributes
                0x0000000000001582       0x2e c:/program files/microchip/xc32/v4.60/bin/bin/../../lib/gcc/pic32c/8.3.1/../../../../pic32c/lib/thumb/v6-m/nofp\libc-musl.a(__fmt_fp.o)
 .ARM.attributes
                0x00000000000015b0       0x2e c:/program files/microchip/xc32/v4.60/bin/bin/../../lib/gcc/pic32c/8.3.1/../../../../pic32c/lib/thumb/v6-m/nofp\libc-musl.a(__fmt_s.o)
 .ARM.attributes
                0x00000000000015de       0x2e c:/program files/microchip/xc32/v4.60/bin/bin/../../lib/gcc/pic32c/8.3.1/../../../../pic32c/lib/thumb/v6-m/nofp\libc-musl.a(__fmt_u.o)
 .ARM.attributes
                0x000000000000160c       0x2e c:/program files/microchip/xc32/v4.60/bin/bin/../../lib/gcc/pic32c/8.3.1/../../../../pic32c/lib/thumb/v6-m/nofp\libc-musl.a(__fmt_x.o)
 .ARM.attributes
                0x000000000000163a       0x2e c:/program files/microchip/xc32/v4.60/bin/bin/../../lib/gcc/pic32c/8.3.1/../../../../pic32c/lib/thumb/v6-m/nofp\libc-musl.a(__pop_float.o)
 .ARM.attributes
                0x0000000000001668       0x2e c:/program files/microchip/xc32/v4.60/bin/bin/../../lib/gcc/pic32c/8.3.1/../../../../pic32c/lib/thumb/v6-m/nofp\libc-musl.a(__pop_int.o)
 .ARM.attributes
                0x0000000000001696       0x2e c:/program files/microchip/xc32/v4.60/bin/bin/../../lib/gcc/pic32c/8.3.1/../../../../pic32c/lib/thumb/v6-m/nofp\libc-musl.a(__pop_ptr.o)
 .ARM.attributes
                0x00000000000016c4       0x2e c:/program files/microchip/xc32/v4.60/bin/bin/../../lib/gcc/pic32c/8.3.1/../../../../pic32c/lib/thumb/v6-m/nofp\libc-musl.a(__printf_core.o)
 .ARM.attributes
                0x00000000000016f2       0x2e c:/program files/microchip/xc32/v4.60/bin/bin/../../lib/gcc/pic32c/8.3.1/../../../../pic32c/lib/thumb/v6-m/nofp\libc-musl.a(stdin.o)
 .ARM.attributes
                0x0000000000001720       0x2e c:/program files/microchip/xc32/v4.60/bin/bin/../../lib/gcc/pic32c/8.3.1/../../../../pic32c/lib/thumb/v6-m/nofp\libc-musl.a(stdout.o)
 .ARM.attributes
                0x000000000000174e       0x2e c:/program files/microchip/xc32/v4.60/bin/bin/../../lib/gcc/pic32c/8.3.1/../../../../pic32c/lib/thumb/v6-m/nofp\libc-musl.a(putchar.o)
 .ARM.attributes
                0x000000000000177c       0x2e c:/program files/microchip/xc32/v4.60/bin/bin/../../lib/gcc/pic32c/8.3.1/../../../../pic32c/lib/thumb/v6-m/nofp\libc-musl.a(puts.o)
 .ARM.attributes
                0x00000000000017aa       0x2e c:/program files/microchip/xc32/v4.60/bin/bin/../../lib/gcc/pic32c/8.3.1/../../../../pic32c/lib/thumb/v6-m/nofp\libc-musl.a(setbuf.o)
 .ARM.attributes
                0x00000000000017d8       0x2e c:/program files/microchip/xc32/v4.60/bin/bin/../../lib/gcc/pic32c/8.3.1/../../../../pic32c/lib/thumb/v6-m/nofp\libc-musl.a(atoi.o)
 .ARM.attributes
                0x0000000000001806       0x2e c:/program files/microchip/xc32/v4.60/bin/bin/../../lib/gcc/pic32c/8.3.1/../../../../pic32c/lib/thumb/v6-m/nofp\libc-musl.a(gmtime.o)
 .ARM.attributes
                0x0000000000001834       0x2e c:/program files/microchip/xc32/v4.60/bin/bin/../../lib/gcc/pic32c/8.3.1/../../../../pic32c/lib/thumb/v6-m/nofp\libc-musl.a(gmtime_r.o)
 .ARM.attributes
                0x0000000000001862       0x2e c:/program files/microchip/xc32/v4.60/bin/bin/../../lib/gcc/pic32c/8.3.1/../../../../pic32c/lib/thumb/v6-m/nofp\libc-musl.a(mktime.o)
 .ARM.attributes
                0x0000000000001890       0x2e c:/program files/microchip/xc32/v4.60/bin/bin/../../lib/gcc/pic32c/8.3.1/../../../../pic32c/lib/thumb/v6-m/nofp\libc-musl.a(tolower.o)
 .ARM.attributes
                0x00000000000018be       0x2e c:/program files/microchip/xc32/v4.60/bin/bin/../../lib/gcc/pic32c/8.3.1/../../../../pic32c/lib/thumb/v6-m/nofp\libc-musl.a(toupper.o)
 .ARM.attributes
                0x00000000000018ec       0x2e c:/program files/microchip/xc32/v4.60/bin/bin/../../lib/gcc/pic32c/8.3.1/../../../../pic32c/lib/thumb/v6-m/nofp\libc-musl.a(__environ.o)
 .ARM.attributes
                0x000000000000191a       0x2e c:/program files/microchip/xc32/v4.60/bin/bin/../../lib/gcc/pic32c/8.3.1/../../../../pic32c/lib/thumb/v6-m/nofp\libc-musl.a(__int_vfprintf.o)
 .ARM.attributes
                0x0000000000001948       0x2e c:/program files/microchip/xc32/v4.60/bin/bin/../../lib/gcc/pic32c/8.3.1/../../../../pic32c/lib/thumb/v6-m/nofp\libc-musl.a(__int_vsprintf.o)
 .ARM.attributes
                0x0000000000001976       0x2e c:/program files/microchip/xc32/v4.60/bin/bin/../../lib/gcc/pic32c/8.3.1/../../../../pic32c/lib/thumb/v6-m/nofp\libc-musl.a(fputs.o)
 .ARM.attributes
                0x00000000000019a4       0x2e c:/program files/microchip/xc32/v4.60/bin/bin/../../lib/gcc/pic32c/8.3.1/../../../../pic32c/lib/thumb/v6-m/nofp\libc-musl.a(__cvt_u.o)
 .ARM.attributes
                0x00000000000019d2       0x2e c:/program files/microchip/xc32/v4.60/bin/bin/../../lib/gcc/pic32c/8.3.1/../../../../pic32c/lib/thumb/v6-m/nofp\libc-musl.a(__stdio_read.o)
 .ARM.attributes
                0x0000000000001a00       0x2e c:/program files/microchip/xc32/v4.60/bin/bin/../../lib/gcc/pic32c/8.3.1/../../../../pic32c/lib/thumb/v6-m/nofp\libc-musl.a(__towrite_rw.o)
 .ARM.attributes
                0x0000000000001a2e       0x2e c:/program files/microchip/xc32/v4.60/bin/bin/../../lib/gcc/pic32c/8.3.1/../../../../pic32c/lib/thumb/v6-m/nofp\libc-musl.a(fwrite.o)
 .ARM.attributes
                0x0000000000001a5c       0x2e c:/program files/microchip/xc32/v4.60/bin/bin/../../lib/gcc/pic32c/8.3.1/../../../../pic32c/lib/thumb/v6-m/nofp\libc-musl.a(putc.o)
 .ARM.attributes
                0x0000000000001a8a       0x2e c:/program files/microchip/xc32/v4.60/bin/bin/../../lib/gcc/pic32c/8.3.1/../../../../pic32c/lib/thumb/v6-m/nofp\libc-musl.a(setvbuf.o)
 .ARM.attributes
                0x0000000000001ab8       0x2e c:/program files/microchip/xc32/v4.60/bin/bin/../../lib/gcc/pic32c/8.3.1/../../../../pic32c/lib/thumb/v6-m/nofp\libc-musl.a(__tm_to_secs.o)
 .ARM.attributes
                0x0000000000001ae6       0x2e c:/program files/microchip/xc32/v4.60/bin/bin/../../lib/gcc/pic32c/8.3.1/../../../../pic32c/lib/thumb/v6-m/nofp\libc-musl.a(__year_to_secs.o)
 .ARM.attributes
                0x0000000000001b14       0x2e c:/program files/microchip/xc32/v4.60/bin/bin/../../lib/gcc/pic32c/8.3.1/../../../../pic32c/lib/thumb/v6-m/nofp\libc-musl.a(__secs_to_tm.o)
 .ARM.attributes
                0x0000000000001b42       0x2e c:/program files/microchip/xc32/v4.60/bin/bin/../../lib/gcc/pic32c/8.3.1/../../../../pic32c/lib/thumb/v6-m/nofp\libc-musl.a(readv.o)
 .ARM.attributes
                0x0000000000001b70       0x2e c:/program files/microchip/xc32/v4.60/bin/bin/../../lib/gcc/pic32c/8.3.1/../../../../pic32c/lib/thumb/v6-m/nofp\libc-musl.a(__int_vsnprintf.o)
 .ARM.attributes
                0x0000000000001b9e       0x2e c:/program files/microchip/xc32/v4.60/bin/bin/../../lib/gcc/pic32c/8.3.1/../../../../pic32c/lib/thumb/v6-m/nofp\libc-musl.a(__init_stdio.o)
 .ARM.attributes
                0x0000000000001bcc       0x2e c:/program files/microchip/xc32/v4.60/bin/bin/../../lib/gcc/pic32c/8.3.1/../../../../pic32c/lib/thumb/v6-m/nofp\libc-musl.a(__out.o)
 .ARM.attributes
                0x0000000000001bfa       0x2e c:/program files/microchip/xc32/v4.60/bin/bin/../../lib/gcc/pic32c/8.3.1/../../../../pic32c/lib/thumb/v6-m/nofp\libc-musl.a(__putc.o)
 .ARM.attributes
                0x0000000000001c28       0x2e c:/program files/microchip/xc32/v4.60/bin/bin/../../lib/gcc/pic32c/8.3.1/../../../../pic32c/lib/thumb/v6-m/nofp\libc-musl.a(__stderr.o)
 .ARM.attributes
                0x0000000000001c56       0x2e c:/program files/microchip/xc32/v4.60/bin/bin/../../lib/gcc/pic32c/8.3.1/../../../../pic32c/lib/thumb/v6-m/nofp\libc-musl.a(__stdio_close.o)
 .ARM.attributes
                0x0000000000001c84       0x2e c:/program files/microchip/xc32/v4.60/bin/bin/../../lib/gcc/pic32c/8.3.1/../../../../pic32c/lib/thumb/v6-m/nofp\libc-musl.a(__stdio_write.o)
 .ARM.attributes
                0x0000000000001cb2       0x2e c:/program files/microchip/xc32/v4.60/bin/bin/../../lib/gcc/pic32c/8.3.1/../../../../pic32c/lib/thumb/v6-m/nofp\libc-musl.a(__stdout.o)
 .ARM.attributes
                0x0000000000001ce0       0x2e c:/program files/microchip/xc32/v4.60/bin/bin/../../lib/gcc/pic32c/8.3.1/../../../../pic32c/lib/thumb/v6-m/nofp\libc-musl.a(__towrite.o)
 .ARM.attributes
                0x0000000000001d0e       0x2e c:/program files/microchip/xc32/v4.60/bin/bin/../../lib/gcc/pic32c/8.3.1/../../../../pic32c/lib/thumb/v6-m/nofp\libc-musl.a(__month_to_secs.o)
 .ARM.attributes
                0x0000000000001d3c       0x2e c:/program files/microchip/xc32/v4.60/bin/bin/../../lib/gcc/pic32c/8.3.1/../../../../pic32c/lib/thumb/v6-m/nofp\libc-musl.a(writev.o)
 .ARM.attributes
                0x0000000000001d6a       0x2e c:/program files/microchip/xc32/v4.60/bin/bin/../../lib/gcc/pic32c/8.3.1/../../../../pic32c/lib/thumb/v6-m/nofp\libc-musl.a(__overflow.o)
 .ARM.attributes
                0x0000000000001d98       0x2e c:/program files/microchip/xc32/v4.60/bin/bin/../../lib/gcc/pic32c/8.3.1/../../../../pic32c/lib/thumb/v6-m/nofp\libc-musl.a(__fwrite.o)
 .ARM.attributes
                0x0000000000001dc6       0x2c c:/program files/microchip/xc32/v4.60/bin/bin/../../lib/gcc/pic32c/8.3.1/../../../../pic32c/lib/thumb/v6-m/nofp\libm-fast-emfloat.a(fma.o)
 .ARM.attributes
                0x0000000000001df2       0x2c c:/program files/microchip/xc32/v4.60/bin/bin/../../lib/gcc/pic32c/8.3.1/../../../../pic32c/lib/thumb/v6-m/nofp\libm-fast-emfloat.a(floor.o)
 .ARM.attributes
                0x0000000000001e1e       0x1c c:/program files/microchip/xc32/v4.60/bin/bin/../../lib/gcc/pic32c/8.3.1/../../../../pic32c/lib/thumb/v6-m/nofp\libm-fast-emfloat.a(__aeabi_dcmple.o)
 .ARM.attributes
                0x0000000000001e3a       0x1e c:/program files/microchip/xc32/v4.60/bin/bin/../../lib/gcc/pic32c/8.3.1/thumb/v6-m/nofp\libgcc.a(_udivsi3.o)
 .ARM.attributes
                0x0000000000001e58       0x1e c:/program files/microchip/xc32/v4.60/bin/bin/../../lib/gcc/pic32c/8.3.1/thumb/v6-m/nofp\libgcc.a(_divsi3.o)
 .ARM.attributes
                0x0000000000001e76       0x1e c:/program files/microchip/xc32/v4.60/bin/bin/../../lib/gcc/pic32c/8.3.1/thumb/v6-m/nofp\libgcc.a(_dvmd_tls.o)
 .ARM.attributes
                0x0000000000001e94       0x1e c:/program files/microchip/xc32/v4.60/bin/bin/../../lib/gcc/pic32c/8.3.1/thumb/v6-m/nofp\libgcc.a(_aeabi_ldivmod.o)
 .ARM.attributes
                0x0000000000001eb2       0x1e c:/program files/microchip/xc32/v4.60/bin/bin/../../lib/gcc/pic32c/8.3.1/thumb/v6-m/nofp\libgcc.a(_aeabi_uldivmod.o)
 .ARM.attributes
                0x0000000000001ed0       0x2c c:/program files/microchip/xc32/v4.60/bin/bin/../../lib/gcc/pic32c/8.3.1/thumb/v6-m/nofp\libgcc.a(_muldi3.o)
 .ARM.attributes
                0x0000000000001efc       0x2c c:/program files/microchip/xc32/v4.60/bin/bin/../../lib/gcc/pic32c/8.3.1/thumb/v6-m/nofp\libgcc.a(_udivmoddi4.o)
 .ARM.attributes
                0x0000000000001f28       0x2c c:/program files/microchip/xc32/v4.60/bin/bin/../../lib/gcc/pic32c/8.3.1/thumb/v6-m/nofp\libgcc.a(bpabi.o)
 .ARM.attributes
                0x0000000000001f54       0x1e c:/program files/microchip/xc32/v4.60/bin/bin/../../lib/gcc/pic32c/8.3.1/thumb/v6-m/nofp\libgcc.a(_lshrdi3.o)
 .ARM.attributes
                0x0000000000001f72       0x1e c:/program files/microchip/xc32/v4.60/bin/bin/../../lib/gcc/pic32c/8.3.1/thumb/v6-m/nofp\libgcc.a(_ashldi3.o)
 .ARM.attributes
                0x0000000000001f90       0x1e c:/program files/microchip/xc32/v4.60/bin/bin/../../lib/gcc/pic32c/8.3.1/thumb/v6-m/nofp\libgcc.a(_clzdi2.o)
 .ARM.attributes
                0x0000000000001fae       0x2c c:/program files/microchip/xc32/v4.60/bin/bin/../../lib/gcc/pic32c/8.3.1/thumb/v6-m/nofp\libgcc.a(_divdi3.o)
 .ARM.attributes
                0x0000000000001fda       0x1e c:/program files/microchip/xc32/v4.60/bin/bin/../../lib/gcc/pic32c/8.3.1/thumb/v6-m/nofp\libgcc.a(_clzsi2.o)
 .ARM.attributes
                0x0000000000001ff8       0x2c c:/program files/microchip/xc32/v4.60/bin/bin/../../lib/gcc/pic32c/8.3.1/../../../../pic32c/lib/thumb/v6-m/nofp\libpic32c.a(close.o)
 .ARM.attributes
                0x0000000000002024       0x2c c:/program files/microchip/xc32/v4.60/bin/bin/../../lib/gcc/pic32c/8.3.1/../../../../pic32c/lib/thumb/v6-m/nofp\libpic32c.a(lseek.o)
 .ARM.attributes
                0x0000000000002050       0x2c c:/program files/microchip/xc32/v4.60/bin/bin/../../lib/gcc/pic32c/8.3.1/../../../../pic32c/lib/thumb/v6-m/nofp\libpic32c.a(sbrk.o)
 .ARM.attributes
                0x000000000000207c       0x2e c:/program files/microchip/xc32/v4.60/bin/bin/../../lib/gcc/pic32c/8.3.1/../../../../pic32c/lib/thumb/v6-m/nofp\libc-size-musl.a(strcpy.o)
 .ARM.attributes
                0x00000000000020aa       0x2e c:/program files/microchip/xc32/v4.60/bin/bin/../../lib/gcc/pic32c/8.3.1/../../../../pic32c/lib/thumb/v6-m/nofp\libc-size-musl.a(stpcpy.o)
 .ARM.attributes
                0x00000000000020d8       0x1e c:/program files/microchip/xc32/v4.60/bin/bin/../../lib/gcc/pic32c/8.3.1/thumb/v6-m/nofp/crtn.o
 .ARM.attributes
                0x00000000000020f6       0x2c c:/program files/microchip/xc32/v4.60/bin/bin/../../lib/gcc/pic32c/8.3.1/../../../../pic32c/lib/thumb/v6-m/nofp\libpic32c.a(pic32_data_init_clear.o)
 .ARM.attributes
                0x0000000000002122       0x2c c:/program files/microchip/xc32/v4.60/bin/bin/../../lib/gcc/pic32c/8.3.1/../../../../pic32c/lib/thumb/v6-m/nofp\libpic32c.a(pic32_data_init_copy.o)

.comment        0x0000000000000000       0x2b
 .comment       0x0000000000000000       0x2b c:/program files/microchip/xc32/v4.60/bin/bin/../../lib/gcc/pic32c/8.3.1/thumb/v6-m/nofp/crtbegin.o
                                         0x2c (size before relaxing)
 .comment       0x000000000000002b       0x2c build/SAMD21_IOT_WG_ICM42688/production/_ext/2048461350/icm42688_sensor.o
 .comment       0x000000000000002b       0x2c build/SAMD21_IOT_WG_ICM42688/production/_ext/171618134/sml_recognition_run.o
 .comment       0x000000000000002b       0x2c build/SAMD21_IOT_WG_ICM42688/production/_ext/1660664302/drv_spi.o
 .comment       0x000000000000002b       0x2c build/SAMD21_IOT_WG_ICM42688/production/_ext/1164161090/wdrv_winc_gpio.o
 .comment       0x000000000000002b       0x2c build/SAMD21_IOT_WG_ICM42688/production/_ext/1164161090/wdrv_winc_eint.o
 .comment       0x000000000000002b       0x2c build/SAMD21_IOT_WG_ICM42688/production/_ext/101005277/wdrv_winc_spi.o
 .comment       0x000000000000002b       0x2c build/SAMD21_IOT_WG_ICM42688/production/_ext/90265895/nm_common.o
 .comment       0x000000000000002b       0x2c build/SAMD21_IOT_WG_ICM42688/production/_ext/121554788/m2m_ssl.o
 .comment       0x000000000000002b       0x2c build/SAMD21_IOT_WG_ICM42688/production/_ext/121554788/m2m_hif.o
 .comment       0x000000000000002b       0x2c build/SAMD21_IOT_WG_ICM42688/production/_ext/121554788/m2m_wifi.o
 .comment       0x000000000000002b       0x2c build/SAMD21_IOT_WG_ICM42688/production/_ext/121554788/nmspi.o
 .comment       0x000000000000002b       0x2c build/SAMD21_IOT_WG_ICM42688/production/_ext/121554788/nmdrv.o
 .comment       0x000000000000002b       0x2c build/SAMD21_IOT_WG_ICM42688/production/_ext/121554788/m2m_ota.o
 .comment       0x000000000000002b       0x2c build/SAMD21_IOT_WG_ICM42688/production/_ext/121554788/nmasic.o
 .comment       0x000000000000002b       0x2c build/SAMD21_IOT_WG_ICM42688/production/_ext/121554788/nmbus.o
 .comment       0x000000000000002b       0x2c build/SAMD21_IOT_WG_ICM42688/production/_ext/548032175/socket.o
 .comment       0x000000000000002b       0x2c build/SAMD21_IOT_WG_ICM42688/production/_ext/548032175/inet_addr.o
 .comment       0x000000000000002b       0x2c build/SAMD21_IOT_WG_ICM42688/production/_ext/548032175/inet_ntop.o
 .comment       0x000000000000002b       0x2c build/SAMD21_IOT_WG_ICM42688/production/_ext/609036575/flexible_flash.o
 .comment       0x000000000000002b       0x2c build/SAMD21_IOT_WG_ICM42688/production/_ext/609036575/spi_flash.o
 .comment       0x000000000000002b       0x2c build/SAMD21_IOT_WG_ICM42688/production/_ext/1784303044/wdrv_winc_osal.o
 .comment       0x000000000000002b       0x2c build/SAMD21_IOT_WG_ICM42688/production/_ext/907429946/wdrv_winc_sta.o
 .comment       0x000000000000002b       0x2c build/SAMD21_IOT_WG_ICM42688/production/_ext/907429946/wdrv_winc_socket.o
 .comment       0x000000000000002b       0x2c build/SAMD21_IOT_WG_ICM42688/production/_ext/907429946/wdrv_winc_systime.o
 .comment       0x000000000000002b       0x2c build/SAMD21_IOT_WG_ICM42688/production/_ext/907429946/wdrv_winc_authctx.o
 .comment       0x000000000000002b       0x2c build/SAMD21_IOT_WG_ICM42688/production/_ext/907429946/wdrv_winc_host_file.o
 .comment       0x000000000000002b       0x2c build/SAMD21_IOT_WG_ICM42688/production/_ext/907429946/wdrv_winc.o
 .comment       0x000000000000002b       0x2c build/SAMD21_IOT_WG_ICM42688/production/_ext/907429946/wdrv_winc_bssctx.o
 .comment       0x000000000000002b       0x2c build/SAMD21_IOT_WG_ICM42688/production/_ext/1750425231/plib_clock.o
 .comment       0x000000000000002b       0x2c build/SAMD21_IOT_WG_ICM42688/production/_ext/1580516298/plib_dmac.o
 .comment       0x000000000000002b       0x2c build/SAMD21_IOT_WG_ICM42688/production/_ext/503204096/plib_eic.o
 .comment       0x000000000000002b       0x2c build/SAMD21_IOT_WG_ICM42688/production/_ext/1580823105/plib_nvic.o
 .comment       0x000000000000002b       0x2c build/SAMD21_IOT_WG_ICM42688/production/_ext/11470383/plib_nvmctrl.o
 .comment       0x000000000000002b       0x2c build/SAMD21_IOT_WG_ICM42688/production/_ext/1580876256/plib_port.o
 .comment       0x000000000000002b       0x2c build/SAMD21_IOT_WG_ICM42688/production/_ext/1014017276/plib_sercom0_spi_master.o
 .comment       0x000000000000002b       0x2c build/SAMD21_IOT_WG_ICM42688/production/_ext/1014017276/plib_sercom2_spi_master.o
 .comment       0x000000000000002b       0x2c build/SAMD21_IOT_WG_ICM42688/production/_ext/177673482/plib_sercom5_usart.o
 .comment       0x000000000000002b       0x2c build/SAMD21_IOT_WG_ICM42688/production/_ext/223004715/plib_systick.o
 .comment       0x000000000000002b       0x2c build/SAMD21_IOT_WG_ICM42688/production/_ext/399410062/plib_tc3.o
 .comment       0x000000000000002b       0x2c build/SAMD21_IOT_WG_ICM42688/production/_ext/399410062/plib_tc4.o
 .comment       0x000000000000002b       0x2c build/SAMD21_IOT_WG_ICM42688/production/_ext/1357625803/xc32_monitor.o
 .comment       0x000000000000002b       0x2c build/SAMD21_IOT_WG_ICM42688/production/_ext/1584719636/sys_dma.o
 .comment       0x000000000000002b       0x2c build/SAMD21_IOT_WG_ICM42688/production/_ext/1318297016/sys_int.o
 .comment       0x000000000000002b       0x2c build/SAMD21_IOT_WG_ICM42688/production/_ext/386530258/sys_time.o
 .comment       0x000000000000002b       0x2c build/SAMD21_IOT_WG_ICM42688/production/_ext/1832905403/initialization.o
 .comment       0x000000000000002b       0x2c build/SAMD21_IOT_WG_ICM42688/production/_ext/1832905403/interrupts.o
 .comment       0x000000000000002b       0x2c build/SAMD21_IOT_WG_ICM42688/production/_ext/1832905403/exceptions.o
 .comment       0x000000000000002b       0x2c build/SAMD21_IOT_WG_ICM42688/production/_ext/1832905403/startup_xc32.o
 .comment       0x000000000000002b       0x2c build/SAMD21_IOT_WG_ICM42688/production/_ext/1832905403/tasks.o
 .comment       0x000000000000002b       0x2c build/SAMD21_IOT_WG_ICM42688/production/_ext/1341251756/Icm426xxDriver_HL.o
 .comment       0x000000000000002b       0x2c build/SAMD21_IOT_WG_ICM42688/production/_ext/1341251756/Icm426xxTransport.o
 .comment       0x000000000000002b       0x2c build/SAMD21_IOT_WG_ICM42688/production/_ext/596309756/dsp_dtw_distance.o
 .comment       0x000000000000002b       0x2c build/SAMD21_IOT_WG_ICM42688/production/_ext/596309756/dsp_l1_distance.o
 .comment       0x000000000000002b       0x2c build/SAMD21_IOT_WG_ICM42688/production/_ext/596309756/dsp_lsup_distance.o
 .comment       0x000000000000002b       0x2c build/SAMD21_IOT_WG_ICM42688/production/_ext/596309756/fg_amplitude_global_p2p_low_frequency.o
 .comment       0x000000000000002b       0x2c build/SAMD21_IOT_WG_ICM42688/production/_ext/596309756/fg_amplitude_peak_to_peak.o
 .comment       0x000000000000002b       0x2c build/SAMD21_IOT_WG_ICM42688/production/_ext/596309756/fg_area_absolute_area_low_frequency.o
 .comment       0x000000000000002b       0x2c build/SAMD21_IOT_WG_ICM42688/production/_ext/596309756/fg_cross_p2p_difference.o
 .comment       0x000000000000002b       0x2c build/SAMD21_IOT_WG_ICM42688/production/_ext/596309756/fg_sampling_downsample.o
 .comment       0x000000000000002b       0x2c build/SAMD21_IOT_WG_ICM42688/production/_ext/596309756/fg_stats_abs_mean.o
 .comment       0x000000000000002b       0x2c build/SAMD21_IOT_WG_ICM42688/production/_ext/596309756/fg_stats_minimum.o
 .comment       0x000000000000002b       0x2c build/SAMD21_IOT_WG_ICM42688/production/_ext/596309756/kb.o
 .comment       0x000000000000002b       0x2c build/SAMD21_IOT_WG_ICM42688/production/_ext/596309756/kb_output.o
 .comment       0x000000000000002b       0x2c build/SAMD21_IOT_WG_ICM42688/production/_ext/596309756/kb_pipeline.o
 .comment       0x000000000000002b       0x2c build/SAMD21_IOT_WG_ICM42688/production/_ext/596309756/ma_symmetric.o
 .comment       0x000000000000002b       0x2c build/SAMD21_IOT_WG_ICM42688/production/_ext/596309756/mean.o
 .comment       0x000000000000002b       0x2c build/SAMD21_IOT_WG_ICM42688/production/_ext/596309756/pme.o
 .comment       0x000000000000002b       0x2c build/SAMD21_IOT_WG_ICM42688/production/_ext/596309756/pme_trained_neurons.o
 .comment       0x000000000000002b       0x2c build/SAMD21_IOT_WG_ICM42688/production/_ext/596309756/rb.o
 .comment       0x000000000000002b       0x2c build/SAMD21_IOT_WG_ICM42688/production/_ext/596309756/save_sensor_data.o
 .comment       0x000000000000002b       0x2c build/SAMD21_IOT_WG_ICM42688/production/_ext/596309756/sf_downsample_by_averaging.o
 .comment       0x000000000000002b       0x2c build/SAMD21_IOT_WG_ICM42688/production/_ext/596309756/sg_windowing.o
 .comment       0x000000000000002b       0x2c build/SAMD21_IOT_WG_ICM42688/production/_ext/596309756/sortarray.o
 .comment       0x000000000000002b       0x2c build/SAMD21_IOT_WG_ICM42688/production/_ext/596309756/sorted_copy.o
 .comment       0x000000000000002b       0x2c build/SAMD21_IOT_WG_ICM42688/production/_ext/596309756/tr_min_max_scale.o
 .comment       0x000000000000002b       0x2c build/SAMD21_IOT_WG_ICM42688/production/_ext/596309756/utils_array_max_uint8.o
 .comment       0x000000000000002b       0x2c build/SAMD21_IOT_WG_ICM42688/production/_ext/596309756/utils_bitwise_abs_val.o
 .comment       0x000000000000002b       0x2c build/SAMD21_IOT_WG_ICM42688/production/_ext/596309756/utils_buffer_abssum.o
 .comment       0x000000000000002b       0x2c build/SAMD21_IOT_WG_ICM42688/production/_ext/596309756/utils_buffer_cumsum.o
 .comment       0x000000000000002b       0x2c build/SAMD21_IOT_WG_ICM42688/production/_ext/596309756/utils_buffer_min_max.o
 .comment       0x000000000000002b       0x2c build/SAMD21_IOT_WG_ICM42688/production/_ext/596309756/utils_model_cross_difference.o
 .comment       0x000000000000002b       0x2c build/SAMD21_IOT_WG_ICM42688/production/_ext/596309756/utils_model_stats_max_min.o
 .comment       0x000000000000002b       0x2c build/SAMD21_IOT_WG_ICM42688/production/_ext/596309756/utils_tr_sensor.o
 .comment       0x000000000000002b       0x2c build/SAMD21_IOT_WG_ICM42688/production/_ext/1360937237/main.o
 .comment       0x000000000000002b       0x2c build/SAMD21_IOT_WG_ICM42688/production/_ext/1360937237/ringbuffer.o
 .comment       0x000000000000002b       0x2c build/SAMD21_IOT_WG_ICM42688/production/_ext/1360937237/app.o
 .comment       0x000000000000002b       0x2c build/SAMD21_IOT_WG_ICM42688/production/_ext/1360937237/ws2812.o
 .comment       0x000000000000002b       0x2c build/SAMD21_IOT_WG_ICM42688/production/_ext/1360937237/winc1500_udp_client.o
 .comment       0x000000000000002b       0x2c c:/program files/microchip/xc32/v4.60/bin/bin/../../lib/gcc/pic32c/8.3.1/../../../../pic32c/lib/thumb/v6-m/nofp\libpic32c.a(data_init.o)
 .comment       0x000000000000002b       0x2c c:/program files/microchip/xc32/v4.60/bin/bin/../../lib/gcc/pic32c/8.3.1/../../../../pic32c/lib/thumb/v6-m/nofp\libc-size-musl.a(memcpy.o)
 .comment       0x000000000000002b       0x2c c:/program files/microchip/xc32/v4.60/bin/bin/../../lib/gcc/pic32c/8.3.1/../../../../pic32c/lib/thumb/v6-m/nofp\libc-size-musl.a(memset.o)
 .comment       0x000000000000002b       0x2c c:/program files/microchip/xc32/v4.60/bin/bin/../../lib/gcc/pic32c/8.3.1/../../../../pic32c/lib/thumb/v6-m/nofp\libc-size-musl.a(strlen.o)
 .comment       0x000000000000002b       0x2c c:/program files/microchip/xc32/v4.60/bin/bin/../../lib/gcc/pic32c/8.3.1/../../../../pic32c/lib/thumb/v6-m/nofp\libc-size-musl.a(strchr.o)
 .comment       0x000000000000002b       0x2c c:/program files/microchip/xc32/v4.60/bin/bin/../../lib/gcc/pic32c/8.3.1/../../../../pic32c/lib/thumb/v6-m/nofp\libc-size-musl.a(strchrnul.o)
 .comment       0x000000000000002b       0x2c c:/program files/microchip/xc32/v4.60/bin/bin/../../lib/gcc/pic32c/8.3.1/../../../../pic32c/lib/thumb/v6-m/nofp\libc-size-musl.a(strnlen.o)
 .comment       0x000000000000002b       0x2c c:/program files/microchip/xc32/v4.60/bin/bin/../../lib/gcc/pic32c/8.3.1/../../../../pic32c/lib/thumb/v6-m/nofp\libc-size-musl.a(memchr.o)
 .comment       0x000000000000002b       0x2c c:/program files/microchip/xc32/v4.60/bin/bin/../../lib/gcc/pic32c/8.3.1/../../../../pic32c/lib/thumb/v6-m/nofp\liblmalloc-musl.a(lite_calloc.o)
 .comment       0x000000000000002b       0x2c c:/program files/microchip/xc32/v4.60/bin/bin/../../lib/gcc/pic32c/8.3.1/../../../../pic32c/lib/thumb/v6-m/nofp\liblmalloc-musl.a(lite_free.o)
 .comment       0x000000000000002b       0x2c c:/program files/microchip/xc32/v4.60/bin/bin/../../lib/gcc/pic32c/8.3.1/../../../../pic32c/lib/thumb/v6-m/nofp\liblmalloc-musl.a(lite_malloc.o)
 .comment       0x000000000000002b       0x2c c:/program files/microchip/xc32/v4.60/bin/bin/../../lib/gcc/pic32c/8.3.1/../../../../pic32c/lib/thumb/v6-m/nofp\libc-musl.a(__libc_start_main.o)
 .comment       0x000000000000002b       0x2c c:/program files/microchip/xc32/v4.60/bin/bin/../../lib/gcc/pic32c/8.3.1/../../../../pic32c/lib/thumb/v6-m/nofp\libc-musl.a(__errno_location.o)
 .comment       0x000000000000002b       0x2c c:/program files/microchip/xc32/v4.60/bin/bin/../../lib/gcc/pic32c/8.3.1/../../../../pic32c/lib/thumb/v6-m/nofp\libc-musl.a(libc.o)
 .comment       0x000000000000002b       0x2c c:/program files/microchip/xc32/v4.60/bin/bin/../../lib/gcc/pic32c/8.3.1/../../../../pic32c/lib/thumb/v6-m/nofp\libc-musl.a(expand_heap.o)
 .comment       0x000000000000002b       0x2c c:/program files/microchip/xc32/v4.60/bin/bin/../../lib/gcc/pic32c/8.3.1/../../../../pic32c/lib/thumb/v6-m/nofp\libc-musl.a(__sio_printf_cdeEfFgGnpsuxX.o)
 .comment       0x000000000000002b       0x2c c:/program files/microchip/xc32/v4.60/bin/bin/../../lib/gcc/pic32c/8.3.1/../../../../pic32c/lib/thumb/v6-m/nofp\libc-musl.a(__sio_sprintf_cdeEfFgGnpsuxX.o)
 .comment       0x000000000000002b       0x2c c:/program files/microchip/xc32/v4.60/bin/bin/../../lib/gcc/pic32c/8.3.1/../../../../pic32c/lib/thumb/v6-m/nofp\libc-musl.a(__fmt_d.o)
 .comment       0x000000000000002b       0x2c c:/program files/microchip/xc32/v4.60/bin/bin/../../lib/gcc/pic32c/8.3.1/../../../../pic32c/lib/thumb/v6-m/nofp\libc-musl.a(__fmt_fp.o)
 .comment       0x000000000000002b       0x2c c:/program files/microchip/xc32/v4.60/bin/bin/../../lib/gcc/pic32c/8.3.1/../../../../pic32c/lib/thumb/v6-m/nofp\libc-musl.a(__fmt_s.o)
 .comment       0x000000000000002b       0x2c c:/program files/microchip/xc32/v4.60/bin/bin/../../lib/gcc/pic32c/8.3.1/../../../../pic32c/lib/thumb/v6-m/nofp\libc-musl.a(__fmt_u.o)
 .comment       0x000000000000002b       0x2c c:/program files/microchip/xc32/v4.60/bin/bin/../../lib/gcc/pic32c/8.3.1/../../../../pic32c/lib/thumb/v6-m/nofp\libc-musl.a(__fmt_x.o)
 .comment       0x000000000000002b       0x2c c:/program files/microchip/xc32/v4.60/bin/bin/../../lib/gcc/pic32c/8.3.1/../../../../pic32c/lib/thumb/v6-m/nofp\libc-musl.a(__pop_float.o)
 .comment       0x000000000000002b       0x2c c:/program files/microchip/xc32/v4.60/bin/bin/../../lib/gcc/pic32c/8.3.1/../../../../pic32c/lib/thumb/v6-m/nofp\libc-musl.a(__pop_int.o)
 .comment       0x000000000000002b       0x2c c:/program files/microchip/xc32/v4.60/bin/bin/../../lib/gcc/pic32c/8.3.1/../../../../pic32c/lib/thumb/v6-m/nofp\libc-musl.a(__pop_ptr.o)
 .comment       0x000000000000002b       0x2c c:/program files/microchip/xc32/v4.60/bin/bin/../../lib/gcc/pic32c/8.3.1/../../../../pic32c/lib/thumb/v6-m/nofp\libc-musl.a(__printf_core.o)
 .comment       0x000000000000002b       0x2c c:/program files/microchip/xc32/v4.60/bin/bin/../../lib/gcc/pic32c/8.3.1/../../../../pic32c/lib/thumb/v6-m/nofp\libc-musl.a(stdin.o)
 .comment       0x000000000000002b       0x2c c:/program files/microchip/xc32/v4.60/bin/bin/../../lib/gcc/pic32c/8.3.1/../../../../pic32c/lib/thumb/v6-m/nofp\libc-musl.a(stdout.o)
 .comment       0x000000000000002b       0x2c c:/program files/microchip/xc32/v4.60/bin/bin/../../lib/gcc/pic32c/8.3.1/../../../../pic32c/lib/thumb/v6-m/nofp\libc-musl.a(putchar.o)
 .comment       0x000000000000002b       0x2c c:/program files/microchip/xc32/v4.60/bin/bin/../../lib/gcc/pic32c/8.3.1/../../../../pic32c/lib/thumb/v6-m/nofp\libc-musl.a(puts.o)
 .comment       0x000000000000002b       0x2c c:/program files/microchip/xc32/v4.60/bin/bin/../../lib/gcc/pic32c/8.3.1/../../../../pic32c/lib/thumb/v6-m/nofp\libc-musl.a(setbuf.o)
 .comment       0x000000000000002b       0x2c c:/program files/microchip/xc32/v4.60/bin/bin/../../lib/gcc/pic32c/8.3.1/../../../../pic32c/lib/thumb/v6-m/nofp\libc-musl.a(atoi.o)
 .comment       0x000000000000002b       0x2c c:/program files/microchip/xc32/v4.60/bin/bin/../../lib/gcc/pic32c/8.3.1/../../../../pic32c/lib/thumb/v6-m/nofp\libc-musl.a(gmtime.o)
 .comment       0x000000000000002b       0x2c c:/program files/microchip/xc32/v4.60/bin/bin/../../lib/gcc/pic32c/8.3.1/../../../../pic32c/lib/thumb/v6-m/nofp\libc-musl.a(gmtime_r.o)
 .comment       0x000000000000002b       0x2c c:/program files/microchip/xc32/v4.60/bin/bin/../../lib/gcc/pic32c/8.3.1/../../../../pic32c/lib/thumb/v6-m/nofp\libc-musl.a(mktime.o)
 .comment       0x000000000000002b       0x2c c:/program files/microchip/xc32/v4.60/bin/bin/../../lib/gcc/pic32c/8.3.1/../../../../pic32c/lib/thumb/v6-m/nofp\libc-musl.a(tolower.o)
 .comment       0x000000000000002b       0x2c c:/program files/microchip/xc32/v4.60/bin/bin/../../lib/gcc/pic32c/8.3.1/../../../../pic32c/lib/thumb/v6-m/nofp\libc-musl.a(toupper.o)
 .comment       0x000000000000002b       0x2c c:/program files/microchip/xc32/v4.60/bin/bin/../../lib/gcc/pic32c/8.3.1/../../../../pic32c/lib/thumb/v6-m/nofp\libc-musl.a(__environ.o)
 .comment       0x000000000000002b       0x2c c:/program files/microchip/xc32/v4.60/bin/bin/../../lib/gcc/pic32c/8.3.1/../../../../pic32c/lib/thumb/v6-m/nofp\libc-musl.a(__int_vfprintf.o)
 .comment       0x000000000000002b       0x2c c:/program files/microchip/xc32/v4.60/bin/bin/../../lib/gcc/pic32c/8.3.1/../../../../pic32c/lib/thumb/v6-m/nofp\libc-musl.a(__int_vsprintf.o)
 .comment       0x000000000000002b       0x2c c:/program files/microchip/xc32/v4.60/bin/bin/../../lib/gcc/pic32c/8.3.1/../../../../pic32c/lib/thumb/v6-m/nofp\libc-musl.a(fputs.o)
 .comment       0x000000000000002b       0x2c c:/program files/microchip/xc32/v4.60/bin/bin/../../lib/gcc/pic32c/8.3.1/../../../../pic32c/lib/thumb/v6-m/nofp\libc-musl.a(__cvt_u.o)
 .comment       0x000000000000002b       0x2c c:/program files/microchip/xc32/v4.60/bin/bin/../../lib/gcc/pic32c/8.3.1/../../../../pic32c/lib/thumb/v6-m/nofp\libc-musl.a(__stdio_read.o)
 .comment       0x000000000000002b       0x2c c:/program files/microchip/xc32/v4.60/bin/bin/../../lib/gcc/pic32c/8.3.1/../../../../pic32c/lib/thumb/v6-m/nofp\libc-musl.a(__towrite_rw.o)
 .comment       0x000000000000002b       0x2c c:/program files/microchip/xc32/v4.60/bin/bin/../../lib/gcc/pic32c/8.3.1/../../../../pic32c/lib/thumb/v6-m/nofp\libc-musl.a(fwrite.o)
 .comment       0x000000000000002b       0x2c c:/program files/microchip/xc32/v4.60/bin/bin/../../lib/gcc/pic32c/8.3.1/../../../../pic32c/lib/thumb/v6-m/nofp\libc-musl.a(putc.o)
 .comment       0x000000000000002b       0x2c c:/program files/microchip/xc32/v4.60/bin/bin/../../lib/gcc/pic32c/8.3.1/../../../../pic32c/lib/thumb/v6-m/nofp\libc-musl.a(setvbuf.o)
 .comment       0x000000000000002b       0x2c c:/program files/microchip/xc32/v4.60/bin/bin/../../lib/gcc/pic32c/8.3.1/../../../../pic32c/lib/thumb/v6-m/nofp\libc-musl.a(__tm_to_secs.o)
 .comment       0x000000000000002b       0x2c c:/program files/microchip/xc32/v4.60/bin/bin/../../lib/gcc/pic32c/8.3.1/../../../../pic32c/lib/thumb/v6-m/nofp\libc-musl.a(__year_to_secs.o)
 .comment       0x000000000000002b       0x2c c:/program files/microchip/xc32/v4.60/bin/bin/../../lib/gcc/pic32c/8.3.1/../../../../pic32c/lib/thumb/v6-m/nofp\libc-musl.a(__secs_to_tm.o)
 .comment       0x000000000000002b       0x2c c:/program files/microchip/xc32/v4.60/bin/bin/../../lib/gcc/pic32c/8.3.1/../../../../pic32c/lib/thumb/v6-m/nofp\libc-musl.a(readv.o)
 .comment       0x000000000000002b       0x2c c:/program files/microchip/xc32/v4.60/bin/bin/../../lib/gcc/pic32c/8.3.1/../../../../pic32c/lib/thumb/v6-m/nofp\libc-musl.a(__int_vsnprintf.o)
 .comment       0x000000000000002b       0x2c c:/program files/microchip/xc32/v4.60/bin/bin/../../lib/gcc/pic32c/8.3.1/../../../../pic32c/lib/thumb/v6-m/nofp\libc-musl.a(__init_stdio.o)
 .comment       0x000000000000002b       0x2c c:/program files/microchip/xc32/v4.60/bin/bin/../../lib/gcc/pic32c/8.3.1/../../../../pic32c/lib/thumb/v6-m/nofp\libc-musl.a(__out.o)
 .comment       0x000000000000002b       0x2c c:/program files/microchip/xc32/v4.60/bin/bin/../../lib/gcc/pic32c/8.3.1/../../../../pic32c/lib/thumb/v6-m/nofp\libc-musl.a(__putc.o)
 .comment       0x000000000000002b       0x2c c:/program files/microchip/xc32/v4.60/bin/bin/../../lib/gcc/pic32c/8.3.1/../../../../pic32c/lib/thumb/v6-m/nofp\libc-musl.a(__stderr.o)
 .comment       0x000000000000002b       0x2c c:/program files/microchip/xc32/v4.60/bin/bin/../../lib/gcc/pic32c/8.3.1/../../../../pic32c/lib/thumb/v6-m/nofp\libc-musl.a(__stdio_close.o)
 .comment       0x000000000000002b       0x2c c:/program files/microchip/xc32/v4.60/bin/bin/../../lib/gcc/pic32c/8.3.1/../../../../pic32c/lib/thumb/v6-m/nofp\libc-musl.a(__stdio_write.o)
 .comment       0x000000000000002b       0x2c c:/program files/microchip/xc32/v4.60/bin/bin/../../lib/gcc/pic32c/8.3.1/../../../../pic32c/lib/thumb/v6-m/nofp\libc-musl.a(__stdout.o)
 .comment       0x000000000000002b       0x2c c:/program files/microchip/xc32/v4.60/bin/bin/../../lib/gcc/pic32c/8.3.1/../../../../pic32c/lib/thumb/v6-m/nofp\libc-musl.a(__towrite.o)
 .comment       0x000000000000002b       0x2c c:/program files/microchip/xc32/v4.60/bin/bin/../../lib/gcc/pic32c/8.3.1/../../../../pic32c/lib/thumb/v6-m/nofp\libc-musl.a(__month_to_secs.o)
 .comment       0x000000000000002b       0x2c c:/program files/microchip/xc32/v4.60/bin/bin/../../lib/gcc/pic32c/8.3.1/../../../../pic32c/lib/thumb/v6-m/nofp\libc-musl.a(writev.o)
 .comment       0x000000000000002b       0x2c c:/program files/microchip/xc32/v4.60/bin/bin/../../lib/gcc/pic32c/8.3.1/../../../../pic32c/lib/thumb/v6-m/nofp\libc-musl.a(__overflow.o)
 .comment       0x000000000000002b       0x2c c:/program files/microchip/xc32/v4.60/bin/bin/../../lib/gcc/pic32c/8.3.1/../../../../pic32c/lib/thumb/v6-m/nofp\libc-musl.a(__fwrite.o)
 .comment       0x000000000000002b       0x2c c:/program files/microchip/xc32/v4.60/bin/bin/../../lib/gcc/pic32c/8.3.1/../../../../pic32c/lib/thumb/v6-m/nofp\libm-fast-emfloat.a(fma.o)
 .comment       0x000000000000002b       0x2c c:/program files/microchip/xc32/v4.60/bin/bin/../../lib/gcc/pic32c/8.3.1/../../../../pic32c/lib/thumb/v6-m/nofp\libm-fast-emfloat.a(floor.o)
 .comment       0x000000000000002b       0x2c c:/program files/microchip/xc32/v4.60/bin/bin/../../lib/gcc/pic32c/8.3.1/thumb/v6-m/nofp\libgcc.a(_muldi3.o)
 .comment       0x000000000000002b       0x2c c:/program files/microchip/xc32/v4.60/bin/bin/../../lib/gcc/pic32c/8.3.1/thumb/v6-m/nofp\libgcc.a(_udivmoddi4.o)
 .comment       0x000000000000002b       0x2c c:/program files/microchip/xc32/v4.60/bin/bin/../../lib/gcc/pic32c/8.3.1/thumb/v6-m/nofp\libgcc.a(bpabi.o)
 .comment       0x000000000000002b       0x2c c:/program files/microchip/xc32/v4.60/bin/bin/../../lib/gcc/pic32c/8.3.1/thumb/v6-m/nofp\libgcc.a(_divdi3.o)
 .comment       0x000000000000002b       0x2c c:/program files/microchip/xc32/v4.60/bin/bin/../../lib/gcc/pic32c/8.3.1/../../../../pic32c/lib/thumb/v6-m/nofp\libpic32c.a(close.o)
 .comment       0x000000000000002b       0x2c c:/program files/microchip/xc32/v4.60/bin/bin/../../lib/gcc/pic32c/8.3.1/../../../../pic32c/lib/thumb/v6-m/nofp\libpic32c.a(lseek.o)
 .comment       0x000000000000002b       0x2c c:/program files/microchip/xc32/v4.60/bin/bin/../../lib/gcc/pic32c/8.3.1/../../../../pic32c/lib/thumb/v6-m/nofp\libpic32c.a(sbrk.o)
 .comment       0x000000000000002b       0x2c c:/program files/microchip/xc32/v4.60/bin/bin/../../lib/gcc/pic32c/8.3.1/../../../../pic32c/lib/thumb/v6-m/nofp\libc-size-musl.a(strcpy.o)
 .comment       0x000000000000002b       0x2c c:/program files/microchip/xc32/v4.60/bin/bin/../../lib/gcc/pic32c/8.3.1/../../../../pic32c/lib/thumb/v6-m/nofp\libc-size-musl.a(stpcpy.o)
 .comment       0x000000000000002b       0x2c c:/program files/microchip/xc32/v4.60/bin/bin/../../lib/gcc/pic32c/8.3.1/../../../../pic32c/lib/thumb/v6-m/nofp\libpic32c.a(pic32_data_init_clear.o)
 .comment       0x000000000000002b       0x2c c:/program files/microchip/xc32/v4.60/bin/bin/../../lib/gcc/pic32c/8.3.1/../../../../pic32c/lib/thumb/v6-m/nofp\libpic32c.a(pic32_data_init_copy.o)

.debug_info     0x0000000000000000    0x4eb95
 .debug_info    0x0000000000000000      0xe30 build/SAMD21_IOT_WG_ICM42688/production/_ext/2048461350/icm42688_sensor.o
 .debug_info    0x0000000000000e30      0x250 build/SAMD21_IOT_WG_ICM42688/production/_ext/171618134/sml_recognition_run.o
 .debug_info    0x0000000000001080     0x2c78 build/SAMD21_IOT_WG_ICM42688/production/_ext/1660664302/drv_spi.o
 .debug_info    0x0000000000003cf8      0x2ac build/SAMD21_IOT_WG_ICM42688/production/_ext/1164161090/wdrv_winc_gpio.o
 .debug_info    0x0000000000003fa4      0x17a build/SAMD21_IOT_WG_ICM42688/production/_ext/1164161090/wdrv_winc_eint.o
 .debug_info    0x000000000000411e      0xf98 build/SAMD21_IOT_WG_ICM42688/production/_ext/101005277/wdrv_winc_spi.o
 .debug_info    0x00000000000050b6      0x210 build/SAMD21_IOT_WG_ICM42688/production/_ext/90265895/nm_common.o
 .debug_info    0x00000000000052c6      0xdfd build/SAMD21_IOT_WG_ICM42688/production/_ext/121554788/m2m_ssl.o
 .debug_info    0x00000000000060c3     0x1333 build/SAMD21_IOT_WG_ICM42688/production/_ext/121554788/m2m_hif.o
 .debug_info    0x00000000000073f6     0x55b0 build/SAMD21_IOT_WG_ICM42688/production/_ext/121554788/m2m_wifi.o
 .debug_info    0x000000000000c9a6     0x18ce build/SAMD21_IOT_WG_ICM42688/production/_ext/121554788/nmspi.o
 .debug_info    0x000000000000e274      0x904 build/SAMD21_IOT_WG_ICM42688/production/_ext/121554788/nmdrv.o
 .debug_info    0x000000000000eb78     0x144b build/SAMD21_IOT_WG_ICM42688/production/_ext/121554788/m2m_ota.o
 .debug_info    0x000000000000ffc3     0x1121 build/SAMD21_IOT_WG_ICM42688/production/_ext/121554788/nmasic.o
 .debug_info    0x00000000000110e4      0x6d7 build/SAMD21_IOT_WG_ICM42688/production/_ext/121554788/nmbus.o
 .debug_info    0x00000000000117bb     0x2662 build/SAMD21_IOT_WG_ICM42688/production/_ext/548032175/socket.o
 .debug_info    0x0000000000013e1d      0x14f build/SAMD21_IOT_WG_ICM42688/production/_ext/548032175/inet_addr.o
 .debug_info    0x0000000000013f6c      0x1dd build/SAMD21_IOT_WG_ICM42688/production/_ext/548032175/inet_ntop.o
 .debug_info    0x0000000000014149      0x1e6 build/SAMD21_IOT_WG_ICM42688/production/_ext/609036575/flexible_flash.o
 .debug_info    0x000000000001432f     0x12b9 build/SAMD21_IOT_WG_ICM42688/production/_ext/609036575/spi_flash.o
 .debug_info    0x00000000000155e8      0x148 build/SAMD21_IOT_WG_ICM42688/production/_ext/1784303044/wdrv_winc_osal.o
 .debug_info    0x0000000000015730     0x1916 build/SAMD21_IOT_WG_ICM42688/production/_ext/907429946/wdrv_winc_sta.o
 .debug_info    0x0000000000017046     0x1c03 build/SAMD21_IOT_WG_ICM42688/production/_ext/907429946/wdrv_winc_socket.o
 .debug_info    0x0000000000018c49     0x154a build/SAMD21_IOT_WG_ICM42688/production/_ext/907429946/wdrv_winc_systime.o
 .debug_info    0x000000000001a193      0xc2e build/SAMD21_IOT_WG_ICM42688/production/_ext/907429946/wdrv_winc_authctx.o
 .debug_info    0x000000000001adc1     0x2649 build/SAMD21_IOT_WG_ICM42688/production/_ext/907429946/wdrv_winc_host_file.o
 .debug_info    0x000000000001d40a     0x49d4 build/SAMD21_IOT_WG_ICM42688/production/_ext/907429946/wdrv_winc.o
 .debug_info    0x0000000000021dde      0x677 build/SAMD21_IOT_WG_ICM42688/production/_ext/907429946/wdrv_winc_bssctx.o
 .debug_info    0x0000000000022455      0x5b8 build/SAMD21_IOT_WG_ICM42688/production/_ext/1750425231/plib_clock.o
 .debug_info    0x0000000000022a0d      0xc0f build/SAMD21_IOT_WG_ICM42688/production/_ext/1580516298/plib_dmac.o
 .debug_info    0x000000000002361c      0x34d build/SAMD21_IOT_WG_ICM42688/production/_ext/503204096/plib_eic.o
 .debug_info    0x0000000000023969      0xa46 build/SAMD21_IOT_WG_ICM42688/production/_ext/1580823105/plib_nvic.o
 .debug_info    0x00000000000243af      0x59c build/SAMD21_IOT_WG_ICM42688/production/_ext/11470383/plib_nvmctrl.o
 .debug_info    0x000000000002494b      0x6a3 build/SAMD21_IOT_WG_ICM42688/production/_ext/1580876256/plib_port.o
 .debug_info    0x0000000000024fee      0xe88 build/SAMD21_IOT_WG_ICM42688/production/_ext/1014017276/plib_sercom0_spi_master.o
 .debug_info    0x0000000000025e76      0xf98 build/SAMD21_IOT_WG_ICM42688/production/_ext/1014017276/plib_sercom2_spi_master.o
 .debug_info    0x0000000000026e0e      0xf59 build/SAMD21_IOT_WG_ICM42688/production/_ext/177673482/plib_sercom5_usart.o
 .debug_info    0x0000000000027d67      0x336 build/SAMD21_IOT_WG_ICM42688/production/_ext/223004715/plib_systick.o
 .debug_info    0x000000000002809d      0x770 build/SAMD21_IOT_WG_ICM42688/production/_ext/399410062/plib_tc3.o
 .debug_info    0x000000000002880d      0x799 build/SAMD21_IOT_WG_ICM42688/production/_ext/399410062/plib_tc4.o
 .debug_info    0x0000000000028fa6      0x1e4 build/SAMD21_IOT_WG_ICM42688/production/_ext/1357625803/xc32_monitor.o
 .debug_info    0x000000000002918a      0x2e6 build/SAMD21_IOT_WG_ICM42688/production/_ext/1584719636/sys_dma.o
 .debug_info    0x0000000000029470      0x556 build/SAMD21_IOT_WG_ICM42688/production/_ext/1318297016/sys_int.o
 .debug_info    0x00000000000299c6     0x2299 build/SAMD21_IOT_WG_ICM42688/production/_ext/386530258/sys_time.o
 .debug_info    0x000000000002bc5f     0x1a6a build/SAMD21_IOT_WG_ICM42688/production/_ext/1832905403/initialization.o
 .debug_info    0x000000000002d6c9      0x3e1 build/SAMD21_IOT_WG_ICM42688/production/_ext/1832905403/interrupts.o
 .debug_info    0x000000000002daaa       0xb6 build/SAMD21_IOT_WG_ICM42688/production/_ext/1832905403/exceptions.o
 .debug_info    0x000000000002db60      0x205 build/SAMD21_IOT_WG_ICM42688/production/_ext/1832905403/startup_xc32.o
 .debug_info    0x000000000002dd65       0xc7 build/SAMD21_IOT_WG_ICM42688/production/_ext/1832905403/tasks.o
 .debug_info    0x000000000002de2c     0x529a build/SAMD21_IOT_WG_ICM42688/production/_ext/1341251756/Icm426xxDriver_HL.o
 .debug_info    0x00000000000330c6      0x6c6 build/SAMD21_IOT_WG_ICM42688/production/_ext/1341251756/Icm426xxTransport.o
 .debug_info    0x000000000003378c      0x1ab build/SAMD21_IOT_WG_ICM42688/production/_ext/596309756/dsp_dtw_distance.o
 .debug_info    0x0000000000033937      0x160 build/SAMD21_IOT_WG_ICM42688/production/_ext/596309756/dsp_l1_distance.o
 .debug_info    0x0000000000033a97      0x184 build/SAMD21_IOT_WG_ICM42688/production/_ext/596309756/dsp_lsup_distance.o
 .debug_info    0x0000000000033c1b      0x6f7 build/SAMD21_IOT_WG_ICM42688/production/_ext/596309756/fg_amplitude_global_p2p_low_frequency.o
 .debug_info    0x0000000000034312      0x6a7 build/SAMD21_IOT_WG_ICM42688/production/_ext/596309756/fg_amplitude_peak_to_peak.o
 .debug_info    0x00000000000349b9      0x713 build/SAMD21_IOT_WG_ICM42688/production/_ext/596309756/fg_area_absolute_area_low_frequency.o
 .debug_info    0x00000000000350cc      0x685 build/SAMD21_IOT_WG_ICM42688/production/_ext/596309756/fg_cross_p2p_difference.o
 .debug_info    0x0000000000035751      0x6fd build/SAMD21_IOT_WG_ICM42688/production/_ext/596309756/fg_sampling_downsample.o
 .debug_info    0x0000000000035e4e      0x6a0 build/SAMD21_IOT_WG_ICM42688/production/_ext/596309756/fg_stats_abs_mean.o
 .debug_info    0x00000000000364ee      0x685 build/SAMD21_IOT_WG_ICM42688/production/_ext/596309756/fg_stats_minimum.o
 .debug_info    0x0000000000036b73     0x31b1 build/SAMD21_IOT_WG_ICM42688/production/_ext/596309756/kb.o
 .debug_info    0x0000000000039d24      0xcdf build/SAMD21_IOT_WG_ICM42688/production/_ext/596309756/kb_output.o
 .debug_info    0x000000000003aa03      0xb6b build/SAMD21_IOT_WG_ICM42688/production/_ext/596309756/kb_pipeline.o
 .debug_info    0x000000000003b56e      0x8b6 build/SAMD21_IOT_WG_ICM42688/production/_ext/596309756/ma_symmetric.o
 .debug_info    0x000000000003be24      0x2c8 build/SAMD21_IOT_WG_ICM42688/production/_ext/596309756/mean.o
 .debug_info    0x000000000003c0ec     0x1aa4 build/SAMD21_IOT_WG_ICM42688/production/_ext/596309756/pme.o
 .debug_info    0x000000000003db90      0x2fe build/SAMD21_IOT_WG_ICM42688/production/_ext/596309756/pme_trained_neurons.o
 .debug_info    0x000000000003de8e      0x92a build/SAMD21_IOT_WG_ICM42688/production/_ext/596309756/rb.o
 .debug_info    0x000000000003e7b8      0x25a build/SAMD21_IOT_WG_ICM42688/production/_ext/596309756/save_sensor_data.o
 .debug_info    0x000000000003ea12      0x2c3 build/SAMD21_IOT_WG_ICM42688/production/_ext/596309756/sf_downsample_by_averaging.o
 .debug_info    0x000000000003ecd5      0x660 build/SAMD21_IOT_WG_ICM42688/production/_ext/596309756/sg_windowing.o
 .debug_info    0x000000000003f335      0x137 build/SAMD21_IOT_WG_ICM42688/production/_ext/596309756/sortarray.o
 .debug_info    0x000000000003f46c      0x21d build/SAMD21_IOT_WG_ICM42688/production/_ext/596309756/sorted_copy.o
 .debug_info    0x000000000003f689      0x264 build/SAMD21_IOT_WG_ICM42688/production/_ext/596309756/tr_min_max_scale.o
 .debug_info    0x000000000003f8ed      0x166 build/SAMD21_IOT_WG_ICM42688/production/_ext/596309756/utils_array_max_uint8.o
 .debug_info    0x000000000003fa53       0xe7 build/SAMD21_IOT_WG_ICM42688/production/_ext/596309756/utils_bitwise_abs_val.o
 .debug_info    0x000000000003fb3a      0x1f3 build/SAMD21_IOT_WG_ICM42688/production/_ext/596309756/utils_buffer_abssum.o
 .debug_info    0x000000000003fd2d      0x320 build/SAMD21_IOT_WG_ICM42688/production/_ext/596309756/utils_buffer_cumsum.o
 .debug_info    0x000000000004004d      0x232 build/SAMD21_IOT_WG_ICM42688/production/_ext/596309756/utils_buffer_min_max.o
 .debug_info    0x000000000004027f      0x735 build/SAMD21_IOT_WG_ICM42688/production/_ext/596309756/utils_model_cross_difference.o
 .debug_info    0x00000000000409b4      0x6fc build/SAMD21_IOT_WG_ICM42688/production/_ext/596309756/utils_model_stats_max_min.o
 .debug_info    0x00000000000410b0      0x151 build/SAMD21_IOT_WG_ICM42688/production/_ext/596309756/utils_tr_sensor.o
 .debug_info    0x0000000000041201     0x1df0 build/SAMD21_IOT_WG_ICM42688/production/_ext/1360937237/main.o
 .debug_info    0x0000000000042ff1      0x878 build/SAMD21_IOT_WG_ICM42688/production/_ext/1360937237/ringbuffer.o
 .debug_info    0x0000000000043869      0x59f build/SAMD21_IOT_WG_ICM42688/production/_ext/1360937237/app.o
 .debug_info    0x0000000000043e08      0x73d build/SAMD21_IOT_WG_ICM42688/production/_ext/1360937237/ws2812.o
 .debug_info    0x0000000000044545      0xd19 build/SAMD21_IOT_WG_ICM42688/production/_ext/1360937237/winc1500_udp_client.o
 .debug_info    0x000000000004525e       0x68 c:/program files/microchip/xc32/v4.60/bin/bin/../../lib/gcc/pic32c/8.3.1/../../../../pic32c/lib/thumb/v6-m/nofp\libpic32c.a(data_init.o)
 .debug_info    0x00000000000452c6       0xed c:/program files/microchip/xc32/v4.60/bin/bin/../../lib/gcc/pic32c/8.3.1/../../../../pic32c/lib/thumb/v6-m/nofp\libc-size-musl.a(memcpy.o)
 .debug_info    0x00000000000453b3       0xbb c:/program files/microchip/xc32/v4.60/bin/bin/../../lib/gcc/pic32c/8.3.1/../../../../pic32c/lib/thumb/v6-m/nofp\libc-size-musl.a(memset.o)
 .debug_info    0x000000000004546e       0xa4 c:/program files/microchip/xc32/v4.60/bin/bin/../../lib/gcc/pic32c/8.3.1/../../../../pic32c/lib/thumb/v6-m/nofp\libc-size-musl.a(strlen.o)
 .debug_info    0x0000000000045512       0xd2 c:/program files/microchip/xc32/v4.60/bin/bin/../../lib/gcc/pic32c/8.3.1/../../../../pic32c/lib/thumb/v6-m/nofp\libc-size-musl.a(strchr.o)
 .debug_info    0x00000000000455e4      0x133 c:/program files/microchip/xc32/v4.60/bin/bin/../../lib/gcc/pic32c/8.3.1/../../../../pic32c/lib/thumb/v6-m/nofp\libc-size-musl.a(strchrnul.o)
 .debug_info    0x0000000000045717       0xd5 c:/program files/microchip/xc32/v4.60/bin/bin/../../lib/gcc/pic32c/8.3.1/../../../../pic32c/lib/thumb/v6-m/nofp\libc-size-musl.a(strnlen.o)
 .debug_info    0x00000000000457ec       0xe5 c:/program files/microchip/xc32/v4.60/bin/bin/../../lib/gcc/pic32c/8.3.1/../../../../pic32c/lib/thumb/v6-m/nofp\libc-size-musl.a(memchr.o)
 .debug_info    0x00000000000458d1      0x133 c:/program files/microchip/xc32/v4.60/bin/bin/../../lib/gcc/pic32c/8.3.1/../../../../pic32c/lib/thumb/v6-m/nofp\liblmalloc-musl.a(lite_calloc.o)
 .debug_info    0x0000000000045a04      0x272 c:/program files/microchip/xc32/v4.60/bin/bin/../../lib/gcc/pic32c/8.3.1/../../../../pic32c/lib/thumb/v6-m/nofp\liblmalloc-musl.a(lite_free.o)
 .debug_info    0x0000000000045c76      0x1bd c:/program files/microchip/xc32/v4.60/bin/bin/../../lib/gcc/pic32c/8.3.1/../../../../pic32c/lib/thumb/v6-m/nofp\liblmalloc-musl.a(lite_malloc.o)
 .debug_info    0x0000000000045e33      0x2fb c:/program files/microchip/xc32/v4.60/bin/bin/../../lib/gcc/pic32c/8.3.1/../../../../pic32c/lib/thumb/v6-m/nofp\libc-musl.a(__libc_start_main.o)
 .debug_info    0x000000000004612e       0x5b c:/program files/microchip/xc32/v4.60/bin/bin/../../lib/gcc/pic32c/8.3.1/../../../../pic32c/lib/thumb/v6-m/nofp\libc-musl.a(__errno_location.o)
 .debug_info    0x0000000000046189      0x276 c:/program files/microchip/xc32/v4.60/bin/bin/../../lib/gcc/pic32c/8.3.1/../../../../pic32c/lib/thumb/v6-m/nofp\libc-musl.a(libc.o)
 .debug_info    0x00000000000463ff      0x10e c:/program files/microchip/xc32/v4.60/bin/bin/../../lib/gcc/pic32c/8.3.1/../../../../pic32c/lib/thumb/v6-m/nofp\libc-musl.a(expand_heap.o)
 .debug_info    0x000000000004650d      0x22d c:/program files/microchip/xc32/v4.60/bin/bin/../../lib/gcc/pic32c/8.3.1/../../../../pic32c/lib/thumb/v6-m/nofp\libc-musl.a(__sio_printf_cdeEfFgGnpsuxX.o)
 .debug_info    0x000000000004673a      0x21a c:/program files/microchip/xc32/v4.60/bin/bin/../../lib/gcc/pic32c/8.3.1/../../../../pic32c/lib/thumb/v6-m/nofp\libc-musl.a(__sio_sprintf_cdeEfFgGnpsuxX.o)
 .debug_info    0x0000000000046954      0x330 c:/program files/microchip/xc32/v4.60/bin/bin/../../lib/gcc/pic32c/8.3.1/../../../../pic32c/lib/thumb/v6-m/nofp\libc-musl.a(__fmt_d.o)
 .debug_info    0x0000000000046c84      0x676 c:/program files/microchip/xc32/v4.60/bin/bin/../../lib/gcc/pic32c/8.3.1/../../../../pic32c/lib/thumb/v6-m/nofp\libc-musl.a(__fmt_fp.o)
 .debug_info    0x00000000000472fa      0x2e9 c:/program files/microchip/xc32/v4.60/bin/bin/../../lib/gcc/pic32c/8.3.1/../../../../pic32c/lib/thumb/v6-m/nofp\libc-musl.a(__fmt_s.o)
 .debug_info    0x00000000000475e3      0x301 c:/program files/microchip/xc32/v4.60/bin/bin/../../lib/gcc/pic32c/8.3.1/../../../../pic32c/lib/thumb/v6-m/nofp\libc-musl.a(__fmt_u.o)
 .debug_info    0x00000000000478e4      0x335 c:/program files/microchip/xc32/v4.60/bin/bin/../../lib/gcc/pic32c/8.3.1/../../../../pic32c/lib/thumb/v6-m/nofp\libc-musl.a(__fmt_x.o)
 .debug_info    0x0000000000047c19      0x162 c:/program files/microchip/xc32/v4.60/bin/bin/../../lib/gcc/pic32c/8.3.1/../../../../pic32c/lib/thumb/v6-m/nofp\libc-musl.a(__pop_float.o)
 .debug_info    0x0000000000047d7b      0x183 c:/program files/microchip/xc32/v4.60/bin/bin/../../lib/gcc/pic32c/8.3.1/../../../../pic32c/lib/thumb/v6-m/nofp\libc-musl.a(__pop_int.o)
 .debug_info    0x0000000000047efe      0x18d c:/program files/microchip/xc32/v4.60/bin/bin/../../lib/gcc/pic32c/8.3.1/../../../../pic32c/lib/thumb/v6-m/nofp\libc-musl.a(__pop_ptr.o)
 .debug_info    0x000000000004808b      0xa6f c:/program files/microchip/xc32/v4.60/bin/bin/../../lib/gcc/pic32c/8.3.1/../../../../pic32c/lib/thumb/v6-m/nofp\libc-musl.a(__printf_core.o)
 .debug_info    0x0000000000048afa      0x404 c:/program files/microchip/xc32/v4.60/bin/bin/../../lib/gcc/pic32c/8.3.1/../../../../pic32c/lib/thumb/v6-m/nofp\libc-musl.a(stdin.o)
 .debug_info    0x0000000000048efe      0x1e9 c:/program files/microchip/xc32/v4.60/bin/bin/../../lib/gcc/pic32c/8.3.1/../../../../pic32c/lib/thumb/v6-m/nofp\libc-musl.a(stdout.o)
 .debug_info    0x00000000000490e7       0xd0 c:/program files/microchip/xc32/v4.60/bin/bin/../../lib/gcc/pic32c/8.3.1/../../../../pic32c/lib/thumb/v6-m/nofp\libc-musl.a(putchar.o)
 .debug_info    0x00000000000491b7      0x3ac c:/program files/microchip/xc32/v4.60/bin/bin/../../lib/gcc/pic32c/8.3.1/../../../../pic32c/lib/thumb/v6-m/nofp\libc-musl.a(puts.o)
 .debug_info    0x0000000000049563       0xe6 c:/program files/microchip/xc32/v4.60/bin/bin/../../lib/gcc/pic32c/8.3.1/../../../../pic32c/lib/thumb/v6-m/nofp\libc-musl.a(setbuf.o)
 .debug_info    0x0000000000049649       0xf4 c:/program files/microchip/xc32/v4.60/bin/bin/../../lib/gcc/pic32c/8.3.1/../../../../pic32c/lib/thumb/v6-m/nofp\libc-musl.a(atoi.o)
 .debug_info    0x000000000004973d      0x199 c:/program files/microchip/xc32/v4.60/bin/bin/../../lib/gcc/pic32c/8.3.1/../../../../pic32c/lib/thumb/v6-m/nofp\libc-musl.a(gmtime.o)
 .debug_info    0x00000000000498d6      0x1a6 c:/program files/microchip/xc32/v4.60/bin/bin/../../lib/gcc/pic32c/8.3.1/../../../../pic32c/lib/thumb/v6-m/nofp\libc-musl.a(gmtime_r.o)
 .debug_info    0x0000000000049a7c      0x205 c:/program files/microchip/xc32/v4.60/bin/bin/../../lib/gcc/pic32c/8.3.1/../../../../pic32c/lib/thumb/v6-m/nofp\libc-musl.a(mktime.o)
 .debug_info    0x0000000000049c81      0x131 c:/program files/microchip/xc32/v4.60/bin/bin/../../lib/gcc/pic32c/8.3.1/../../../../pic32c/lib/thumb/v6-m/nofp\libc-musl.a(tolower.o)
 .debug_info    0x0000000000049db2      0x131 c:/program files/microchip/xc32/v4.60/bin/bin/../../lib/gcc/pic32c/8.3.1/../../../../pic32c/lib/thumb/v6-m/nofp\libc-musl.a(toupper.o)
 .debug_info    0x0000000000049ee3       0x97 c:/program files/microchip/xc32/v4.60/bin/bin/../../lib/gcc/pic32c/8.3.1/../../../../pic32c/lib/thumb/v6-m/nofp\libc-musl.a(__environ.o)
 .debug_info    0x0000000000049f7a      0x1ff c:/program files/microchip/xc32/v4.60/bin/bin/../../lib/gcc/pic32c/8.3.1/../../../../pic32c/lib/thumb/v6-m/nofp\libc-musl.a(__int_vfprintf.o)
 .debug_info    0x000000000004a179      0x13f c:/program files/microchip/xc32/v4.60/bin/bin/../../lib/gcc/pic32c/8.3.1/../../../../pic32c/lib/thumb/v6-m/nofp\libc-musl.a(__int_vsprintf.o)
 .debug_info    0x000000000004a2b8      0x3b6 c:/program files/microchip/xc32/v4.60/bin/bin/../../lib/gcc/pic32c/8.3.1/../../../../pic32c/lib/thumb/v6-m/nofp\libc-musl.a(fputs.o)
 .debug_info    0x000000000004a66e      0x1cf c:/program files/microchip/xc32/v4.60/bin/bin/../../lib/gcc/pic32c/8.3.1/../../../../pic32c/lib/thumb/v6-m/nofp\libc-musl.a(__cvt_u.o)
 .debug_info    0x000000000004a83d      0x3ef c:/program files/microchip/xc32/v4.60/bin/bin/../../lib/gcc/pic32c/8.3.1/../../../../pic32c/lib/thumb/v6-m/nofp\libc-musl.a(__stdio_read.o)
 .debug_info    0x000000000004ac2c      0x331 c:/program files/microchip/xc32/v4.60/bin/bin/../../lib/gcc/pic32c/8.3.1/../../../../pic32c/lib/thumb/v6-m/nofp\libc-musl.a(__towrite_rw.o)
 .debug_info    0x000000000004af5d      0x257 c:/program files/microchip/xc32/v4.60/bin/bin/../../lib/gcc/pic32c/8.3.1/../../../../pic32c/lib/thumb/v6-m/nofp\libc-musl.a(fwrite.o)
 .debug_info    0x000000000004b1b4      0x224 c:/program files/microchip/xc32/v4.60/bin/bin/../../lib/gcc/pic32c/8.3.1/../../../../pic32c/lib/thumb/v6-m/nofp\libc-musl.a(putc.o)
 .debug_info    0x000000000004b3d8      0x2bd c:/program files/microchip/xc32/v4.60/bin/bin/../../lib/gcc/pic32c/8.3.1/../../../../pic32c/lib/thumb/v6-m/nofp\libc-musl.a(setvbuf.o)
 .debug_info    0x000000000004b695      0x201 c:/program files/microchip/xc32/v4.60/bin/bin/../../lib/gcc/pic32c/8.3.1/../../../../pic32c/lib/thumb/v6-m/nofp\libc-musl.a(__tm_to_secs.o)
 .debug_info    0x000000000004b896      0x109 c:/program files/microchip/xc32/v4.60/bin/bin/../../lib/gcc/pic32c/8.3.1/../../../../pic32c/lib/thumb/v6-m/nofp\libc-musl.a(__year_to_secs.o)
 .debug_info    0x000000000004b99f      0x295 c:/program files/microchip/xc32/v4.60/bin/bin/../../lib/gcc/pic32c/8.3.1/../../../../pic32c/lib/thumb/v6-m/nofp\libc-musl.a(__secs_to_tm.o)
 .debug_info    0x000000000004bc34      0x146 c:/program files/microchip/xc32/v4.60/bin/bin/../../lib/gcc/pic32c/8.3.1/../../../../pic32c/lib/thumb/v6-m/nofp\libc-musl.a(readv.o)
 .debug_info    0x000000000004bd7a      0x21a c:/program files/microchip/xc32/v4.60/bin/bin/../../lib/gcc/pic32c/8.3.1/../../../../pic32c/lib/thumb/v6-m/nofp\libc-musl.a(__int_vsnprintf.o)
 .debug_info    0x000000000004bf94       0xc3 c:/program files/microchip/xc32/v4.60/bin/bin/../../lib/gcc/pic32c/8.3.1/../../../../pic32c/lib/thumb/v6-m/nofp\libc-musl.a(__init_stdio.o)
 .debug_info    0x000000000004c057      0x2ba c:/program files/microchip/xc32/v4.60/bin/bin/../../lib/gcc/pic32c/8.3.1/../../../../pic32c/lib/thumb/v6-m/nofp\libc-musl.a(__out.o)
 .debug_info    0x000000000004c311      0x28d c:/program files/microchip/xc32/v4.60/bin/bin/../../lib/gcc/pic32c/8.3.1/../../../../pic32c/lib/thumb/v6-m/nofp\libc-musl.a(__putc.o)
 .debug_info    0x000000000004c59e      0x3a9 c:/program files/microchip/xc32/v4.60/bin/bin/../../lib/gcc/pic32c/8.3.1/../../../../pic32c/lib/thumb/v6-m/nofp\libc-musl.a(__stderr.o)
 .debug_info    0x000000000004c947      0x3fd c:/program files/microchip/xc32/v4.60/bin/bin/../../lib/gcc/pic32c/8.3.1/../../../../pic32c/lib/thumb/v6-m/nofp\libc-musl.a(__stdio_close.o)
 .debug_info    0x000000000004cd44      0x43e c:/program files/microchip/xc32/v4.60/bin/bin/../../lib/gcc/pic32c/8.3.1/../../../../pic32c/lib/thumb/v6-m/nofp\libc-musl.a(__stdio_write.o)
 .debug_info    0x000000000004d182      0x3a9 c:/program files/microchip/xc32/v4.60/bin/bin/../../lib/gcc/pic32c/8.3.1/../../../../pic32c/lib/thumb/v6-m/nofp\libc-musl.a(__stdout.o)
 .debug_info    0x000000000004d52b      0x275 c:/program files/microchip/xc32/v4.60/bin/bin/../../lib/gcc/pic32c/8.3.1/../../../../pic32c/lib/thumb/v6-m/nofp\libc-musl.a(__towrite.o)
 .debug_info    0x000000000004d7a0       0xbe c:/program files/microchip/xc32/v4.60/bin/bin/../../lib/gcc/pic32c/8.3.1/../../../../pic32c/lib/thumb/v6-m/nofp\libc-musl.a(__month_to_secs.o)
 .debug_info    0x000000000004d85e      0x146 c:/program files/microchip/xc32/v4.60/bin/bin/../../lib/gcc/pic32c/8.3.1/../../../../pic32c/lib/thumb/v6-m/nofp\libc-musl.a(writev.o)
 .debug_info    0x000000000004d9a4      0x388 c:/program files/microchip/xc32/v4.60/bin/bin/../../lib/gcc/pic32c/8.3.1/../../../../pic32c/lib/thumb/v6-m/nofp\libc-musl.a(__overflow.o)
 .debug_info    0x000000000004dd2c      0x2b7 c:/program files/microchip/xc32/v4.60/bin/bin/../../lib/gcc/pic32c/8.3.1/../../../../pic32c/lib/thumb/v6-m/nofp\libc-musl.a(__fwrite.o)
 .debug_info    0x000000000004dfe3       0x26 c:/program files/microchip/xc32/v4.60/bin/bin/../../lib/gcc/pic32c/8.3.1/thumb/v6-m/nofp\libgcc.a(_udivsi3.o)
 .debug_info    0x000000000004e009       0x26 c:/program files/microchip/xc32/v4.60/bin/bin/../../lib/gcc/pic32c/8.3.1/thumb/v6-m/nofp\libgcc.a(_divsi3.o)
 .debug_info    0x000000000004e02f       0x26 c:/program files/microchip/xc32/v4.60/bin/bin/../../lib/gcc/pic32c/8.3.1/thumb/v6-m/nofp\libgcc.a(_dvmd_tls.o)
 .debug_info    0x000000000004e055       0x26 c:/program files/microchip/xc32/v4.60/bin/bin/../../lib/gcc/pic32c/8.3.1/thumb/v6-m/nofp\libgcc.a(_aeabi_ldivmod.o)
 .debug_info    0x000000000004e07b       0x26 c:/program files/microchip/xc32/v4.60/bin/bin/../../lib/gcc/pic32c/8.3.1/thumb/v6-m/nofp\libgcc.a(_aeabi_uldivmod.o)
 .debug_info    0x000000000004e0a1      0x243 c:/program files/microchip/xc32/v4.60/bin/bin/../../lib/gcc/pic32c/8.3.1/thumb/v6-m/nofp\libgcc.a(_muldi3.o)
 .debug_info    0x000000000004e2e4      0x193 c:/program files/microchip/xc32/v4.60/bin/bin/../../lib/gcc/pic32c/8.3.1/thumb/v6-m/nofp\libgcc.a(_udivmoddi4.o)
 .debug_info    0x000000000004e477       0xd5 c:/program files/microchip/xc32/v4.60/bin/bin/../../lib/gcc/pic32c/8.3.1/thumb/v6-m/nofp\libgcc.a(bpabi.o)
 .debug_info    0x000000000004e54c       0x26 c:/program files/microchip/xc32/v4.60/bin/bin/../../lib/gcc/pic32c/8.3.1/thumb/v6-m/nofp\libgcc.a(_lshrdi3.o)
 .debug_info    0x000000000004e572       0x26 c:/program files/microchip/xc32/v4.60/bin/bin/../../lib/gcc/pic32c/8.3.1/thumb/v6-m/nofp\libgcc.a(_ashldi3.o)
 .debug_info    0x000000000004e598       0x26 c:/program files/microchip/xc32/v4.60/bin/bin/../../lib/gcc/pic32c/8.3.1/thumb/v6-m/nofp\libgcc.a(_clzdi2.o)
 .debug_info    0x000000000004e5be      0x2e1 c:/program files/microchip/xc32/v4.60/bin/bin/../../lib/gcc/pic32c/8.3.1/thumb/v6-m/nofp\libgcc.a(_divdi3.o)
 .debug_info    0x000000000004e89f       0x26 c:/program files/microchip/xc32/v4.60/bin/bin/../../lib/gcc/pic32c/8.3.1/thumb/v6-m/nofp\libgcc.a(_clzsi2.o)
 .debug_info    0x000000000004e8c5       0x3f c:/program files/microchip/xc32/v4.60/bin/bin/../../lib/gcc/pic32c/8.3.1/../../../../pic32c/lib/thumb/v6-m/nofp\libpic32c.a(close.o)
 .debug_info    0x000000000004e904       0x3f c:/program files/microchip/xc32/v4.60/bin/bin/../../lib/gcc/pic32c/8.3.1/../../../../pic32c/lib/thumb/v6-m/nofp\libpic32c.a(lseek.o)
 .debug_info    0x000000000004e943       0x6a c:/program files/microchip/xc32/v4.60/bin/bin/../../lib/gcc/pic32c/8.3.1/../../../../pic32c/lib/thumb/v6-m/nofp\libpic32c.a(sbrk.o)
 .debug_info    0x000000000004e9ad       0xbd c:/program files/microchip/xc32/v4.60/bin/bin/../../lib/gcc/pic32c/8.3.1/../../../../pic32c/lib/thumb/v6-m/nofp\libc-size-musl.a(strcpy.o)
 .debug_info    0x000000000004ea6a       0xac c:/program files/microchip/xc32/v4.60/bin/bin/../../lib/gcc/pic32c/8.3.1/../../../../pic32c/lib/thumb/v6-m/nofp\libc-size-musl.a(stpcpy.o)
 .debug_info    0x000000000004eb16       0x3f c:/program files/microchip/xc32/v4.60/bin/bin/../../lib/gcc/pic32c/8.3.1/../../../../pic32c/lib/thumb/v6-m/nofp\libpic32c.a(pic32_data_init_clear.o)
 .debug_info    0x000000000004eb55       0x40 c:/program files/microchip/xc32/v4.60/bin/bin/../../lib/gcc/pic32c/8.3.1/../../../../pic32c/lib/thumb/v6-m/nofp\libpic32c.a(pic32_data_init_copy.o)

.debug_abbrev   0x0000000000000000     0xfb0a
 .debug_abbrev  0x0000000000000000      0x2b2 build/SAMD21_IOT_WG_ICM42688/production/_ext/2048461350/icm42688_sensor.o
 .debug_abbrev  0x00000000000002b2      0x120 build/SAMD21_IOT_WG_ICM42688/production/_ext/171618134/sml_recognition_run.o
 .debug_abbrev  0x00000000000003d2      0x50e build/SAMD21_IOT_WG_ICM42688/production/_ext/1660664302/drv_spi.o
 .debug_abbrev  0x00000000000008e0       0xb1 build/SAMD21_IOT_WG_ICM42688/production/_ext/1164161090/wdrv_winc_gpio.o
 .debug_abbrev  0x0000000000000991       0xa1 build/SAMD21_IOT_WG_ICM42688/production/_ext/1164161090/wdrv_winc_eint.o
 .debug_abbrev  0x0000000000000a32      0x2cc build/SAMD21_IOT_WG_ICM42688/production/_ext/101005277/wdrv_winc_spi.o
 .debug_abbrev  0x0000000000000cfe       0xf9 build/SAMD21_IOT_WG_ICM42688/production/_ext/90265895/nm_common.o
 .debug_abbrev  0x0000000000000df7      0x323 build/SAMD21_IOT_WG_ICM42688/production/_ext/121554788/m2m_ssl.o
 .debug_abbrev  0x000000000000111a      0x522 build/SAMD21_IOT_WG_ICM42688/production/_ext/121554788/m2m_hif.o
 .debug_abbrev  0x000000000000163c      0x49b build/SAMD21_IOT_WG_ICM42688/production/_ext/121554788/m2m_wifi.o
 .debug_abbrev  0x0000000000001ad7      0x400 build/SAMD21_IOT_WG_ICM42688/production/_ext/121554788/nmspi.o
 .debug_abbrev  0x0000000000001ed7      0x268 build/SAMD21_IOT_WG_ICM42688/production/_ext/121554788/nmdrv.o
 .debug_abbrev  0x000000000000213f      0x2bd build/SAMD21_IOT_WG_ICM42688/production/_ext/121554788/m2m_ota.o
 .debug_abbrev  0x00000000000023fc      0x2ab build/SAMD21_IOT_WG_ICM42688/production/_ext/121554788/nmasic.o
 .debug_abbrev  0x00000000000026a7      0x23d build/SAMD21_IOT_WG_ICM42688/production/_ext/121554788/nmbus.o
 .debug_abbrev  0x00000000000028e4      0x43a build/SAMD21_IOT_WG_ICM42688/production/_ext/548032175/socket.o
 .debug_abbrev  0x0000000000002d1e       0x9c build/SAMD21_IOT_WG_ICM42688/production/_ext/548032175/inet_addr.o
 .debug_abbrev  0x0000000000002dba       0xd9 build/SAMD21_IOT_WG_ICM42688/production/_ext/548032175/inet_ntop.o
 .debug_abbrev  0x0000000000002e93       0xfd build/SAMD21_IOT_WG_ICM42688/production/_ext/609036575/flexible_flash.o
 .debug_abbrev  0x0000000000002f90      0x2fa build/SAMD21_IOT_WG_ICM42688/production/_ext/609036575/spi_flash.o
 .debug_abbrev  0x000000000000328a       0xdd build/SAMD21_IOT_WG_ICM42688/production/_ext/1784303044/wdrv_winc_osal.o
 .debug_abbrev  0x0000000000003367      0x32f build/SAMD21_IOT_WG_ICM42688/production/_ext/907429946/wdrv_winc_sta.o
 .debug_abbrev  0x0000000000003696      0x386 build/SAMD21_IOT_WG_ICM42688/production/_ext/907429946/wdrv_winc_socket.o
 .debug_abbrev  0x0000000000003a1c      0x28e build/SAMD21_IOT_WG_ICM42688/production/_ext/907429946/wdrv_winc_systime.o
 .debug_abbrev  0x0000000000003caa      0x275 build/SAMD21_IOT_WG_ICM42688/production/_ext/907429946/wdrv_winc_authctx.o
 .debug_abbrev  0x0000000000003f1f      0x3d2 build/SAMD21_IOT_WG_ICM42688/production/_ext/907429946/wdrv_winc_host_file.o
 .debug_abbrev  0x00000000000042f1      0x513 build/SAMD21_IOT_WG_ICM42688/production/_ext/907429946/wdrv_winc.o
 .debug_abbrev  0x0000000000004804      0x24f build/SAMD21_IOT_WG_ICM42688/production/_ext/907429946/wdrv_winc_bssctx.o
 .debug_abbrev  0x0000000000004a53      0x14a build/SAMD21_IOT_WG_ICM42688/production/_ext/1750425231/plib_clock.o
 .debug_abbrev  0x0000000000004b9d      0x2ff build/SAMD21_IOT_WG_ICM42688/production/_ext/1580516298/plib_dmac.o
 .debug_abbrev  0x0000000000004e9c      0x19b build/SAMD21_IOT_WG_ICM42688/production/_ext/503204096/plib_eic.o
 .debug_abbrev  0x0000000000005037      0x302 build/SAMD21_IOT_WG_ICM42688/production/_ext/1580823105/plib_nvic.o
 .debug_abbrev  0x0000000000005339      0x1a4 build/SAMD21_IOT_WG_ICM42688/production/_ext/11470383/plib_nvmctrl.o
 .debug_abbrev  0x00000000000054dd      0x1e6 build/SAMD21_IOT_WG_ICM42688/production/_ext/1580876256/plib_port.o
 .debug_abbrev  0x00000000000056c3      0x25a build/SAMD21_IOT_WG_ICM42688/production/_ext/1014017276/plib_sercom0_spi_master.o
 .debug_abbrev  0x000000000000591d      0x2fe build/SAMD21_IOT_WG_ICM42688/production/_ext/1014017276/plib_sercom2_spi_master.o
 .debug_abbrev  0x0000000000005c1b      0x2fa build/SAMD21_IOT_WG_ICM42688/production/_ext/177673482/plib_sercom5_usart.o
 .debug_abbrev  0x0000000000005f15      0x10e build/SAMD21_IOT_WG_ICM42688/production/_ext/223004715/plib_systick.o
 .debug_abbrev  0x0000000000006023      0x1bc build/SAMD21_IOT_WG_ICM42688/production/_ext/399410062/plib_tc3.o
 .debug_abbrev  0x00000000000061df      0x1bc build/SAMD21_IOT_WG_ICM42688/production/_ext/399410062/plib_tc4.o
 .debug_abbrev  0x000000000000639b       0xe3 build/SAMD21_IOT_WG_ICM42688/production/_ext/1357625803/xc32_monitor.o
 .debug_abbrev  0x000000000000647e       0xfb build/SAMD21_IOT_WG_ICM42688/production/_ext/1584719636/sys_dma.o
 .debug_abbrev  0x0000000000006579      0x260 build/SAMD21_IOT_WG_ICM42688/production/_ext/1318297016/sys_int.o
 .debug_abbrev  0x00000000000067d9      0x565 build/SAMD21_IOT_WG_ICM42688/production/_ext/386530258/sys_time.o
 .debug_abbrev  0x0000000000006d3e      0x294 build/SAMD21_IOT_WG_ICM42688/production/_ext/1832905403/initialization.o
 .debug_abbrev  0x0000000000006fd2       0xe3 build/SAMD21_IOT_WG_ICM42688/production/_ext/1832905403/interrupts.o
 .debug_abbrev  0x00000000000070b5       0x47 build/SAMD21_IOT_WG_ICM42688/production/_ext/1832905403/exceptions.o
 .debug_abbrev  0x00000000000070fc      0x118 build/SAMD21_IOT_WG_ICM42688/production/_ext/1832905403/startup_xc32.o
 .debug_abbrev  0x0000000000007214       0x74 build/SAMD21_IOT_WG_ICM42688/production/_ext/1832905403/tasks.o
 .debug_abbrev  0x0000000000007288      0x47c build/SAMD21_IOT_WG_ICM42688/production/_ext/1341251756/Icm426xxDriver_HL.o
 .debug_abbrev  0x0000000000007704      0x23d build/SAMD21_IOT_WG_ICM42688/production/_ext/1341251756/Icm426xxTransport.o
 .debug_abbrev  0x0000000000007941       0xef build/SAMD21_IOT_WG_ICM42688/production/_ext/596309756/dsp_dtw_distance.o
 .debug_abbrev  0x0000000000007a30       0xc8 build/SAMD21_IOT_WG_ICM42688/production/_ext/596309756/dsp_l1_distance.o
 .debug_abbrev  0x0000000000007af8       0xf0 build/SAMD21_IOT_WG_ICM42688/production/_ext/596309756/dsp_lsup_distance.o
 .debug_abbrev  0x0000000000007be8      0x152 build/SAMD21_IOT_WG_ICM42688/production/_ext/596309756/fg_amplitude_global_p2p_low_frequency.o
 .debug_abbrev  0x0000000000007d3a      0x131 build/SAMD21_IOT_WG_ICM42688/production/_ext/596309756/fg_amplitude_peak_to_peak.o
 .debug_abbrev  0x0000000000007e6b      0x13e build/SAMD21_IOT_WG_ICM42688/production/_ext/596309756/fg_area_absolute_area_low_frequency.o
 .debug_abbrev  0x0000000000007fa9      0x10c build/SAMD21_IOT_WG_ICM42688/production/_ext/596309756/fg_cross_p2p_difference.o
 .debug_abbrev  0x00000000000080b5      0x134 build/SAMD21_IOT_WG_ICM42688/production/_ext/596309756/fg_sampling_downsample.o
 .debug_abbrev  0x00000000000081e9      0x134 build/SAMD21_IOT_WG_ICM42688/production/_ext/596309756/fg_stats_abs_mean.o
 .debug_abbrev  0x000000000000831d      0x10c build/SAMD21_IOT_WG_ICM42688/production/_ext/596309756/fg_stats_minimum.o
 .debug_abbrev  0x0000000000008429      0x503 build/SAMD21_IOT_WG_ICM42688/production/_ext/596309756/kb.o
 .debug_abbrev  0x000000000000892c      0x1cd build/SAMD21_IOT_WG_ICM42688/production/_ext/596309756/kb_output.o
 .debug_abbrev  0x0000000000008af9      0x1b5 build/SAMD21_IOT_WG_ICM42688/production/_ext/596309756/kb_pipeline.o
 .debug_abbrev  0x0000000000008cae      0x1b5 build/SAMD21_IOT_WG_ICM42688/production/_ext/596309756/ma_symmetric.o
 .debug_abbrev  0x0000000000008e63       0xfb build/SAMD21_IOT_WG_ICM42688/production/_ext/596309756/mean.o
 .debug_abbrev  0x0000000000008f5e      0x3b5 build/SAMD21_IOT_WG_ICM42688/production/_ext/596309756/pme.o
 .debug_abbrev  0x0000000000009313       0xef build/SAMD21_IOT_WG_ICM42688/production/_ext/596309756/pme_trained_neurons.o
 .debug_abbrev  0x0000000000009402      0x2a8 build/SAMD21_IOT_WG_ICM42688/production/_ext/596309756/rb.o
 .debug_abbrev  0x00000000000096aa       0xf4 build/SAMD21_IOT_WG_ICM42688/production/_ext/596309756/save_sensor_data.o
 .debug_abbrev  0x000000000000979e      0x10e build/SAMD21_IOT_WG_ICM42688/production/_ext/596309756/sf_downsample_by_averaging.o
 .debug_abbrev  0x00000000000098ac       0xfa build/SAMD21_IOT_WG_ICM42688/production/_ext/596309756/sg_windowing.o
 .debug_abbrev  0x00000000000099a6       0x98 build/SAMD21_IOT_WG_ICM42688/production/_ext/596309756/sortarray.o
 .debug_abbrev  0x0000000000009a3e      0x11e build/SAMD21_IOT_WG_ICM42688/production/_ext/596309756/sorted_copy.o
 .debug_abbrev  0x0000000000009b5c      0x116 build/SAMD21_IOT_WG_ICM42688/production/_ext/596309756/tr_min_max_scale.o
 .debug_abbrev  0x0000000000009c72       0xa7 build/SAMD21_IOT_WG_ICM42688/production/_ext/596309756/utils_array_max_uint8.o
 .debug_abbrev  0x0000000000009d19       0x8c build/SAMD21_IOT_WG_ICM42688/production/_ext/596309756/utils_bitwise_abs_val.o
 .debug_abbrev  0x0000000000009da5       0xce build/SAMD21_IOT_WG_ICM42688/production/_ext/596309756/utils_buffer_abssum.o
 .debug_abbrev  0x0000000000009e73      0x133 build/SAMD21_IOT_WG_ICM42688/production/_ext/596309756/utils_buffer_cumsum.o
 .debug_abbrev  0x0000000000009fa6       0xdc build/SAMD21_IOT_WG_ICM42688/production/_ext/596309756/utils_buffer_min_max.o
 .debug_abbrev  0x000000000000a082      0x129 build/SAMD21_IOT_WG_ICM42688/production/_ext/596309756/utils_model_cross_difference.o
 .debug_abbrev  0x000000000000a1ab      0x121 build/SAMD21_IOT_WG_ICM42688/production/_ext/596309756/utils_model_stats_max_min.o
 .debug_abbrev  0x000000000000a2cc       0xb9 build/SAMD21_IOT_WG_ICM42688/production/_ext/596309756/utils_tr_sensor.o
 .debug_abbrev  0x000000000000a385      0x44d build/SAMD21_IOT_WG_ICM42688/production/_ext/1360937237/main.o
 .debug_abbrev  0x000000000000a7d2      0x213 build/SAMD21_IOT_WG_ICM42688/production/_ext/1360937237/ringbuffer.o
 .debug_abbrev  0x000000000000a9e5      0x17b build/SAMD21_IOT_WG_ICM42688/production/_ext/1360937237/app.o
 .debug_abbrev  0x000000000000ab60      0x31d build/SAMD21_IOT_WG_ICM42688/production/_ext/1360937237/ws2812.o
 .debug_abbrev  0x000000000000ae7d      0x2c6 build/SAMD21_IOT_WG_ICM42688/production/_ext/1360937237/winc1500_udp_client.o
 .debug_abbrev  0x000000000000b143       0x44 c:/program files/microchip/xc32/v4.60/bin/bin/../../lib/gcc/pic32c/8.3.1/../../../../pic32c/lib/thumb/v6-m/nofp\libpic32c.a(data_init.o)
 .debug_abbrev  0x000000000000b187       0xbb c:/program files/microchip/xc32/v4.60/bin/bin/../../lib/gcc/pic32c/8.3.1/../../../../pic32c/lib/thumb/v6-m/nofp\libc-size-musl.a(memcpy.o)
 .debug_abbrev  0x000000000000b242       0xa2 c:/program files/microchip/xc32/v4.60/bin/bin/../../lib/gcc/pic32c/8.3.1/../../../../pic32c/lib/thumb/v6-m/nofp\libc-size-musl.a(memset.o)
 .debug_abbrev  0x000000000000b2e4       0x91 c:/program files/microchip/xc32/v4.60/bin/bin/../../lib/gcc/pic32c/8.3.1/../../../../pic32c/lib/thumb/v6-m/nofp\libc-size-musl.a(strlen.o)
 .debug_abbrev  0x000000000000b375       0xad c:/program files/microchip/xc32/v4.60/bin/bin/../../lib/gcc/pic32c/8.3.1/../../../../pic32c/lib/thumb/v6-m/nofp\libc-size-musl.a(strchr.o)
 .debug_abbrev  0x000000000000b422       0xbc c:/program files/microchip/xc32/v4.60/bin/bin/../../lib/gcc/pic32c/8.3.1/../../../../pic32c/lib/thumb/v6-m/nofp\libc-size-musl.a(strchrnul.o)
 .debug_abbrev  0x000000000000b4de       0xb1 c:/program files/microchip/xc32/v4.60/bin/bin/../../lib/gcc/pic32c/8.3.1/../../../../pic32c/lib/thumb/v6-m/nofp\libc-size-musl.a(strnlen.o)
 .debug_abbrev  0x000000000000b58f       0xb1 c:/program files/microchip/xc32/v4.60/bin/bin/../../lib/gcc/pic32c/8.3.1/../../../../pic32c/lib/thumb/v6-m/nofp\libc-size-musl.a(memchr.o)
 .debug_abbrev  0x000000000000b640       0xc0 c:/program files/microchip/xc32/v4.60/bin/bin/../../lib/gcc/pic32c/8.3.1/../../../../pic32c/lib/thumb/v6-m/nofp\liblmalloc-musl.a(lite_calloc.o)
 .debug_abbrev  0x000000000000b700      0x18b c:/program files/microchip/xc32/v4.60/bin/bin/../../lib/gcc/pic32c/8.3.1/../../../../pic32c/lib/thumb/v6-m/nofp\liblmalloc-musl.a(lite_free.o)
 .debug_abbrev  0x000000000000b88b      0x117 c:/program files/microchip/xc32/v4.60/bin/bin/../../lib/gcc/pic32c/8.3.1/../../../../pic32c/lib/thumb/v6-m/nofp\liblmalloc-musl.a(lite_malloc.o)
 .debug_abbrev  0x000000000000b9a2      0x133 c:/program files/microchip/xc32/v4.60/bin/bin/../../lib/gcc/pic32c/8.3.1/../../../../pic32c/lib/thumb/v6-m/nofp\libc-musl.a(__libc_start_main.o)
 .debug_abbrev  0x000000000000bad5       0x39 c:/program files/microchip/xc32/v4.60/bin/bin/../../lib/gcc/pic32c/8.3.1/../../../../pic32c/lib/thumb/v6-m/nofp\libc-musl.a(__errno_location.o)
 .debug_abbrev  0x000000000000bb0e       0xd4 c:/program files/microchip/xc32/v4.60/bin/bin/../../lib/gcc/pic32c/8.3.1/../../../../pic32c/lib/thumb/v6-m/nofp\libc-musl.a(libc.o)
 .debug_abbrev  0x000000000000bbe2       0xc4 c:/program files/microchip/xc32/v4.60/bin/bin/../../lib/gcc/pic32c/8.3.1/../../../../pic32c/lib/thumb/v6-m/nofp\libc-musl.a(expand_heap.o)
 .debug_abbrev  0x000000000000bca6      0x142 c:/program files/microchip/xc32/v4.60/bin/bin/../../lib/gcc/pic32c/8.3.1/../../../../pic32c/lib/thumb/v6-m/nofp\libc-musl.a(__sio_printf_cdeEfFgGnpsuxX.o)
 .debug_abbrev  0x000000000000bde8      0x12b c:/program files/microchip/xc32/v4.60/bin/bin/../../lib/gcc/pic32c/8.3.1/../../../../pic32c/lib/thumb/v6-m/nofp\libc-musl.a(__sio_sprintf_cdeEfFgGnpsuxX.o)
 .debug_abbrev  0x000000000000bf13      0x161 c:/program files/microchip/xc32/v4.60/bin/bin/../../lib/gcc/pic32c/8.3.1/../../../../pic32c/lib/thumb/v6-m/nofp\libc-musl.a(__fmt_d.o)
 .debug_abbrev  0x000000000000c074      0x1e3 c:/program files/microchip/xc32/v4.60/bin/bin/../../lib/gcc/pic32c/8.3.1/../../../../pic32c/lib/thumb/v6-m/nofp\libc-musl.a(__fmt_fp.o)
 .debug_abbrev  0x000000000000c257      0x15e c:/program files/microchip/xc32/v4.60/bin/bin/../../lib/gcc/pic32c/8.3.1/../../../../pic32c/lib/thumb/v6-m/nofp\libc-musl.a(__fmt_s.o)
 .debug_abbrev  0x000000000000c3b5      0x161 c:/program files/microchip/xc32/v4.60/bin/bin/../../lib/gcc/pic32c/8.3.1/../../../../pic32c/lib/thumb/v6-m/nofp\libc-musl.a(__fmt_u.o)
 .debug_abbrev  0x000000000000c516      0x150 c:/program files/microchip/xc32/v4.60/bin/bin/../../lib/gcc/pic32c/8.3.1/../../../../pic32c/lib/thumb/v6-m/nofp\libc-musl.a(__fmt_x.o)
 .debug_abbrev  0x000000000000c666       0xdc c:/program files/microchip/xc32/v4.60/bin/bin/../../lib/gcc/pic32c/8.3.1/../../../../pic32c/lib/thumb/v6-m/nofp\libc-musl.a(__pop_float.o)
 .debug_abbrev  0x000000000000c742       0xdc c:/program files/microchip/xc32/v4.60/bin/bin/../../lib/gcc/pic32c/8.3.1/../../../../pic32c/lib/thumb/v6-m/nofp\libc-musl.a(__pop_int.o)
 .debug_abbrev  0x000000000000c81e       0xdc c:/program files/microchip/xc32/v4.60/bin/bin/../../lib/gcc/pic32c/8.3.1/../../../../pic32c/lib/thumb/v6-m/nofp\libc-musl.a(__pop_ptr.o)
 .debug_abbrev  0x000000000000c8fa      0x317 c:/program files/microchip/xc32/v4.60/bin/bin/../../lib/gcc/pic32c/8.3.1/../../../../pic32c/lib/thumb/v6-m/nofp\libc-musl.a(__printf_core.o)
 .debug_abbrev  0x000000000000cc11      0x1b3 c:/program files/microchip/xc32/v4.60/bin/bin/../../lib/gcc/pic32c/8.3.1/../../../../pic32c/lib/thumb/v6-m/nofp\libc-musl.a(stdin.o)
 .debug_abbrev  0x000000000000cdc4      0x145 c:/program files/microchip/xc32/v4.60/bin/bin/../../lib/gcc/pic32c/8.3.1/../../../../pic32c/lib/thumb/v6-m/nofp\libc-musl.a(stdout.o)
 .debug_abbrev  0x000000000000cf09       0xc4 c:/program files/microchip/xc32/v4.60/bin/bin/../../lib/gcc/pic32c/8.3.1/../../../../pic32c/lib/thumb/v6-m/nofp\libc-musl.a(putchar.o)
 .debug_abbrev  0x000000000000cfcd      0x159 c:/program files/microchip/xc32/v4.60/bin/bin/../../lib/gcc/pic32c/8.3.1/../../../../pic32c/lib/thumb/v6-m/nofp\libc-musl.a(puts.o)
 .debug_abbrev  0x000000000000d126       0xa8 c:/program files/microchip/xc32/v4.60/bin/bin/../../lib/gcc/pic32c/8.3.1/../../../../pic32c/lib/thumb/v6-m/nofp\libc-musl.a(setbuf.o)
 .debug_abbrev  0x000000000000d1ce       0xc6 c:/program files/microchip/xc32/v4.60/bin/bin/../../lib/gcc/pic32c/8.3.1/../../../../pic32c/lib/thumb/v6-m/nofp\libc-musl.a(atoi.o)
 .debug_abbrev  0x000000000000d294       0xdb c:/program files/microchip/xc32/v4.60/bin/bin/../../lib/gcc/pic32c/8.3.1/../../../../pic32c/lib/thumb/v6-m/nofp\libc-musl.a(gmtime.o)
 .debug_abbrev  0x000000000000d36f       0xdd c:/program files/microchip/xc32/v4.60/bin/bin/../../lib/gcc/pic32c/8.3.1/../../../../pic32c/lib/thumb/v6-m/nofp\libc-musl.a(gmtime_r.o)
 .debug_abbrev  0x000000000000d44c      0x130 c:/program files/microchip/xc32/v4.60/bin/bin/../../lib/gcc/pic32c/8.3.1/../../../../pic32c/lib/thumb/v6-m/nofp\libc-musl.a(mktime.o)
 .debug_abbrev  0x000000000000d57c       0xf4 c:/program files/microchip/xc32/v4.60/bin/bin/../../lib/gcc/pic32c/8.3.1/../../../../pic32c/lib/thumb/v6-m/nofp\libc-musl.a(tolower.o)
 .debug_abbrev  0x000000000000d670       0xf4 c:/program files/microchip/xc32/v4.60/bin/bin/../../lib/gcc/pic32c/8.3.1/../../../../pic32c/lib/thumb/v6-m/nofp\libc-musl.a(toupper.o)
 .debug_abbrev  0x000000000000d764       0x62 c:/program files/microchip/xc32/v4.60/bin/bin/../../lib/gcc/pic32c/8.3.1/../../../../pic32c/lib/thumb/v6-m/nofp\libc-musl.a(__environ.o)
 .debug_abbrev  0x000000000000d7c6      0x132 c:/program files/microchip/xc32/v4.60/bin/bin/../../lib/gcc/pic32c/8.3.1/../../../../pic32c/lib/thumb/v6-m/nofp\libc-musl.a(__int_vfprintf.o)
 .debug_abbrev  0x000000000000d8f8       0xcb c:/program files/microchip/xc32/v4.60/bin/bin/../../lib/gcc/pic32c/8.3.1/../../../../pic32c/lib/thumb/v6-m/nofp\libc-musl.a(__int_vsprintf.o)
 .debug_abbrev  0x000000000000d9c3      0x146 c:/program files/microchip/xc32/v4.60/bin/bin/../../lib/gcc/pic32c/8.3.1/../../../../pic32c/lib/thumb/v6-m/nofp\libc-musl.a(fputs.o)
 .debug_abbrev  0x000000000000db09       0xf3 c:/program files/microchip/xc32/v4.60/bin/bin/../../lib/gcc/pic32c/8.3.1/../../../../pic32c/lib/thumb/v6-m/nofp\libc-musl.a(__cvt_u.o)
 .debug_abbrev  0x000000000000dbfc      0x16c c:/program files/microchip/xc32/v4.60/bin/bin/../../lib/gcc/pic32c/8.3.1/../../../../pic32c/lib/thumb/v6-m/nofp\libc-musl.a(__stdio_read.o)
 .debug_abbrev  0x000000000000dd68       0xf8 c:/program files/microchip/xc32/v4.60/bin/bin/../../lib/gcc/pic32c/8.3.1/../../../../pic32c/lib/thumb/v6-m/nofp\libc-musl.a(__towrite_rw.o)
 .debug_abbrev  0x000000000000de60      0x13c c:/program files/microchip/xc32/v4.60/bin/bin/../../lib/gcc/pic32c/8.3.1/../../../../pic32c/lib/thumb/v6-m/nofp\libc-musl.a(fwrite.o)
 .debug_abbrev  0x000000000000df9c      0x122 c:/program files/microchip/xc32/v4.60/bin/bin/../../lib/gcc/pic32c/8.3.1/../../../../pic32c/lib/thumb/v6-m/nofp\libc-musl.a(putc.o)
 .debug_abbrev  0x000000000000e0be      0x135 c:/program files/microchip/xc32/v4.60/bin/bin/../../lib/gcc/pic32c/8.3.1/../../../../pic32c/lib/thumb/v6-m/nofp\libc-musl.a(setvbuf.o)
 .debug_abbrev  0x000000000000e1f3      0x10c c:/program files/microchip/xc32/v4.60/bin/bin/../../lib/gcc/pic32c/8.3.1/../../../../pic32c/lib/thumb/v6-m/nofp\libc-musl.a(__tm_to_secs.o)
 .debug_abbrev  0x000000000000e2ff       0x96 c:/program files/microchip/xc32/v4.60/bin/bin/../../lib/gcc/pic32c/8.3.1/../../../../pic32c/lib/thumb/v6-m/nofp\libc-musl.a(__year_to_secs.o)
 .debug_abbrev  0x000000000000e395       0xc7 c:/program files/microchip/xc32/v4.60/bin/bin/../../lib/gcc/pic32c/8.3.1/../../../../pic32c/lib/thumb/v6-m/nofp\libc-musl.a(__secs_to_tm.o)
 .debug_abbrev  0x000000000000e45c       0xf7 c:/program files/microchip/xc32/v4.60/bin/bin/../../lib/gcc/pic32c/8.3.1/../../../../pic32c/lib/thumb/v6-m/nofp\libc-musl.a(readv.o)
 .debug_abbrev  0x000000000000e553      0x154 c:/program files/microchip/xc32/v4.60/bin/bin/../../lib/gcc/pic32c/8.3.1/../../../../pic32c/lib/thumb/v6-m/nofp\libc-musl.a(__int_vsnprintf.o)
 .debug_abbrev  0x000000000000e6a7       0x65 c:/program files/microchip/xc32/v4.60/bin/bin/../../lib/gcc/pic32c/8.3.1/../../../../pic32c/lib/thumb/v6-m/nofp\libc-musl.a(__init_stdio.o)
 .debug_abbrev  0x000000000000e70c      0x177 c:/program files/microchip/xc32/v4.60/bin/bin/../../lib/gcc/pic32c/8.3.1/../../../../pic32c/lib/thumb/v6-m/nofp\libc-musl.a(__out.o)
 .debug_abbrev  0x000000000000e883      0x109 c:/program files/microchip/xc32/v4.60/bin/bin/../../lib/gcc/pic32c/8.3.1/../../../../pic32c/lib/thumb/v6-m/nofp\libc-musl.a(__putc.o)
 .debug_abbrev  0x000000000000e98c      0x17e c:/program files/microchip/xc32/v4.60/bin/bin/../../lib/gcc/pic32c/8.3.1/../../../../pic32c/lib/thumb/v6-m/nofp\libc-musl.a(__stderr.o)
 .debug_abbrev  0x000000000000eb0a      0x14f c:/program files/microchip/xc32/v4.60/bin/bin/../../lib/gcc/pic32c/8.3.1/../../../../pic32c/lib/thumb/v6-m/nofp\libc-musl.a(__stdio_close.o)
 .debug_abbrev  0x000000000000ec59      0x1bd c:/program files/microchip/xc32/v4.60/bin/bin/../../lib/gcc/pic32c/8.3.1/../../../../pic32c/lib/thumb/v6-m/nofp\libc-musl.a(__stdio_write.o)
 .debug_abbrev  0x000000000000ee16      0x17e c:/program files/microchip/xc32/v4.60/bin/bin/../../lib/gcc/pic32c/8.3.1/../../../../pic32c/lib/thumb/v6-m/nofp\libc-musl.a(__stdout.o)
 .debug_abbrev  0x000000000000ef94      0x114 c:/program files/microchip/xc32/v4.60/bin/bin/../../lib/gcc/pic32c/8.3.1/../../../../pic32c/lib/thumb/v6-m/nofp\libc-musl.a(__towrite.o)
 .debug_abbrev  0x000000000000f0a8       0xad c:/program files/microchip/xc32/v4.60/bin/bin/../../lib/gcc/pic32c/8.3.1/../../../../pic32c/lib/thumb/v6-m/nofp\libc-musl.a(__month_to_secs.o)
 .debug_abbrev  0x000000000000f155       0xf7 c:/program files/microchip/xc32/v4.60/bin/bin/../../lib/gcc/pic32c/8.3.1/../../../../pic32c/lib/thumb/v6-m/nofp\libc-musl.a(writev.o)
 .debug_abbrev  0x000000000000f24c      0x141 c:/program files/microchip/xc32/v4.60/bin/bin/../../lib/gcc/pic32c/8.3.1/../../../../pic32c/lib/thumb/v6-m/nofp\libc-musl.a(__overflow.o)
 .debug_abbrev  0x000000000000f38d      0x121 c:/program files/microchip/xc32/v4.60/bin/bin/../../lib/gcc/pic32c/8.3.1/../../../../pic32c/lib/thumb/v6-m/nofp\libc-musl.a(__fwrite.o)
 .debug_abbrev  0x000000000000f4ae       0x14 c:/program files/microchip/xc32/v4.60/bin/bin/../../lib/gcc/pic32c/8.3.1/thumb/v6-m/nofp\libgcc.a(_udivsi3.o)
 .debug_abbrev  0x000000000000f4c2       0x14 c:/program files/microchip/xc32/v4.60/bin/bin/../../lib/gcc/pic32c/8.3.1/thumb/v6-m/nofp\libgcc.a(_divsi3.o)
 .debug_abbrev  0x000000000000f4d6       0x14 c:/program files/microchip/xc32/v4.60/bin/bin/../../lib/gcc/pic32c/8.3.1/thumb/v6-m/nofp\libgcc.a(_dvmd_tls.o)
 .debug_abbrev  0x000000000000f4ea       0x14 c:/program files/microchip/xc32/v4.60/bin/bin/../../lib/gcc/pic32c/8.3.1/thumb/v6-m/nofp\libgcc.a(_aeabi_ldivmod.o)
 .debug_abbrev  0x000000000000f4fe       0x14 c:/program files/microchip/xc32/v4.60/bin/bin/../../lib/gcc/pic32c/8.3.1/thumb/v6-m/nofp\libgcc.a(_aeabi_uldivmod.o)
 .debug_abbrev  0x000000000000f512      0x10b c:/program files/microchip/xc32/v4.60/bin/bin/../../lib/gcc/pic32c/8.3.1/thumb/v6-m/nofp\libgcc.a(_muldi3.o)
 .debug_abbrev  0x000000000000f61d       0x99 c:/program files/microchip/xc32/v4.60/bin/bin/../../lib/gcc/pic32c/8.3.1/thumb/v6-m/nofp\libgcc.a(_udivmoddi4.o)
 .debug_abbrev  0x000000000000f6b6       0xaa c:/program files/microchip/xc32/v4.60/bin/bin/../../lib/gcc/pic32c/8.3.1/thumb/v6-m/nofp\libgcc.a(bpabi.o)
 .debug_abbrev  0x000000000000f760       0x14 c:/program files/microchip/xc32/v4.60/bin/bin/../../lib/gcc/pic32c/8.3.1/thumb/v6-m/nofp\libgcc.a(_lshrdi3.o)
 .debug_abbrev  0x000000000000f774       0x14 c:/program files/microchip/xc32/v4.60/bin/bin/../../lib/gcc/pic32c/8.3.1/thumb/v6-m/nofp\libgcc.a(_ashldi3.o)
 .debug_abbrev  0x000000000000f788       0x14 c:/program files/microchip/xc32/v4.60/bin/bin/../../lib/gcc/pic32c/8.3.1/thumb/v6-m/nofp\libgcc.a(_clzdi2.o)
 .debug_abbrev  0x000000000000f79c      0x14e c:/program files/microchip/xc32/v4.60/bin/bin/../../lib/gcc/pic32c/8.3.1/thumb/v6-m/nofp\libgcc.a(_divdi3.o)
 .debug_abbrev  0x000000000000f8ea       0x14 c:/program files/microchip/xc32/v4.60/bin/bin/../../lib/gcc/pic32c/8.3.1/thumb/v6-m/nofp\libgcc.a(_clzsi2.o)
 .debug_abbrev  0x000000000000f8fe       0x2e c:/program files/microchip/xc32/v4.60/bin/bin/../../lib/gcc/pic32c/8.3.1/../../../../pic32c/lib/thumb/v6-m/nofp\libpic32c.a(close.o)
 .debug_abbrev  0x000000000000f92c       0x2e c:/program files/microchip/xc32/v4.60/bin/bin/../../lib/gcc/pic32c/8.3.1/../../../../pic32c/lib/thumb/v6-m/nofp\libpic32c.a(lseek.o)
 .debug_abbrev  0x000000000000f95a       0x44 c:/program files/microchip/xc32/v4.60/bin/bin/../../lib/gcc/pic32c/8.3.1/../../../../pic32c/lib/thumb/v6-m/nofp\libpic32c.a(sbrk.o)
 .debug_abbrev  0x000000000000f99e       0xa2 c:/program files/microchip/xc32/v4.60/bin/bin/../../lib/gcc/pic32c/8.3.1/../../../../pic32c/lib/thumb/v6-m/nofp\libc-size-musl.a(strcpy.o)
 .debug_abbrev  0x000000000000fa40       0x6e c:/program files/microchip/xc32/v4.60/bin/bin/../../lib/gcc/pic32c/8.3.1/../../../../pic32c/lib/thumb/v6-m/nofp\libc-size-musl.a(stpcpy.o)
 .debug_abbrev  0x000000000000faae       0x2e c:/program files/microchip/xc32/v4.60/bin/bin/../../lib/gcc/pic32c/8.3.1/../../../../pic32c/lib/thumb/v6-m/nofp\libpic32c.a(pic32_data_init_clear.o)
 .debug_abbrev  0x000000000000fadc       0x2e c:/program files/microchip/xc32/v4.60/bin/bin/../../lib/gcc/pic32c/8.3.1/../../../../pic32c/lib/thumb/v6-m/nofp\libpic32c.a(pic32_data_init_copy.o)

.debug_loc      0x0000000000000000    0x33521
 .debug_loc     0x0000000000000000      0x44d build/SAMD21_IOT_WG_ICM42688/production/_ext/2048461350/icm42688_sensor.o
 .debug_loc     0x000000000000044d      0x10f build/SAMD21_IOT_WG_ICM42688/production/_ext/171618134/sml_recognition_run.o
 .debug_loc     0x000000000000055c     0x257f build/SAMD21_IOT_WG_ICM42688/production/_ext/1660664302/drv_spi.o
 .debug_loc     0x0000000000002adb       0xbc build/SAMD21_IOT_WG_ICM42688/production/_ext/1164161090/wdrv_winc_eint.o
 .debug_loc     0x0000000000002b97      0x733 build/SAMD21_IOT_WG_ICM42688/production/_ext/101005277/wdrv_winc_spi.o
 .debug_loc     0x00000000000032ca       0xa8 build/SAMD21_IOT_WG_ICM42688/production/_ext/90265895/nm_common.o
 .debug_loc     0x0000000000003372      0xbd4 build/SAMD21_IOT_WG_ICM42688/production/_ext/121554788/m2m_ssl.o
 .debug_loc     0x0000000000003f46      0xc5c build/SAMD21_IOT_WG_ICM42688/production/_ext/121554788/m2m_hif.o
 .debug_loc     0x0000000000004ba2     0x3dba build/SAMD21_IOT_WG_ICM42688/production/_ext/121554788/m2m_wifi.o
 .debug_loc     0x000000000000895c     0x1a6c build/SAMD21_IOT_WG_ICM42688/production/_ext/121554788/nmspi.o
 .debug_loc     0x000000000000a3c8      0x7f5 build/SAMD21_IOT_WG_ICM42688/production/_ext/121554788/nmdrv.o
 .debug_loc     0x000000000000abbd      0xf00 build/SAMD21_IOT_WG_ICM42688/production/_ext/121554788/m2m_ota.o
 .debug_loc     0x000000000000babd      0xd2c build/SAMD21_IOT_WG_ICM42688/production/_ext/121554788/nmasic.o
 .debug_loc     0x000000000000c7e9      0x5fa build/SAMD21_IOT_WG_ICM42688/production/_ext/121554788/nmbus.o
 .debug_loc     0x000000000000cde3     0x222c build/SAMD21_IOT_WG_ICM42688/production/_ext/548032175/socket.o
 .debug_loc     0x000000000000f00f      0x1da build/SAMD21_IOT_WG_ICM42688/production/_ext/548032175/inet_addr.o
 .debug_loc     0x000000000000f1e9      0x2cb build/SAMD21_IOT_WG_ICM42688/production/_ext/548032175/inet_ntop.o
 .debug_loc     0x000000000000f4b4      0x27a build/SAMD21_IOT_WG_ICM42688/production/_ext/609036575/flexible_flash.o
 .debug_loc     0x000000000000f72e      0xfb3 build/SAMD21_IOT_WG_ICM42688/production/_ext/609036575/spi_flash.o
 .debug_loc     0x00000000000106e1       0x51 build/SAMD21_IOT_WG_ICM42688/production/_ext/1784303044/wdrv_winc_osal.o
 .debug_loc     0x0000000000010732      0x8a6 build/SAMD21_IOT_WG_ICM42688/production/_ext/907429946/wdrv_winc_sta.o
 .debug_loc     0x0000000000010fd8     0x1540 build/SAMD21_IOT_WG_ICM42688/production/_ext/907429946/wdrv_winc_socket.o
 .debug_loc     0x0000000000012518      0x558 build/SAMD21_IOT_WG_ICM42688/production/_ext/907429946/wdrv_winc_systime.o
 .debug_loc     0x0000000000012a70      0xd6b build/SAMD21_IOT_WG_ICM42688/production/_ext/907429946/wdrv_winc_authctx.o
 .debug_loc     0x00000000000137db     0x18d5 build/SAMD21_IOT_WG_ICM42688/production/_ext/907429946/wdrv_winc_host_file.o
 .debug_loc     0x00000000000150b0     0x2822 build/SAMD21_IOT_WG_ICM42688/production/_ext/907429946/wdrv_winc.o
 .debug_loc     0x00000000000178d2      0x597 build/SAMD21_IOT_WG_ICM42688/production/_ext/907429946/wdrv_winc_bssctx.o
 .debug_loc     0x0000000000017e69       0x4c build/SAMD21_IOT_WG_ICM42688/production/_ext/1750425231/plib_clock.o
 .debug_loc     0x0000000000017eb5      0xb06 build/SAMD21_IOT_WG_ICM42688/production/_ext/1580516298/plib_dmac.o
 .debug_loc     0x00000000000189bb       0xc1 build/SAMD21_IOT_WG_ICM42688/production/_ext/503204096/plib_eic.o
 .debug_loc     0x0000000000018a7c      0x346 build/SAMD21_IOT_WG_ICM42688/production/_ext/1580823105/plib_nvic.o
 .debug_loc     0x0000000000018dc2      0x403 build/SAMD21_IOT_WG_ICM42688/production/_ext/11470383/plib_nvmctrl.o
 .debug_loc     0x00000000000191c5      0x27b build/SAMD21_IOT_WG_ICM42688/production/_ext/1580876256/plib_port.o
 .debug_loc     0x0000000000019440      0x76c build/SAMD21_IOT_WG_ICM42688/production/_ext/1014017276/plib_sercom0_spi_master.o
 .debug_loc     0x0000000000019bac      0x80d build/SAMD21_IOT_WG_ICM42688/production/_ext/1014017276/plib_sercom2_spi_master.o
 .debug_loc     0x000000000001a3b9      0x653 build/SAMD21_IOT_WG_ICM42688/production/_ext/177673482/plib_sercom5_usart.o
 .debug_loc     0x000000000001aa0c      0x2d3 build/SAMD21_IOT_WG_ICM42688/production/_ext/223004715/plib_systick.o
 .debug_loc     0x000000000001acdf       0x6f build/SAMD21_IOT_WG_ICM42688/production/_ext/399410062/plib_tc3.o
 .debug_loc     0x000000000001ad4e       0x6f build/SAMD21_IOT_WG_ICM42688/production/_ext/399410062/plib_tc4.o
 .debug_loc     0x000000000001adbd      0x1af build/SAMD21_IOT_WG_ICM42688/production/_ext/1357625803/xc32_monitor.o
 .debug_loc     0x000000000001af6c      0x16d build/SAMD21_IOT_WG_ICM42688/production/_ext/1584719636/sys_dma.o
 .debug_loc     0x000000000001b0d9      0x17d build/SAMD21_IOT_WG_ICM42688/production/_ext/1318297016/sys_int.o
 .debug_loc     0x000000000001b256     0x2830 build/SAMD21_IOT_WG_ICM42688/production/_ext/386530258/sys_time.o
 .debug_loc     0x000000000001da86       0x45 build/SAMD21_IOT_WG_ICM42688/production/_ext/1832905403/initialization.o
 .debug_loc     0x000000000001dacb       0x20 build/SAMD21_IOT_WG_ICM42688/production/_ext/1832905403/startup_xc32.o
 .debug_loc     0x000000000001daeb       0x20 build/SAMD21_IOT_WG_ICM42688/production/_ext/1832905403/tasks.o
 .debug_loc     0x000000000001db0b     0x4496 build/SAMD21_IOT_WG_ICM42688/production/_ext/1341251756/Icm426xxDriver_HL.o
 .debug_loc     0x0000000000021fa1      0x6df build/SAMD21_IOT_WG_ICM42688/production/_ext/1341251756/Icm426xxTransport.o
 .debug_loc     0x0000000000022680       0x25 build/SAMD21_IOT_WG_ICM42688/production/_ext/596309756/dsp_dtw_distance.o
 .debug_loc     0x00000000000226a5      0x180 build/SAMD21_IOT_WG_ICM42688/production/_ext/596309756/dsp_l1_distance.o
 .debug_loc     0x0000000000022825      0x180 build/SAMD21_IOT_WG_ICM42688/production/_ext/596309756/dsp_lsup_distance.o
 .debug_loc     0x00000000000229a5      0x138 build/SAMD21_IOT_WG_ICM42688/production/_ext/596309756/fg_amplitude_global_p2p_low_frequency.o
 .debug_loc     0x0000000000022add      0x12f build/SAMD21_IOT_WG_ICM42688/production/_ext/596309756/fg_amplitude_peak_to_peak.o
 .debug_loc     0x0000000000022c0c      0x1ca build/SAMD21_IOT_WG_ICM42688/production/_ext/596309756/fg_area_absolute_area_low_frequency.o
 .debug_loc     0x0000000000022dd6       0xc0 build/SAMD21_IOT_WG_ICM42688/production/_ext/596309756/fg_cross_p2p_difference.o
 .debug_loc     0x0000000000022e96      0x2f7 build/SAMD21_IOT_WG_ICM42688/production/_ext/596309756/fg_sampling_downsample.o
 .debug_loc     0x000000000002318d      0x188 build/SAMD21_IOT_WG_ICM42688/production/_ext/596309756/fg_stats_abs_mean.o
 .debug_loc     0x0000000000023315       0xc0 build/SAMD21_IOT_WG_ICM42688/production/_ext/596309756/fg_stats_minimum.o
 .debug_loc     0x00000000000233d5     0x261d build/SAMD21_IOT_WG_ICM42688/production/_ext/596309756/kb.o
 .debug_loc     0x00000000000259f2      0x953 build/SAMD21_IOT_WG_ICM42688/production/_ext/596309756/kb_output.o
 .debug_loc     0x0000000000026345      0x4b3 build/SAMD21_IOT_WG_ICM42688/production/_ext/596309756/kb_pipeline.o
 .debug_loc     0x00000000000267f8     0x1987 build/SAMD21_IOT_WG_ICM42688/production/_ext/596309756/ma_symmetric.o
 .debug_loc     0x000000000002817f      0x38e build/SAMD21_IOT_WG_ICM42688/production/_ext/596309756/mean.o
 .debug_loc     0x000000000002850d     0x1dee build/SAMD21_IOT_WG_ICM42688/production/_ext/596309756/pme.o
 .debug_loc     0x000000000002a2fb      0x949 build/SAMD21_IOT_WG_ICM42688/production/_ext/596309756/rb.o
 .debug_loc     0x000000000002ac44      0x1b0 build/SAMD21_IOT_WG_ICM42688/production/_ext/596309756/save_sensor_data.o
 .debug_loc     0x000000000002adf4      0x189 build/SAMD21_IOT_WG_ICM42688/production/_ext/596309756/sf_downsample_by_averaging.o
 .debug_loc     0x000000000002af7d       0x93 build/SAMD21_IOT_WG_ICM42688/production/_ext/596309756/sg_windowing.o
 .debug_loc     0x000000000002b010      0x162 build/SAMD21_IOT_WG_ICM42688/production/_ext/596309756/sortarray.o
 .debug_loc     0x000000000002b172      0x1c4 build/SAMD21_IOT_WG_ICM42688/production/_ext/596309756/sorted_copy.o
 .debug_loc     0x000000000002b336      0x1ad build/SAMD21_IOT_WG_ICM42688/production/_ext/596309756/tr_min_max_scale.o
 .debug_loc     0x000000000002b4e3      0x2f1 build/SAMD21_IOT_WG_ICM42688/production/_ext/596309756/utils_array_max_uint8.o
 .debug_loc     0x000000000002b7d4       0x3a build/SAMD21_IOT_WG_ICM42688/production/_ext/596309756/utils_bitwise_abs_val.o
 .debug_loc     0x000000000002b80e       0xc0 build/SAMD21_IOT_WG_ICM42688/production/_ext/596309756/utils_buffer_abssum.o
 .debug_loc     0x000000000002b8ce      0x485 build/SAMD21_IOT_WG_ICM42688/production/_ext/596309756/utils_buffer_cumsum.o
 .debug_loc     0x000000000002bd53      0x20a build/SAMD21_IOT_WG_ICM42688/production/_ext/596309756/utils_buffer_min_max.o
 .debug_loc     0x000000000002bf5d      0x3bc build/SAMD21_IOT_WG_ICM42688/production/_ext/596309756/utils_model_cross_difference.o
 .debug_loc     0x000000000002c319      0x25e build/SAMD21_IOT_WG_ICM42688/production/_ext/596309756/utils_model_stats_max_min.o
 .debug_loc     0x000000000002c577       0x80 build/SAMD21_IOT_WG_ICM42688/production/_ext/596309756/utils_tr_sensor.o
 .debug_loc     0x000000000002c5f7      0x4ab build/SAMD21_IOT_WG_ICM42688/production/_ext/1360937237/main.o
 .debug_loc     0x000000000002caa2      0x909 build/SAMD21_IOT_WG_ICM42688/production/_ext/1360937237/ringbuffer.o
 .debug_loc     0x000000000002d3ab       0x40 build/SAMD21_IOT_WG_ICM42688/production/_ext/1360937237/app.o
 .debug_loc     0x000000000002d3eb      0x257 build/SAMD21_IOT_WG_ICM42688/production/_ext/1360937237/ws2812.o
 .debug_loc     0x000000000002d642      0x358 build/SAMD21_IOT_WG_ICM42688/production/_ext/1360937237/winc1500_udp_client.o
 .debug_loc     0x000000000002d99a       0x14 c:/program files/microchip/xc32/v4.60/bin/bin/../../lib/gcc/pic32c/8.3.1/../../../../pic32c/lib/thumb/v6-m/nofp\libpic32c.a(data_init.o)
 .debug_loc     0x000000000002d9ae      0x12d c:/program files/microchip/xc32/v4.60/bin/bin/../../lib/gcc/pic32c/8.3.1/../../../../pic32c/lib/thumb/v6-m/nofp\libc-size-musl.a(memcpy.o)
 .debug_loc     0x000000000002dadb       0xcd c:/program files/microchip/xc32/v4.60/bin/bin/../../lib/gcc/pic32c/8.3.1/../../../../pic32c/lib/thumb/v6-m/nofp\libc-size-musl.a(memset.o)
 .debug_loc     0x000000000002dba8       0x81 c:/program files/microchip/xc32/v4.60/bin/bin/../../lib/gcc/pic32c/8.3.1/../../../../pic32c/lib/thumb/v6-m/nofp\libc-size-musl.a(strlen.o)
 .debug_loc     0x000000000002dc29       0x8c c:/program files/microchip/xc32/v4.60/bin/bin/../../lib/gcc/pic32c/8.3.1/../../../../pic32c/lib/thumb/v6-m/nofp\libc-size-musl.a(strchr.o)
 .debug_loc     0x000000000002dcb5       0xd5 c:/program files/microchip/xc32/v4.60/bin/bin/../../lib/gcc/pic32c/8.3.1/../../../../pic32c/lib/thumb/v6-m/nofp\libc-size-musl.a(strchrnul.o)
 .debug_loc     0x000000000002dd8a       0xa6 c:/program files/microchip/xc32/v4.60/bin/bin/../../lib/gcc/pic32c/8.3.1/../../../../pic32c/lib/thumb/v6-m/nofp\libc-size-musl.a(strnlen.o)
 .debug_loc     0x000000000002de30       0xaa c:/program files/microchip/xc32/v4.60/bin/bin/../../lib/gcc/pic32c/8.3.1/../../../../pic32c/lib/thumb/v6-m/nofp\libc-size-musl.a(memchr.o)
 .debug_loc     0x000000000002deda       0x99 c:/program files/microchip/xc32/v4.60/bin/bin/../../lib/gcc/pic32c/8.3.1/../../../../pic32c/lib/thumb/v6-m/nofp\liblmalloc-musl.a(lite_calloc.o)
 .debug_loc     0x000000000002df73      0x343 c:/program files/microchip/xc32/v4.60/bin/bin/../../lib/gcc/pic32c/8.3.1/../../../../pic32c/lib/thumb/v6-m/nofp\liblmalloc-musl.a(lite_free.o)
 .debug_loc     0x000000000002e2b6       0xe2 c:/program files/microchip/xc32/v4.60/bin/bin/../../lib/gcc/pic32c/8.3.1/../../../../pic32c/lib/thumb/v6-m/nofp\liblmalloc-musl.a(lite_malloc.o)
 .debug_loc     0x000000000002e398       0x5e c:/program files/microchip/xc32/v4.60/bin/bin/../../lib/gcc/pic32c/8.3.1/../../../../pic32c/lib/thumb/v6-m/nofp\libc-musl.a(__libc_start_main.o)
 .debug_loc     0x000000000002e3f6       0x7c c:/program files/microchip/xc32/v4.60/bin/bin/../../lib/gcc/pic32c/8.3.1/../../../../pic32c/lib/thumb/v6-m/nofp\libc-musl.a(expand_heap.o)
 .debug_loc     0x000000000002e472       0x61 c:/program files/microchip/xc32/v4.60/bin/bin/../../lib/gcc/pic32c/8.3.1/../../../../pic32c/lib/thumb/v6-m/nofp\libc-musl.a(__sio_printf_cdeEfFgGnpsuxX.o)
 .debug_loc     0x000000000002e4d3       0x86 c:/program files/microchip/xc32/v4.60/bin/bin/../../lib/gcc/pic32c/8.3.1/../../../../pic32c/lib/thumb/v6-m/nofp\libc-musl.a(__sio_sprintf_cdeEfFgGnpsuxX.o)
 .debug_loc     0x000000000002e559      0x2a6 c:/program files/microchip/xc32/v4.60/bin/bin/../../lib/gcc/pic32c/8.3.1/../../../../pic32c/lib/thumb/v6-m/nofp\libc-musl.a(__fmt_d.o)
 .debug_loc     0x000000000002e7ff      0xc94 c:/program files/microchip/xc32/v4.60/bin/bin/../../lib/gcc/pic32c/8.3.1/../../../../pic32c/lib/thumb/v6-m/nofp\libc-musl.a(__fmt_fp.o)
 .debug_loc     0x000000000002f493      0x144 c:/program files/microchip/xc32/v4.60/bin/bin/../../lib/gcc/pic32c/8.3.1/../../../../pic32c/lib/thumb/v6-m/nofp\libc-musl.a(__fmt_s.o)
 .debug_loc     0x000000000002f5d7      0x12d c:/program files/microchip/xc32/v4.60/bin/bin/../../lib/gcc/pic32c/8.3.1/../../../../pic32c/lib/thumb/v6-m/nofp\libc-musl.a(__fmt_u.o)
 .debug_loc     0x000000000002f704      0x3be c:/program files/microchip/xc32/v4.60/bin/bin/../../lib/gcc/pic32c/8.3.1/../../../../pic32c/lib/thumb/v6-m/nofp\libc-musl.a(__fmt_x.o)
 .debug_loc     0x000000000002fac2       0x6f c:/program files/microchip/xc32/v4.60/bin/bin/../../lib/gcc/pic32c/8.3.1/../../../../pic32c/lib/thumb/v6-m/nofp\libc-musl.a(__pop_float.o)
 .debug_loc     0x000000000002fb31      0x34c c:/program files/microchip/xc32/v4.60/bin/bin/../../lib/gcc/pic32c/8.3.1/../../../../pic32c/lib/thumb/v6-m/nofp\libc-musl.a(__pop_int.o)
 .debug_loc     0x000000000002fe7d      0x1fe c:/program files/microchip/xc32/v4.60/bin/bin/../../lib/gcc/pic32c/8.3.1/../../../../pic32c/lib/thumb/v6-m/nofp\libc-musl.a(__pop_ptr.o)
 .debug_loc     0x000000000003007b      0x6d9 c:/program files/microchip/xc32/v4.60/bin/bin/../../lib/gcc/pic32c/8.3.1/../../../../pic32c/lib/thumb/v6-m/nofp\libc-musl.a(__printf_core.o)
 .debug_loc     0x0000000000030754       0x45 c:/program files/microchip/xc32/v4.60/bin/bin/../../lib/gcc/pic32c/8.3.1/../../../../pic32c/lib/thumb/v6-m/nofp\libc-musl.a(stdin.o)
 .debug_loc     0x0000000000030799       0x40 c:/program files/microchip/xc32/v4.60/bin/bin/../../lib/gcc/pic32c/8.3.1/../../../../pic32c/lib/thumb/v6-m/nofp\libc-musl.a(stdout.o)
 .debug_loc     0x00000000000307d9       0x45 c:/program files/microchip/xc32/v4.60/bin/bin/../../lib/gcc/pic32c/8.3.1/../../../../pic32c/lib/thumb/v6-m/nofp\libc-musl.a(putchar.o)
 .debug_loc     0x000000000003081e       0x6a c:/program files/microchip/xc32/v4.60/bin/bin/../../lib/gcc/pic32c/8.3.1/../../../../pic32c/lib/thumb/v6-m/nofp\libc-musl.a(puts.o)
 .debug_loc     0x0000000000030888       0x6a c:/program files/microchip/xc32/v4.60/bin/bin/../../lib/gcc/pic32c/8.3.1/../../../../pic32c/lib/thumb/v6-m/nofp\libc-musl.a(setbuf.o)
 .debug_loc     0x00000000000308f2       0xdc c:/program files/microchip/xc32/v4.60/bin/bin/../../lib/gcc/pic32c/8.3.1/../../../../pic32c/lib/thumb/v6-m/nofp\libc-musl.a(atoi.o)
 .debug_loc     0x00000000000309ce       0x45 c:/program files/microchip/xc32/v4.60/bin/bin/../../lib/gcc/pic32c/8.3.1/../../../../pic32c/lib/thumb/v6-m/nofp\libc-musl.a(gmtime.o)
 .debug_loc     0x0000000000030a13       0x91 c:/program files/microchip/xc32/v4.60/bin/bin/../../lib/gcc/pic32c/8.3.1/../../../../pic32c/lib/thumb/v6-m/nofp\libc-musl.a(gmtime_r.o)
 .debug_loc     0x0000000000030aa4       0x86 c:/program files/microchip/xc32/v4.60/bin/bin/../../lib/gcc/pic32c/8.3.1/../../../../pic32c/lib/thumb/v6-m/nofp\libc-musl.a(mktime.o)
 .debug_loc     0x0000000000030b2a       0x8f c:/program files/microchip/xc32/v4.60/bin/bin/../../lib/gcc/pic32c/8.3.1/../../../../pic32c/lib/thumb/v6-m/nofp\libc-musl.a(tolower.o)
 .debug_loc     0x0000000000030bb9       0x8f c:/program files/microchip/xc32/v4.60/bin/bin/../../lib/gcc/pic32c/8.3.1/../../../../pic32c/lib/thumb/v6-m/nofp\libc-musl.a(toupper.o)
 .debug_loc     0x0000000000030c48       0xb0 c:/program files/microchip/xc32/v4.60/bin/bin/../../lib/gcc/pic32c/8.3.1/../../../../pic32c/lib/thumb/v6-m/nofp\libc-musl.a(__int_vfprintf.o)
 .debug_loc     0x0000000000030cf8       0x8c c:/program files/microchip/xc32/v4.60/bin/bin/../../lib/gcc/pic32c/8.3.1/../../../../pic32c/lib/thumb/v6-m/nofp\libc-musl.a(__int_vsprintf.o)
 .debug_loc     0x0000000000030d84       0xb3 c:/program files/microchip/xc32/v4.60/bin/bin/../../lib/gcc/pic32c/8.3.1/../../../../pic32c/lib/thumb/v6-m/nofp\libc-musl.a(fputs.o)
 .debug_loc     0x0000000000030e37      0x1d3 c:/program files/microchip/xc32/v4.60/bin/bin/../../lib/gcc/pic32c/8.3.1/../../../../pic32c/lib/thumb/v6-m/nofp\libc-musl.a(__cvt_u.o)
 .debug_loc     0x000000000003100a      0x107 c:/program files/microchip/xc32/v4.60/bin/bin/../../lib/gcc/pic32c/8.3.1/../../../../pic32c/lib/thumb/v6-m/nofp\libc-musl.a(__stdio_read.o)
 .debug_loc     0x0000000000031111       0x42 c:/program files/microchip/xc32/v4.60/bin/bin/../../lib/gcc/pic32c/8.3.1/../../../../pic32c/lib/thumb/v6-m/nofp\libc-musl.a(__towrite_rw.o)
 .debug_loc     0x0000000000031153      0x1c5 c:/program files/microchip/xc32/v4.60/bin/bin/../../lib/gcc/pic32c/8.3.1/../../../../pic32c/lib/thumb/v6-m/nofp\libc-musl.a(fwrite.o)
 .debug_loc     0x0000000000031318      0x13b c:/program files/microchip/xc32/v4.60/bin/bin/../../lib/gcc/pic32c/8.3.1/../../../../pic32c/lib/thumb/v6-m/nofp\libc-musl.a(putc.o)
 .debug_loc     0x0000000000031453      0x115 c:/program files/microchip/xc32/v4.60/bin/bin/../../lib/gcc/pic32c/8.3.1/../../../../pic32c/lib/thumb/v6-m/nofp\libc-musl.a(setvbuf.o)
 .debug_loc     0x0000000000031568      0x111 c:/program files/microchip/xc32/v4.60/bin/bin/../../lib/gcc/pic32c/8.3.1/../../../../pic32c/lib/thumb/v6-m/nofp\libc-musl.a(__tm_to_secs.o)
 .debug_loc     0x0000000000031679      0x258 c:/program files/microchip/xc32/v4.60/bin/bin/../../lib/gcc/pic32c/8.3.1/../../../../pic32c/lib/thumb/v6-m/nofp\libc-musl.a(__year_to_secs.o)
 .debug_loc     0x00000000000318d1      0x2f7 c:/program files/microchip/xc32/v4.60/bin/bin/../../lib/gcc/pic32c/8.3.1/../../../../pic32c/lib/thumb/v6-m/nofp\libc-musl.a(__secs_to_tm.o)
 .debug_loc     0x0000000000031bc8      0x130 c:/program files/microchip/xc32/v4.60/bin/bin/../../lib/gcc/pic32c/8.3.1/../../../../pic32c/lib/thumb/v6-m/nofp\libc-musl.a(readv.o)
 .debug_loc     0x0000000000031cf8      0x102 c:/program files/microchip/xc32/v4.60/bin/bin/../../lib/gcc/pic32c/8.3.1/../../../../pic32c/lib/thumb/v6-m/nofp\libc-musl.a(__int_vsnprintf.o)
 .debug_loc     0x0000000000031dfa       0x20 c:/program files/microchip/xc32/v4.60/bin/bin/../../lib/gcc/pic32c/8.3.1/../../../../pic32c/lib/thumb/v6-m/nofp\libc-musl.a(__init_stdio.o)
 .debug_loc     0x0000000000031e1a      0x1e6 c:/program files/microchip/xc32/v4.60/bin/bin/../../lib/gcc/pic32c/8.3.1/../../../../pic32c/lib/thumb/v6-m/nofp\libc-musl.a(__out.o)
 .debug_loc     0x0000000000032000       0xbe c:/program files/microchip/xc32/v4.60/bin/bin/../../lib/gcc/pic32c/8.3.1/../../../../pic32c/lib/thumb/v6-m/nofp\libc-musl.a(__putc.o)
 .debug_loc     0x00000000000320be       0x45 c:/program files/microchip/xc32/v4.60/bin/bin/../../lib/gcc/pic32c/8.3.1/../../../../pic32c/lib/thumb/v6-m/nofp\libc-musl.a(__stderr.o)
 .debug_loc     0x0000000000032103      0x1d8 c:/program files/microchip/xc32/v4.60/bin/bin/../../lib/gcc/pic32c/8.3.1/../../../../pic32c/lib/thumb/v6-m/nofp\libc-musl.a(__stdio_close.o)
 .debug_loc     0x00000000000322db      0x364 c:/program files/microchip/xc32/v4.60/bin/bin/../../lib/gcc/pic32c/8.3.1/../../../../pic32c/lib/thumb/v6-m/nofp\libc-musl.a(__stdio_write.o)
 .debug_loc     0x000000000003263f       0x45 c:/program files/microchip/xc32/v4.60/bin/bin/../../lib/gcc/pic32c/8.3.1/../../../../pic32c/lib/thumb/v6-m/nofp\libc-musl.a(__stdout.o)
 .debug_loc     0x0000000000032684       0x8c c:/program files/microchip/xc32/v4.60/bin/bin/../../lib/gcc/pic32c/8.3.1/../../../../pic32c/lib/thumb/v6-m/nofp\libc-musl.a(__towrite.o)
 .debug_loc     0x0000000000032710       0x3a c:/program files/microchip/xc32/v4.60/bin/bin/../../lib/gcc/pic32c/8.3.1/../../../../pic32c/lib/thumb/v6-m/nofp\libc-musl.a(__month_to_secs.o)
 .debug_loc     0x000000000003274a      0x130 c:/program files/microchip/xc32/v4.60/bin/bin/../../lib/gcc/pic32c/8.3.1/../../../../pic32c/lib/thumb/v6-m/nofp\libc-musl.a(writev.o)
 .debug_loc     0x000000000003287a       0xbb c:/program files/microchip/xc32/v4.60/bin/bin/../../lib/gcc/pic32c/8.3.1/../../../../pic32c/lib/thumb/v6-m/nofp\libc-musl.a(__overflow.o)
 .debug_loc     0x0000000000032935      0x106 c:/program files/microchip/xc32/v4.60/bin/bin/../../lib/gcc/pic32c/8.3.1/../../../../pic32c/lib/thumb/v6-m/nofp\libc-musl.a(__fwrite.o)
 .debug_loc     0x0000000000032a3b      0x176 c:/program files/microchip/xc32/v4.60/bin/bin/../../lib/gcc/pic32c/8.3.1/thumb/v6-m/nofp\libgcc.a(_muldi3.o)
 .debug_loc     0x0000000000032bb1      0x2e4 c:/program files/microchip/xc32/v4.60/bin/bin/../../lib/gcc/pic32c/8.3.1/thumb/v6-m/nofp\libgcc.a(_udivmoddi4.o)
 .debug_loc     0x0000000000032e95       0x9c c:/program files/microchip/xc32/v4.60/bin/bin/../../lib/gcc/pic32c/8.3.1/thumb/v6-m/nofp\libgcc.a(bpabi.o)
 .debug_loc     0x0000000000032f31      0x4b0 c:/program files/microchip/xc32/v4.60/bin/bin/../../lib/gcc/pic32c/8.3.1/thumb/v6-m/nofp\libgcc.a(_divdi3.o)
 .debug_loc     0x00000000000333e1       0x28 c:/program files/microchip/xc32/v4.60/bin/bin/../../lib/gcc/pic32c/8.3.1/../../../../pic32c/lib/thumb/v6-m/nofp\libpic32c.a(sbrk.o)
 .debug_loc     0x0000000000033409       0x74 c:/program files/microchip/xc32/v4.60/bin/bin/../../lib/gcc/pic32c/8.3.1/../../../../pic32c/lib/thumb/v6-m/nofp\libc-size-musl.a(strcpy.o)
 .debug_loc     0x000000000003347d       0x90 c:/program files/microchip/xc32/v4.60/bin/bin/../../lib/gcc/pic32c/8.3.1/../../../../pic32c/lib/thumb/v6-m/nofp\libc-size-musl.a(stpcpy.o)
 .debug_loc     0x000000000003350d       0x14 c:/program files/microchip/xc32/v4.60/bin/bin/../../lib/gcc/pic32c/8.3.1/../../../../pic32c/lib/thumb/v6-m/nofp\libpic32c.a(pic32_data_init_copy.o)

.debug_aranges  0x0000000000000000     0x1678
 .debug_aranges
                0x0000000000000000       0x20 build/SAMD21_IOT_WG_ICM42688/production/_ext/2048461350/icm42688_sensor.o
 .debug_aranges
                0x0000000000000020       0x20 build/SAMD21_IOT_WG_ICM42688/production/_ext/171618134/sml_recognition_run.o
 .debug_aranges
                0x0000000000000040       0x20 build/SAMD21_IOT_WG_ICM42688/production/_ext/1660664302/drv_spi.o
 .debug_aranges
                0x0000000000000060       0x20 build/SAMD21_IOT_WG_ICM42688/production/_ext/1164161090/wdrv_winc_gpio.o
 .debug_aranges
                0x0000000000000080       0x20 build/SAMD21_IOT_WG_ICM42688/production/_ext/1164161090/wdrv_winc_eint.o
 .debug_aranges
                0x00000000000000a0       0x20 build/SAMD21_IOT_WG_ICM42688/production/_ext/101005277/wdrv_winc_spi.o
 .debug_aranges
                0x00000000000000c0       0x20 build/SAMD21_IOT_WG_ICM42688/production/_ext/90265895/nm_common.o
 .debug_aranges
                0x00000000000000e0       0x20 build/SAMD21_IOT_WG_ICM42688/production/_ext/121554788/m2m_ssl.o
 .debug_aranges
                0x0000000000000100       0x20 build/SAMD21_IOT_WG_ICM42688/production/_ext/121554788/m2m_hif.o
 .debug_aranges
                0x0000000000000120       0x20 build/SAMD21_IOT_WG_ICM42688/production/_ext/121554788/m2m_wifi.o
 .debug_aranges
                0x0000000000000140       0x20 build/SAMD21_IOT_WG_ICM42688/production/_ext/121554788/nmspi.o
 .debug_aranges
                0x0000000000000160       0x20 build/SAMD21_IOT_WG_ICM42688/production/_ext/121554788/nmdrv.o
 .debug_aranges
                0x0000000000000180       0x20 build/SAMD21_IOT_WG_ICM42688/production/_ext/121554788/m2m_ota.o
 .debug_aranges
                0x00000000000001a0       0x20 build/SAMD21_IOT_WG_ICM42688/production/_ext/121554788/nmasic.o
 .debug_aranges
                0x00000000000001c0       0x20 build/SAMD21_IOT_WG_ICM42688/production/_ext/121554788/nmbus.o
 .debug_aranges
                0x00000000000001e0       0x20 build/SAMD21_IOT_WG_ICM42688/production/_ext/548032175/socket.o
 .debug_aranges
                0x0000000000000200       0x20 build/SAMD21_IOT_WG_ICM42688/production/_ext/548032175/inet_addr.o
 .debug_aranges
                0x0000000000000220       0x20 build/SAMD21_IOT_WG_ICM42688/production/_ext/548032175/inet_ntop.o
 .debug_aranges
                0x0000000000000240       0x20 build/SAMD21_IOT_WG_ICM42688/production/_ext/609036575/flexible_flash.o
 .debug_aranges
                0x0000000000000260       0x20 build/SAMD21_IOT_WG_ICM42688/production/_ext/609036575/spi_flash.o
 .debug_aranges
                0x0000000000000280       0x20 build/SAMD21_IOT_WG_ICM42688/production/_ext/1784303044/wdrv_winc_osal.o
 .debug_aranges
                0x00000000000002a0       0x20 build/SAMD21_IOT_WG_ICM42688/production/_ext/907429946/wdrv_winc_sta.o
 .debug_aranges
                0x00000000000002c0       0x20 build/SAMD21_IOT_WG_ICM42688/production/_ext/907429946/wdrv_winc_socket.o
 .debug_aranges
                0x00000000000002e0       0x20 build/SAMD21_IOT_WG_ICM42688/production/_ext/907429946/wdrv_winc_systime.o
 .debug_aranges
                0x0000000000000300       0x20 build/SAMD21_IOT_WG_ICM42688/production/_ext/907429946/wdrv_winc_authctx.o
 .debug_aranges
                0x0000000000000320       0x20 build/SAMD21_IOT_WG_ICM42688/production/_ext/907429946/wdrv_winc_host_file.o
 .debug_aranges
                0x0000000000000340       0x20 build/SAMD21_IOT_WG_ICM42688/production/_ext/907429946/wdrv_winc.o
 .debug_aranges
                0x0000000000000360       0x20 build/SAMD21_IOT_WG_ICM42688/production/_ext/907429946/wdrv_winc_bssctx.o
 .debug_aranges
                0x0000000000000380       0x20 build/SAMD21_IOT_WG_ICM42688/production/_ext/1750425231/plib_clock.o
 .debug_aranges
                0x00000000000003a0       0x20 build/SAMD21_IOT_WG_ICM42688/production/_ext/1580516298/plib_dmac.o
 .debug_aranges
                0x00000000000003c0       0x20 build/SAMD21_IOT_WG_ICM42688/production/_ext/503204096/plib_eic.o
 .debug_aranges
                0x00000000000003e0       0x20 build/SAMD21_IOT_WG_ICM42688/production/_ext/1580823105/plib_nvic.o
 .debug_aranges
                0x0000000000000400       0x20 build/SAMD21_IOT_WG_ICM42688/production/_ext/11470383/plib_nvmctrl.o
 .debug_aranges
                0x0000000000000420       0x20 build/SAMD21_IOT_WG_ICM42688/production/_ext/1580876256/plib_port.o
 .debug_aranges
                0x0000000000000440       0x20 build/SAMD21_IOT_WG_ICM42688/production/_ext/1014017276/plib_sercom0_spi_master.o
 .debug_aranges
                0x0000000000000460       0x20 build/SAMD21_IOT_WG_ICM42688/production/_ext/1014017276/plib_sercom2_spi_master.o
 .debug_aranges
                0x0000000000000480       0x20 build/SAMD21_IOT_WG_ICM42688/production/_ext/177673482/plib_sercom5_usart.o
 .debug_aranges
                0x00000000000004a0       0x20 build/SAMD21_IOT_WG_ICM42688/production/_ext/223004715/plib_systick.o
 .debug_aranges
                0x00000000000004c0       0x20 build/SAMD21_IOT_WG_ICM42688/production/_ext/399410062/plib_tc3.o
 .debug_aranges
                0x00000000000004e0       0x20 build/SAMD21_IOT_WG_ICM42688/production/_ext/399410062/plib_tc4.o
 .debug_aranges
                0x0000000000000500       0x20 build/SAMD21_IOT_WG_ICM42688/production/_ext/1357625803/xc32_monitor.o
 .debug_aranges
                0x0000000000000520       0x20 build/SAMD21_IOT_WG_ICM42688/production/_ext/1584719636/sys_dma.o
 .debug_aranges
                0x0000000000000540       0x20 build/SAMD21_IOT_WG_ICM42688/production/_ext/1318297016/sys_int.o
 .debug_aranges
                0x0000000000000560       0x20 build/SAMD21_IOT_WG_ICM42688/production/_ext/386530258/sys_time.o
 .debug_aranges
                0x0000000000000580       0x20 build/SAMD21_IOT_WG_ICM42688/production/_ext/1832905403/initialization.o
 .debug_aranges
                0x00000000000005a0       0x20 build/SAMD21_IOT_WG_ICM42688/production/_ext/1832905403/interrupts.o
 .debug_aranges
                0x00000000000005c0       0x20 build/SAMD21_IOT_WG_ICM42688/production/_ext/1832905403/exceptions.o
 .debug_aranges
                0x00000000000005e0       0x28 build/SAMD21_IOT_WG_ICM42688/production/_ext/1832905403/startup_xc32.o
 .debug_aranges
                0x0000000000000608       0x20 build/SAMD21_IOT_WG_ICM42688/production/_ext/1832905403/tasks.o
 .debug_aranges
                0x0000000000000628       0x20 build/SAMD21_IOT_WG_ICM42688/production/_ext/1341251756/Icm426xxDriver_HL.o
 .debug_aranges
                0x0000000000000648       0x20 build/SAMD21_IOT_WG_ICM42688/production/_ext/1341251756/Icm426xxTransport.o
 .debug_aranges
                0x0000000000000668       0x20 build/SAMD21_IOT_WG_ICM42688/production/_ext/596309756/dsp_dtw_distance.o
 .debug_aranges
                0x0000000000000688       0x20 build/SAMD21_IOT_WG_ICM42688/production/_ext/596309756/dsp_l1_distance.o
 .debug_aranges
                0x00000000000006a8       0x20 build/SAMD21_IOT_WG_ICM42688/production/_ext/596309756/dsp_lsup_distance.o
 .debug_aranges
                0x00000000000006c8       0x20 build/SAMD21_IOT_WG_ICM42688/production/_ext/596309756/fg_amplitude_global_p2p_low_frequency.o
 .debug_aranges
                0x00000000000006e8       0x20 build/SAMD21_IOT_WG_ICM42688/production/_ext/596309756/fg_amplitude_peak_to_peak.o
 .debug_aranges
                0x0000000000000708       0x20 build/SAMD21_IOT_WG_ICM42688/production/_ext/596309756/fg_area_absolute_area_low_frequency.o
 .debug_aranges
                0x0000000000000728       0x20 build/SAMD21_IOT_WG_ICM42688/production/_ext/596309756/fg_cross_p2p_difference.o
 .debug_aranges
                0x0000000000000748       0x20 build/SAMD21_IOT_WG_ICM42688/production/_ext/596309756/fg_sampling_downsample.o
 .debug_aranges
                0x0000000000000768       0x20 build/SAMD21_IOT_WG_ICM42688/production/_ext/596309756/fg_stats_abs_mean.o
 .debug_aranges
                0x0000000000000788       0x20 build/SAMD21_IOT_WG_ICM42688/production/_ext/596309756/fg_stats_minimum.o
 .debug_aranges
                0x00000000000007a8       0x20 build/SAMD21_IOT_WG_ICM42688/production/_ext/596309756/kb.o
 .debug_aranges
                0x00000000000007c8       0x20 build/SAMD21_IOT_WG_ICM42688/production/_ext/596309756/kb_output.o
 .debug_aranges
                0x00000000000007e8       0x20 build/SAMD21_IOT_WG_ICM42688/production/_ext/596309756/kb_pipeline.o
 .debug_aranges
                0x0000000000000808       0x20 build/SAMD21_IOT_WG_ICM42688/production/_ext/596309756/ma_symmetric.o
 .debug_aranges
                0x0000000000000828       0x20 build/SAMD21_IOT_WG_ICM42688/production/_ext/596309756/mean.o
 .debug_aranges
                0x0000000000000848       0x20 build/SAMD21_IOT_WG_ICM42688/production/_ext/596309756/pme.o
 .debug_aranges
                0x0000000000000868       0x18 build/SAMD21_IOT_WG_ICM42688/production/_ext/596309756/pme_trained_neurons.o
 .debug_aranges
                0x0000000000000880       0x20 build/SAMD21_IOT_WG_ICM42688/production/_ext/596309756/rb.o
 .debug_aranges
                0x00000000000008a0       0x20 build/SAMD21_IOT_WG_ICM42688/production/_ext/596309756/save_sensor_data.o
 .debug_aranges
                0x00000000000008c0       0x20 build/SAMD21_IOT_WG_ICM42688/production/_ext/596309756/sf_downsample_by_averaging.o
 .debug_aranges
                0x00000000000008e0       0x20 build/SAMD21_IOT_WG_ICM42688/production/_ext/596309756/sg_windowing.o
 .debug_aranges
                0x0000000000000900       0x20 build/SAMD21_IOT_WG_ICM42688/production/_ext/596309756/sortarray.o
 .debug_aranges
                0x0000000000000920       0x20 build/SAMD21_IOT_WG_ICM42688/production/_ext/596309756/sorted_copy.o
 .debug_aranges
                0x0000000000000940       0x20 build/SAMD21_IOT_WG_ICM42688/production/_ext/596309756/tr_min_max_scale.o
 .debug_aranges
                0x0000000000000960       0x20 build/SAMD21_IOT_WG_ICM42688/production/_ext/596309756/utils_array_max_uint8.o
 .debug_aranges
                0x0000000000000980       0x20 build/SAMD21_IOT_WG_ICM42688/production/_ext/596309756/utils_bitwise_abs_val.o
 .debug_aranges
                0x00000000000009a0       0x20 build/SAMD21_IOT_WG_ICM42688/production/_ext/596309756/utils_buffer_abssum.o
 .debug_aranges
                0x00000000000009c0       0x20 build/SAMD21_IOT_WG_ICM42688/production/_ext/596309756/utils_buffer_cumsum.o
 .debug_aranges
                0x00000000000009e0       0x20 build/SAMD21_IOT_WG_ICM42688/production/_ext/596309756/utils_buffer_min_max.o
 .debug_aranges
                0x0000000000000a00       0x20 build/SAMD21_IOT_WG_ICM42688/production/_ext/596309756/utils_model_cross_difference.o
 .debug_aranges
                0x0000000000000a20       0x20 build/SAMD21_IOT_WG_ICM42688/production/_ext/596309756/utils_model_stats_max_min.o
 .debug_aranges
                0x0000000000000a40       0x20 build/SAMD21_IOT_WG_ICM42688/production/_ext/596309756/utils_tr_sensor.o
 .debug_aranges
                0x0000000000000a60       0x20 build/SAMD21_IOT_WG_ICM42688/production/_ext/1360937237/main.o
 .debug_aranges
                0x0000000000000a80       0x20 build/SAMD21_IOT_WG_ICM42688/production/_ext/1360937237/ringbuffer.o
 .debug_aranges
                0x0000000000000aa0       0x20 build/SAMD21_IOT_WG_ICM42688/production/_ext/1360937237/app.o
 .debug_aranges
                0x0000000000000ac0       0x20 build/SAMD21_IOT_WG_ICM42688/production/_ext/1360937237/ws2812.o
 .debug_aranges
                0x0000000000000ae0       0x20 build/SAMD21_IOT_WG_ICM42688/production/_ext/1360937237/winc1500_udp_client.o
 .debug_aranges
                0x0000000000000b00       0x30 c:/program files/microchip/xc32/v4.60/bin/bin/../../lib/gcc/pic32c/8.3.1/../../../../pic32c/lib/thumb/v6-m/nofp\libpic32c.a(data_init.o)
 .debug_aranges
                0x0000000000000b30       0x20 c:/program files/microchip/xc32/v4.60/bin/bin/../../lib/gcc/pic32c/8.3.1/../../../../pic32c/lib/thumb/v6-m/nofp\libc-size-musl.a(memcpy.o)
 .debug_aranges
                0x0000000000000b50       0x20 c:/program files/microchip/xc32/v4.60/bin/bin/../../lib/gcc/pic32c/8.3.1/../../../../pic32c/lib/thumb/v6-m/nofp\libc-size-musl.a(memset.o)
 .debug_aranges
                0x0000000000000b70       0x20 c:/program files/microchip/xc32/v4.60/bin/bin/../../lib/gcc/pic32c/8.3.1/../../../../pic32c/lib/thumb/v6-m/nofp\libc-size-musl.a(strlen.o)
 .debug_aranges
                0x0000000000000b90       0x20 c:/program files/microchip/xc32/v4.60/bin/bin/../../lib/gcc/pic32c/8.3.1/../../../../pic32c/lib/thumb/v6-m/nofp\libc-size-musl.a(strchr.o)
 .debug_aranges
                0x0000000000000bb0       0x20 c:/program files/microchip/xc32/v4.60/bin/bin/../../lib/gcc/pic32c/8.3.1/../../../../pic32c/lib/thumb/v6-m/nofp\libc-size-musl.a(strchrnul.o)
 .debug_aranges
                0x0000000000000bd0       0x20 c:/program files/microchip/xc32/v4.60/bin/bin/../../lib/gcc/pic32c/8.3.1/../../../../pic32c/lib/thumb/v6-m/nofp\libc-size-musl.a(strnlen.o)
 .debug_aranges
                0x0000000000000bf0       0x20 c:/program files/microchip/xc32/v4.60/bin/bin/../../lib/gcc/pic32c/8.3.1/../../../../pic32c/lib/thumb/v6-m/nofp\libc-size-musl.a(memchr.o)
 .debug_aranges
                0x0000000000000c10       0x20 c:/program files/microchip/xc32/v4.60/bin/bin/../../lib/gcc/pic32c/8.3.1/../../../../pic32c/lib/thumb/v6-m/nofp\liblmalloc-musl.a(lite_calloc.o)
 .debug_aranges
                0x0000000000000c30       0x30 c:/program files/microchip/xc32/v4.60/bin/bin/../../lib/gcc/pic32c/8.3.1/../../../../pic32c/lib/thumb/v6-m/nofp\liblmalloc-musl.a(lite_free.o)
 .debug_aranges
                0x0000000000000c60       0x20 c:/program files/microchip/xc32/v4.60/bin/bin/../../lib/gcc/pic32c/8.3.1/../../../../pic32c/lib/thumb/v6-m/nofp\liblmalloc-musl.a(lite_malloc.o)
 .debug_aranges
                0x0000000000000c80       0x28 c:/program files/microchip/xc32/v4.60/bin/bin/../../lib/gcc/pic32c/8.3.1/../../../../pic32c/lib/thumb/v6-m/nofp\libc-musl.a(__libc_start_main.o)
 .debug_aranges
                0x0000000000000ca8       0x18 c:/program files/microchip/xc32/v4.60/bin/bin/../../lib/gcc/pic32c/8.3.1/../../../../pic32c/lib/thumb/v6-m/nofp\libc-musl.a(__errno_location.o)
 .debug_aranges
                0x0000000000000cc0       0x18 c:/program files/microchip/xc32/v4.60/bin/bin/../../lib/gcc/pic32c/8.3.1/../../../../pic32c/lib/thumb/v6-m/nofp\libc-musl.a(libc.o)
 .debug_aranges
                0x0000000000000cd8       0x20 c:/program files/microchip/xc32/v4.60/bin/bin/../../lib/gcc/pic32c/8.3.1/../../../../pic32c/lib/thumb/v6-m/nofp\libc-musl.a(expand_heap.o)
 .debug_aranges
                0x0000000000000cf8       0x28 c:/program files/microchip/xc32/v4.60/bin/bin/../../lib/gcc/pic32c/8.3.1/../../../../pic32c/lib/thumb/v6-m/nofp\libc-musl.a(__sio_printf_cdeEfFgGnpsuxX.o)
 .debug_aranges
                0x0000000000000d20       0x28 c:/program files/microchip/xc32/v4.60/bin/bin/../../lib/gcc/pic32c/8.3.1/../../../../pic32c/lib/thumb/v6-m/nofp\libc-musl.a(__sio_sprintf_cdeEfFgGnpsuxX.o)
 .debug_aranges
                0x0000000000000d48       0x20 c:/program files/microchip/xc32/v4.60/bin/bin/../../lib/gcc/pic32c/8.3.1/../../../../pic32c/lib/thumb/v6-m/nofp\libc-musl.a(__fmt_d.o)
 .debug_aranges
                0x0000000000000d68       0x20 c:/program files/microchip/xc32/v4.60/bin/bin/../../lib/gcc/pic32c/8.3.1/../../../../pic32c/lib/thumb/v6-m/nofp\libc-musl.a(__fmt_fp.o)
 .debug_aranges
                0x0000000000000d88       0x20 c:/program files/microchip/xc32/v4.60/bin/bin/../../lib/gcc/pic32c/8.3.1/../../../../pic32c/lib/thumb/v6-m/nofp\libc-musl.a(__fmt_s.o)
 .debug_aranges
                0x0000000000000da8       0x20 c:/program files/microchip/xc32/v4.60/bin/bin/../../lib/gcc/pic32c/8.3.1/../../../../pic32c/lib/thumb/v6-m/nofp\libc-musl.a(__fmt_u.o)
 .debug_aranges
                0x0000000000000dc8       0x20 c:/program files/microchip/xc32/v4.60/bin/bin/../../lib/gcc/pic32c/8.3.1/../../../../pic32c/lib/thumb/v6-m/nofp\libc-musl.a(__fmt_x.o)
 .debug_aranges
                0x0000000000000de8       0x20 c:/program files/microchip/xc32/v4.60/bin/bin/../../lib/gcc/pic32c/8.3.1/../../../../pic32c/lib/thumb/v6-m/nofp\libc-musl.a(__pop_float.o)
 .debug_aranges
                0x0000000000000e08       0x20 c:/program files/microchip/xc32/v4.60/bin/bin/../../lib/gcc/pic32c/8.3.1/../../../../pic32c/lib/thumb/v6-m/nofp\libc-musl.a(__pop_int.o)
 .debug_aranges
                0x0000000000000e28       0x20 c:/program files/microchip/xc32/v4.60/bin/bin/../../lib/gcc/pic32c/8.3.1/../../../../pic32c/lib/thumb/v6-m/nofp\libc-musl.a(__pop_ptr.o)
 .debug_aranges
                0x0000000000000e48       0x50 c:/program files/microchip/xc32/v4.60/bin/bin/../../lib/gcc/pic32c/8.3.1/../../../../pic32c/lib/thumb/v6-m/nofp\libc-musl.a(__printf_core.o)
 .debug_aranges
                0x0000000000000e98       0x28 c:/program files/microchip/xc32/v4.60/bin/bin/../../lib/gcc/pic32c/8.3.1/../../../../pic32c/lib/thumb/v6-m/nofp\libc-musl.a(stdin.o)
 .debug_aranges
                0x0000000000000ec0       0x30 c:/program files/microchip/xc32/v4.60/bin/bin/../../lib/gcc/pic32c/8.3.1/../../../../pic32c/lib/thumb/v6-m/nofp\libc-musl.a(stdout.o)
 .debug_aranges
                0x0000000000000ef0       0x20 c:/program files/microchip/xc32/v4.60/bin/bin/../../lib/gcc/pic32c/8.3.1/../../../../pic32c/lib/thumb/v6-m/nofp\libc-musl.a(putchar.o)
 .debug_aranges
                0x0000000000000f10       0x20 c:/program files/microchip/xc32/v4.60/bin/bin/../../lib/gcc/pic32c/8.3.1/../../../../pic32c/lib/thumb/v6-m/nofp\libc-musl.a(puts.o)
 .debug_aranges
                0x0000000000000f30       0x20 c:/program files/microchip/xc32/v4.60/bin/bin/../../lib/gcc/pic32c/8.3.1/../../../../pic32c/lib/thumb/v6-m/nofp\libc-musl.a(setbuf.o)
 .debug_aranges
                0x0000000000000f50       0x20 c:/program files/microchip/xc32/v4.60/bin/bin/../../lib/gcc/pic32c/8.3.1/../../../../pic32c/lib/thumb/v6-m/nofp\libc-musl.a(atoi.o)
 .debug_aranges
                0x0000000000000f70       0x20 c:/program files/microchip/xc32/v4.60/bin/bin/../../lib/gcc/pic32c/8.3.1/../../../../pic32c/lib/thumb/v6-m/nofp\libc-musl.a(gmtime.o)
 .debug_aranges
                0x0000000000000f90       0x20 c:/program files/microchip/xc32/v4.60/bin/bin/../../lib/gcc/pic32c/8.3.1/../../../../pic32c/lib/thumb/v6-m/nofp\libc-musl.a(gmtime_r.o)
 .debug_aranges
                0x0000000000000fb0       0x20 c:/program files/microchip/xc32/v4.60/bin/bin/../../lib/gcc/pic32c/8.3.1/../../../../pic32c/lib/thumb/v6-m/nofp\libc-musl.a(mktime.o)
 .debug_aranges
                0x0000000000000fd0       0x28 c:/program files/microchip/xc32/v4.60/bin/bin/../../lib/gcc/pic32c/8.3.1/../../../../pic32c/lib/thumb/v6-m/nofp\libc-musl.a(tolower.o)
 .debug_aranges
                0x0000000000000ff8       0x28 c:/program files/microchip/xc32/v4.60/bin/bin/../../lib/gcc/pic32c/8.3.1/../../../../pic32c/lib/thumb/v6-m/nofp\libc-musl.a(toupper.o)
 .debug_aranges
                0x0000000000001020       0x18 c:/program files/microchip/xc32/v4.60/bin/bin/../../lib/gcc/pic32c/8.3.1/../../../../pic32c/lib/thumb/v6-m/nofp\libc-musl.a(__environ.o)
 .debug_aranges
                0x0000000000001038       0x20 c:/program files/microchip/xc32/v4.60/bin/bin/../../lib/gcc/pic32c/8.3.1/../../../../pic32c/lib/thumb/v6-m/nofp\libc-musl.a(__int_vfprintf.o)
 .debug_aranges
                0x0000000000001058       0x20 c:/program files/microchip/xc32/v4.60/bin/bin/../../lib/gcc/pic32c/8.3.1/../../../../pic32c/lib/thumb/v6-m/nofp\libc-musl.a(__int_vsprintf.o)
 .debug_aranges
                0x0000000000001078       0x20 c:/program files/microchip/xc32/v4.60/bin/bin/../../lib/gcc/pic32c/8.3.1/../../../../pic32c/lib/thumb/v6-m/nofp\libc-musl.a(fputs.o)
 .debug_aranges
                0x0000000000001098       0x20 c:/program files/microchip/xc32/v4.60/bin/bin/../../lib/gcc/pic32c/8.3.1/../../../../pic32c/lib/thumb/v6-m/nofp\libc-musl.a(__cvt_u.o)
 .debug_aranges
                0x00000000000010b8       0x20 c:/program files/microchip/xc32/v4.60/bin/bin/../../lib/gcc/pic32c/8.3.1/../../../../pic32c/lib/thumb/v6-m/nofp\libc-musl.a(__stdio_read.o)
 .debug_aranges
                0x00000000000010d8       0x20 c:/program files/microchip/xc32/v4.60/bin/bin/../../lib/gcc/pic32c/8.3.1/../../../../pic32c/lib/thumb/v6-m/nofp\libc-musl.a(__towrite_rw.o)
 .debug_aranges
                0x00000000000010f8       0x28 c:/program files/microchip/xc32/v4.60/bin/bin/../../lib/gcc/pic32c/8.3.1/../../../../pic32c/lib/thumb/v6-m/nofp\libc-musl.a(fwrite.o)
 .debug_aranges
                0x0000000000001120       0x30 c:/program files/microchip/xc32/v4.60/bin/bin/../../lib/gcc/pic32c/8.3.1/../../../../pic32c/lib/thumb/v6-m/nofp\libc-musl.a(putc.o)
 .debug_aranges
                0x0000000000001150       0x28 c:/program files/microchip/xc32/v4.60/bin/bin/../../lib/gcc/pic32c/8.3.1/../../../../pic32c/lib/thumb/v6-m/nofp\libc-musl.a(setvbuf.o)
 .debug_aranges
                0x0000000000001178       0x20 c:/program files/microchip/xc32/v4.60/bin/bin/../../lib/gcc/pic32c/8.3.1/../../../../pic32c/lib/thumb/v6-m/nofp\libc-musl.a(__tm_to_secs.o)
 .debug_aranges
                0x0000000000001198       0x20 c:/program files/microchip/xc32/v4.60/bin/bin/../../lib/gcc/pic32c/8.3.1/../../../../pic32c/lib/thumb/v6-m/nofp\libc-musl.a(__year_to_secs.o)
 .debug_aranges
                0x00000000000011b8       0x20 c:/program files/microchip/xc32/v4.60/bin/bin/../../lib/gcc/pic32c/8.3.1/../../../../pic32c/lib/thumb/v6-m/nofp\libc-musl.a(__secs_to_tm.o)
 .debug_aranges
                0x00000000000011d8       0x20 c:/program files/microchip/xc32/v4.60/bin/bin/../../lib/gcc/pic32c/8.3.1/../../../../pic32c/lib/thumb/v6-m/nofp\libc-musl.a(readv.o)
 .debug_aranges
                0x00000000000011f8       0x20 c:/program files/microchip/xc32/v4.60/bin/bin/../../lib/gcc/pic32c/8.3.1/../../../../pic32c/lib/thumb/v6-m/nofp\libc-musl.a(__int_vsnprintf.o)
 .debug_aranges
                0x0000000000001218       0x28 c:/program files/microchip/xc32/v4.60/bin/bin/../../lib/gcc/pic32c/8.3.1/../../../../pic32c/lib/thumb/v6-m/nofp\libc-musl.a(__init_stdio.o)
 .debug_aranges
                0x0000000000001240       0x28 c:/program files/microchip/xc32/v4.60/bin/bin/../../lib/gcc/pic32c/8.3.1/../../../../pic32c/lib/thumb/v6-m/nofp\libc-musl.a(__out.o)
 .debug_aranges
                0x0000000000001268       0x20 c:/program files/microchip/xc32/v4.60/bin/bin/../../lib/gcc/pic32c/8.3.1/../../../../pic32c/lib/thumb/v6-m/nofp\libc-musl.a(__putc.o)
 .debug_aranges
                0x0000000000001288       0x30 c:/program files/microchip/xc32/v4.60/bin/bin/../../lib/gcc/pic32c/8.3.1/../../../../pic32c/lib/thumb/v6-m/nofp\libc-musl.a(__stderr.o)
 .debug_aranges
                0x00000000000012b8       0x28 c:/program files/microchip/xc32/v4.60/bin/bin/../../lib/gcc/pic32c/8.3.1/../../../../pic32c/lib/thumb/v6-m/nofp\libc-musl.a(__stdio_close.o)
 .debug_aranges
                0x00000000000012e0       0x28 c:/program files/microchip/xc32/v4.60/bin/bin/../../lib/gcc/pic32c/8.3.1/../../../../pic32c/lib/thumb/v6-m/nofp\libc-musl.a(__stdio_write.o)
 .debug_aranges
                0x0000000000001308       0x30 c:/program files/microchip/xc32/v4.60/bin/bin/../../lib/gcc/pic32c/8.3.1/../../../../pic32c/lib/thumb/v6-m/nofp\libc-musl.a(__stdout.o)
 .debug_aranges
                0x0000000000001338       0x28 c:/program files/microchip/xc32/v4.60/bin/bin/../../lib/gcc/pic32c/8.3.1/../../../../pic32c/lib/thumb/v6-m/nofp\libc-musl.a(__towrite.o)
 .debug_aranges
                0x0000000000001360       0x20 c:/program files/microchip/xc32/v4.60/bin/bin/../../lib/gcc/pic32c/8.3.1/../../../../pic32c/lib/thumb/v6-m/nofp\libc-musl.a(__month_to_secs.o)
 .debug_aranges
                0x0000000000001380       0x20 c:/program files/microchip/xc32/v4.60/bin/bin/../../lib/gcc/pic32c/8.3.1/../../../../pic32c/lib/thumb/v6-m/nofp\libc-musl.a(writev.o)
 .debug_aranges
                0x00000000000013a0       0x20 c:/program files/microchip/xc32/v4.60/bin/bin/../../lib/gcc/pic32c/8.3.1/../../../../pic32c/lib/thumb/v6-m/nofp\libc-musl.a(__overflow.o)
 .debug_aranges
                0x00000000000013c0       0x28 c:/program files/microchip/xc32/v4.60/bin/bin/../../lib/gcc/pic32c/8.3.1/../../../../pic32c/lib/thumb/v6-m/nofp\libc-musl.a(__fwrite.o)
 .debug_aranges
                0x00000000000013e8       0x20 c:/program files/microchip/xc32/v4.60/bin/bin/../../lib/gcc/pic32c/8.3.1/thumb/v6-m/nofp\libgcc.a(_udivsi3.o)
 .debug_aranges
                0x0000000000001408       0x20 c:/program files/microchip/xc32/v4.60/bin/bin/../../lib/gcc/pic32c/8.3.1/thumb/v6-m/nofp\libgcc.a(_divsi3.o)
 .debug_aranges
                0x0000000000001428       0x20 c:/program files/microchip/xc32/v4.60/bin/bin/../../lib/gcc/pic32c/8.3.1/thumb/v6-m/nofp\libgcc.a(_dvmd_tls.o)
 .debug_aranges
                0x0000000000001448       0x20 c:/program files/microchip/xc32/v4.60/bin/bin/../../lib/gcc/pic32c/8.3.1/thumb/v6-m/nofp\libgcc.a(_aeabi_ldivmod.o)
 .debug_aranges
                0x0000000000001468       0x20 c:/program files/microchip/xc32/v4.60/bin/bin/../../lib/gcc/pic32c/8.3.1/thumb/v6-m/nofp\libgcc.a(_aeabi_uldivmod.o)
 .debug_aranges
                0x0000000000001488       0x20 c:/program files/microchip/xc32/v4.60/bin/bin/../../lib/gcc/pic32c/8.3.1/thumb/v6-m/nofp\libgcc.a(_muldi3.o)
 .debug_aranges
                0x00000000000014a8       0x20 c:/program files/microchip/xc32/v4.60/bin/bin/../../lib/gcc/pic32c/8.3.1/thumb/v6-m/nofp\libgcc.a(_udivmoddi4.o)
 .debug_aranges
                0x00000000000014c8       0x20 c:/program files/microchip/xc32/v4.60/bin/bin/../../lib/gcc/pic32c/8.3.1/thumb/v6-m/nofp\libgcc.a(bpabi.o)
 .debug_aranges
                0x00000000000014e8       0x20 c:/program files/microchip/xc32/v4.60/bin/bin/../../lib/gcc/pic32c/8.3.1/thumb/v6-m/nofp\libgcc.a(_lshrdi3.o)
 .debug_aranges
                0x0000000000001508       0x20 c:/program files/microchip/xc32/v4.60/bin/bin/../../lib/gcc/pic32c/8.3.1/thumb/v6-m/nofp\libgcc.a(_ashldi3.o)
 .debug_aranges
                0x0000000000001528       0x20 c:/program files/microchip/xc32/v4.60/bin/bin/../../lib/gcc/pic32c/8.3.1/thumb/v6-m/nofp\libgcc.a(_clzdi2.o)
 .debug_aranges
                0x0000000000001548       0x20 c:/program files/microchip/xc32/v4.60/bin/bin/../../lib/gcc/pic32c/8.3.1/thumb/v6-m/nofp\libgcc.a(_divdi3.o)
 .debug_aranges
                0x0000000000001568       0x20 c:/program files/microchip/xc32/v4.60/bin/bin/../../lib/gcc/pic32c/8.3.1/thumb/v6-m/nofp\libgcc.a(_clzsi2.o)
 .debug_aranges
                0x0000000000001588       0x20 c:/program files/microchip/xc32/v4.60/bin/bin/../../lib/gcc/pic32c/8.3.1/../../../../pic32c/lib/thumb/v6-m/nofp\libpic32c.a(close.o)
 .debug_aranges
                0x00000000000015a8       0x20 c:/program files/microchip/xc32/v4.60/bin/bin/../../lib/gcc/pic32c/8.3.1/../../../../pic32c/lib/thumb/v6-m/nofp\libpic32c.a(lseek.o)
 .debug_aranges
                0x00000000000015c8       0x30 c:/program files/microchip/xc32/v4.60/bin/bin/../../lib/gcc/pic32c/8.3.1/../../../../pic32c/lib/thumb/v6-m/nofp\libpic32c.a(sbrk.o)
 .debug_aranges
                0x00000000000015f8       0x20 c:/program files/microchip/xc32/v4.60/bin/bin/../../lib/gcc/pic32c/8.3.1/../../../../pic32c/lib/thumb/v6-m/nofp\libc-size-musl.a(strcpy.o)
 .debug_aranges
                0x0000000000001618       0x20 c:/program files/microchip/xc32/v4.60/bin/bin/../../lib/gcc/pic32c/8.3.1/../../../../pic32c/lib/thumb/v6-m/nofp\libc-size-musl.a(stpcpy.o)
 .debug_aranges
                0x0000000000001638       0x20 c:/program files/microchip/xc32/v4.60/bin/bin/../../lib/gcc/pic32c/8.3.1/../../../../pic32c/lib/thumb/v6-m/nofp\libpic32c.a(pic32_data_init_clear.o)
 .debug_aranges
                0x0000000000001658       0x20 c:/program files/microchip/xc32/v4.60/bin/bin/../../lib/gcc/pic32c/8.3.1/../../../../pic32c/lib/thumb/v6-m/nofp\libpic32c.a(pic32_data_init_copy.o)

.debug_ranges   0x0000000000000000     0x2b70
 .debug_ranges  0x0000000000000000       0x18 build/SAMD21_IOT_WG_ICM42688/production/_ext/2048461350/icm42688_sensor.o
 .debug_ranges  0x0000000000000018      0x3c8 build/SAMD21_IOT_WG_ICM42688/production/_ext/1660664302/drv_spi.o
 .debug_ranges  0x00000000000003e0       0xd8 build/SAMD21_IOT_WG_ICM42688/production/_ext/101005277/wdrv_winc_spi.o
 .debug_ranges  0x00000000000004b8       0x50 build/SAMD21_IOT_WG_ICM42688/production/_ext/121554788/m2m_ssl.o
 .debug_ranges  0x0000000000000508      0x118 build/SAMD21_IOT_WG_ICM42688/production/_ext/121554788/m2m_hif.o
 .debug_ranges  0x0000000000000620      0x160 build/SAMD21_IOT_WG_ICM42688/production/_ext/121554788/m2m_wifi.o
 .debug_ranges  0x0000000000000780      0x398 build/SAMD21_IOT_WG_ICM42688/production/_ext/121554788/nmspi.o
 .debug_ranges  0x0000000000000b18       0x48 build/SAMD21_IOT_WG_ICM42688/production/_ext/121554788/nmasic.o
 .debug_ranges  0x0000000000000b60       0x18 build/SAMD21_IOT_WG_ICM42688/production/_ext/121554788/nmbus.o
 .debug_ranges  0x0000000000000b78      0x160 build/SAMD21_IOT_WG_ICM42688/production/_ext/548032175/socket.o
 .debug_ranges  0x0000000000000cd8       0x20 build/SAMD21_IOT_WG_ICM42688/production/_ext/609036575/flexible_flash.o
 .debug_ranges  0x0000000000000cf8       0x58 build/SAMD21_IOT_WG_ICM42688/production/_ext/609036575/spi_flash.o
 .debug_ranges  0x0000000000000d50       0x58 build/SAMD21_IOT_WG_ICM42688/production/_ext/907429946/wdrv_winc_sta.o
 .debug_ranges  0x0000000000000da8       0xb8 build/SAMD21_IOT_WG_ICM42688/production/_ext/907429946/wdrv_winc_socket.o
 .debug_ranges  0x0000000000000e60       0x80 build/SAMD21_IOT_WG_ICM42688/production/_ext/907429946/wdrv_winc_authctx.o
 .debug_ranges  0x0000000000000ee0       0xf0 build/SAMD21_IOT_WG_ICM42688/production/_ext/907429946/wdrv_winc_host_file.o
 .debug_ranges  0x0000000000000fd0      0x1d8 build/SAMD21_IOT_WG_ICM42688/production/_ext/907429946/wdrv_winc.o
 .debug_ranges  0x00000000000011a8       0x38 build/SAMD21_IOT_WG_ICM42688/production/_ext/1750425231/plib_clock.o
 .debug_ranges  0x00000000000011e0       0x40 build/SAMD21_IOT_WG_ICM42688/production/_ext/1580516298/plib_dmac.o
 .debug_ranges  0x0000000000001220      0x1a8 build/SAMD21_IOT_WG_ICM42688/production/_ext/1580823105/plib_nvic.o
 .debug_ranges  0x00000000000013c8       0x18 build/SAMD21_IOT_WG_ICM42688/production/_ext/1580876256/plib_port.o
 .debug_ranges  0x00000000000013e0       0x30 build/SAMD21_IOT_WG_ICM42688/production/_ext/1014017276/plib_sercom0_spi_master.o
 .debug_ranges  0x0000000000001410       0x40 build/SAMD21_IOT_WG_ICM42688/production/_ext/1014017276/plib_sercom2_spi_master.o
 .debug_ranges  0x0000000000001450       0x18 build/SAMD21_IOT_WG_ICM42688/production/_ext/177673482/plib_sercom5_usart.o
 .debug_ranges  0x0000000000001468       0x30 build/SAMD21_IOT_WG_ICM42688/production/_ext/1318297016/sys_int.o
 .debug_ranges  0x0000000000001498      0x340 build/SAMD21_IOT_WG_ICM42688/production/_ext/386530258/sys_time.o
 .debug_ranges  0x00000000000017d8       0x18 build/SAMD21_IOT_WG_ICM42688/production/_ext/1832905403/initialization.o
 .debug_ranges  0x00000000000017f0       0x18 build/SAMD21_IOT_WG_ICM42688/production/_ext/1832905403/startup_xc32.o
 .debug_ranges  0x0000000000001808      0x3c8 build/SAMD21_IOT_WG_ICM42688/production/_ext/1341251756/Icm426xxDriver_HL.o
 .debug_ranges  0x0000000000001bd0       0xc8 build/SAMD21_IOT_WG_ICM42688/production/_ext/1341251756/Icm426xxTransport.o
 .debug_ranges  0x0000000000001c98      0x320 build/SAMD21_IOT_WG_ICM42688/production/_ext/596309756/kb.o
 .debug_ranges  0x0000000000001fb8       0xb0 build/SAMD21_IOT_WG_ICM42688/production/_ext/596309756/kb_output.o
 .debug_ranges  0x0000000000002068       0x58 build/SAMD21_IOT_WG_ICM42688/production/_ext/596309756/ma_symmetric.o
 .debug_ranges  0x00000000000020c0      0x1e8 build/SAMD21_IOT_WG_ICM42688/production/_ext/596309756/pme.o
 .debug_ranges  0x00000000000022a8       0x88 build/SAMD21_IOT_WG_ICM42688/production/_ext/596309756/rb.o
 .debug_ranges  0x0000000000002330       0x18 build/SAMD21_IOT_WG_ICM42688/production/_ext/596309756/sorted_copy.o
 .debug_ranges  0x0000000000002348       0x20 build/SAMD21_IOT_WG_ICM42688/production/_ext/596309756/utils_buffer_cumsum.o
 .debug_ranges  0x0000000000002368       0x18 build/SAMD21_IOT_WG_ICM42688/production/_ext/596309756/utils_model_stats_max_min.o
 .debug_ranges  0x0000000000002380       0x80 build/SAMD21_IOT_WG_ICM42688/production/_ext/1360937237/main.o
 .debug_ranges  0x0000000000002400       0xe0 build/SAMD21_IOT_WG_ICM42688/production/_ext/1360937237/ringbuffer.o
 .debug_ranges  0x00000000000024e0       0x80 build/SAMD21_IOT_WG_ICM42688/production/_ext/1360937237/ws2812.o
 .debug_ranges  0x0000000000002560       0x20 c:/program files/microchip/xc32/v4.60/bin/bin/../../lib/gcc/pic32c/8.3.1/../../../../pic32c/lib/thumb/v6-m/nofp\libpic32c.a(data_init.o)
 .debug_ranges  0x0000000000002580       0x10 c:/program files/microchip/xc32/v4.60/bin/bin/../../lib/gcc/pic32c/8.3.1/../../../../pic32c/lib/thumb/v6-m/nofp\libc-size-musl.a(memcpy.o)
 .debug_ranges  0x0000000000002590       0x10 c:/program files/microchip/xc32/v4.60/bin/bin/../../lib/gcc/pic32c/8.3.1/../../../../pic32c/lib/thumb/v6-m/nofp\libc-size-musl.a(memset.o)
 .debug_ranges  0x00000000000025a0       0x10 c:/program files/microchip/xc32/v4.60/bin/bin/../../lib/gcc/pic32c/8.3.1/../../../../pic32c/lib/thumb/v6-m/nofp\libc-size-musl.a(strlen.o)
 .debug_ranges  0x00000000000025b0       0x10 c:/program files/microchip/xc32/v4.60/bin/bin/../../lib/gcc/pic32c/8.3.1/../../../../pic32c/lib/thumb/v6-m/nofp\libc-size-musl.a(strchr.o)
 .debug_ranges  0x00000000000025c0       0x10 c:/program files/microchip/xc32/v4.60/bin/bin/../../lib/gcc/pic32c/8.3.1/../../../../pic32c/lib/thumb/v6-m/nofp\libc-size-musl.a(strchrnul.o)
 .debug_ranges  0x00000000000025d0       0x10 c:/program files/microchip/xc32/v4.60/bin/bin/../../lib/gcc/pic32c/8.3.1/../../../../pic32c/lib/thumb/v6-m/nofp\libc-size-musl.a(strnlen.o)
 .debug_ranges  0x00000000000025e0       0x10 c:/program files/microchip/xc32/v4.60/bin/bin/../../lib/gcc/pic32c/8.3.1/../../../../pic32c/lib/thumb/v6-m/nofp\libc-size-musl.a(memchr.o)
 .debug_ranges  0x00000000000025f0       0x10 c:/program files/microchip/xc32/v4.60/bin/bin/../../lib/gcc/pic32c/8.3.1/../../../../pic32c/lib/thumb/v6-m/nofp\liblmalloc-musl.a(lite_calloc.o)
 .debug_ranges  0x0000000000002600       0x38 c:/program files/microchip/xc32/v4.60/bin/bin/../../lib/gcc/pic32c/8.3.1/../../../../pic32c/lib/thumb/v6-m/nofp\liblmalloc-musl.a(lite_free.o)
 .debug_ranges  0x0000000000002638       0x10 c:/program files/microchip/xc32/v4.60/bin/bin/../../lib/gcc/pic32c/8.3.1/../../../../pic32c/lib/thumb/v6-m/nofp\liblmalloc-musl.a(lite_malloc.o)
 .debug_ranges  0x0000000000002648       0x30 c:/program files/microchip/xc32/v4.60/bin/bin/../../lib/gcc/pic32c/8.3.1/../../../../pic32c/lib/thumb/v6-m/nofp\libc-musl.a(__libc_start_main.o)
 .debug_ranges  0x0000000000002678       0x10 c:/program files/microchip/xc32/v4.60/bin/bin/../../lib/gcc/pic32c/8.3.1/../../../../pic32c/lib/thumb/v6-m/nofp\libc-musl.a(expand_heap.o)
 .debug_ranges  0x0000000000002688       0x18 c:/program files/microchip/xc32/v4.60/bin/bin/../../lib/gcc/pic32c/8.3.1/../../../../pic32c/lib/thumb/v6-m/nofp\libc-musl.a(__sio_printf_cdeEfFgGnpsuxX.o)
 .debug_ranges  0x00000000000026a0       0x18 c:/program files/microchip/xc32/v4.60/bin/bin/../../lib/gcc/pic32c/8.3.1/../../../../pic32c/lib/thumb/v6-m/nofp\libc-musl.a(__sio_sprintf_cdeEfFgGnpsuxX.o)
 .debug_ranges  0x00000000000026b8       0x10 c:/program files/microchip/xc32/v4.60/bin/bin/../../lib/gcc/pic32c/8.3.1/../../../../pic32c/lib/thumb/v6-m/nofp\libc-musl.a(__fmt_d.o)
 .debug_ranges  0x00000000000026c8       0x10 c:/program files/microchip/xc32/v4.60/bin/bin/../../lib/gcc/pic32c/8.3.1/../../../../pic32c/lib/thumb/v6-m/nofp\libc-musl.a(__fmt_fp.o)
 .debug_ranges  0x00000000000026d8       0x10 c:/program files/microchip/xc32/v4.60/bin/bin/../../lib/gcc/pic32c/8.3.1/../../../../pic32c/lib/thumb/v6-m/nofp\libc-musl.a(__fmt_s.o)
 .debug_ranges  0x00000000000026e8       0x10 c:/program files/microchip/xc32/v4.60/bin/bin/../../lib/gcc/pic32c/8.3.1/../../../../pic32c/lib/thumb/v6-m/nofp\libc-musl.a(__fmt_u.o)
 .debug_ranges  0x00000000000026f8       0x10 c:/program files/microchip/xc32/v4.60/bin/bin/../../lib/gcc/pic32c/8.3.1/../../../../pic32c/lib/thumb/v6-m/nofp\libc-musl.a(__fmt_x.o)
 .debug_ranges  0x0000000000002708       0x10 c:/program files/microchip/xc32/v4.60/bin/bin/../../lib/gcc/pic32c/8.3.1/../../../../pic32c/lib/thumb/v6-m/nofp\libc-musl.a(__pop_float.o)
 .debug_ranges  0x0000000000002718       0x10 c:/program files/microchip/xc32/v4.60/bin/bin/../../lib/gcc/pic32c/8.3.1/../../../../pic32c/lib/thumb/v6-m/nofp\libc-musl.a(__pop_int.o)
 .debug_ranges  0x0000000000002728       0x10 c:/program files/microchip/xc32/v4.60/bin/bin/../../lib/gcc/pic32c/8.3.1/../../../../pic32c/lib/thumb/v6-m/nofp\libc-musl.a(__pop_ptr.o)
 .debug_ranges  0x0000000000002738       0x58 c:/program files/microchip/xc32/v4.60/bin/bin/../../lib/gcc/pic32c/8.3.1/../../../../pic32c/lib/thumb/v6-m/nofp\libc-musl.a(__printf_core.o)
 .debug_ranges  0x0000000000002790       0x18 c:/program files/microchip/xc32/v4.60/bin/bin/../../lib/gcc/pic32c/8.3.1/../../../../pic32c/lib/thumb/v6-m/nofp\libc-musl.a(stdin.o)
 .debug_ranges  0x00000000000027a8       0x20 c:/program files/microchip/xc32/v4.60/bin/bin/../../lib/gcc/pic32c/8.3.1/../../../../pic32c/lib/thumb/v6-m/nofp\libc-musl.a(stdout.o)
 .debug_ranges  0x00000000000027c8       0x10 c:/program files/microchip/xc32/v4.60/bin/bin/../../lib/gcc/pic32c/8.3.1/../../../../pic32c/lib/thumb/v6-m/nofp\libc-musl.a(putchar.o)
 .debug_ranges  0x00000000000027d8       0x10 c:/program files/microchip/xc32/v4.60/bin/bin/../../lib/gcc/pic32c/8.3.1/../../../../pic32c/lib/thumb/v6-m/nofp\libc-musl.a(puts.o)
 .debug_ranges  0x00000000000027e8       0x10 c:/program files/microchip/xc32/v4.60/bin/bin/../../lib/gcc/pic32c/8.3.1/../../../../pic32c/lib/thumb/v6-m/nofp\libc-musl.a(setbuf.o)
 .debug_ranges  0x00000000000027f8       0x10 c:/program files/microchip/xc32/v4.60/bin/bin/../../lib/gcc/pic32c/8.3.1/../../../../pic32c/lib/thumb/v6-m/nofp\libc-musl.a(atoi.o)
 .debug_ranges  0x0000000000002808       0x10 c:/program files/microchip/xc32/v4.60/bin/bin/../../lib/gcc/pic32c/8.3.1/../../../../pic32c/lib/thumb/v6-m/nofp\libc-musl.a(gmtime.o)
 .debug_ranges  0x0000000000002818       0x10 c:/program files/microchip/xc32/v4.60/bin/bin/../../lib/gcc/pic32c/8.3.1/../../../../pic32c/lib/thumb/v6-m/nofp\libc-musl.a(gmtime_r.o)
 .debug_ranges  0x0000000000002828       0x10 c:/program files/microchip/xc32/v4.60/bin/bin/../../lib/gcc/pic32c/8.3.1/../../../../pic32c/lib/thumb/v6-m/nofp\libc-musl.a(mktime.o)
 .debug_ranges  0x0000000000002838       0x18 c:/program files/microchip/xc32/v4.60/bin/bin/../../lib/gcc/pic32c/8.3.1/../../../../pic32c/lib/thumb/v6-m/nofp\libc-musl.a(tolower.o)
 .debug_ranges  0x0000000000002850       0x18 c:/program files/microchip/xc32/v4.60/bin/bin/../../lib/gcc/pic32c/8.3.1/../../../../pic32c/lib/thumb/v6-m/nofp\libc-musl.a(toupper.o)
 .debug_ranges  0x0000000000002868       0x10 c:/program files/microchip/xc32/v4.60/bin/bin/../../lib/gcc/pic32c/8.3.1/../../../../pic32c/lib/thumb/v6-m/nofp\libc-musl.a(__int_vfprintf.o)
 .debug_ranges  0x0000000000002878       0x10 c:/program files/microchip/xc32/v4.60/bin/bin/../../lib/gcc/pic32c/8.3.1/../../../../pic32c/lib/thumb/v6-m/nofp\libc-musl.a(__int_vsprintf.o)
 .debug_ranges  0x0000000000002888       0x10 c:/program files/microchip/xc32/v4.60/bin/bin/../../lib/gcc/pic32c/8.3.1/../../../../pic32c/lib/thumb/v6-m/nofp\libc-musl.a(fputs.o)
 .debug_ranges  0x0000000000002898       0x10 c:/program files/microchip/xc32/v4.60/bin/bin/../../lib/gcc/pic32c/8.3.1/../../../../pic32c/lib/thumb/v6-m/nofp\libc-musl.a(__cvt_u.o)
 .debug_ranges  0x00000000000028a8       0x10 c:/program files/microchip/xc32/v4.60/bin/bin/../../lib/gcc/pic32c/8.3.1/../../../../pic32c/lib/thumb/v6-m/nofp\libc-musl.a(__stdio_read.o)
 .debug_ranges  0x00000000000028b8       0x10 c:/program files/microchip/xc32/v4.60/bin/bin/../../lib/gcc/pic32c/8.3.1/../../../../pic32c/lib/thumb/v6-m/nofp\libc-musl.a(__towrite_rw.o)
 .debug_ranges  0x00000000000028c8       0x18 c:/program files/microchip/xc32/v4.60/bin/bin/../../lib/gcc/pic32c/8.3.1/../../../../pic32c/lib/thumb/v6-m/nofp\libc-musl.a(fwrite.o)
 .debug_ranges  0x00000000000028e0       0x20 c:/program files/microchip/xc32/v4.60/bin/bin/../../lib/gcc/pic32c/8.3.1/../../../../pic32c/lib/thumb/v6-m/nofp\libc-musl.a(putc.o)
 .debug_ranges  0x0000000000002900       0x18 c:/program files/microchip/xc32/v4.60/bin/bin/../../lib/gcc/pic32c/8.3.1/../../../../pic32c/lib/thumb/v6-m/nofp\libc-musl.a(setvbuf.o)
 .debug_ranges  0x0000000000002918       0x10 c:/program files/microchip/xc32/v4.60/bin/bin/../../lib/gcc/pic32c/8.3.1/../../../../pic32c/lib/thumb/v6-m/nofp\libc-musl.a(__tm_to_secs.o)
 .debug_ranges  0x0000000000002928       0x28 c:/program files/microchip/xc32/v4.60/bin/bin/../../lib/gcc/pic32c/8.3.1/../../../../pic32c/lib/thumb/v6-m/nofp\libc-musl.a(__year_to_secs.o)
 .debug_ranges  0x0000000000002950       0x10 c:/program files/microchip/xc32/v4.60/bin/bin/../../lib/gcc/pic32c/8.3.1/../../../../pic32c/lib/thumb/v6-m/nofp\libc-musl.a(__secs_to_tm.o)
 .debug_ranges  0x0000000000002960       0x10 c:/program files/microchip/xc32/v4.60/bin/bin/../../lib/gcc/pic32c/8.3.1/../../../../pic32c/lib/thumb/v6-m/nofp\libc-musl.a(readv.o)
 .debug_ranges  0x0000000000002970       0x10 c:/program files/microchip/xc32/v4.60/bin/bin/../../lib/gcc/pic32c/8.3.1/../../../../pic32c/lib/thumb/v6-m/nofp\libc-musl.a(__int_vsnprintf.o)
 .debug_ranges  0x0000000000002980       0x18 c:/program files/microchip/xc32/v4.60/bin/bin/../../lib/gcc/pic32c/8.3.1/../../../../pic32c/lib/thumb/v6-m/nofp\libc-musl.a(__init_stdio.o)
 .debug_ranges  0x0000000000002998       0x18 c:/program files/microchip/xc32/v4.60/bin/bin/../../lib/gcc/pic32c/8.3.1/../../../../pic32c/lib/thumb/v6-m/nofp\libc-musl.a(__out.o)
 .debug_ranges  0x00000000000029b0       0x10 c:/program files/microchip/xc32/v4.60/bin/bin/../../lib/gcc/pic32c/8.3.1/../../../../pic32c/lib/thumb/v6-m/nofp\libc-musl.a(__putc.o)
 .debug_ranges  0x00000000000029c0       0x20 c:/program files/microchip/xc32/v4.60/bin/bin/../../lib/gcc/pic32c/8.3.1/../../../../pic32c/lib/thumb/v6-m/nofp\libc-musl.a(__stderr.o)
 .debug_ranges  0x00000000000029e0       0x18 c:/program files/microchip/xc32/v4.60/bin/bin/../../lib/gcc/pic32c/8.3.1/../../../../pic32c/lib/thumb/v6-m/nofp\libc-musl.a(__stdio_close.o)
 .debug_ranges  0x00000000000029f8       0x30 c:/program files/microchip/xc32/v4.60/bin/bin/../../lib/gcc/pic32c/8.3.1/../../../../pic32c/lib/thumb/v6-m/nofp\libc-musl.a(__stdio_write.o)
 .debug_ranges  0x0000000000002a28       0x20 c:/program files/microchip/xc32/v4.60/bin/bin/../../lib/gcc/pic32c/8.3.1/../../../../pic32c/lib/thumb/v6-m/nofp\libc-musl.a(__stdout.o)
 .debug_ranges  0x0000000000002a48       0x18 c:/program files/microchip/xc32/v4.60/bin/bin/../../lib/gcc/pic32c/8.3.1/../../../../pic32c/lib/thumb/v6-m/nofp\libc-musl.a(__towrite.o)
 .debug_ranges  0x0000000000002a60       0x10 c:/program files/microchip/xc32/v4.60/bin/bin/../../lib/gcc/pic32c/8.3.1/../../../../pic32c/lib/thumb/v6-m/nofp\libc-musl.a(__month_to_secs.o)
 .debug_ranges  0x0000000000002a70       0x10 c:/program files/microchip/xc32/v4.60/bin/bin/../../lib/gcc/pic32c/8.3.1/../../../../pic32c/lib/thumb/v6-m/nofp\libc-musl.a(writev.o)
 .debug_ranges  0x0000000000002a80       0x10 c:/program files/microchip/xc32/v4.60/bin/bin/../../lib/gcc/pic32c/8.3.1/../../../../pic32c/lib/thumb/v6-m/nofp\libc-musl.a(__overflow.o)
 .debug_ranges  0x0000000000002a90       0x18 c:/program files/microchip/xc32/v4.60/bin/bin/../../lib/gcc/pic32c/8.3.1/../../../../pic32c/lib/thumb/v6-m/nofp\libc-musl.a(__fwrite.o)
 .debug_ranges  0x0000000000002aa8       0x28 c:/program files/microchip/xc32/v4.60/bin/bin/../../lib/gcc/pic32c/8.3.1/thumb/v6-m/nofp\libgcc.a(_muldi3.o)
 .debug_ranges  0x0000000000002ad0       0x20 c:/program files/microchip/xc32/v4.60/bin/bin/../../lib/gcc/pic32c/8.3.1/thumb/v6-m/nofp\libgcc.a(_divdi3.o)
 .debug_ranges  0x0000000000002af0       0x10 c:/program files/microchip/xc32/v4.60/bin/bin/../../lib/gcc/pic32c/8.3.1/../../../../pic32c/lib/thumb/v6-m/nofp\libpic32c.a(close.o)
 .debug_ranges  0x0000000000002b00       0x10 c:/program files/microchip/xc32/v4.60/bin/bin/../../lib/gcc/pic32c/8.3.1/../../../../pic32c/lib/thumb/v6-m/nofp\libpic32c.a(lseek.o)
 .debug_ranges  0x0000000000002b10       0x20 c:/program files/microchip/xc32/v4.60/bin/bin/../../lib/gcc/pic32c/8.3.1/../../../../pic32c/lib/thumb/v6-m/nofp\libpic32c.a(sbrk.o)
 .debug_ranges  0x0000000000002b30       0x10 c:/program files/microchip/xc32/v4.60/bin/bin/../../lib/gcc/pic32c/8.3.1/../../../../pic32c/lib/thumb/v6-m/nofp\libc-size-musl.a(strcpy.o)
 .debug_ranges  0x0000000000002b40       0x10 c:/program files/microchip/xc32/v4.60/bin/bin/../../lib/gcc/pic32c/8.3.1/../../../../pic32c/lib/thumb/v6-m/nofp\libc-size-musl.a(stpcpy.o)
 .debug_ranges  0x0000000000002b50       0x10 c:/program files/microchip/xc32/v4.60/bin/bin/../../lib/gcc/pic32c/8.3.1/../../../../pic32c/lib/thumb/v6-m/nofp\libpic32c.a(pic32_data_init_clear.o)
 .debug_ranges  0x0000000000002b60       0x10 c:/program files/microchip/xc32/v4.60/bin/bin/../../lib/gcc/pic32c/8.3.1/../../../../pic32c/lib/thumb/v6-m/nofp\libpic32c.a(pic32_data_init_copy.o)

.debug_line     0x0000000000000000    0x25e71
 .debug_line    0x0000000000000000      0x49f build/SAMD21_IOT_WG_ICM42688/production/_ext/2048461350/icm42688_sensor.o
 .debug_line    0x000000000000049f      0x13b build/SAMD21_IOT_WG_ICM42688/production/_ext/171618134/sml_recognition_run.o
 .debug_line    0x00000000000005da     0x17b5 build/SAMD21_IOT_WG_ICM42688/production/_ext/1660664302/drv_spi.o
 .debug_line    0x0000000000001d8f      0x11d build/SAMD21_IOT_WG_ICM42688/production/_ext/1164161090/wdrv_winc_gpio.o
 .debug_line    0x0000000000001eac      0x175 build/SAMD21_IOT_WG_ICM42688/production/_ext/1164161090/wdrv_winc_eint.o
 .debug_line    0x0000000000002021      0x6ef build/SAMD21_IOT_WG_ICM42688/production/_ext/101005277/wdrv_winc_spi.o
 .debug_line    0x0000000000002710      0x1af build/SAMD21_IOT_WG_ICM42688/production/_ext/90265895/nm_common.o
 .debug_line    0x00000000000028bf      0x73f build/SAMD21_IOT_WG_ICM42688/production/_ext/121554788/m2m_ssl.o
 .debug_line    0x0000000000002ffe      0xc4c build/SAMD21_IOT_WG_ICM42688/production/_ext/121554788/m2m_hif.o
 .debug_line    0x0000000000003c4a     0x1b6a build/SAMD21_IOT_WG_ICM42688/production/_ext/121554788/m2m_wifi.o
 .debug_line    0x00000000000057b4      0xf0d build/SAMD21_IOT_WG_ICM42688/production/_ext/121554788/nmspi.o
 .debug_line    0x00000000000066c1      0x547 build/SAMD21_IOT_WG_ICM42688/production/_ext/121554788/nmdrv.o
 .debug_line    0x0000000000006c08      0x7d7 build/SAMD21_IOT_WG_ICM42688/production/_ext/121554788/m2m_ota.o
 .debug_line    0x00000000000073df      0xac4 build/SAMD21_IOT_WG_ICM42688/production/_ext/121554788/nmasic.o
 .debug_line    0x0000000000007ea3      0x333 build/SAMD21_IOT_WG_ICM42688/production/_ext/121554788/nmbus.o
 .debug_line    0x00000000000081d6     0x10ad build/SAMD21_IOT_WG_ICM42688/production/_ext/548032175/socket.o
 .debug_line    0x0000000000009283      0x1df build/SAMD21_IOT_WG_ICM42688/production/_ext/548032175/inet_addr.o
 .debug_line    0x0000000000009462      0x1fb build/SAMD21_IOT_WG_ICM42688/production/_ext/548032175/inet_ntop.o
 .debug_line    0x000000000000965d      0x1cd build/SAMD21_IOT_WG_ICM42688/production/_ext/609036575/flexible_flash.o
 .debug_line    0x000000000000982a      0x882 build/SAMD21_IOT_WG_ICM42688/production/_ext/609036575/spi_flash.o
 .debug_line    0x000000000000a0ac      0x130 build/SAMD21_IOT_WG_ICM42688/production/_ext/1784303044/wdrv_winc_osal.o
 .debug_line    0x000000000000a1dc      0x8f2 build/SAMD21_IOT_WG_ICM42688/production/_ext/907429946/wdrv_winc_sta.o
 .debug_line    0x000000000000aace      0xa5a build/SAMD21_IOT_WG_ICM42688/production/_ext/907429946/wdrv_winc_socket.o
 .debug_line    0x000000000000b528      0x5ac build/SAMD21_IOT_WG_ICM42688/production/_ext/907429946/wdrv_winc_systime.o
 .debug_line    0x000000000000bad4      0x5e3 build/SAMD21_IOT_WG_ICM42688/production/_ext/907429946/wdrv_winc_authctx.o
 .debug_line    0x000000000000c0b7      0xdbb build/SAMD21_IOT_WG_ICM42688/production/_ext/907429946/wdrv_winc_host_file.o
 .debug_line    0x000000000000ce72     0x19f1 build/SAMD21_IOT_WG_ICM42688/production/_ext/907429946/wdrv_winc.o
 .debug_line    0x000000000000e863      0x32c build/SAMD21_IOT_WG_ICM42688/production/_ext/907429946/wdrv_winc_bssctx.o
 .debug_line    0x000000000000eb8f      0x239 build/SAMD21_IOT_WG_ICM42688/production/_ext/1750425231/plib_clock.o
 .debug_line    0x000000000000edc8      0x7d4 build/SAMD21_IOT_WG_ICM42688/production/_ext/1580516298/plib_dmac.o
 .debug_line    0x000000000000f59c      0x293 build/SAMD21_IOT_WG_ICM42688/production/_ext/503204096/plib_eic.o
 .debug_line    0x000000000000f82f      0x619 build/SAMD21_IOT_WG_ICM42688/production/_ext/1580823105/plib_nvic.o
 .debug_line    0x000000000000fe48      0x337 build/SAMD21_IOT_WG_ICM42688/production/_ext/11470383/plib_nvmctrl.o
 .debug_line    0x000000000001017f      0x3be build/SAMD21_IOT_WG_ICM42688/production/_ext/1580876256/plib_port.o
 .debug_line    0x000000000001053d      0x50c build/SAMD21_IOT_WG_ICM42688/production/_ext/1014017276/plib_sercom0_spi_master.o
 .debug_line    0x0000000000010a49      0x823 build/SAMD21_IOT_WG_ICM42688/production/_ext/1014017276/plib_sercom2_spi_master.o
 .debug_line    0x000000000001126c      0x564 build/SAMD21_IOT_WG_ICM42688/production/_ext/177673482/plib_sercom5_usart.o
 .debug_line    0x00000000000117d0      0x303 build/SAMD21_IOT_WG_ICM42688/production/_ext/223004715/plib_systick.o
 .debug_line    0x0000000000011ad3      0x289 build/SAMD21_IOT_WG_ICM42688/production/_ext/399410062/plib_tc3.o
 .debug_line    0x0000000000011d5c      0x2a1 build/SAMD21_IOT_WG_ICM42688/production/_ext/399410062/plib_tc4.o
 .debug_line    0x0000000000011ffd      0x16b build/SAMD21_IOT_WG_ICM42688/production/_ext/1357625803/xc32_monitor.o
 .debug_line    0x0000000000012168      0x16a build/SAMD21_IOT_WG_ICM42688/production/_ext/1584719636/sys_dma.o
 .debug_line    0x00000000000122d2      0x2f5 build/SAMD21_IOT_WG_ICM42688/production/_ext/1318297016/sys_int.o
 .debug_line    0x00000000000125c7     0x14b3 build/SAMD21_IOT_WG_ICM42688/production/_ext/386530258/sys_time.o
 .debug_line    0x0000000000013a7a      0x7cc build/SAMD21_IOT_WG_ICM42688/production/_ext/1832905403/initialization.o
 .debug_line    0x0000000000014246      0x108 build/SAMD21_IOT_WG_ICM42688/production/_ext/1832905403/interrupts.o
 .debug_line    0x000000000001434e       0x6f build/SAMD21_IOT_WG_ICM42688/production/_ext/1832905403/exceptions.o
 .debug_line    0x00000000000143bd      0x193 build/SAMD21_IOT_WG_ICM42688/production/_ext/1832905403/startup_xc32.o
 .debug_line    0x0000000000014550       0x92 build/SAMD21_IOT_WG_ICM42688/production/_ext/1832905403/tasks.o
 .debug_line    0x00000000000145e2     0x2865 build/SAMD21_IOT_WG_ICM42688/production/_ext/1341251756/Icm426xxDriver_HL.o
 .debug_line    0x0000000000016e47      0x2f1 build/SAMD21_IOT_WG_ICM42688/production/_ext/1341251756/Icm426xxTransport.o
 .debug_line    0x0000000000017138       0xba build/SAMD21_IOT_WG_ICM42688/production/_ext/596309756/dsp_dtw_distance.o
 .debug_line    0x00000000000171f2       0xfd build/SAMD21_IOT_WG_ICM42688/production/_ext/596309756/dsp_l1_distance.o
 .debug_line    0x00000000000172ef      0x103 build/SAMD21_IOT_WG_ICM42688/production/_ext/596309756/dsp_lsup_distance.o
 .debug_line    0x00000000000173f2      0x138 build/SAMD21_IOT_WG_ICM42688/production/_ext/596309756/fg_amplitude_global_p2p_low_frequency.o
 .debug_line    0x000000000001752a      0x12e build/SAMD21_IOT_WG_ICM42688/production/_ext/596309756/fg_amplitude_peak_to_peak.o
 .debug_line    0x0000000000017658      0x15a build/SAMD21_IOT_WG_ICM42688/production/_ext/596309756/fg_area_absolute_area_low_frequency.o
 .debug_line    0x00000000000177b2       0xf7 build/SAMD21_IOT_WG_ICM42688/production/_ext/596309756/fg_cross_p2p_difference.o
 .debug_line    0x00000000000178a9      0x18f build/SAMD21_IOT_WG_ICM42688/production/_ext/596309756/fg_sampling_downsample.o
 .debug_line    0x0000000000017a38      0x147 build/SAMD21_IOT_WG_ICM42688/production/_ext/596309756/fg_stats_abs_mean.o
 .debug_line    0x0000000000017b7f       0xf0 build/SAMD21_IOT_WG_ICM42688/production/_ext/596309756/fg_stats_minimum.o
 .debug_line    0x0000000000017c6f     0x1551 build/SAMD21_IOT_WG_ICM42688/production/_ext/596309756/kb.o
 .debug_line    0x00000000000191c0      0x48c build/SAMD21_IOT_WG_ICM42688/production/_ext/596309756/kb_output.o
 .debug_line    0x000000000001964c      0x4ba build/SAMD21_IOT_WG_ICM42688/production/_ext/596309756/kb_pipeline.o
 .debug_line    0x0000000000019b06      0x42e build/SAMD21_IOT_WG_ICM42688/production/_ext/596309756/ma_symmetric.o
 .debug_line    0x0000000000019f34      0x167 build/SAMD21_IOT_WG_ICM42688/production/_ext/596309756/mean.o
 .debug_line    0x000000000001a09b     0x103b build/SAMD21_IOT_WG_ICM42688/production/_ext/596309756/pme.o
 .debug_line    0x000000000001b0d6       0xbc build/SAMD21_IOT_WG_ICM42688/production/_ext/596309756/pme_trained_neurons.o
 .debug_line    0x000000000001b192      0x4ac build/SAMD21_IOT_WG_ICM42688/production/_ext/596309756/rb.o
 .debug_line    0x000000000001b63e       0xeb build/SAMD21_IOT_WG_ICM42688/production/_ext/596309756/save_sensor_data.o
 .debug_line    0x000000000001b729      0x12c build/SAMD21_IOT_WG_ICM42688/production/_ext/596309756/sf_downsample_by_averaging.o
 .debug_line    0x000000000001b855      0x109 build/SAMD21_IOT_WG_ICM42688/production/_ext/596309756/sg_windowing.o
 .debug_line    0x000000000001b95e      0x113 build/SAMD21_IOT_WG_ICM42688/production/_ext/596309756/sortarray.o
 .debug_line    0x000000000001ba71       0xfa build/SAMD21_IOT_WG_ICM42688/production/_ext/596309756/sorted_copy.o
 .debug_line    0x000000000001bb6b      0x170 build/SAMD21_IOT_WG_ICM42688/production/_ext/596309756/tr_min_max_scale.o
 .debug_line    0x000000000001bcdb      0x125 build/SAMD21_IOT_WG_ICM42688/production/_ext/596309756/utils_array_max_uint8.o
 .debug_line    0x000000000001be00       0xc0 build/SAMD21_IOT_WG_ICM42688/production/_ext/596309756/utils_bitwise_abs_val.o
 .debug_line    0x000000000001bec0       0xe4 build/SAMD21_IOT_WG_ICM42688/production/_ext/596309756/utils_buffer_abssum.o
 .debug_line    0x000000000001bfa4      0x1a5 build/SAMD21_IOT_WG_ICM42688/production/_ext/596309756/utils_buffer_cumsum.o
 .debug_line    0x000000000001c149      0x119 build/SAMD21_IOT_WG_ICM42688/production/_ext/596309756/utils_buffer_min_max.o
 .debug_line    0x000000000001c262      0x161 build/SAMD21_IOT_WG_ICM42688/production/_ext/596309756/utils_model_cross_difference.o
 .debug_line    0x000000000001c3c3      0x192 build/SAMD21_IOT_WG_ICM42688/production/_ext/596309756/utils_model_stats_max_min.o
 .debug_line    0x000000000001c555       0xdf build/SAMD21_IOT_WG_ICM42688/production/_ext/596309756/utils_tr_sensor.o
 .debug_line    0x000000000001c634      0x63c build/SAMD21_IOT_WG_ICM42688/production/_ext/1360937237/main.o
 .debug_line    0x000000000001cc70      0x4eb build/SAMD21_IOT_WG_ICM42688/production/_ext/1360937237/ringbuffer.o
 .debug_line    0x000000000001d15b      0x28c build/SAMD21_IOT_WG_ICM42688/production/_ext/1360937237/app.o
 .debug_line    0x000000000001d3e7      0x3fe build/SAMD21_IOT_WG_ICM42688/production/_ext/1360937237/ws2812.o
 .debug_line    0x000000000001d7e5      0x445 build/SAMD21_IOT_WG_ICM42688/production/_ext/1360937237/winc1500_udp_client.o
 .debug_line    0x000000000001dc2a       0xa5 c:/program files/microchip/xc32/v4.60/bin/bin/../../lib/gcc/pic32c/8.3.1/../../../../pic32c/lib/thumb/v6-m/nofp\libpic32c.a(data_init.o)
 .debug_line    0x000000000001dccf       0xee c:/program files/microchip/xc32/v4.60/bin/bin/../../lib/gcc/pic32c/8.3.1/../../../../pic32c/lib/thumb/v6-m/nofp\libc-size-musl.a(memcpy.o)
 .debug_line    0x000000000001ddbd       0xe3 c:/program files/microchip/xc32/v4.60/bin/bin/../../lib/gcc/pic32c/8.3.1/../../../../pic32c/lib/thumb/v6-m/nofp\libc-size-musl.a(memset.o)
 .debug_line    0x000000000001dea0       0xee c:/program files/microchip/xc32/v4.60/bin/bin/../../lib/gcc/pic32c/8.3.1/../../../../pic32c/lib/thumb/v6-m/nofp\libc-size-musl.a(strlen.o)
 .debug_line    0x000000000001df8e       0xb2 c:/program files/microchip/xc32/v4.60/bin/bin/../../lib/gcc/pic32c/8.3.1/../../../../pic32c/lib/thumb/v6-m/nofp\libc-size-musl.a(strchr.o)
 .debug_line    0x000000000001e040      0x19c c:/program files/microchip/xc32/v4.60/bin/bin/../../lib/gcc/pic32c/8.3.1/../../../../pic32c/lib/thumb/v6-m/nofp\libc-size-musl.a(strchrnul.o)
 .debug_line    0x000000000001e1dc      0x14d c:/program files/microchip/xc32/v4.60/bin/bin/../../lib/gcc/pic32c/8.3.1/../../../../pic32c/lib/thumb/v6-m/nofp\libc-size-musl.a(strnlen.o)
 .debug_line    0x000000000001e329       0xfd c:/program files/microchip/xc32/v4.60/bin/bin/../../lib/gcc/pic32c/8.3.1/../../../../pic32c/lib/thumb/v6-m/nofp\libc-size-musl.a(memchr.o)
 .debug_line    0x000000000001e426      0x15a c:/program files/microchip/xc32/v4.60/bin/bin/../../lib/gcc/pic32c/8.3.1/../../../../pic32c/lib/thumb/v6-m/nofp\liblmalloc-musl.a(lite_calloc.o)
 .debug_line    0x000000000001e580      0x266 c:/program files/microchip/xc32/v4.60/bin/bin/../../lib/gcc/pic32c/8.3.1/../../../../pic32c/lib/thumb/v6-m/nofp\liblmalloc-musl.a(lite_free.o)
 .debug_line    0x000000000001e7e6      0x1d3 c:/program files/microchip/xc32/v4.60/bin/bin/../../lib/gcc/pic32c/8.3.1/../../../../pic32c/lib/thumb/v6-m/nofp\liblmalloc-musl.a(lite_malloc.o)
 .debug_line    0x000000000001e9b9      0x1bc c:/program files/microchip/xc32/v4.60/bin/bin/../../lib/gcc/pic32c/8.3.1/../../../../pic32c/lib/thumb/v6-m/nofp\libc-musl.a(__libc_start_main.o)
 .debug_line    0x000000000001eb75       0x9a c:/program files/microchip/xc32/v4.60/bin/bin/../../lib/gcc/pic32c/8.3.1/../../../../pic32c/lib/thumb/v6-m/nofp\libc-musl.a(__errno_location.o)
 .debug_line    0x000000000001ec0f       0xb5 c:/program files/microchip/xc32/v4.60/bin/bin/../../lib/gcc/pic32c/8.3.1/../../../../pic32c/lib/thumb/v6-m/nofp\libc-musl.a(libc.o)
 .debug_line    0x000000000001ecc4       0xec c:/program files/microchip/xc32/v4.60/bin/bin/../../lib/gcc/pic32c/8.3.1/../../../../pic32c/lib/thumb/v6-m/nofp\libc-musl.a(expand_heap.o)
 .debug_line    0x000000000001edb0      0x1ca c:/program files/microchip/xc32/v4.60/bin/bin/../../lib/gcc/pic32c/8.3.1/../../../../pic32c/lib/thumb/v6-m/nofp\libc-musl.a(__sio_printf_cdeEfFgGnpsuxX.o)
 .debug_line    0x000000000001ef7a      0x1b3 c:/program files/microchip/xc32/v4.60/bin/bin/../../lib/gcc/pic32c/8.3.1/../../../../pic32c/lib/thumb/v6-m/nofp\libc-musl.a(__sio_sprintf_cdeEfFgGnpsuxX.o)
 .debug_line    0x000000000001f12d      0x20b c:/program files/microchip/xc32/v4.60/bin/bin/../../lib/gcc/pic32c/8.3.1/../../../../pic32c/lib/thumb/v6-m/nofp\libc-musl.a(__fmt_d.o)
 .debug_line    0x000000000001f338      0x66d c:/program files/microchip/xc32/v4.60/bin/bin/../../lib/gcc/pic32c/8.3.1/../../../../pic32c/lib/thumb/v6-m/nofp\libc-musl.a(__fmt_fp.o)
 .debug_line    0x000000000001f9a5      0x204 c:/program files/microchip/xc32/v4.60/bin/bin/../../lib/gcc/pic32c/8.3.1/../../../../pic32c/lib/thumb/v6-m/nofp\libc-musl.a(__fmt_s.o)
 .debug_line    0x000000000001fba9      0x187 c:/program files/microchip/xc32/v4.60/bin/bin/../../lib/gcc/pic32c/8.3.1/../../../../pic32c/lib/thumb/v6-m/nofp\libc-musl.a(__fmt_u.o)
 .debug_line    0x000000000001fd30      0x2ec c:/program files/microchip/xc32/v4.60/bin/bin/../../lib/gcc/pic32c/8.3.1/../../../../pic32c/lib/thumb/v6-m/nofp\libc-musl.a(__fmt_x.o)
 .debug_line    0x000000000002001c      0x166 c:/program files/microchip/xc32/v4.60/bin/bin/../../lib/gcc/pic32c/8.3.1/../../../../pic32c/lib/thumb/v6-m/nofp\libc-musl.a(__pop_float.o)
 .debug_line    0x0000000000020182      0x211 c:/program files/microchip/xc32/v4.60/bin/bin/../../lib/gcc/pic32c/8.3.1/../../../../pic32c/lib/thumb/v6-m/nofp\libc-musl.a(__pop_int.o)
 .debug_line    0x0000000000020393      0x1c8 c:/program files/microchip/xc32/v4.60/bin/bin/../../lib/gcc/pic32c/8.3.1/../../../../pic32c/lib/thumb/v6-m/nofp\libc-musl.a(__pop_ptr.o)
 .debug_line    0x000000000002055b      0x6c7 c:/program files/microchip/xc32/v4.60/bin/bin/../../lib/gcc/pic32c/8.3.1/../../../../pic32c/lib/thumb/v6-m/nofp\libc-musl.a(__printf_core.o)
 .debug_line    0x0000000000020c22      0x1cf c:/program files/microchip/xc32/v4.60/bin/bin/../../lib/gcc/pic32c/8.3.1/../../../../pic32c/lib/thumb/v6-m/nofp\libc-musl.a(stdin.o)
 .debug_line    0x0000000000020df1      0x191 c:/program files/microchip/xc32/v4.60/bin/bin/../../lib/gcc/pic32c/8.3.1/../../../../pic32c/lib/thumb/v6-m/nofp\libc-musl.a(stdout.o)
 .debug_line    0x0000000000020f82      0x13a c:/program files/microchip/xc32/v4.60/bin/bin/../../lib/gcc/pic32c/8.3.1/../../../../pic32c/lib/thumb/v6-m/nofp\libc-musl.a(putchar.o)
 .debug_line    0x00000000000210bc      0x1c6 c:/program files/microchip/xc32/v4.60/bin/bin/../../lib/gcc/pic32c/8.3.1/../../../../pic32c/lib/thumb/v6-m/nofp\libc-musl.a(puts.o)
 .debug_line    0x0000000000021282      0x133 c:/program files/microchip/xc32/v4.60/bin/bin/../../lib/gcc/pic32c/8.3.1/../../../../pic32c/lib/thumb/v6-m/nofp\libc-musl.a(setbuf.o)
 .debug_line    0x00000000000213b5      0x173 c:/program files/microchip/xc32/v4.60/bin/bin/../../lib/gcc/pic32c/8.3.1/../../../../pic32c/lib/thumb/v6-m/nofp\libc-musl.a(atoi.o)
 .debug_line    0x0000000000021528      0x130 c:/program files/microchip/xc32/v4.60/bin/bin/../../lib/gcc/pic32c/8.3.1/../../../../pic32c/lib/thumb/v6-m/nofp\libc-musl.a(gmtime.o)
 .debug_line    0x0000000000021658      0x25c c:/program files/microchip/xc32/v4.60/bin/bin/../../lib/gcc/pic32c/8.3.1/../../../../pic32c/lib/thumb/v6-m/nofp\libc-musl.a(gmtime_r.o)
 .debug_line    0x00000000000218b4      0x285 c:/program files/microchip/xc32/v4.60/bin/bin/../../lib/gcc/pic32c/8.3.1/../../../../pic32c/lib/thumb/v6-m/nofp\libc-musl.a(mktime.o)
 .debug_line    0x0000000000021b39      0x15c c:/program files/microchip/xc32/v4.60/bin/bin/../../lib/gcc/pic32c/8.3.1/../../../../pic32c/lib/thumb/v6-m/nofp\libc-musl.a(tolower.o)
 .debug_line    0x0000000000021c95      0x15c c:/program files/microchip/xc32/v4.60/bin/bin/../../lib/gcc/pic32c/8.3.1/../../../../pic32c/lib/thumb/v6-m/nofp\libc-musl.a(toupper.o)
 .debug_line    0x0000000000021df1       0xfb c:/program files/microchip/xc32/v4.60/bin/bin/../../lib/gcc/pic32c/8.3.1/../../../../pic32c/lib/thumb/v6-m/nofp\libc-musl.a(__environ.o)
 .debug_line    0x0000000000021eec      0x172 c:/program files/microchip/xc32/v4.60/bin/bin/../../lib/gcc/pic32c/8.3.1/../../../../pic32c/lib/thumb/v6-m/nofp\libc-musl.a(__int_vfprintf.o)
 .debug_line    0x000000000002205e      0x153 c:/program files/microchip/xc32/v4.60/bin/bin/../../lib/gcc/pic32c/8.3.1/../../../../pic32c/lib/thumb/v6-m/nofp\libc-musl.a(__int_vsprintf.o)
 .debug_line    0x00000000000221b1      0x236 c:/program files/microchip/xc32/v4.60/bin/bin/../../lib/gcc/pic32c/8.3.1/../../../../pic32c/lib/thumb/v6-m/nofp\libc-musl.a(fputs.o)
 .debug_line    0x00000000000223e7      0x1d7 c:/program files/microchip/xc32/v4.60/bin/bin/../../lib/gcc/pic32c/8.3.1/../../../../pic32c/lib/thumb/v6-m/nofp\libc-musl.a(__cvt_u.o)
 .debug_line    0x00000000000225be      0x240 c:/program files/microchip/xc32/v4.60/bin/bin/../../lib/gcc/pic32c/8.3.1/../../../../pic32c/lib/thumb/v6-m/nofp\libc-musl.a(__stdio_read.o)
 .debug_line    0x00000000000227fe      0x1eb c:/program files/microchip/xc32/v4.60/bin/bin/../../lib/gcc/pic32c/8.3.1/../../../../pic32c/lib/thumb/v6-m/nofp\libc-musl.a(__towrite_rw.o)
 .debug_line    0x00000000000229e9      0x1f5 c:/program files/microchip/xc32/v4.60/bin/bin/../../lib/gcc/pic32c/8.3.1/../../../../pic32c/lib/thumb/v6-m/nofp\libc-musl.a(fwrite.o)
 .debug_line    0x0000000000022bde      0x1a3 c:/program files/microchip/xc32/v4.60/bin/bin/../../lib/gcc/pic32c/8.3.1/../../../../pic32c/lib/thumb/v6-m/nofp\libc-musl.a(putc.o)
 .debug_line    0x0000000000022d81      0x223 c:/program files/microchip/xc32/v4.60/bin/bin/../../lib/gcc/pic32c/8.3.1/../../../../pic32c/lib/thumb/v6-m/nofp\libc-musl.a(setvbuf.o)
 .debug_line    0x0000000000022fa4      0x1da c:/program files/microchip/xc32/v4.60/bin/bin/../../lib/gcc/pic32c/8.3.1/../../../../pic32c/lib/thumb/v6-m/nofp\libc-musl.a(__tm_to_secs.o)
 .debug_line    0x000000000002317e      0x20b c:/program files/microchip/xc32/v4.60/bin/bin/../../lib/gcc/pic32c/8.3.1/../../../../pic32c/lib/thumb/v6-m/nofp\libc-musl.a(__year_to_secs.o)
 .debug_line    0x0000000000023389      0x322 c:/program files/microchip/xc32/v4.60/bin/bin/../../lib/gcc/pic32c/8.3.1/../../../../pic32c/lib/thumb/v6-m/nofp\libc-musl.a(__secs_to_tm.o)
 .debug_line    0x00000000000236ab      0x15c c:/program files/microchip/xc32/v4.60/bin/bin/../../lib/gcc/pic32c/8.3.1/../../../../pic32c/lib/thumb/v6-m/nofp\libc-musl.a(readv.o)
 .debug_line    0x0000000000023807      0x1c7 c:/program files/microchip/xc32/v4.60/bin/bin/../../lib/gcc/pic32c/8.3.1/../../../../pic32c/lib/thumb/v6-m/nofp\libc-musl.a(__int_vsnprintf.o)
 .debug_line    0x00000000000239ce       0xd0 c:/program files/microchip/xc32/v4.60/bin/bin/../../lib/gcc/pic32c/8.3.1/../../../../pic32c/lib/thumb/v6-m/nofp\libc-musl.a(__init_stdio.o)
 .debug_line    0x0000000000023a9e      0x28f c:/program files/microchip/xc32/v4.60/bin/bin/../../lib/gcc/pic32c/8.3.1/../../../../pic32c/lib/thumb/v6-m/nofp\libc-musl.a(__out.o)
 .debug_line    0x0000000000023d2d      0x15b c:/program files/microchip/xc32/v4.60/bin/bin/../../lib/gcc/pic32c/8.3.1/../../../../pic32c/lib/thumb/v6-m/nofp\libc-musl.a(__putc.o)
 .debug_line    0x0000000000023e88      0x1da c:/program files/microchip/xc32/v4.60/bin/bin/../../lib/gcc/pic32c/8.3.1/../../../../pic32c/lib/thumb/v6-m/nofp\libc-musl.a(__stderr.o)
 .debug_line    0x0000000000024062      0x2de c:/program files/microchip/xc32/v4.60/bin/bin/../../lib/gcc/pic32c/8.3.1/../../../../pic32c/lib/thumb/v6-m/nofp\libc-musl.a(__stdio_close.o)
 .debug_line    0x0000000000024340      0x339 c:/program files/microchip/xc32/v4.60/bin/bin/../../lib/gcc/pic32c/8.3.1/../../../../pic32c/lib/thumb/v6-m/nofp\libc-musl.a(__stdio_write.o)
 .debug_line    0x0000000000024679      0x1da c:/program files/microchip/xc32/v4.60/bin/bin/../../lib/gcc/pic32c/8.3.1/../../../../pic32c/lib/thumb/v6-m/nofp\libc-musl.a(__stdout.o)
 .debug_line    0x0000000000024853      0x180 c:/program files/microchip/xc32/v4.60/bin/bin/../../lib/gcc/pic32c/8.3.1/../../../../pic32c/lib/thumb/v6-m/nofp\libc-musl.a(__towrite.o)
 .debug_line    0x00000000000249d3       0xc6 c:/program files/microchip/xc32/v4.60/bin/bin/../../lib/gcc/pic32c/8.3.1/../../../../pic32c/lib/thumb/v6-m/nofp\libc-musl.a(__month_to_secs.o)
 .debug_line    0x0000000000024a99      0x15d c:/program files/microchip/xc32/v4.60/bin/bin/../../lib/gcc/pic32c/8.3.1/../../../../pic32c/lib/thumb/v6-m/nofp\libc-musl.a(writev.o)
 .debug_line    0x0000000000024bf6      0x1fb c:/program files/microchip/xc32/v4.60/bin/bin/../../lib/gcc/pic32c/8.3.1/../../../../pic32c/lib/thumb/v6-m/nofp\libc-musl.a(__overflow.o)
 .debug_line    0x0000000000024df1      0x1e4 c:/program files/microchip/xc32/v4.60/bin/bin/../../lib/gcc/pic32c/8.3.1/../../../../pic32c/lib/thumb/v6-m/nofp\libc-musl.a(__fwrite.o)
 .debug_line    0x0000000000024fd5       0xa8 c:/program files/microchip/xc32/v4.60/bin/bin/../../lib/gcc/pic32c/8.3.1/thumb/v6-m/nofp\libgcc.a(_udivsi3.o)
 .debug_line    0x000000000002507d       0xb6 c:/program files/microchip/xc32/v4.60/bin/bin/../../lib/gcc/pic32c/8.3.1/thumb/v6-m/nofp\libgcc.a(_divsi3.o)
 .debug_line    0x0000000000025133       0x91 c:/program files/microchip/xc32/v4.60/bin/bin/../../lib/gcc/pic32c/8.3.1/thumb/v6-m/nofp\libgcc.a(_dvmd_tls.o)
 .debug_line    0x00000000000251c4       0x9c c:/program files/microchip/xc32/v4.60/bin/bin/../../lib/gcc/pic32c/8.3.1/thumb/v6-m/nofp\libgcc.a(_aeabi_ldivmod.o)
 .debug_line    0x0000000000025260       0x9c c:/program files/microchip/xc32/v4.60/bin/bin/../../lib/gcc/pic32c/8.3.1/thumb/v6-m/nofp\libgcc.a(_aeabi_uldivmod.o)
 .debug_line    0x00000000000252fc       0xe7 c:/program files/microchip/xc32/v4.60/bin/bin/../../lib/gcc/pic32c/8.3.1/thumb/v6-m/nofp\libgcc.a(_muldi3.o)
 .debug_line    0x00000000000253e3      0x188 c:/program files/microchip/xc32/v4.60/bin/bin/../../lib/gcc/pic32c/8.3.1/thumb/v6-m/nofp\libgcc.a(_udivmoddi4.o)
 .debug_line    0x000000000002556b       0xb9 c:/program files/microchip/xc32/v4.60/bin/bin/../../lib/gcc/pic32c/8.3.1/thumb/v6-m/nofp\libgcc.a(bpabi.o)
 .debug_line    0x0000000000025624       0x9c c:/program files/microchip/xc32/v4.60/bin/bin/../../lib/gcc/pic32c/8.3.1/thumb/v6-m/nofp\libgcc.a(_lshrdi3.o)
 .debug_line    0x00000000000256c0       0x9c c:/program files/microchip/xc32/v4.60/bin/bin/../../lib/gcc/pic32c/8.3.1/thumb/v6-m/nofp\libgcc.a(_ashldi3.o)
 .debug_line    0x000000000002575c       0x9b c:/program files/microchip/xc32/v4.60/bin/bin/../../lib/gcc/pic32c/8.3.1/thumb/v6-m/nofp\libgcc.a(_clzdi2.o)
 .debug_line    0x00000000000257f7      0x1d9 c:/program files/microchip/xc32/v4.60/bin/bin/../../lib/gcc/pic32c/8.3.1/thumb/v6-m/nofp\libgcc.a(_divdi3.o)
 .debug_line    0x00000000000259d0       0xa5 c:/program files/microchip/xc32/v4.60/bin/bin/../../lib/gcc/pic32c/8.3.1/thumb/v6-m/nofp\libgcc.a(_clzsi2.o)
 .debug_line    0x0000000000025a75       0x5c c:/program files/microchip/xc32/v4.60/bin/bin/../../lib/gcc/pic32c/8.3.1/../../../../pic32c/lib/thumb/v6-m/nofp\libpic32c.a(close.o)
 .debug_line    0x0000000000025ad1       0x59 c:/program files/microchip/xc32/v4.60/bin/bin/../../lib/gcc/pic32c/8.3.1/../../../../pic32c/lib/thumb/v6-m/nofp\libpic32c.a(lseek.o)
 .debug_line    0x0000000000025b2a       0xdd c:/program files/microchip/xc32/v4.60/bin/bin/../../lib/gcc/pic32c/8.3.1/../../../../pic32c/lib/thumb/v6-m/nofp\libpic32c.a(sbrk.o)
 .debug_line    0x0000000000025c07       0xb2 c:/program files/microchip/xc32/v4.60/bin/bin/../../lib/gcc/pic32c/8.3.1/../../../../pic32c/lib/thumb/v6-m/nofp\libc-size-musl.a(strcpy.o)
 .debug_line    0x0000000000025cb9       0xc1 c:/program files/microchip/xc32/v4.60/bin/bin/../../lib/gcc/pic32c/8.3.1/../../../../pic32c/lib/thumb/v6-m/nofp\libc-size-musl.a(stpcpy.o)
 .debug_line    0x0000000000025d7a       0x6f c:/program files/microchip/xc32/v4.60/bin/bin/../../lib/gcc/pic32c/8.3.1/../../../../pic32c/lib/thumb/v6-m/nofp\libpic32c.a(pic32_data_init_clear.o)
 .debug_line    0x0000000000025de9       0x88 c:/program files/microchip/xc32/v4.60/bin/bin/../../lib/gcc/pic32c/8.3.1/../../../../pic32c/lib/thumb/v6-m/nofp\libpic32c.a(pic32_data_init_copy.o)

.debug_str      0x0000000000000000    0x3f358
 .debug_str     0x0000000000000000     0x10e3 build/SAMD21_IOT_WG_ICM42688/production/_ext/2048461350/icm42688_sensor.o
 .debug_str     0x00000000000010e3      0x345 build/SAMD21_IOT_WG_ICM42688/production/_ext/171618134/sml_recognition_run.o
 .debug_str     0x0000000000001428     0x1df5 build/SAMD21_IOT_WG_ICM42688/production/_ext/1660664302/drv_spi.o
 .debug_str     0x000000000000321d      0x3f4 build/SAMD21_IOT_WG_ICM42688/production/_ext/1164161090/wdrv_winc_gpio.o
 .debug_str     0x0000000000003611      0x332 build/SAMD21_IOT_WG_ICM42688/production/_ext/1164161090/wdrv_winc_eint.o
 .debug_str     0x0000000000003943      0xf72 build/SAMD21_IOT_WG_ICM42688/production/_ext/101005277/wdrv_winc_spi.o
 .debug_str     0x00000000000048b5      0x342 build/SAMD21_IOT_WG_ICM42688/production/_ext/90265895/nm_common.o
 .debug_str     0x0000000000004bf7      0x9c3 build/SAMD21_IOT_WG_ICM42688/production/_ext/121554788/m2m_ssl.o
 .debug_str     0x00000000000055ba      0x8d0 build/SAMD21_IOT_WG_ICM42688/production/_ext/121554788/m2m_hif.o
 .debug_str     0x0000000000005e8a     0x2ff0 build/SAMD21_IOT_WG_ICM42688/production/_ext/121554788/m2m_wifi.o
 .debug_str     0x0000000000008e7a      0x780 build/SAMD21_IOT_WG_ICM42688/production/_ext/121554788/nmspi.o
 .debug_str     0x00000000000095fa      0x5ff build/SAMD21_IOT_WG_ICM42688/production/_ext/121554788/nmdrv.o
 .debug_str     0x0000000000009bf9     0x105d build/SAMD21_IOT_WG_ICM42688/production/_ext/121554788/m2m_ota.o
 .debug_str     0x000000000000ac56      0x5f4 build/SAMD21_IOT_WG_ICM42688/production/_ext/121554788/nmasic.o
 .debug_str     0x000000000000b24a      0x523 build/SAMD21_IOT_WG_ICM42688/production/_ext/121554788/nmbus.o
 .debug_str     0x000000000000b76d     0x104a build/SAMD21_IOT_WG_ICM42688/production/_ext/548032175/socket.o
 .debug_str     0x000000000000c7b7      0x2c6 build/SAMD21_IOT_WG_ICM42688/production/_ext/548032175/inet_addr.o
 .debug_str     0x000000000000ca7d      0x2d8 build/SAMD21_IOT_WG_ICM42688/production/_ext/548032175/inet_ntop.o
 .debug_str     0x000000000000cd55      0x352 build/SAMD21_IOT_WG_ICM42688/production/_ext/609036575/flexible_flash.o
 .debug_str     0x000000000000d0a7      0x516 build/SAMD21_IOT_WG_ICM42688/production/_ext/609036575/spi_flash.o
 .debug_str     0x000000000000d5bd      0x31b build/SAMD21_IOT_WG_ICM42688/production/_ext/1784303044/wdrv_winc_osal.o
 .debug_str     0x000000000000d8d8     0x1ba0 build/SAMD21_IOT_WG_ICM42688/production/_ext/907429946/wdrv_winc_sta.o
 .debug_str     0x000000000000f478     0x1acf build/SAMD21_IOT_WG_ICM42688/production/_ext/907429946/wdrv_winc_socket.o
 .debug_str     0x0000000000010f47     0x189b build/SAMD21_IOT_WG_ICM42688/production/_ext/907429946/wdrv_winc_systime.o
 .debug_str     0x00000000000127e2      0xb9a build/SAMD21_IOT_WG_ICM42688/production/_ext/907429946/wdrv_winc_authctx.o
 .debug_str     0x000000000001337c     0x1a25 build/SAMD21_IOT_WG_ICM42688/production/_ext/907429946/wdrv_winc_host_file.o
 .debug_str     0x0000000000014da1     0x390d build/SAMD21_IOT_WG_ICM42688/production/_ext/907429946/wdrv_winc.o
 .debug_str     0x00000000000186ae      0x7cb build/SAMD21_IOT_WG_ICM42688/production/_ext/907429946/wdrv_winc_bssctx.o
 .debug_str     0x0000000000018e79      0x5a1 build/SAMD21_IOT_WG_ICM42688/production/_ext/1750425231/plib_clock.o
 .debug_str     0x000000000001941a      0x8cb build/SAMD21_IOT_WG_ICM42688/production/_ext/1580516298/plib_dmac.o
 .debug_str     0x0000000000019ce5      0x41c build/SAMD21_IOT_WG_ICM42688/production/_ext/503204096/plib_eic.o
 .debug_str     0x000000000001a101      0x5d6 build/SAMD21_IOT_WG_ICM42688/production/_ext/1580823105/plib_nvic.o
 .debug_str     0x000000000001a6d7      0x508 build/SAMD21_IOT_WG_ICM42688/production/_ext/11470383/plib_nvmctrl.o
 .debug_str     0x000000000001abdf      0x774 build/SAMD21_IOT_WG_ICM42688/production/_ext/1580876256/plib_port.o
 .debug_str     0x000000000001b353      0x6ed build/SAMD21_IOT_WG_ICM42688/production/_ext/1014017276/plib_sercom0_spi_master.o
 .debug_str     0x000000000001ba40      0x7ee build/SAMD21_IOT_WG_ICM42688/production/_ext/1014017276/plib_sercom2_spi_master.o
 .debug_str     0x000000000001c22e      0x884 build/SAMD21_IOT_WG_ICM42688/production/_ext/177673482/plib_sercom5_usart.o
 .debug_str     0x000000000001cab2      0x3fb build/SAMD21_IOT_WG_ICM42688/production/_ext/223004715/plib_systick.o
 .debug_str     0x000000000001cead      0x57a build/SAMD21_IOT_WG_ICM42688/production/_ext/399410062/plib_tc3.o
 .debug_str     0x000000000001d427      0x59b build/SAMD21_IOT_WG_ICM42688/production/_ext/399410062/plib_tc4.o
 .debug_str     0x000000000001d9c2      0x2e6 build/SAMD21_IOT_WG_ICM42688/production/_ext/1357625803/xc32_monitor.o
 .debug_str     0x000000000001dca8      0x5fc build/SAMD21_IOT_WG_ICM42688/production/_ext/1584719636/sys_dma.o
 .debug_str     0x000000000001e2a4      0x57a build/SAMD21_IOT_WG_ICM42688/production/_ext/1318297016/sys_int.o
 .debug_str     0x000000000001e81e      0xe8a build/SAMD21_IOT_WG_ICM42688/production/_ext/386530258/sys_time.o
 .debug_str     0x000000000001f6a8     0x17d7 build/SAMD21_IOT_WG_ICM42688/production/_ext/1832905403/initialization.o
 .debug_str     0x0000000000020e7f      0x649 build/SAMD21_IOT_WG_ICM42688/production/_ext/1832905403/interrupts.o
 .debug_str     0x00000000000214c8      0x2ab build/SAMD21_IOT_WG_ICM42688/production/_ext/1832905403/exceptions.o
 .debug_str     0x0000000000021773      0x317 build/SAMD21_IOT_WG_ICM42688/production/_ext/1832905403/startup_xc32.o
 .debug_str     0x0000000000021a8a      0x29b build/SAMD21_IOT_WG_ICM42688/production/_ext/1832905403/tasks.o
 .debug_str     0x0000000000021d25     0x25ba build/SAMD21_IOT_WG_ICM42688/production/_ext/1341251756/Icm426xxDriver_HL.o
 .debug_str     0x00000000000242df      0x552 build/SAMD21_IOT_WG_ICM42688/production/_ext/1341251756/Icm426xxTransport.o
 .debug_str     0x0000000000024831      0x303 build/SAMD21_IOT_WG_ICM42688/production/_ext/596309756/dsp_dtw_distance.o
 .debug_str     0x0000000000024b34      0x2d6 build/SAMD21_IOT_WG_ICM42688/production/_ext/596309756/dsp_l1_distance.o
 .debug_str     0x0000000000024e0a      0x2f3 build/SAMD21_IOT_WG_ICM42688/production/_ext/596309756/dsp_lsup_distance.o
 .debug_str     0x00000000000250fd      0x753 build/SAMD21_IOT_WG_ICM42688/production/_ext/596309756/fg_amplitude_global_p2p_low_frequency.o
 .debug_str     0x0000000000025850      0x64e build/SAMD21_IOT_WG_ICM42688/production/_ext/596309756/fg_amplitude_peak_to_peak.o
 .debug_str     0x0000000000025e9e      0x764 build/SAMD21_IOT_WG_ICM42688/production/_ext/596309756/fg_area_absolute_area_low_frequency.o
 .debug_str     0x0000000000026602      0x65a build/SAMD21_IOT_WG_ICM42688/production/_ext/596309756/fg_cross_p2p_difference.o
 .debug_str     0x0000000000026c5c      0x663 build/SAMD21_IOT_WG_ICM42688/production/_ext/596309756/fg_sampling_downsample.o
 .debug_str     0x00000000000272bf      0x654 build/SAMD21_IOT_WG_ICM42688/production/_ext/596309756/fg_stats_abs_mean.o
 .debug_str     0x0000000000027913      0x642 build/SAMD21_IOT_WG_ICM42688/production/_ext/596309756/fg_stats_minimum.o
 .debug_str     0x0000000000027f55     0x109d build/SAMD21_IOT_WG_ICM42688/production/_ext/596309756/kb.o
 .debug_str     0x0000000000028ff2      0x582 build/SAMD21_IOT_WG_ICM42688/production/_ext/596309756/kb_output.o
 .debug_str     0x0000000000029574      0x87e build/SAMD21_IOT_WG_ICM42688/production/_ext/596309756/kb_pipeline.o
 .debug_str     0x0000000000029df2      0x4ed build/SAMD21_IOT_WG_ICM42688/production/_ext/596309756/ma_symmetric.o
 .debug_str     0x000000000002a2df      0x2f8 build/SAMD21_IOT_WG_ICM42688/production/_ext/596309756/mean.o
 .debug_str     0x000000000002a5d7      0xab8 build/SAMD21_IOT_WG_ICM42688/production/_ext/596309756/pme.o
 .debug_str     0x000000000002b08f      0x4ea build/SAMD21_IOT_WG_ICM42688/production/_ext/596309756/pme_trained_neurons.o
 .debug_str     0x000000000002b579      0x43b build/SAMD21_IOT_WG_ICM42688/production/_ext/596309756/rb.o
 .debug_str     0x000000000002b9b4      0x314 build/SAMD21_IOT_WG_ICM42688/production/_ext/596309756/save_sensor_data.o
 .debug_str     0x000000000002bcc8      0x369 build/SAMD21_IOT_WG_ICM42688/production/_ext/596309756/sf_downsample_by_averaging.o
 .debug_str     0x000000000002c031      0x628 build/SAMD21_IOT_WG_ICM42688/production/_ext/596309756/sg_windowing.o
 .debug_str     0x000000000002c659      0x298 build/SAMD21_IOT_WG_ICM42688/production/_ext/596309756/sortarray.o
 .debug_str     0x000000000002c8f1      0x30a build/SAMD21_IOT_WG_ICM42688/production/_ext/596309756/sorted_copy.o
 .debug_str     0x000000000002cbfb      0x341 build/SAMD21_IOT_WG_ICM42688/production/_ext/596309756/tr_min_max_scale.o
 .debug_str     0x000000000002cf3c      0x2da build/SAMD21_IOT_WG_ICM42688/production/_ext/596309756/utils_array_max_uint8.o
 .debug_str     0x000000000002d216      0x2ad build/SAMD21_IOT_WG_ICM42688/production/_ext/596309756/utils_bitwise_abs_val.o
 .debug_str     0x000000000002d4c3      0x328 build/SAMD21_IOT_WG_ICM42688/production/_ext/596309756/utils_buffer_abssum.o
 .debug_str     0x000000000002d7eb      0x333 build/SAMD21_IOT_WG_ICM42688/production/_ext/596309756/utils_buffer_cumsum.o
 .debug_str     0x000000000002db1e      0x314 build/SAMD21_IOT_WG_ICM42688/production/_ext/596309756/utils_buffer_min_max.o
 .debug_str     0x000000000002de32      0x69f build/SAMD21_IOT_WG_ICM42688/production/_ext/596309756/utils_model_cross_difference.o
 .debug_str     0x000000000002e4d1      0x665 build/SAMD21_IOT_WG_ICM42688/production/_ext/596309756/utils_model_stats_max_min.o
 .debug_str     0x000000000002eb36      0x2dc build/SAMD21_IOT_WG_ICM42688/production/_ext/596309756/utils_tr_sensor.o
 .debug_str     0x000000000002ee12      0xf5a build/SAMD21_IOT_WG_ICM42688/production/_ext/1360937237/main.o
 .debug_str     0x000000000002fd6c      0x418 build/SAMD21_IOT_WG_ICM42688/production/_ext/1360937237/ringbuffer.o
 .debug_str     0x0000000000030184      0x861 build/SAMD21_IOT_WG_ICM42688/production/_ext/1360937237/app.o
 .debug_str     0x00000000000309e5      0x751 build/SAMD21_IOT_WG_ICM42688/production/_ext/1360937237/ws2812.o
 .debug_str     0x0000000000031136     0x112c build/SAMD21_IOT_WG_ICM42688/production/_ext/1360937237/winc1500_udp_client.o
 .debug_str     0x0000000000032262      0x1fc c:/program files/microchip/xc32/v4.60/bin/bin/../../lib/gcc/pic32c/8.3.1/../../../../pic32c/lib/thumb/v6-m/nofp\libpic32c.a(data_init.o)
 .debug_str     0x000000000003245e      0x225 c:/program files/microchip/xc32/v4.60/bin/bin/../../lib/gcc/pic32c/8.3.1/../../../../pic32c/lib/thumb/v6-m/nofp\libc-size-musl.a(memcpy.o)
 .debug_str     0x0000000000032683      0x211 c:/program files/microchip/xc32/v4.60/bin/bin/../../lib/gcc/pic32c/8.3.1/../../../../pic32c/lib/thumb/v6-m/nofp\libc-size-musl.a(memset.o)
 .debug_str     0x0000000000032894      0x217 c:/program files/microchip/xc32/v4.60/bin/bin/../../lib/gcc/pic32c/8.3.1/../../../../pic32c/lib/thumb/v6-m/nofp\libc-size-musl.a(strlen.o)
 .debug_str     0x0000000000032aab      0x20b c:/program files/microchip/xc32/v4.60/bin/bin/../../lib/gcc/pic32c/8.3.1/../../../../pic32c/lib/thumb/v6-m/nofp\libc-size-musl.a(strchr.o)
 .debug_str     0x0000000000032cb6      0x296 c:/program files/microchip/xc32/v4.60/bin/bin/../../lib/gcc/pic32c/8.3.1/../../../../pic32c/lib/thumb/v6-m/nofp\libc-size-musl.a(strchrnul.o)
 .debug_str     0x0000000000032f4c      0x20f c:/program files/microchip/xc32/v4.60/bin/bin/../../lib/gcc/pic32c/8.3.1/../../../../pic32c/lib/thumb/v6-m/nofp\libc-size-musl.a(strnlen.o)
 .debug_str     0x000000000003315b      0x22a c:/program files/microchip/xc32/v4.60/bin/bin/../../lib/gcc/pic32c/8.3.1/../../../../pic32c/lib/thumb/v6-m/nofp\libc-size-musl.a(memchr.o)
 .debug_str     0x0000000000033385      0x2ba c:/program files/microchip/xc32/v4.60/bin/bin/../../lib/gcc/pic32c/8.3.1/../../../../pic32c/lib/thumb/v6-m/nofp\liblmalloc-musl.a(lite_calloc.o)
 .debug_str     0x000000000003363f      0x301 c:/program files/microchip/xc32/v4.60/bin/bin/../../lib/gcc/pic32c/8.3.1/../../../../pic32c/lib/thumb/v6-m/nofp\liblmalloc-musl.a(lite_free.o)
 .debug_str     0x0000000000033940      0x2ff c:/program files/microchip/xc32/v4.60/bin/bin/../../lib/gcc/pic32c/8.3.1/../../../../pic32c/lib/thumb/v6-m/nofp\liblmalloc-musl.a(lite_malloc.o)
 .debug_str     0x0000000000033c3f      0x3ca c:/program files/microchip/xc32/v4.60/bin/bin/../../lib/gcc/pic32c/8.3.1/../../../../pic32c/lib/thumb/v6-m/nofp\libc-musl.a(__libc_start_main.o)
 .debug_str     0x0000000000034009      0x229 c:/program files/microchip/xc32/v4.60/bin/bin/../../lib/gcc/pic32c/8.3.1/../../../../pic32c/lib/thumb/v6-m/nofp\libc-musl.a(__errno_location.o)
 .debug_str     0x0000000000034232      0x335 c:/program files/microchip/xc32/v4.60/bin/bin/../../lib/gcc/pic32c/8.3.1/../../../../pic32c/lib/thumb/v6-m/nofp\libc-musl.a(libc.o)
 .debug_str     0x0000000000034567      0x2a5 c:/program files/microchip/xc32/v4.60/bin/bin/../../lib/gcc/pic32c/8.3.1/../../../../pic32c/lib/thumb/v6-m/nofp\libc-musl.a(expand_heap.o)
 .debug_str     0x000000000003480c      0x367 c:/program files/microchip/xc32/v4.60/bin/bin/../../lib/gcc/pic32c/8.3.1/../../../../pic32c/lib/thumb/v6-m/nofp\libc-musl.a(__sio_printf_cdeEfFgGnpsuxX.o)
 .debug_str     0x0000000000034b73      0x354 c:/program files/microchip/xc32/v4.60/bin/bin/../../lib/gcc/pic32c/8.3.1/../../../../pic32c/lib/thumb/v6-m/nofp\libc-musl.a(__sio_sprintf_cdeEfFgGnpsuxX.o)
 .debug_str     0x0000000000034ec7      0x2f5 c:/program files/microchip/xc32/v4.60/bin/bin/../../lib/gcc/pic32c/8.3.1/../../../../pic32c/lib/thumb/v6-m/nofp\libc-musl.a(__fmt_d.o)
 .debug_str     0x00000000000351bc      0x354 c:/program files/microchip/xc32/v4.60/bin/bin/../../lib/gcc/pic32c/8.3.1/../../../../pic32c/lib/thumb/v6-m/nofp\libc-musl.a(__fmt_fp.o)
 .debug_str     0x0000000000035510      0x2f9 c:/program files/microchip/xc32/v4.60/bin/bin/../../lib/gcc/pic32c/8.3.1/../../../../pic32c/lib/thumb/v6-m/nofp\libc-musl.a(__fmt_s.o)
 .debug_str     0x0000000000035809      0x2f5 c:/program files/microchip/xc32/v4.60/bin/bin/../../lib/gcc/pic32c/8.3.1/../../../../pic32c/lib/thumb/v6-m/nofp\libc-musl.a(__fmt_u.o)
 .debug_str     0x0000000000035afe      0x2f5 c:/program files/microchip/xc32/v4.60/bin/bin/../../lib/gcc/pic32c/8.3.1/../../../../pic32c/lib/thumb/v6-m/nofp\libc-musl.a(__fmt_x.o)
 .debug_str     0x0000000000035df3      0x2c0 c:/program files/microchip/xc32/v4.60/bin/bin/../../lib/gcc/pic32c/8.3.1/../../../../pic32c/lib/thumb/v6-m/nofp\libc-musl.a(__pop_float.o)
 .debug_str     0x00000000000360b3      0x2cb c:/program files/microchip/xc32/v4.60/bin/bin/../../lib/gcc/pic32c/8.3.1/../../../../pic32c/lib/thumb/v6-m/nofp\libc-musl.a(__pop_int.o)
 .debug_str     0x000000000003637e      0x2cd c:/program files/microchip/xc32/v4.60/bin/bin/../../lib/gcc/pic32c/8.3.1/../../../../pic32c/lib/thumb/v6-m/nofp\libc-musl.a(__pop_ptr.o)
 .debug_str     0x000000000003664b      0x3e7 c:/program files/microchip/xc32/v4.60/bin/bin/../../lib/gcc/pic32c/8.3.1/../../../../pic32c/lib/thumb/v6-m/nofp\libc-musl.a(__printf_core.o)
 .debug_str     0x0000000000036a32      0x374 c:/program files/microchip/xc32/v4.60/bin/bin/../../lib/gcc/pic32c/8.3.1/../../../../pic32c/lib/thumb/v6-m/nofp\libc-musl.a(stdin.o)
 .debug_str     0x0000000000036da6      0x308 c:/program files/microchip/xc32/v4.60/bin/bin/../../lib/gcc/pic32c/8.3.1/../../../../pic32c/lib/thumb/v6-m/nofp\libc-musl.a(stdout.o)
 .debug_str     0x00000000000370ae      0x225 c:/program files/microchip/xc32/v4.60/bin/bin/../../lib/gcc/pic32c/8.3.1/../../../../pic32c/lib/thumb/v6-m/nofp\libc-musl.a(putchar.o)
 .debug_str     0x00000000000372d3      0x344 c:/program files/microchip/xc32/v4.60/bin/bin/../../lib/gcc/pic32c/8.3.1/../../../../pic32c/lib/thumb/v6-m/nofp\libc-musl.a(puts.o)
 .debug_str     0x0000000000037617      0x21d c:/program files/microchip/xc32/v4.60/bin/bin/../../lib/gcc/pic32c/8.3.1/../../../../pic32c/lib/thumb/v6-m/nofp\libc-musl.a(setbuf.o)
 .debug_str     0x0000000000037834      0x21c c:/program files/microchip/xc32/v4.60/bin/bin/../../lib/gcc/pic32c/8.3.1/../../../../pic32c/lib/thumb/v6-m/nofp\libc-musl.a(atoi.o)
 .debug_str     0x0000000000037a50      0x286 c:/program files/microchip/xc32/v4.60/bin/bin/../../lib/gcc/pic32c/8.3.1/../../../../pic32c/lib/thumb/v6-m/nofp\libc-musl.a(gmtime.o)
 .debug_str     0x0000000000037cd6      0x2ad c:/program files/microchip/xc32/v4.60/bin/bin/../../lib/gcc/pic32c/8.3.1/../../../../pic32c/lib/thumb/v6-m/nofp\libc-musl.a(gmtime_r.o)
 .debug_str     0x0000000000037f83      0x2d2 c:/program files/microchip/xc32/v4.60/bin/bin/../../lib/gcc/pic32c/8.3.1/../../../../pic32c/lib/thumb/v6-m/nofp\libc-musl.a(mktime.o)
 .debug_str     0x0000000000038255      0x249 c:/program files/microchip/xc32/v4.60/bin/bin/../../lib/gcc/pic32c/8.3.1/../../../../pic32c/lib/thumb/v6-m/nofp\libc-musl.a(tolower.o)
 .debug_str     0x000000000003849e      0x249 c:/program files/microchip/xc32/v4.60/bin/bin/../../lib/gcc/pic32c/8.3.1/../../../../pic32c/lib/thumb/v6-m/nofp\libc-musl.a(toupper.o)
 .debug_str     0x00000000000386e7      0x235 c:/program files/microchip/xc32/v4.60/bin/bin/../../lib/gcc/pic32c/8.3.1/../../../../pic32c/lib/thumb/v6-m/nofp\libc-musl.a(__environ.o)
 .debug_str     0x000000000003891c      0x2e9 c:/program files/microchip/xc32/v4.60/bin/bin/../../lib/gcc/pic32c/8.3.1/../../../../pic32c/lib/thumb/v6-m/nofp\libc-musl.a(__int_vfprintf.o)
 .debug_str     0x0000000000038c05      0x2a6 c:/program files/microchip/xc32/v4.60/bin/bin/../../lib/gcc/pic32c/8.3.1/../../../../pic32c/lib/thumb/v6-m/nofp\libc-musl.a(__int_vsprintf.o)
 .debug_str     0x0000000000038eab      0x338 c:/program files/microchip/xc32/v4.60/bin/bin/../../lib/gcc/pic32c/8.3.1/../../../../pic32c/lib/thumb/v6-m/nofp\libc-musl.a(fputs.o)
 .debug_str     0x00000000000391e3      0x2b1 c:/program files/microchip/xc32/v4.60/bin/bin/../../lib/gcc/pic32c/8.3.1/../../../../pic32c/lib/thumb/v6-m/nofp\libc-musl.a(__cvt_u.o)
 .debug_str     0x0000000000039494      0x362 c:/program files/microchip/xc32/v4.60/bin/bin/../../lib/gcc/pic32c/8.3.1/../../../../pic32c/lib/thumb/v6-m/nofp\libc-musl.a(__stdio_read.o)
 .debug_str     0x00000000000397f6      0x33d c:/program files/microchip/xc32/v4.60/bin/bin/../../lib/gcc/pic32c/8.3.1/../../../../pic32c/lib/thumb/v6-m/nofp\libc-musl.a(__towrite_rw.o)
 .debug_str     0x0000000000039b33      0x2d3 c:/program files/microchip/xc32/v4.60/bin/bin/../../lib/gcc/pic32c/8.3.1/../../../../pic32c/lib/thumb/v6-m/nofp\libc-musl.a(fwrite.o)
 .debug_str     0x0000000000039e06      0x2ea c:/program files/microchip/xc32/v4.60/bin/bin/../../lib/gcc/pic32c/8.3.1/../../../../pic32c/lib/thumb/v6-m/nofp\libc-musl.a(putc.o)
 .debug_str     0x000000000003a0f0      0x312 c:/program files/microchip/xc32/v4.60/bin/bin/../../lib/gcc/pic32c/8.3.1/../../../../pic32c/lib/thumb/v6-m/nofp\libc-musl.a(setvbuf.o)
 .debug_str     0x000000000003a402      0x2c0 c:/program files/microchip/xc32/v4.60/bin/bin/../../lib/gcc/pic32c/8.3.1/../../../../pic32c/lib/thumb/v6-m/nofp\libc-musl.a(__tm_to_secs.o)
 .debug_str     0x000000000003a6c2      0x23d c:/program files/microchip/xc32/v4.60/bin/bin/../../lib/gcc/pic32c/8.3.1/../../../../pic32c/lib/thumb/v6-m/nofp\libc-musl.a(__year_to_secs.o)
 .debug_str     0x000000000003a8ff      0x313 c:/program files/microchip/xc32/v4.60/bin/bin/../../lib/gcc/pic32c/8.3.1/../../../../pic32c/lib/thumb/v6-m/nofp\libc-musl.a(__secs_to_tm.o)
 .debug_str     0x000000000003ac12      0x24c c:/program files/microchip/xc32/v4.60/bin/bin/../../lib/gcc/pic32c/8.3.1/../../../../pic32c/lib/thumb/v6-m/nofp\libc-musl.a(readv.o)
 .debug_str     0x000000000003ae5e      0x2f4 c:/program files/microchip/xc32/v4.60/bin/bin/../../lib/gcc/pic32c/8.3.1/../../../../pic32c/lib/thumb/v6-m/nofp\libc-musl.a(__int_vsnprintf.o)
 .debug_str     0x000000000003b152      0x29a c:/program files/microchip/xc32/v4.60/bin/bin/../../lib/gcc/pic32c/8.3.1/../../../../pic32c/lib/thumb/v6-m/nofp\libc-musl.a(__init_stdio.o)
 .debug_str     0x000000000003b3ec      0x2da c:/program files/microchip/xc32/v4.60/bin/bin/../../lib/gcc/pic32c/8.3.1/../../../../pic32c/lib/thumb/v6-m/nofp\libc-musl.a(__out.o)
 .debug_str     0x000000000003b6c6      0x2f8 c:/program files/microchip/xc32/v4.60/bin/bin/../../lib/gcc/pic32c/8.3.1/../../../../pic32c/lib/thumb/v6-m/nofp\libc-musl.a(__putc.o)
 .debug_str     0x000000000003b9be      0x36d c:/program files/microchip/xc32/v4.60/bin/bin/../../lib/gcc/pic32c/8.3.1/../../../../pic32c/lib/thumb/v6-m/nofp\libc-musl.a(__stderr.o)
 .debug_str     0x000000000003bd2b      0x35d c:/program files/microchip/xc32/v4.60/bin/bin/../../lib/gcc/pic32c/8.3.1/../../../../pic32c/lib/thumb/v6-m/nofp\libc-musl.a(__stdio_close.o)
 .debug_str     0x000000000003c088      0x346 c:/program files/microchip/xc32/v4.60/bin/bin/../../lib/gcc/pic32c/8.3.1/../../../../pic32c/lib/thumb/v6-m/nofp\libc-musl.a(__stdio_write.o)
 .debug_str     0x000000000003c3ce      0x36d c:/program files/microchip/xc32/v4.60/bin/bin/../../lib/gcc/pic32c/8.3.1/../../../../pic32c/lib/thumb/v6-m/nofp\libc-musl.a(__stdout.o)
 .debug_str     0x000000000003c73b      0x2e9 c:/program files/microchip/xc32/v4.60/bin/bin/../../lib/gcc/pic32c/8.3.1/../../../../pic32c/lib/thumb/v6-m/nofp\libc-musl.a(__towrite.o)
 .debug_str     0x000000000003ca24      0x22d c:/program files/microchip/xc32/v4.60/bin/bin/../../lib/gcc/pic32c/8.3.1/../../../../pic32c/lib/thumb/v6-m/nofp\libc-musl.a(__month_to_secs.o)
 .debug_str     0x000000000003cc51      0x24f c:/program files/microchip/xc32/v4.60/bin/bin/../../lib/gcc/pic32c/8.3.1/../../../../pic32c/lib/thumb/v6-m/nofp\libc-musl.a(writev.o)
 .debug_str     0x000000000003cea0      0x33e c:/program files/microchip/xc32/v4.60/bin/bin/../../lib/gcc/pic32c/8.3.1/../../../../pic32c/lib/thumb/v6-m/nofp\libc-musl.a(__overflow.o)
 .debug_str     0x000000000003d1de      0x302 c:/program files/microchip/xc32/v4.60/bin/bin/../../lib/gcc/pic32c/8.3.1/../../../../pic32c/lib/thumb/v6-m/nofp\libc-musl.a(__fwrite.o)
 .debug_str     0x000000000003d4e0       0xd6 c:/program files/microchip/xc32/v4.60/bin/bin/../../lib/gcc/pic32c/8.3.1/thumb/v6-m/nofp\libgcc.a(_udivsi3.o)
 .debug_str     0x000000000003d5b6       0xd6 c:/program files/microchip/xc32/v4.60/bin/bin/../../lib/gcc/pic32c/8.3.1/thumb/v6-m/nofp\libgcc.a(_divsi3.o)
 .debug_str     0x000000000003d68c       0xd6 c:/program files/microchip/xc32/v4.60/bin/bin/../../lib/gcc/pic32c/8.3.1/thumb/v6-m/nofp\libgcc.a(_dvmd_tls.o)
 .debug_str     0x000000000003d762       0xd6 c:/program files/microchip/xc32/v4.60/bin/bin/../../lib/gcc/pic32c/8.3.1/thumb/v6-m/nofp\libgcc.a(_aeabi_ldivmod.o)
 .debug_str     0x000000000003d838       0xd6 c:/program files/microchip/xc32/v4.60/bin/bin/../../lib/gcc/pic32c/8.3.1/thumb/v6-m/nofp\libgcc.a(_aeabi_uldivmod.o)
 .debug_str     0x000000000003d90e      0x2af c:/program files/microchip/xc32/v4.60/bin/bin/../../lib/gcc/pic32c/8.3.1/thumb/v6-m/nofp\libgcc.a(_muldi3.o)
 .debug_str     0x000000000003dbbd      0x27c c:/program files/microchip/xc32/v4.60/bin/bin/../../lib/gcc/pic32c/8.3.1/thumb/v6-m/nofp\libgcc.a(_udivmoddi4.o)
 .debug_str     0x000000000003de39      0x1f2 c:/program files/microchip/xc32/v4.60/bin/bin/../../lib/gcc/pic32c/8.3.1/thumb/v6-m/nofp\libgcc.a(bpabi.o)
 .debug_str     0x000000000003e02b       0xd6 c:/program files/microchip/xc32/v4.60/bin/bin/../../lib/gcc/pic32c/8.3.1/thumb/v6-m/nofp\libgcc.a(_lshrdi3.o)
 .debug_str     0x000000000003e101       0xd6 c:/program files/microchip/xc32/v4.60/bin/bin/../../lib/gcc/pic32c/8.3.1/thumb/v6-m/nofp\libgcc.a(_ashldi3.o)
 .debug_str     0x000000000003e1d7       0xd6 c:/program files/microchip/xc32/v4.60/bin/bin/../../lib/gcc/pic32c/8.3.1/thumb/v6-m/nofp\libgcc.a(_clzdi2.o)
 .debug_str     0x000000000003e2ad      0x2a9 c:/program files/microchip/xc32/v4.60/bin/bin/../../lib/gcc/pic32c/8.3.1/thumb/v6-m/nofp\libgcc.a(_divdi3.o)
 .debug_str     0x000000000003e556       0xd6 c:/program files/microchip/xc32/v4.60/bin/bin/../../lib/gcc/pic32c/8.3.1/thumb/v6-m/nofp\libgcc.a(_clzsi2.o)
 .debug_str     0x000000000003e62c      0x1bd c:/program files/microchip/xc32/v4.60/bin/bin/../../lib/gcc/pic32c/8.3.1/../../../../pic32c/lib/thumb/v6-m/nofp\libpic32c.a(close.o)
 .debug_str     0x000000000003e7e9      0x1bd c:/program files/microchip/xc32/v4.60/bin/bin/../../lib/gcc/pic32c/8.3.1/../../../../pic32c/lib/thumb/v6-m/nofp\libpic32c.a(lseek.o)
 .debug_str     0x000000000003e9a6      0x1dc c:/program files/microchip/xc32/v4.60/bin/bin/../../lib/gcc/pic32c/8.3.1/../../../../pic32c/lib/thumb/v6-m/nofp\libpic32c.a(sbrk.o)
 .debug_str     0x000000000003eb82      0x20d c:/program files/microchip/xc32/v4.60/bin/bin/../../lib/gcc/pic32c/8.3.1/../../../../pic32c/lib/thumb/v6-m/nofp\libc-size-musl.a(strcpy.o)
 .debug_str     0x000000000003ed8f      0x221 c:/program files/microchip/xc32/v4.60/bin/bin/../../lib/gcc/pic32c/8.3.1/../../../../pic32c/lib/thumb/v6-m/nofp\libc-size-musl.a(stpcpy.o)
 .debug_str     0x000000000003efb0      0x1d5 c:/program files/microchip/xc32/v4.60/bin/bin/../../lib/gcc/pic32c/8.3.1/../../../../pic32c/lib/thumb/v6-m/nofp\libpic32c.a(pic32_data_init_clear.o)
 .debug_str     0x000000000003f185      0x1d3 c:/program files/microchip/xc32/v4.60/bin/bin/../../lib/gcc/pic32c/8.3.1/../../../../pic32c/lib/thumb/v6-m/nofp\libpic32c.a(pic32_data_init_copy.o)

.debug_frame    0x0000000000000000     0x6004
 .debug_frame   0x0000000000000000       0xf4 build/SAMD21_IOT_WG_ICM42688/production/_ext/2048461350/icm42688_sensor.o
 .debug_frame   0x00000000000000f4       0x44 build/SAMD21_IOT_WG_ICM42688/production/_ext/171618134/sml_recognition_run.o
 .debug_frame   0x0000000000000138      0x254 build/SAMD21_IOT_WG_ICM42688/production/_ext/1660664302/drv_spi.o
 .debug_frame   0x000000000000038c       0x50 build/SAMD21_IOT_WG_ICM42688/production/_ext/1164161090/wdrv_winc_gpio.o
 .debug_frame   0x00000000000003dc       0x40 build/SAMD21_IOT_WG_ICM42688/production/_ext/1164161090/wdrv_winc_eint.o
 .debug_frame   0x000000000000041c       0xa0 build/SAMD21_IOT_WG_ICM42688/production/_ext/101005277/wdrv_winc_spi.o
 .debug_frame   0x00000000000004bc       0x40 build/SAMD21_IOT_WG_ICM42688/production/_ext/90265895/nm_common.o
 .debug_frame   0x00000000000004fc      0x144 build/SAMD21_IOT_WG_ICM42688/production/_ext/121554788/m2m_ssl.o
 .debug_frame   0x0000000000000640      0x160 build/SAMD21_IOT_WG_ICM42688/production/_ext/121554788/m2m_hif.o
 .debug_frame   0x00000000000007a0      0x800 build/SAMD21_IOT_WG_ICM42688/production/_ext/121554788/m2m_wifi.o
 .debug_frame   0x0000000000000fa0      0x1e0 build/SAMD21_IOT_WG_ICM42688/production/_ext/121554788/nmspi.o
 .debug_frame   0x0000000000001180       0xe8 build/SAMD21_IOT_WG_ICM42688/production/_ext/121554788/nmdrv.o
 .debug_frame   0x0000000000001268      0x1d4 build/SAMD21_IOT_WG_ICM42688/production/_ext/121554788/m2m_ota.o
 .debug_frame   0x000000000000143c      0x268 build/SAMD21_IOT_WG_ICM42688/production/_ext/121554788/nmasic.o
 .debug_frame   0x00000000000016a4       0xf8 build/SAMD21_IOT_WG_ICM42688/production/_ext/121554788/nmbus.o
 .debug_frame   0x000000000000179c      0x2f0 build/SAMD21_IOT_WG_ICM42688/production/_ext/548032175/socket.o
 .debug_frame   0x0000000000001a8c       0x30 build/SAMD21_IOT_WG_ICM42688/production/_ext/548032175/inet_addr.o
 .debug_frame   0x0000000000001abc       0x3c build/SAMD21_IOT_WG_ICM42688/production/_ext/548032175/inet_ntop.o
 .debug_frame   0x0000000000001af8       0x3c build/SAMD21_IOT_WG_ICM42688/production/_ext/609036575/flexible_flash.o
 .debug_frame   0x0000000000001b34      0x134 build/SAMD21_IOT_WG_ICM42688/production/_ext/609036575/spi_flash.o
 .debug_frame   0x0000000000001c68       0x28 build/SAMD21_IOT_WG_ICM42688/production/_ext/1784303044/wdrv_winc_osal.o
 .debug_frame   0x0000000000001c90       0xa8 build/SAMD21_IOT_WG_ICM42688/production/_ext/907429946/wdrv_winc_sta.o
 .debug_frame   0x0000000000001d38      0x1dc build/SAMD21_IOT_WG_ICM42688/production/_ext/907429946/wdrv_winc_socket.o
 .debug_frame   0x0000000000001f14       0xb0 build/SAMD21_IOT_WG_ICM42688/production/_ext/907429946/wdrv_winc_systime.o
 .debug_frame   0x0000000000001fc4       0xc4 build/SAMD21_IOT_WG_ICM42688/production/_ext/907429946/wdrv_winc_authctx.o
 .debug_frame   0x0000000000002088       0xd4 build/SAMD21_IOT_WG_ICM42688/production/_ext/907429946/wdrv_winc_host_file.o
 .debug_frame   0x000000000000215c      0x2dc build/SAMD21_IOT_WG_ICM42688/production/_ext/907429946/wdrv_winc.o
 .debug_frame   0x0000000000002438       0xb8 build/SAMD21_IOT_WG_ICM42688/production/_ext/907429946/wdrv_winc_bssctx.o
 .debug_frame   0x00000000000024f0       0x20 build/SAMD21_IOT_WG_ICM42688/production/_ext/1750425231/plib_clock.o
 .debug_frame   0x0000000000002510      0x18c build/SAMD21_IOT_WG_ICM42688/production/_ext/1580516298/plib_dmac.o
 .debug_frame   0x000000000000269c       0x80 build/SAMD21_IOT_WG_ICM42688/production/_ext/503204096/plib_eic.o
 .debug_frame   0x000000000000271c       0x84 build/SAMD21_IOT_WG_ICM42688/production/_ext/1580823105/plib_nvic.o
 .debug_frame   0x00000000000027a0      0x108 build/SAMD21_IOT_WG_ICM42688/production/_ext/11470383/plib_nvmctrl.o
 .debug_frame   0x00000000000028a8       0xe4 build/SAMD21_IOT_WG_ICM42688/production/_ext/1580876256/plib_port.o
 .debug_frame   0x000000000000298c       0xbc build/SAMD21_IOT_WG_ICM42688/production/_ext/1014017276/plib_sercom0_spi_master.o
 .debug_frame   0x0000000000002a48       0xdc build/SAMD21_IOT_WG_ICM42688/production/_ext/1014017276/plib_sercom2_spi_master.o
 .debug_frame   0x0000000000002b24      0x160 build/SAMD21_IOT_WG_ICM42688/production/_ext/177673482/plib_sercom5_usart.o
 .debug_frame   0x0000000000002c84       0xd8 build/SAMD21_IOT_WG_ICM42688/production/_ext/223004715/plib_systick.o
 .debug_frame   0x0000000000002d5c       0xc8 build/SAMD21_IOT_WG_ICM42688/production/_ext/399410062/plib_tc3.o
 .debug_frame   0x0000000000002e24       0xd8 build/SAMD21_IOT_WG_ICM42688/production/_ext/399410062/plib_tc4.o
 .debug_frame   0x0000000000002efc       0x44 build/SAMD21_IOT_WG_ICM42688/production/_ext/1357625803/xc32_monitor.o
 .debug_frame   0x0000000000002f40       0x48 build/SAMD21_IOT_WG_ICM42688/production/_ext/1584719636/sys_dma.o
 .debug_frame   0x0000000000002f88       0x84 build/SAMD21_IOT_WG_ICM42688/production/_ext/1318297016/sys_int.o
 .debug_frame   0x000000000000300c      0x3ac build/SAMD21_IOT_WG_ICM42688/production/_ext/386530258/sys_time.o
 .debug_frame   0x00000000000033b8       0x2c build/SAMD21_IOT_WG_ICM42688/production/_ext/1832905403/initialization.o
 .debug_frame   0x00000000000033e4       0x20 build/SAMD21_IOT_WG_ICM42688/production/_ext/1832905403/interrupts.o
 .debug_frame   0x0000000000003404       0x30 build/SAMD21_IOT_WG_ICM42688/production/_ext/1832905403/exceptions.o
 .debug_frame   0x0000000000003434       0x38 build/SAMD21_IOT_WG_ICM42688/production/_ext/1832905403/startup_xc32.o
 .debug_frame   0x000000000000346c       0x28 build/SAMD21_IOT_WG_ICM42688/production/_ext/1832905403/tasks.o
 .debug_frame   0x0000000000003494      0x624 build/SAMD21_IOT_WG_ICM42688/production/_ext/1341251756/Icm426xxDriver_HL.o
 .debug_frame   0x0000000000003ab8       0x78 build/SAMD21_IOT_WG_ICM42688/production/_ext/1341251756/Icm426xxTransport.o
 .debug_frame   0x0000000000003b30       0x50 build/SAMD21_IOT_WG_ICM42688/production/_ext/596309756/dsp_dtw_distance.o
 .debug_frame   0x0000000000003b80       0x34 build/SAMD21_IOT_WG_ICM42688/production/_ext/596309756/dsp_l1_distance.o
 .debug_frame   0x0000000000003bb4       0x38 build/SAMD21_IOT_WG_ICM42688/production/_ext/596309756/dsp_lsup_distance.o
 .debug_frame   0x0000000000003bec       0x38 build/SAMD21_IOT_WG_ICM42688/production/_ext/596309756/fg_amplitude_global_p2p_low_frequency.o
 .debug_frame   0x0000000000003c24       0x38 build/SAMD21_IOT_WG_ICM42688/production/_ext/596309756/fg_amplitude_peak_to_peak.o
 .debug_frame   0x0000000000003c5c       0x3c build/SAMD21_IOT_WG_ICM42688/production/_ext/596309756/fg_area_absolute_area_low_frequency.o
 .debug_frame   0x0000000000003c98       0x2c build/SAMD21_IOT_WG_ICM42688/production/_ext/596309756/fg_cross_p2p_difference.o
 .debug_frame   0x0000000000003cc4       0x3c build/SAMD21_IOT_WG_ICM42688/production/_ext/596309756/fg_sampling_downsample.o
 .debug_frame   0x0000000000003d00       0x34 build/SAMD21_IOT_WG_ICM42688/production/_ext/596309756/fg_stats_abs_mean.o
 .debug_frame   0x0000000000003d34       0x2c build/SAMD21_IOT_WG_ICM42688/production/_ext/596309756/fg_stats_minimum.o
 .debug_frame   0x0000000000003d60      0x570 build/SAMD21_IOT_WG_ICM42688/production/_ext/596309756/kb.o
 .debug_frame   0x00000000000042d0      0x10c build/SAMD21_IOT_WG_ICM42688/production/_ext/596309756/kb_output.o
 .debug_frame   0x00000000000043dc       0xb4 build/SAMD21_IOT_WG_ICM42688/production/_ext/596309756/kb_pipeline.o
 .debug_frame   0x0000000000004490       0x3c build/SAMD21_IOT_WG_ICM42688/production/_ext/596309756/ma_symmetric.o
 .debug_frame   0x00000000000044cc       0x74 build/SAMD21_IOT_WG_ICM42688/production/_ext/596309756/mean.o
 .debug_frame   0x0000000000004540      0x320 build/SAMD21_IOT_WG_ICM42688/production/_ext/596309756/pme.o
 .debug_frame   0x0000000000004860      0x1e0 build/SAMD21_IOT_WG_ICM42688/production/_ext/596309756/rb.o
 .debug_frame   0x0000000000004a40       0x48 build/SAMD21_IOT_WG_ICM42688/production/_ext/596309756/save_sensor_data.o
 .debug_frame   0x0000000000004a88       0x34 build/SAMD21_IOT_WG_ICM42688/production/_ext/596309756/sf_downsample_by_averaging.o
 .debug_frame   0x0000000000004abc       0x30 build/SAMD21_IOT_WG_ICM42688/production/_ext/596309756/sg_windowing.o
 .debug_frame   0x0000000000004aec       0x3c build/SAMD21_IOT_WG_ICM42688/production/_ext/596309756/sortarray.o
 .debug_frame   0x0000000000004b28       0x30 build/SAMD21_IOT_WG_ICM42688/production/_ext/596309756/sorted_copy.o
 .debug_frame   0x0000000000004b58       0x3c build/SAMD21_IOT_WG_ICM42688/production/_ext/596309756/tr_min_max_scale.o
 .debug_frame   0x0000000000004b94       0x34 build/SAMD21_IOT_WG_ICM42688/production/_ext/596309756/utils_array_max_uint8.o
 .debug_frame   0x0000000000004bc8       0x20 build/SAMD21_IOT_WG_ICM42688/production/_ext/596309756/utils_bitwise_abs_val.o
 .debug_frame   0x0000000000004be8       0x2c build/SAMD21_IOT_WG_ICM42688/production/_ext/596309756/utils_buffer_abssum.o
 .debug_frame   0x0000000000004c14       0x50 build/SAMD21_IOT_WG_ICM42688/production/_ext/596309756/utils_buffer_cumsum.o
 .debug_frame   0x0000000000004c64       0x30 build/SAMD21_IOT_WG_ICM42688/production/_ext/596309756/utils_buffer_min_max.o
 .debug_frame   0x0000000000004c94       0x2c build/SAMD21_IOT_WG_ICM42688/production/_ext/596309756/utils_model_cross_difference.o
 .debug_frame   0x0000000000004cc0       0x3c build/SAMD21_IOT_WG_ICM42688/production/_ext/596309756/utils_model_stats_max_min.o
 .debug_frame   0x0000000000004cfc       0x30 build/SAMD21_IOT_WG_ICM42688/production/_ext/596309756/utils_tr_sensor.o
 .debug_frame   0x0000000000004d2c      0x140 build/SAMD21_IOT_WG_ICM42688/production/_ext/1360937237/main.o
 .debug_frame   0x0000000000004e6c      0x110 build/SAMD21_IOT_WG_ICM42688/production/_ext/1360937237/ringbuffer.o
 .debug_frame   0x0000000000004f7c       0x40 build/SAMD21_IOT_WG_ICM42688/production/_ext/1360937237/app.o
 .debug_frame   0x0000000000004fbc       0x98 build/SAMD21_IOT_WG_ICM42688/production/_ext/1360937237/ws2812.o
 .debug_frame   0x0000000000005054       0xa4 build/SAMD21_IOT_WG_ICM42688/production/_ext/1360937237/winc1500_udp_client.o
 .debug_frame   0x00000000000050f8       0x48 c:/program files/microchip/xc32/v4.60/bin/bin/../../lib/gcc/pic32c/8.3.1/../../../../pic32c/lib/thumb/v6-m/nofp\libpic32c.a(data_init.o)
 .debug_frame   0x0000000000005140       0x28 c:/program files/microchip/xc32/v4.60/bin/bin/../../lib/gcc/pic32c/8.3.1/../../../../pic32c/lib/thumb/v6-m/nofp\libc-size-musl.a(memcpy.o)
 .debug_frame   0x0000000000005168       0x20 c:/program files/microchip/xc32/v4.60/bin/bin/../../lib/gcc/pic32c/8.3.1/../../../../pic32c/lib/thumb/v6-m/nofp\libc-size-musl.a(memset.o)
 .debug_frame   0x0000000000005188       0x20 c:/program files/microchip/xc32/v4.60/bin/bin/../../lib/gcc/pic32c/8.3.1/../../../../pic32c/lib/thumb/v6-m/nofp\libc-size-musl.a(strlen.o)
 .debug_frame   0x00000000000051a8       0x28 c:/program files/microchip/xc32/v4.60/bin/bin/../../lib/gcc/pic32c/8.3.1/../../../../pic32c/lib/thumb/v6-m/nofp\libc-size-musl.a(strchr.o)
 .debug_frame   0x00000000000051d0       0x2c c:/program files/microchip/xc32/v4.60/bin/bin/../../lib/gcc/pic32c/8.3.1/../../../../pic32c/lib/thumb/v6-m/nofp\libc-size-musl.a(strchrnul.o)
 .debug_frame   0x00000000000051fc       0x2c c:/program files/microchip/xc32/v4.60/bin/bin/../../lib/gcc/pic32c/8.3.1/../../../../pic32c/lib/thumb/v6-m/nofp\libc-size-musl.a(strnlen.o)
 .debug_frame   0x0000000000005228       0x20 c:/program files/microchip/xc32/v4.60/bin/bin/../../lib/gcc/pic32c/8.3.1/../../../../pic32c/lib/thumb/v6-m/nofp\libc-size-musl.a(memchr.o)
 .debug_frame   0x0000000000005248       0x2c c:/program files/microchip/xc32/v4.60/bin/bin/../../lib/gcc/pic32c/8.3.1/../../../../pic32c/lib/thumb/v6-m/nofp\liblmalloc-musl.a(lite_calloc.o)
 .debug_frame   0x0000000000005274       0x64 c:/program files/microchip/xc32/v4.60/bin/bin/../../lib/gcc/pic32c/8.3.1/../../../../pic32c/lib/thumb/v6-m/nofp\liblmalloc-musl.a(lite_free.o)
 .debug_frame   0x00000000000052d8       0x30 c:/program files/microchip/xc32/v4.60/bin/bin/../../lib/gcc/pic32c/8.3.1/../../../../pic32c/lib/thumb/v6-m/nofp\liblmalloc-musl.a(lite_malloc.o)
 .debug_frame   0x0000000000005308       0x38 c:/program files/microchip/xc32/v4.60/bin/bin/../../lib/gcc/pic32c/8.3.1/../../../../pic32c/lib/thumb/v6-m/nofp\libc-musl.a(__libc_start_main.o)
 .debug_frame   0x0000000000005340       0x28 c:/program files/microchip/xc32/v4.60/bin/bin/../../lib/gcc/pic32c/8.3.1/../../../../pic32c/lib/thumb/v6-m/nofp\libc-musl.a(expand_heap.o)
 .debug_frame   0x0000000000005368       0x48 c:/program files/microchip/xc32/v4.60/bin/bin/../../lib/gcc/pic32c/8.3.1/../../../../pic32c/lib/thumb/v6-m/nofp\libc-musl.a(__sio_printf_cdeEfFgGnpsuxX.o)
 .debug_frame   0x00000000000053b0       0x44 c:/program files/microchip/xc32/v4.60/bin/bin/../../lib/gcc/pic32c/8.3.1/../../../../pic32c/lib/thumb/v6-m/nofp\libc-musl.a(__sio_sprintf_cdeEfFgGnpsuxX.o)
 .debug_frame   0x00000000000053f4       0x30 c:/program files/microchip/xc32/v4.60/bin/bin/../../lib/gcc/pic32c/8.3.1/../../../../pic32c/lib/thumb/v6-m/nofp\libc-musl.a(__fmt_d.o)
 .debug_frame   0x0000000000005424       0x34 c:/program files/microchip/xc32/v4.60/bin/bin/../../lib/gcc/pic32c/8.3.1/../../../../pic32c/lib/thumb/v6-m/nofp\libc-musl.a(__fmt_fp.o)
 .debug_frame   0x0000000000005458       0x30 c:/program files/microchip/xc32/v4.60/bin/bin/../../lib/gcc/pic32c/8.3.1/../../../../pic32c/lib/thumb/v6-m/nofp\libc-musl.a(__fmt_s.o)
 .debug_frame   0x0000000000005488       0x30 c:/program files/microchip/xc32/v4.60/bin/bin/../../lib/gcc/pic32c/8.3.1/../../../../pic32c/lib/thumb/v6-m/nofp\libc-musl.a(__fmt_u.o)
 .debug_frame   0x00000000000054b8       0x30 c:/program files/microchip/xc32/v4.60/bin/bin/../../lib/gcc/pic32c/8.3.1/../../../../pic32c/lib/thumb/v6-m/nofp\libc-musl.a(__fmt_x.o)
 .debug_frame   0x00000000000054e8       0x20 c:/program files/microchip/xc32/v4.60/bin/bin/../../lib/gcc/pic32c/8.3.1/../../../../pic32c/lib/thumb/v6-m/nofp\libc-musl.a(__pop_float.o)
 .debug_frame   0x0000000000005508       0x28 c:/program files/microchip/xc32/v4.60/bin/bin/../../lib/gcc/pic32c/8.3.1/../../../../pic32c/lib/thumb/v6-m/nofp\libc-musl.a(__pop_int.o)
 .debug_frame   0x0000000000005530       0x28 c:/program files/microchip/xc32/v4.60/bin/bin/../../lib/gcc/pic32c/8.3.1/../../../../pic32c/lib/thumb/v6-m/nofp\libc-musl.a(__pop_ptr.o)
 .debug_frame   0x0000000000005558       0xc0 c:/program files/microchip/xc32/v4.60/bin/bin/../../lib/gcc/pic32c/8.3.1/../../../../pic32c/lib/thumb/v6-m/nofp\libc-musl.a(__printf_core.o)
 .debug_frame   0x0000000000005618       0x38 c:/program files/microchip/xc32/v4.60/bin/bin/../../lib/gcc/pic32c/8.3.1/../../../../pic32c/lib/thumb/v6-m/nofp\libc-musl.a(stdin.o)
 .debug_frame   0x0000000000005650       0x50 c:/program files/microchip/xc32/v4.60/bin/bin/../../lib/gcc/pic32c/8.3.1/../../../../pic32c/lib/thumb/v6-m/nofp\libc-musl.a(stdout.o)
 .debug_frame   0x00000000000056a0       0x28 c:/program files/microchip/xc32/v4.60/bin/bin/../../lib/gcc/pic32c/8.3.1/../../../../pic32c/lib/thumb/v6-m/nofp\libc-musl.a(putchar.o)
 .debug_frame   0x00000000000056c8       0x28 c:/program files/microchip/xc32/v4.60/bin/bin/../../lib/gcc/pic32c/8.3.1/../../../../pic32c/lib/thumb/v6-m/nofp\libc-musl.a(puts.o)
 .debug_frame   0x00000000000056f0       0x28 c:/program files/microchip/xc32/v4.60/bin/bin/../../lib/gcc/pic32c/8.3.1/../../../../pic32c/lib/thumb/v6-m/nofp\libc-musl.a(setbuf.o)
 .debug_frame   0x0000000000005718       0x28 c:/program files/microchip/xc32/v4.60/bin/bin/../../lib/gcc/pic32c/8.3.1/../../../../pic32c/lib/thumb/v6-m/nofp\libc-musl.a(atoi.o)
 .debug_frame   0x0000000000005740       0x28 c:/program files/microchip/xc32/v4.60/bin/bin/../../lib/gcc/pic32c/8.3.1/../../../../pic32c/lib/thumb/v6-m/nofp\libc-musl.a(gmtime.o)
 .debug_frame   0x0000000000005768       0x2c c:/program files/microchip/xc32/v4.60/bin/bin/../../lib/gcc/pic32c/8.3.1/../../../../pic32c/lib/thumb/v6-m/nofp\libc-musl.a(gmtime_r.o)
 .debug_frame   0x0000000000005794       0x2c c:/program files/microchip/xc32/v4.60/bin/bin/../../lib/gcc/pic32c/8.3.1/../../../../pic32c/lib/thumb/v6-m/nofp\libc-musl.a(mktime.o)
 .debug_frame   0x00000000000057c0       0x38 c:/program files/microchip/xc32/v4.60/bin/bin/../../lib/gcc/pic32c/8.3.1/../../../../pic32c/lib/thumb/v6-m/nofp\libc-musl.a(tolower.o)
 .debug_frame   0x00000000000057f8       0x38 c:/program files/microchip/xc32/v4.60/bin/bin/../../lib/gcc/pic32c/8.3.1/../../../../pic32c/lib/thumb/v6-m/nofp\libc-musl.a(toupper.o)
 .debug_frame   0x0000000000005830       0x2c c:/program files/microchip/xc32/v4.60/bin/bin/../../lib/gcc/pic32c/8.3.1/../../../../pic32c/lib/thumb/v6-m/nofp\libc-musl.a(__int_vfprintf.o)
 .debug_frame   0x000000000000585c       0x28 c:/program files/microchip/xc32/v4.60/bin/bin/../../lib/gcc/pic32c/8.3.1/../../../../pic32c/lib/thumb/v6-m/nofp\libc-musl.a(__int_vsprintf.o)
 .debug_frame   0x0000000000005884       0x2c c:/program files/microchip/xc32/v4.60/bin/bin/../../lib/gcc/pic32c/8.3.1/../../../../pic32c/lib/thumb/v6-m/nofp\libc-musl.a(fputs.o)
 .debug_frame   0x00000000000058b0       0x34 c:/program files/microchip/xc32/v4.60/bin/bin/../../lib/gcc/pic32c/8.3.1/../../../../pic32c/lib/thumb/v6-m/nofp\libc-musl.a(__cvt_u.o)
 .debug_frame   0x00000000000058e4       0x34 c:/program files/microchip/xc32/v4.60/bin/bin/../../lib/gcc/pic32c/8.3.1/../../../../pic32c/lib/thumb/v6-m/nofp\libc-musl.a(__stdio_read.o)
 .debug_frame   0x0000000000005918       0x20 c:/program files/microchip/xc32/v4.60/bin/bin/../../lib/gcc/pic32c/8.3.1/../../../../pic32c/lib/thumb/v6-m/nofp\libc-musl.a(__towrite_rw.o)
 .debug_frame   0x0000000000005938       0x44 c:/program files/microchip/xc32/v4.60/bin/bin/../../lib/gcc/pic32c/8.3.1/../../../../pic32c/lib/thumb/v6-m/nofp\libc-musl.a(fwrite.o)
 .debug_frame   0x000000000000597c       0x5c c:/program files/microchip/xc32/v4.60/bin/bin/../../lib/gcc/pic32c/8.3.1/../../../../pic32c/lib/thumb/v6-m/nofp\libc-musl.a(putc.o)
 .debug_frame   0x00000000000059d8       0x44 c:/program files/microchip/xc32/v4.60/bin/bin/../../lib/gcc/pic32c/8.3.1/../../../../pic32c/lib/thumb/v6-m/nofp\libc-musl.a(setvbuf.o)
 .debug_frame   0x0000000000005a1c       0x30 c:/program files/microchip/xc32/v4.60/bin/bin/../../lib/gcc/pic32c/8.3.1/../../../../pic32c/lib/thumb/v6-m/nofp\libc-musl.a(__tm_to_secs.o)
 .debug_frame   0x0000000000005a4c       0x34 c:/program files/microchip/xc32/v4.60/bin/bin/../../lib/gcc/pic32c/8.3.1/../../../../pic32c/lib/thumb/v6-m/nofp\libc-musl.a(__year_to_secs.o)
 .debug_frame   0x0000000000005a80       0x30 c:/program files/microchip/xc32/v4.60/bin/bin/../../lib/gcc/pic32c/8.3.1/../../../../pic32c/lib/thumb/v6-m/nofp\libc-musl.a(__secs_to_tm.o)
 .debug_frame   0x0000000000005ab0       0x34 c:/program files/microchip/xc32/v4.60/bin/bin/../../lib/gcc/pic32c/8.3.1/../../../../pic32c/lib/thumb/v6-m/nofp\libc-musl.a(readv.o)
 .debug_frame   0x0000000000005ae4       0x2c c:/program files/microchip/xc32/v4.60/bin/bin/../../lib/gcc/pic32c/8.3.1/../../../../pic32c/lib/thumb/v6-m/nofp\libc-musl.a(__int_vsnprintf.o)
 .debug_frame   0x0000000000005b10       0x38 c:/program files/microchip/xc32/v4.60/bin/bin/../../lib/gcc/pic32c/8.3.1/../../../../pic32c/lib/thumb/v6-m/nofp\libc-musl.a(__init_stdio.o)
 .debug_frame   0x0000000000005b48       0x44 c:/program files/microchip/xc32/v4.60/bin/bin/../../lib/gcc/pic32c/8.3.1/../../../../pic32c/lib/thumb/v6-m/nofp\libc-musl.a(__out.o)
 .debug_frame   0x0000000000005b8c       0x28 c:/program files/microchip/xc32/v4.60/bin/bin/../../lib/gcc/pic32c/8.3.1/../../../../pic32c/lib/thumb/v6-m/nofp\libc-musl.a(__putc.o)
 .debug_frame   0x0000000000005bb4       0x48 c:/program files/microchip/xc32/v4.60/bin/bin/../../lib/gcc/pic32c/8.3.1/../../../../pic32c/lib/thumb/v6-m/nofp\libc-musl.a(__stderr.o)
 .debug_frame   0x0000000000005bfc       0x48 c:/program files/microchip/xc32/v4.60/bin/bin/../../lib/gcc/pic32c/8.3.1/../../../../pic32c/lib/thumb/v6-m/nofp\libc-musl.a(__stdio_close.o)
 .debug_frame   0x0000000000005c44       0x50 c:/program files/microchip/xc32/v4.60/bin/bin/../../lib/gcc/pic32c/8.3.1/../../../../pic32c/lib/thumb/v6-m/nofp\libc-musl.a(__stdio_write.o)
 .debug_frame   0x0000000000005c94       0x48 c:/program files/microchip/xc32/v4.60/bin/bin/../../lib/gcc/pic32c/8.3.1/../../../../pic32c/lib/thumb/v6-m/nofp\libc-musl.a(__stdout.o)
 .debug_frame   0x0000000000005cdc       0x38 c:/program files/microchip/xc32/v4.60/bin/bin/../../lib/gcc/pic32c/8.3.1/../../../../pic32c/lib/thumb/v6-m/nofp\libc-musl.a(__towrite.o)
 .debug_frame   0x0000000000005d14       0x20 c:/program files/microchip/xc32/v4.60/bin/bin/../../lib/gcc/pic32c/8.3.1/../../../../pic32c/lib/thumb/v6-m/nofp\libc-musl.a(__month_to_secs.o)
 .debug_frame   0x0000000000005d34       0x34 c:/program files/microchip/xc32/v4.60/bin/bin/../../lib/gcc/pic32c/8.3.1/../../../../pic32c/lib/thumb/v6-m/nofp\libc-musl.a(writev.o)
 .debug_frame   0x0000000000005d68       0x30 c:/program files/microchip/xc32/v4.60/bin/bin/../../lib/gcc/pic32c/8.3.1/../../../../pic32c/lib/thumb/v6-m/nofp\libc-musl.a(__overflow.o)
 .debug_frame   0x0000000000005d98       0x40 c:/program files/microchip/xc32/v4.60/bin/bin/../../lib/gcc/pic32c/8.3.1/../../../../pic32c/lib/thumb/v6-m/nofp\libc-musl.a(__fwrite.o)
 .debug_frame   0x0000000000005dd8       0x20 c:/program files/microchip/xc32/v4.60/bin/bin/../../lib/gcc/pic32c/8.3.1/thumb/v6-m/nofp\libgcc.a(_udivsi3.o)
 .debug_frame   0x0000000000005df8       0x20 c:/program files/microchip/xc32/v4.60/bin/bin/../../lib/gcc/pic32c/8.3.1/thumb/v6-m/nofp\libgcc.a(_divsi3.o)
 .debug_frame   0x0000000000005e18       0x34 c:/program files/microchip/xc32/v4.60/bin/bin/../../lib/gcc/pic32c/8.3.1/thumb/v6-m/nofp\libgcc.a(_muldi3.o)
 .debug_frame   0x0000000000005e4c       0x30 c:/program files/microchip/xc32/v4.60/bin/bin/../../lib/gcc/pic32c/8.3.1/thumb/v6-m/nofp\libgcc.a(_udivmoddi4.o)
 .debug_frame   0x0000000000005e7c       0x34 c:/program files/microchip/xc32/v4.60/bin/bin/../../lib/gcc/pic32c/8.3.1/thumb/v6-m/nofp\libgcc.a(bpabi.o)
 .debug_frame   0x0000000000005eb0       0x30 c:/program files/microchip/xc32/v4.60/bin/bin/../../lib/gcc/pic32c/8.3.1/thumb/v6-m/nofp\libgcc.a(_divdi3.o)
 .debug_frame   0x0000000000005ee0       0x20 c:/program files/microchip/xc32/v4.60/bin/bin/../../lib/gcc/pic32c/8.3.1/../../../../pic32c/lib/thumb/v6-m/nofp\libpic32c.a(close.o)
 .debug_frame   0x0000000000005f00       0x20 c:/program files/microchip/xc32/v4.60/bin/bin/../../lib/gcc/pic32c/8.3.1/../../../../pic32c/lib/thumb/v6-m/nofp\libpic32c.a(lseek.o)
 .debug_frame   0x0000000000005f20       0x54 c:/program files/microchip/xc32/v4.60/bin/bin/../../lib/gcc/pic32c/8.3.1/../../../../pic32c/lib/thumb/v6-m/nofp\libpic32c.a(sbrk.o)
 .debug_frame   0x0000000000005f74       0x28 c:/program files/microchip/xc32/v4.60/bin/bin/../../lib/gcc/pic32c/8.3.1/../../../../pic32c/lib/thumb/v6-m/nofp\libc-size-musl.a(strcpy.o)
 .debug_frame   0x0000000000005f9c       0x20 c:/program files/microchip/xc32/v4.60/bin/bin/../../lib/gcc/pic32c/8.3.1/../../../../pic32c/lib/thumb/v6-m/nofp\libc-size-musl.a(stpcpy.o)
 .debug_frame   0x0000000000005fbc       0x20 c:/program files/microchip/xc32/v4.60/bin/bin/../../lib/gcc/pic32c/8.3.1/../../../../pic32c/lib/thumb/v6-m/nofp\libpic32c.a(pic32_data_init_clear.o)
 .debug_frame   0x0000000000005fdc       0x28 c:/program files/microchip/xc32/v4.60/bin/bin/../../lib/gcc/pic32c/8.3.1/../../../../pic32c/lib/thumb/v6-m/nofp\libpic32c.a(pic32_data_init_copy.o)

.note.GNU-stack
                0x0000000000000000        0x0
 .note.GNU-stack
                0x0000000000000000        0x0 c:/program files/microchip/xc32/v4.60/bin/bin/../../lib/gcc/pic32c/8.3.1/../../../../pic32c/lib/thumb/v6-m/nofp\libc-size-musl.a(memcpy.o)
 .note.GNU-stack
                0x0000000000000000        0x0 c:/program files/microchip/xc32/v4.60/bin/bin/../../lib/gcc/pic32c/8.3.1/../../../../pic32c/lib/thumb/v6-m/nofp\libc-size-musl.a(memset.o)
 .note.GNU-stack
                0x0000000000000000        0x0 c:/program files/microchip/xc32/v4.60/bin/bin/../../lib/gcc/pic32c/8.3.1/../../../../pic32c/lib/thumb/v6-m/nofp\libc-size-musl.a(strlen.o)
 .note.GNU-stack
                0x0000000000000000        0x0 c:/program files/microchip/xc32/v4.60/bin/bin/../../lib/gcc/pic32c/8.3.1/../../../../pic32c/lib/thumb/v6-m/nofp\libc-size-musl.a(strchr.o)
 .note.GNU-stack
                0x0000000000000000        0x0 c:/program files/microchip/xc32/v4.60/bin/bin/../../lib/gcc/pic32c/8.3.1/../../../../pic32c/lib/thumb/v6-m/nofp\libc-size-musl.a(strchrnul.o)
 .note.GNU-stack
                0x0000000000000000        0x0 c:/program files/microchip/xc32/v4.60/bin/bin/../../lib/gcc/pic32c/8.3.1/../../../../pic32c/lib/thumb/v6-m/nofp\libc-size-musl.a(strnlen.o)
 .note.GNU-stack
                0x0000000000000000        0x0 c:/program files/microchip/xc32/v4.60/bin/bin/../../lib/gcc/pic32c/8.3.1/../../../../pic32c/lib/thumb/v6-m/nofp\libc-size-musl.a(memchr.o)
 .note.GNU-stack
                0x0000000000000000        0x0 c:/program files/microchip/xc32/v4.60/bin/bin/../../lib/gcc/pic32c/8.3.1/../../../../pic32c/lib/thumb/v6-m/nofp\liblmalloc-musl.a(lite_calloc.o)
 .note.GNU-stack
                0x0000000000000000        0x0 c:/program files/microchip/xc32/v4.60/bin/bin/../../lib/gcc/pic32c/8.3.1/../../../../pic32c/lib/thumb/v6-m/nofp\liblmalloc-musl.a(lite_free.o)
 .note.GNU-stack
                0x0000000000000000        0x0 c:/program files/microchip/xc32/v4.60/bin/bin/../../lib/gcc/pic32c/8.3.1/../../../../pic32c/lib/thumb/v6-m/nofp\liblmalloc-musl.a(lite_malloc.o)
 .note.GNU-stack
                0x0000000000000000        0x0 c:/program files/microchip/xc32/v4.60/bin/bin/../../lib/gcc/pic32c/8.3.1/../../../../pic32c/lib/thumb/v6-m/nofp\libc-musl.a(__libc_start_main.o)
 .note.GNU-stack
                0x0000000000000000        0x0 c:/program files/microchip/xc32/v4.60/bin/bin/../../lib/gcc/pic32c/8.3.1/../../../../pic32c/lib/thumb/v6-m/nofp\libc-musl.a(__errno_location.o)
 .note.GNU-stack
                0x0000000000000000        0x0 c:/program files/microchip/xc32/v4.60/bin/bin/../../lib/gcc/pic32c/8.3.1/../../../../pic32c/lib/thumb/v6-m/nofp\libc-musl.a(libc.o)
 .note.GNU-stack
                0x0000000000000000        0x0 c:/program files/microchip/xc32/v4.60/bin/bin/../../lib/gcc/pic32c/8.3.1/../../../../pic32c/lib/thumb/v6-m/nofp\libc-musl.a(expand_heap.o)
 .note.GNU-stack
                0x0000000000000000        0x0 c:/program files/microchip/xc32/v4.60/bin/bin/../../lib/gcc/pic32c/8.3.1/../../../../pic32c/lib/thumb/v6-m/nofp\libc-musl.a(__sio_printf_cdeEfFgGnpsuxX.o)
 .note.GNU-stack
                0x0000000000000000        0x0 c:/program files/microchip/xc32/v4.60/bin/bin/../../lib/gcc/pic32c/8.3.1/../../../../pic32c/lib/thumb/v6-m/nofp\libc-musl.a(__sio_sprintf_cdeEfFgGnpsuxX.o)
 .note.GNU-stack
                0x0000000000000000        0x0 c:/program files/microchip/xc32/v4.60/bin/bin/../../lib/gcc/pic32c/8.3.1/../../../../pic32c/lib/thumb/v6-m/nofp\libc-musl.a(__fmt_d.o)
 .note.GNU-stack
                0x0000000000000000        0x0 c:/program files/microchip/xc32/v4.60/bin/bin/../../lib/gcc/pic32c/8.3.1/../../../../pic32c/lib/thumb/v6-m/nofp\libc-musl.a(__fmt_fp.o)
 .note.GNU-stack
                0x0000000000000000        0x0 c:/program files/microchip/xc32/v4.60/bin/bin/../../lib/gcc/pic32c/8.3.1/../../../../pic32c/lib/thumb/v6-m/nofp\libc-musl.a(__fmt_s.o)
 .note.GNU-stack
                0x0000000000000000        0x0 c:/program files/microchip/xc32/v4.60/bin/bin/../../lib/gcc/pic32c/8.3.1/../../../../pic32c/lib/thumb/v6-m/nofp\libc-musl.a(__fmt_u.o)
 .note.GNU-stack
                0x0000000000000000        0x0 c:/program files/microchip/xc32/v4.60/bin/bin/../../lib/gcc/pic32c/8.3.1/../../../../pic32c/lib/thumb/v6-m/nofp\libc-musl.a(__fmt_x.o)
 .note.GNU-stack
                0x0000000000000000        0x0 c:/program files/microchip/xc32/v4.60/bin/bin/../../lib/gcc/pic32c/8.3.1/../../../../pic32c/lib/thumb/v6-m/nofp\libc-musl.a(__pop_float.o)
 .note.GNU-stack
                0x0000000000000000        0x0 c:/program files/microchip/xc32/v4.60/bin/bin/../../lib/gcc/pic32c/8.3.1/../../../../pic32c/lib/thumb/v6-m/nofp\libc-musl.a(__pop_int.o)
 .note.GNU-stack
                0x0000000000000000        0x0 c:/program files/microchip/xc32/v4.60/bin/bin/../../lib/gcc/pic32c/8.3.1/../../../../pic32c/lib/thumb/v6-m/nofp\libc-musl.a(__pop_ptr.o)
 .note.GNU-stack
                0x0000000000000000        0x0 c:/program files/microchip/xc32/v4.60/bin/bin/../../lib/gcc/pic32c/8.3.1/../../../../pic32c/lib/thumb/v6-m/nofp\libc-musl.a(__printf_core.o)
 .note.GNU-stack
                0x0000000000000000        0x0 c:/program files/microchip/xc32/v4.60/bin/bin/../../lib/gcc/pic32c/8.3.1/../../../../pic32c/lib/thumb/v6-m/nofp\libc-musl.a(stdin.o)
 .note.GNU-stack
                0x0000000000000000        0x0 c:/program files/microchip/xc32/v4.60/bin/bin/../../lib/gcc/pic32c/8.3.1/../../../../pic32c/lib/thumb/v6-m/nofp\libc-musl.a(stdout.o)
 .note.GNU-stack
                0x0000000000000000        0x0 c:/program files/microchip/xc32/v4.60/bin/bin/../../lib/gcc/pic32c/8.3.1/../../../../pic32c/lib/thumb/v6-m/nofp\libc-musl.a(putchar.o)
 .note.GNU-stack
                0x0000000000000000        0x0 c:/program files/microchip/xc32/v4.60/bin/bin/../../lib/gcc/pic32c/8.3.1/../../../../pic32c/lib/thumb/v6-m/nofp\libc-musl.a(puts.o)
 .note.GNU-stack
                0x0000000000000000        0x0 c:/program files/microchip/xc32/v4.60/bin/bin/../../lib/gcc/pic32c/8.3.1/../../../../pic32c/lib/thumb/v6-m/nofp\libc-musl.a(setbuf.o)
 .note.GNU-stack
                0x0000000000000000        0x0 c:/program files/microchip/xc32/v4.60/bin/bin/../../lib/gcc/pic32c/8.3.1/../../../../pic32c/lib/thumb/v6-m/nofp\libc-musl.a(atoi.o)
 .note.GNU-stack
                0x0000000000000000        0x0 c:/program files/microchip/xc32/v4.60/bin/bin/../../lib/gcc/pic32c/8.3.1/../../../../pic32c/lib/thumb/v6-m/nofp\libc-musl.a(gmtime.o)
 .note.GNU-stack
                0x0000000000000000        0x0 c:/program files/microchip/xc32/v4.60/bin/bin/../../lib/gcc/pic32c/8.3.1/../../../../pic32c/lib/thumb/v6-m/nofp\libc-musl.a(gmtime_r.o)
 .note.GNU-stack
                0x0000000000000000        0x0 c:/program files/microchip/xc32/v4.60/bin/bin/../../lib/gcc/pic32c/8.3.1/../../../../pic32c/lib/thumb/v6-m/nofp\libc-musl.a(mktime.o)
 .note.GNU-stack
                0x0000000000000000        0x0 c:/program files/microchip/xc32/v4.60/bin/bin/../../lib/gcc/pic32c/8.3.1/../../../../pic32c/lib/thumb/v6-m/nofp\libc-musl.a(tolower.o)
 .note.GNU-stack
                0x0000000000000000        0x0 c:/program files/microchip/xc32/v4.60/bin/bin/../../lib/gcc/pic32c/8.3.1/../../../../pic32c/lib/thumb/v6-m/nofp\libc-musl.a(toupper.o)
 .note.GNU-stack
                0x0000000000000000        0x0 c:/program files/microchip/xc32/v4.60/bin/bin/../../lib/gcc/pic32c/8.3.1/../../../../pic32c/lib/thumb/v6-m/nofp\libc-musl.a(__environ.o)
 .note.GNU-stack
                0x0000000000000000        0x0 c:/program files/microchip/xc32/v4.60/bin/bin/../../lib/gcc/pic32c/8.3.1/../../../../pic32c/lib/thumb/v6-m/nofp\libc-musl.a(__int_vfprintf.o)
 .note.GNU-stack
                0x0000000000000000        0x0 c:/program files/microchip/xc32/v4.60/bin/bin/../../lib/gcc/pic32c/8.3.1/../../../../pic32c/lib/thumb/v6-m/nofp\libc-musl.a(__int_vsprintf.o)
 .note.GNU-stack
                0x0000000000000000        0x0 c:/program files/microchip/xc32/v4.60/bin/bin/../../lib/gcc/pic32c/8.3.1/../../../../pic32c/lib/thumb/v6-m/nofp\libc-musl.a(fputs.o)
 .note.GNU-stack
                0x0000000000000000        0x0 c:/program files/microchip/xc32/v4.60/bin/bin/../../lib/gcc/pic32c/8.3.1/../../../../pic32c/lib/thumb/v6-m/nofp\libc-musl.a(__cvt_u.o)
 .note.GNU-stack
                0x0000000000000000        0x0 c:/program files/microchip/xc32/v4.60/bin/bin/../../lib/gcc/pic32c/8.3.1/../../../../pic32c/lib/thumb/v6-m/nofp\libc-musl.a(__stdio_read.o)
 .note.GNU-stack
                0x0000000000000000        0x0 c:/program files/microchip/xc32/v4.60/bin/bin/../../lib/gcc/pic32c/8.3.1/../../../../pic32c/lib/thumb/v6-m/nofp\libc-musl.a(__towrite_rw.o)
 .note.GNU-stack
                0x0000000000000000        0x0 c:/program files/microchip/xc32/v4.60/bin/bin/../../lib/gcc/pic32c/8.3.1/../../../../pic32c/lib/thumb/v6-m/nofp\libc-musl.a(fwrite.o)
 .note.GNU-stack
                0x0000000000000000        0x0 c:/program files/microchip/xc32/v4.60/bin/bin/../../lib/gcc/pic32c/8.3.1/../../../../pic32c/lib/thumb/v6-m/nofp\libc-musl.a(putc.o)
 .note.GNU-stack
                0x0000000000000000        0x0 c:/program files/microchip/xc32/v4.60/bin/bin/../../lib/gcc/pic32c/8.3.1/../../../../pic32c/lib/thumb/v6-m/nofp\libc-musl.a(setvbuf.o)
 .note.GNU-stack
                0x0000000000000000        0x0 c:/program files/microchip/xc32/v4.60/bin/bin/../../lib/gcc/pic32c/8.3.1/../../../../pic32c/lib/thumb/v6-m/nofp\libc-musl.a(__tm_to_secs.o)
 .note.GNU-stack
                0x0000000000000000        0x0 c:/program files/microchip/xc32/v4.60/bin/bin/../../lib/gcc/pic32c/8.3.1/../../../../pic32c/lib/thumb/v6-m/nofp\libc-musl.a(__year_to_secs.o)
 .note.GNU-stack
                0x0000000000000000        0x0 c:/program files/microchip/xc32/v4.60/bin/bin/../../lib/gcc/pic32c/8.3.1/../../../../pic32c/lib/thumb/v6-m/nofp\libc-musl.a(__secs_to_tm.o)
 .note.GNU-stack
                0x0000000000000000        0x0 c:/program files/microchip/xc32/v4.60/bin/bin/../../lib/gcc/pic32c/8.3.1/../../../../pic32c/lib/thumb/v6-m/nofp\libc-musl.a(readv.o)
 .note.GNU-stack
                0x0000000000000000        0x0 c:/program files/microchip/xc32/v4.60/bin/bin/../../lib/gcc/pic32c/8.3.1/../../../../pic32c/lib/thumb/v6-m/nofp\libc-musl.a(__int_vsnprintf.o)
 .note.GNU-stack
                0x0000000000000000        0x0 c:/program files/microchip/xc32/v4.60/bin/bin/../../lib/gcc/pic32c/8.3.1/../../../../pic32c/lib/thumb/v6-m/nofp\libc-musl.a(__init_stdio.o)
 .note.GNU-stack
                0x0000000000000000        0x0 c:/program files/microchip/xc32/v4.60/bin/bin/../../lib/gcc/pic32c/8.3.1/../../../../pic32c/lib/thumb/v6-m/nofp\libc-musl.a(__out.o)
 .note.GNU-stack
                0x0000000000000000        0x0 c:/program files/microchip/xc32/v4.60/bin/bin/../../lib/gcc/pic32c/8.3.1/../../../../pic32c/lib/thumb/v6-m/nofp\libc-musl.a(__putc.o)
 .note.GNU-stack
                0x0000000000000000        0x0 c:/program files/microchip/xc32/v4.60/bin/bin/../../lib/gcc/pic32c/8.3.1/../../../../pic32c/lib/thumb/v6-m/nofp\libc-musl.a(__stderr.o)
 .note.GNU-stack
                0x0000000000000000        0x0 c:/program files/microchip/xc32/v4.60/bin/bin/../../lib/gcc/pic32c/8.3.1/../../../../pic32c/lib/thumb/v6-m/nofp\libc-musl.a(__stdio_close.o)
 .note.GNU-stack
                0x0000000000000000        0x0 c:/program files/microchip/xc32/v4.60/bin/bin/../../lib/gcc/pic32c/8.3.1/../../../../pic32c/lib/thumb/v6-m/nofp\libc-musl.a(__stdio_write.o)
 .note.GNU-stack
                0x0000000000000000        0x0 c:/program files/microchip/xc32/v4.60/bin/bin/../../lib/gcc/pic32c/8.3.1/../../../../pic32c/lib/thumb/v6-m/nofp\libc-musl.a(__stdout.o)
 .note.GNU-stack
                0x0000000000000000        0x0 c:/program files/microchip/xc32/v4.60/bin/bin/../../lib/gcc/pic32c/8.3.1/../../../../pic32c/lib/thumb/v6-m/nofp\libc-musl.a(__towrite.o)
 .note.GNU-stack
                0x0000000000000000        0x0 c:/program files/microchip/xc32/v4.60/bin/bin/../../lib/gcc/pic32c/8.3.1/../../../../pic32c/lib/thumb/v6-m/nofp\libc-musl.a(__month_to_secs.o)
 .note.GNU-stack
                0x0000000000000000        0x0 c:/program files/microchip/xc32/v4.60/bin/bin/../../lib/gcc/pic32c/8.3.1/../../../../pic32c/lib/thumb/v6-m/nofp\libc-musl.a(writev.o)
 .note.GNU-stack
                0x0000000000000000        0x0 c:/program files/microchip/xc32/v4.60/bin/bin/../../lib/gcc/pic32c/8.3.1/../../../../pic32c/lib/thumb/v6-m/nofp\libc-musl.a(__overflow.o)
 .note.GNU-stack
                0x0000000000000000        0x0 c:/program files/microchip/xc32/v4.60/bin/bin/../../lib/gcc/pic32c/8.3.1/../../../../pic32c/lib/thumb/v6-m/nofp\libc-musl.a(__fwrite.o)
 .note.GNU-stack
                0x0000000000000000        0x0 c:/program files/microchip/xc32/v4.60/bin/bin/../../lib/gcc/pic32c/8.3.1/../../../../pic32c/lib/thumb/v6-m/nofp\libc-size-musl.a(strcpy.o)
 .note.GNU-stack
                0x0000000000000000        0x0 c:/program files/microchip/xc32/v4.60/bin/bin/../../lib/gcc/pic32c/8.3.1/../../../../pic32c/lib/thumb/v6-m/nofp\libc-size-musl.a(stpcpy.o)

__xc_reference_data
                0x0000000000000000       0xdc
 __xc_reference_data
                0x0000000000000000        0x8 c:/program files/microchip/xc32/v4.60/bin/bin/../../lib/gcc/pic32c/8.3.1/../../../../pic32c/lib/thumb/v6-m/nofp\libc-musl.a(stdin.o)
                0x0000000000000000                __stdin_needs_rw
 __xc_reference_data
                0x0000000000000008        0x8 c:/program files/microchip/xc32/v4.60/bin/bin/../../lib/gcc/pic32c/8.3.1/../../../../pic32c/lib/thumb/v6-m/nofp\libc-musl.a(stdout.o)
                0x0000000000000008                __stdout_needs_init
 __xc_reference_data
                0x0000000000000010       0x14 c:/program files/microchip/xc32/v4.60/bin/bin/../../lib/gcc/pic32c/8.3.1/../../../../pic32c/lib/thumb/v6-m/nofp\libc-musl.a(__io_init_needed.o)
                0x0000000000000010                __io_init_needed
                0x000000000000001c                __io_init_needs_file
 __xc_reference_data
                0x0000000000000024       0x20 c:/program files/microchip/xc32/v4.60/bin/bin/../../lib/gcc/pic32c/8.3.1/../../../../pic32c/lib/thumb/v6-m/nofp\libc-musl.a(__io_rw_needed.o)
                0x0000000000000024                __io_rw_needed
 __xc_reference_data
                0x0000000000000044        0xc c:/program files/microchip/xc32/v4.60/bin/bin/../../lib/gcc/pic32c/8.3.1/../../../../pic32c/lib/thumb/v6-m/nofp\libc-musl.a(putc.o)
                0x0000000000000044                __putc_needs_out
 __xc_reference_data
                0x0000000000000050        0x8 c:/program files/microchip/xc32/v4.60/bin/bin/../../lib/gcc/pic32c/8.3.1/../../../../pic32c/lib/thumb/v6-m/nofp\libc-musl.a(setvbuf.o)
                0x0000000000000050                __setvbuf_needs_buf
 __xc_reference_data
                0x0000000000000058       0x34 c:/program files/microchip/xc32/v4.60/bin/bin/../../lib/gcc/pic32c/8.3.1/../../../../pic32c/lib/thumb/v6-m/nofp\libc-musl.a(__io_buf_needed.o)
                0x0000000000000058                __io_buf_needed
 __xc_reference_data
                0x000000000000008c        0xc c:/program files/microchip/xc32/v4.60/bin/bin/../../lib/gcc/pic32c/8.3.1/../../../../pic32c/lib/thumb/v6-m/nofp\libc-musl.a(__io_file_needed.o)
                0x000000000000008c                __io_file_needed
 __xc_reference_data
                0x0000000000000098       0x2c c:/program files/microchip/xc32/v4.60/bin/bin/../../lib/gcc/pic32c/8.3.1/../../../../pic32c/lib/thumb/v6-m/nofp\libc-musl.a(__io_std_needed.o)
                0x0000000000000098                __io_std_needed
 __xc_reference_data
                0x00000000000000c4        0x8 c:/program files/microchip/xc32/v4.60/bin/bin/../../lib/gcc/pic32c/8.3.1/../../../../pic32c/lib/thumb/v6-m/nofp\libc-musl.a(__stderr.o)
                0x00000000000000c4                __stderr_needs_file
 __xc_reference_data
                0x00000000000000cc        0x8 c:/program files/microchip/xc32/v4.60/bin/bin/../../lib/gcc/pic32c/8.3.1/../../../../pic32c/lib/thumb/v6-m/nofp\libc-musl.a(__stdout.o)
                0x00000000000000cc                __stdout_needs_file
 __xc_reference_data
                0x00000000000000d4        0x8 c:/program files/microchip/xc32/v4.60/bin/bin/../../lib/gcc/pic32c/8.3.1/../../../../pic32c/lib/thumb/v6-m/nofp\libc-musl.a(__fwrite.o)
                0x00000000000000d4                __fwrite_needs_std

.stack          0x0000000020002850      0x100
 .stack         0x0000000020002850      0x100 stack

.bss%1          0x0000000020000000      0xf60
 .bss           0x0000000020000000      0xf60 build/SAMD21_IOT_WG_ICM42688/production/_ext/1360937237/main.o

.bss%2          0x0000000020000f60      0x478
 .bss           0x0000000020000f60      0x478 build/SAMD21_IOT_WG_ICM42688/production/_ext/596309756/kb.o
                0x000000002000106c                sortedData
                0x000000002000106c                sbuffers_0
                0x000000002000109c                RAW_SDATA_BUFFER_0
                0x00000000200010a8                rbuffers_0
                0x00000000200010d8                RAW_DATA_BUFFER_0

.bss%3          0x00000000200013d8      0x408
 .bss           0x00000000200013d8      0x408 c:/program files/microchip/xc32/v4.60/bin/bin/../../lib/gcc/pic32c/8.3.1/../../../../pic32c/lib/thumb/v6-m/nofp\libc-musl.a(stdin.o)

.bss%4          0x00000000200017e0      0x218
 .bss           0x00000000200017e0      0x218 build/SAMD21_IOT_WG_ICM42688/production/_ext/596309756/pme.o
                0x00000000200017e0                KBClassifierTable

.bss%5          0x00000000200019f8      0x200
 .bss           0x00000000200019f8      0x200 build/SAMD21_IOT_WG_ICM42688/production/_ext/171618134/sml_recognition_run.o

.bss%6          0x0000000020001bf8      0x114
 .bss           0x0000000020001bf8      0x114 build/SAMD21_IOT_WG_ICM42688/production/_ext/907429946/wdrv_winc.o
                0x0000000020001c08                pfWINCDebugPrintCb

.bss%7          0x0000000020001d10       0xe0
 .bss           0x0000000020001d10       0xe0 build/SAMD21_IOT_WG_ICM42688/production/_ext/386530258/sys_time.o

.bss%8          0x0000000020001df0       0xcd
 .bss           0x0000000020001df0       0xcd build/SAMD21_IOT_WG_ICM42688/production/_ext/548032175/socket.o
                0x0000000020001df0                gpfAppSocketCb
                0x0000000020001df4                gu16SessionID
                0x0000000020001df8                gpfAppResolveCb
                0x0000000020001e04                gbSocketInit
                0x0000000020001e08                gu16BufferSize
                0x0000000020001e0a                gu8OpCode
                0x0000000020001e0c                gastrSockets
                0x0000000020001ebc                gsockerrno

.bss%9          0x0000000020001ec0       0xc4
 .bss           0x0000000020001ec0       0xc4 build/SAMD21_IOT_WG_ICM42688/production/_ext/1832905403/initialization.o
                0x0000000020001ec0                sysObj

.bss%10         0x0000000020001f84       0xc0
 .bss           0x0000000020001f84       0xc0 build/SAMD21_IOT_WG_ICM42688/production/_ext/503204096/plib_eic.o

.bss%11         0x0000000020002044       0x78
 .bss           0x0000000020002044       0x78 build/SAMD21_IOT_WG_ICM42688/production/_ext/1660664302/drv_spi.o

.bss%12         0x00000000200020bc       0x68
 .bss           0x00000000200020bc       0x68 build/SAMD21_IOT_WG_ICM42688/production/_ext/121554788/m2m_ota.o

.bss%13         0x0000000020002128       0x60
 .bss           0x0000000020002128       0x60 build/SAMD21_IOT_WG_ICM42688/production/_ext/1580516298/plib_dmac.o

.bss%14         0x0000000020002188       0x50
 .bss           0x0000000020002188       0x50 c:/program files/microchip/xc32/v4.60/bin/bin/../../lib/gcc/pic32c/8.3.1/../../../../pic32c/lib/thumb/v6-m/nofp\libc-musl.a(libc.o)
                0x0000000020002188                __progname_full
                0x0000000020002188                program_invocation_name
                0x000000002000218c                program_invocation_short_name
                0x000000002000218c                __progname
                0x0000000020002190                __sysinfo
                0x0000000020002194                __hwcap
                0x0000000020002198                __libc

.bss%15         0x00000000200021d8       0x3c
 .bss           0x00000000200021d8       0x3c build/SAMD21_IOT_WG_ICM42688/production/_ext/596309756/kb_pipeline.o
                0x0000000020002200                columns

.bss%16         0x0000000020002214       0x2d
 .bss           0x0000000020002214       0x2d build/SAMD21_IOT_WG_ICM42688/production/_ext/1014017276/plib_sercom2_spi_master.o

.bss%17         0x0000000020002244       0x2c
 .bss           0x0000000020002244       0x2c c:/program files/microchip/xc32/v4.60/bin/bin/../../lib/gcc/pic32c/8.3.1/../../../../pic32c/lib/thumb/v6-m/nofp\libc-musl.a(gmtime.o)

.bss%18         0x0000000020002270       0x29
 .bss           0x0000000020002270       0x29 build/SAMD21_IOT_WG_ICM42688/production/_ext/121554788/m2m_hif.o
                0x0000000020002270                gstrHifCxt

.bss%19         0x000000002000229c       0x28
 .bss           0x000000002000229c       0x28 build/SAMD21_IOT_WG_ICM42688/production/_ext/121554788/m2m_wifi.o

.bss%20         0x00000000200022c4       0x1d
 .bss           0x00000000200022c4       0x1d build/SAMD21_IOT_WG_ICM42688/production/_ext/101005277/wdrv_winc_spi.o

.bss%21         0x00000000200022e4       0x1c
 .bss           0x00000000200022e4       0x1c c:/program files/microchip/xc32/v4.60/bin/bin/../../lib/gcc/pic32c/8.3.1/thumb/v6-m/nofp/crtbegin.o

.bss%22         0x0000000020002300       0x13
 .bss           0x0000000020002300       0x13 build/SAMD21_IOT_WG_ICM42688/production/_ext/1360937237/winc1500_udp_client.o
                0x0000000020002300                state

.bss%23         0x0000000020002314        0xc
 .bss           0x0000000020002314        0xc c:/program files/microchip/xc32/v4.60/bin/bin/../../lib/gcc/pic32c/8.3.1/../../../../pic32c/lib/thumb/v6-m/nofp\libpic32c.a(sbrk.o)
                0x0000000020002318                _maxbrk
                0x000000002000231c                _minbrk

.bss%24         0x0000000020002320        0x8
 .bss           0x0000000020002320        0x8 build/SAMD21_IOT_WG_ICM42688/production/_ext/121554788/m2m_ssl.o

.bss%25         0x0000000020002328        0x8
 .bss           0x0000000020002328        0x8 build/SAMD21_IOT_WG_ICM42688/production/_ext/399410062/plib_tc3.o

.bss%26         0x0000000020002330        0x8
 .bss           0x0000000020002330        0x8 build/SAMD21_IOT_WG_ICM42688/production/_ext/399410062/plib_tc4.o

.bss%27         0x0000000020002338        0x8
 .bss           0x0000000020002338        0x8 build/SAMD21_IOT_WG_ICM42688/production/_ext/1360937237/app.o
                0x0000000020002338                appData

.bss%28         0x0000000020002340        0x8
 .bss           0x0000000020002340        0x8 c:/program files/microchip/xc32/v4.60/bin/bin/../../lib/gcc/pic32c/8.3.1/../../../../pic32c/lib/thumb/v6-m/nofp\libc-musl.a(stdout.o)
                0x0000000020002344                __stdout_used

.bss%29         0x0000000020002348        0x7
 .bss           0x0000000020002348        0x7 build/SAMD21_IOT_WG_ICM42688/production/_ext/1360937237/ws2812.o
                0x0000000020002348                ws2812_transmission_complete

.bss%30         0x0000000020001d0c        0x4
 .bss           0x0000000020001d0c        0x4 build/SAMD21_IOT_WG_ICM42688/production/_ext/2048461350/icm42688_sensor.o

.bss%31         0x0000000020002124        0x4
 .bss           0x0000000020002124        0x4 build/SAMD21_IOT_WG_ICM42688/production/_ext/121554788/nmasic.o

.bss%32         0x0000000020002350        0x4
 .bss           0x0000000020002350        0x4 build/SAMD21_IOT_WG_ICM42688/production/_ext/609036575/spi_flash.o

.bss%33         0x0000000020002354        0x4
 .bss           0x0000000020002354        0x4 c:/program files/microchip/xc32/v4.60/bin/bin/../../lib/gcc/pic32c/8.3.1/../../../../pic32c/lib/thumb/v6-m/nofp\libpic32c.a(data_init.o)

.bss%34         0x0000000020002358        0x4
 .bss           0x0000000020002358        0x4 c:/program files/microchip/xc32/v4.60/bin/bin/../../lib/gcc/pic32c/8.3.1/../../../../pic32c/lib/thumb/v6-m/nofp\liblmalloc-musl.a(lite_free.o)
                0x0000000020002358                __freelist

.bss%35         0x000000002000235c        0x4
 .bss           0x000000002000235c        0x4 c:/program files/microchip/xc32/v4.60/bin/bin/../../lib/gcc/pic32c/8.3.1/../../../../pic32c/lib/thumb/v6-m/nofp\libc-musl.a(__errno_location.o)
                0x000000002000235c                __errno_val

.bss%36         0x0000000020002360        0x4
 .bss           0x0000000020002360        0x4 c:/program files/microchip/xc32/v4.60/bin/bin/../../lib/gcc/pic32c/8.3.1/../../../../pic32c/lib/thumb/v6-m/nofp\libc-musl.a(__environ.o)
                0x0000000020002360                __environ
                0x0000000020002360                environ
                0x0000000020002360                ___environ
                0x0000000020002360                _environ

.bss%37         0x0000000020001ebd        0x2
 .bss           0x0000000020001ebd        0x2 build/SAMD21_IOT_WG_ICM42688/production/_ext/121554788/nmspi.o

.data%38        0x0000000020002364      0x144
 .data          0x0000000020002364      0x144 build/SAMD21_IOT_WG_ICM42688/production/_ext/596309756/pme_trained_neurons.o
                0x0000000020002364                kb_classifier_rows
                0x000000002000237c                kb_neuron_attribs_0

.data%39        0x00000000200024a8       0x70
 .data          0x00000000200024a8       0x70 build/SAMD21_IOT_WG_ICM42688/production/_ext/596309756/kb_pipeline.o

.data%40        0x0000000020002518       0x6c
 .data          0x0000000020002518       0x6c c:/program files/microchip/xc32/v4.60/bin/bin/../../lib/gcc/pic32c/8.3.1/../../../../pic32c/lib/thumb/v6-m/nofp\libc-musl.a(stdin.o)
                0x0000000020002518                __stdin_used
                0x000000002000251c                _stdin

.data%41        0x0000000020002584       0x60
 .data          0x0000000020002584       0x60 c:/program files/microchip/xc32/v4.60/bin/bin/../../lib/gcc/pic32c/8.3.1/../../../../pic32c/lib/thumb/v6-m/nofp\libc-musl.a(__stdout.o)

.data%42        0x00000000200025e4       0x25
 .data          0x00000000200025e4       0x25 build/SAMD21_IOT_WG_ICM42688/production/_ext/596309756/kb.o
                0x00000000200025e8                RAW_DATA_BUFFER
                0x00000000200025ec                rbuffers
                0x00000000200025f0                RAW_SDATA_BUFFER
                0x00000000200025f4                sbuffers

.data%43        0x000000002000260c       0x20
 .data          0x000000002000260c       0x20 c:/program files/microchip/xc32/v4.60/bin/bin/../../lib/gcc/pic32c/8.3.1/../../../../pic32c/lib/thumb/v6-m/nofp\libc-musl.a(stdout.o)
                0x0000000020002628                _stdout

.data%44        0x000000002000262c        0x4
 .data          0x000000002000262c        0x4 build/SAMD21_IOT_WG_ICM42688/production/_ext/121554788/m2m_wifi.o

.data%45        0x0000000020002630        0x4
 .data          0x0000000020002630        0x4 c:/program files/microchip/xc32/v4.60/bin/bin/../../lib/gcc/pic32c/8.3.1/../../../../pic32c/lib/thumb/v6-m/nofp\liblmalloc-musl.a(lite_malloc.o)

.data%46        0x0000000020002634        0x2
 .data          0x0000000020002634        0x2 build/SAMD21_IOT_WG_ICM42688/production/_ext/121554788/nmbus.o
                0x0000000020002634                egstrNmBusCapabilities

.data%47        0x0000000020002242        0x2
 .data          0x0000000020002242        0x2 build/SAMD21_IOT_WG_ICM42688/production/_ext/386530258/sys_time.o

.data%48        0x0000000020002313        0x1
 .data          0x0000000020002313        0x1 build/SAMD21_IOT_WG_ICM42688/production/_ext/121554788/m2m_ssl.o

.data%49        0x000000002000234f        0x1
 .data          0x000000002000234f        0x1 build/SAMD21_IOT_WG_ICM42688/production/_ext/121554788/m2m_ota.o

.data%50        0x0000000020001ebf        0x1
 .data          0x0000000020001ebf        0x1 build/SAMD21_IOT_WG_ICM42688/production/_ext/1360937237/main.o

.eh_frame%z1    0x0000000000000000        0x0
 .eh_frame      0x0000000000000000        0x0 c:/program files/microchip/xc32/v4.60/bin/bin/../../lib/gcc/pic32c/8.3.1/thumb/v6-m/nofp/crtbegin.o

.text%51        0x00000000000000e0     0x2250
 .text          0x00000000000000e0     0x2250 build/SAMD21_IOT_WG_ICM42688/production/_ext/1341251756/Icm426xxDriver_HL.o
                0x0000000000000138                inv_icm426xx_set_reg_bank
                0x0000000000000150                inv_icm426xx_device_reset
                0x00000000000002d0                inv_icm426xx_get_who_am_i
                0x00000000000002e0                inv_icm426xx_force_clock_source
                0x000000000000031c                inv_icm426xx_enable_accel_low_power_mode
                0x0000000000000538                inv_icm426xx_enable_accel_low_noise_mode
                0x00000000000006b0                inv_icm426xx_enable_gyro_low_noise_mode
                0x0000000000000898                inv_icm426xx_enable_fsync
                0x00000000000008cc                inv_icm426xx_disable_fsync
                0x00000000000008fc                inv_icm426xx_configure_timestamp_resolution
                0x0000000000000930                inv_icm426xx_get_config_ibi
                0x00000000000009d8                inv_icm426xx_get_config_int1
                0x0000000000000a9c                inv_icm426xx_get_config_int2
                0x0000000000000b60                inv_icm426xx_set_config_ibi
                0x0000000000000c58                inv_icm426xx_set_config_int1
                0x0000000000000d90                inv_icm426xx_set_config_int2
                0x0000000000000ec8                inv_icm426xx_get_data_from_registers
                0x0000000000000ffc                inv_icm426xx_convert_odr_bitfield_to_us
                0x0000000000001018                inv_icm426xx_set_accel_frequency
                0x0000000000001088                inv_icm426xx_set_gyro_frequency
                0x00000000000010bc                inv_icm426xx_set_accel_fsr
                0x00000000000010f0                inv_icm426xx_set_gyro_fsr
                0x0000000000001124                inv_icm426xx_get_accel_fsr
                0x0000000000001164                inv_icm426xx_get_gyro_fsr
                0x00000000000011a4                inv_icm426xx_set_accel_lp_avg
                0x00000000000011f0                inv_icm426xx_set_accel_ln_bw
                0x000000000000123c                inv_icm426xx_set_gyro_ln_bw
                0x0000000000001288                inv_icm426xx_reset_fifo
                0x0000000000001318                inv_icm426xx_disable_accel
                0x00000000000013c8                inv_icm426xx_disable_gyro
                0x00000000000014fc                inv_icm426xx_get_data_from_fifo
                0x00000000000019c0                inv_icm426xx_enable_timestamp_to_register
                0x0000000000001a14                inv_icm426xx_disable_timestamp_to_register
                0x0000000000001a60                inv_icm426xx_get_current_timestamp
                0x0000000000001ad4                inv_icm426xx_enable_clkin_rtc
                0x0000000000001b98                inv_icm426xx_get_clkin_rtc_status
                0x0000000000001bb4                inv_icm426xx_enable_high_resolution_fifo
                0x0000000000001bc4                inv_icm426xx_disable_high_resolution_fifo
                0x0000000000001bd4                inv_icm426xx_configure_fifo
                0x0000000000001d14                inv_icm426xx_init
                0x0000000000002160                inv_icm426xx_configure_fifo_wm
                0x0000000000002258                inv_icm426xx_get_fifo_timestamp_resolution_us_q24
                0x00000000000022e4                inv_icm426xx_get_reg_timestamp_resolution_us_q24
                0x0000000000002328                inv_icm426xx_get_version

.text%52        0x0000000000002330     0x14a8
 .text          0x0000000000002330     0x14a8 build/SAMD21_IOT_WG_ICM42688/production/_ext/121554788/m2m_wifi.o
                0x0000000000002728                m2m_wifi_download_mode
                0x0000000000002744                m2m_wifi_send_crl
                0x0000000000002764                m2m_wifi_init_hold
                0x000000000000277c                m2m_wifi_init_start
                0x00000000000027f8                m2m_wifi_init
                0x0000000000002818                m2m_wifi_deinit
                0x0000000000002834                m2m_wifi_handle_events
                0x000000000000283c                m2m_wifi_delete_sc
                0x0000000000002868                m2m_wifi_default_connect
                0x0000000000002884                m2m_wifi_connect_open
                0x00000000000028b4                m2m_wifi_connect_wep
                0x00000000000028bc                m2m_wifi_connect_psk
                0x00000000000029dc                m2m_wifi_1x_set_option
                0x0000000000002ac8                m2m_wifi_1x_get_option
                0x0000000000002b70                m2m_wifi_connect_1x_mschap2
                0x0000000000002c94                m2m_wifi_connect_1x_tls
                0x0000000000002e34                m2m_wifi_connect_sc
                0x0000000000002f0c                m2m_wifi_connect
                0x0000000000002f24                m2m_wifi_disconnect
                0x0000000000002f40                m2m_wifi_set_mac_address
                0x0000000000002f68                m2m_wifi_set_static_ip
                0x0000000000002f84                m2m_wifi_enable_dhcp
                0x0000000000002fa4                m2m_wifi_set_lsn_int
                0x0000000000002fc0                m2m_wifi_set_cust_InfoElement
                0x0000000000002fec                m2m_wifi_set_scan_options
                0x0000000000003030                m2m_wifi_set_stop_scan_on_first
                0x000000000000305c                m2m_wifi_set_scan_region
                0x000000000000307c                m2m_wifi_request_scan
                0x00000000000030c4                m2m_wifi_request_scan_passive
                0x0000000000003110                m2m_wifi_request_scan_ssid_list
                0x0000000000003188                m2m_wifi_wps
                0x00000000000031c0                m2m_wifi_wps_disable
                0x00000000000031dc                m2m_wifi_req_client_ctrl
                0x00000000000031e0                m2m_wifi_req_server_init
                0x00000000000031e4                m2m_wifi_p2p
                0x0000000000003218                m2m_wifi_p2p_disconnect
                0x0000000000003234                m2m_wifi_enable_ap_ext
                0x0000000000003260                m2m_wifi_enable_ap
                0x0000000000003298                m2m_wifi_set_gains
                0x00000000000032c0                m2m_wifi_disable_ap
                0x00000000000032dc                m2m_wifi_req_curr_rssi
                0x00000000000032f8                m2m_wifi_send_ethernet_pkt
                0x0000000000003328                m2m_wifi_get_otp_mac_address
                0x000000000000334c                m2m_wifi_get_mac_address
                0x000000000000336c                m2m_wifi_req_scan_result
                0x000000000000338c                m2m_wifi_get_num_ap_found
                0x0000000000003398                m2m_wifi_get_sleep_mode
                0x00000000000033a0                m2m_wifi_set_sleep_mode
                0x00000000000033cc                m2m_wifi_request_sleep
                0x00000000000033f8                m2m_wifi_set_device_name
                0x0000000000003428                m2m_wifi_configure_sntp
                0x0000000000003464                m2m_wifi_get_chipId
                0x000000000000346c                m2m_wifi_get_firmware_version
                0x000000000000348c                m2m_wifi_start_provision_mode_ext
                0x00000000000034f8                m2m_wifi_start_provision_mode
                0x0000000000003538                m2m_wifi_stop_provision_mode
                0x0000000000003554                m2m_wifi_get_connection_info
                0x0000000000003570                m2m_wifi_set_system_time
                0x0000000000003590                m2m_wifi_get_system_time
                0x00000000000035ac                m2m_wifi_enable_sntp
                0x00000000000035cc                m2m_wifi_set_power_profile
                0x00000000000035ec                m2m_wifi_set_tx_power
                0x000000000000360c                m2m_wifi_set_gain_table_idx
                0x000000000000362c                m2m_wifi_enable_firmware_logs
                0x000000000000364c                m2m_wifi_set_battery_voltage
                0x000000000000366c                m2m_wifi_prng_get_random_bytes
                0x00000000000036a4                m2m_wifi_conf_auto_rate
                0x00000000000036c0                m2m_wifi_enable_mac_mcast
                0x00000000000036f4                m2m_wifi_set_receive_buffer
                0x000000000000370c                m2m_wifi_reinit_hold
                0x0000000000003734                m2m_wifi_reinit
                0x000000000000374c                m2m_wifi_reinit_start
                0x0000000000003754                m2m_wifi_get_state
                0x0000000000003760                m2m_wifi_enable_roaming
                0x0000000000003790                m2m_wifi_disable_roaming
                0x00000000000037b0                m2m_wifi_enable_XO_during_sleep

.text%53        0x00000000000037d8      0xd90
 .text          0x00000000000037d8      0xd90 build/SAMD21_IOT_WG_ICM42688/production/_ext/596309756/kb.o
                0x000000000000381c                get_feature_vector_type
                0x0000000000003830                kb_get_feature_vector_size
                0x0000000000003844                get_feature_vector_pointer
                0x0000000000003854                get_feature_vector_data_pointer
                0x0000000000003868                copy_feature_vector
                0x00000000000038ac                kb_set_feature_vector
                0x00000000000038f0                ring_buffer_init
                0x0000000000003904                kb_model_init
                0x00000000000039f4                kb_flush_model_buffer
                0x0000000000003a78                kb_flush_model
                0x0000000000003a9c                kb_data_streaming_reset
                0x0000000000003ac4                kb_reset_model
                0x0000000000003ad0                kb_reset_feature_banks
                0x0000000000003ae8                kb_feature_bank_ready
                0x0000000000003afc                kb_feature_generation_reset
                0x0000000000003b40                kb_feature_generation_increment
                0x0000000000003b74                kb_recognize
                0x0000000000003b8c                kb_feature_transform
                0x0000000000003ba4                kb_feature_generation
                0x0000000000003bc4                kb_data_streaming
                0x0000000000003bdc                kb_segmentation
                0x0000000000003c58                kb_generate_children_features
                0x0000000000003c74                kb_generate_classification
                0x0000000000003cb0                kb_run_model
                0x0000000000003d60                kb_run_model_with_cascade_features
                0x0000000000003e5c                kb_run_model_with_cascade_reset
                0x0000000000003f74                kb_add_segment
                0x0000000000003fdc                kb_run_segment
                0x000000000000406c                kb_run_segment_with_cascade_features
                0x0000000000004144                kb_run_segment_with_cascade_reset
                0x0000000000004218                kb_add_last_pattern_to_model
                0x000000000000423c                kb_add_custom_pattern_to_model
                0x0000000000004258                kb_score_model
                0x000000000000425c                kb_retrain_model
                0x0000000000004260                kb_print_model_score
                0x0000000000004264                kb_get_model_header
                0x0000000000004290                kb_get_model_pattern
                0x00000000000042b4                kb_get_model_uuid_ptr
                0x00000000000042cc                kb_get_feature_vector_raw_size
                0x00000000000042e4                kb_set_feature_vector_raw
                0x0000000000004310                get_feature_vector_raw_pointer
                0x0000000000004324                sml_get_feature_bank_number
                0x0000000000004338                kb_copy_feature_vector_raw
                0x0000000000004364                kb_get_segment_length
                0x000000000000438c                kb_get_model_sg_length
                0x000000000000439c                kb_get_num_sensor_buffers
                0x00000000000043b0                kb_get_segment_data
                0x000000000000444c                kb_recognize_feature_vector
                0x0000000000004464                kb_get_model_result_info
                0x0000000000004474                kb_get_sg_start_index
                0x0000000000004484                kb_get_segment_start
                0x00000000000044a8                kb_is_profiling_enabled
                0x00000000000044bc                kb_get_feature_gen_times
                0x00000000000044f0                kb_get_feature_gen_cycles
                0x0000000000004524                kb_get_classifier_time
                0x0000000000004548                kb_get_classifier_cycles

.text%54        0x0000000000004568      0xd84
 .text          0x0000000000004568      0xd84 build/SAMD21_IOT_WG_ICM42688/production/_ext/907429946/wdrv_winc.o
                0x0000000000004c3c                WDRV_WINC_Initialize
                0x0000000000004c88                WDRV_WINC_Deinitialize
                0x0000000000004cd4                WDRV_WINC_Reinitialize
                0x0000000000004cd8                WDRV_WINC_Status
                0x0000000000004cf4                WDRV_WINC_StatusExt
                0x0000000000004d18                WDRV_WINC_Tasks
                0x0000000000004f14                WDRV_WINC_DebugRegisterCallback
                0x0000000000004f20                WDRV_WINC_Open
                0x000000000000501c                WDRV_WINC_Close
                0x000000000000503c                WDRV_WINC_MulticastMACFilterAdd
                0x0000000000005060                WDRV_WINC_MulticastMACFilterRemove
                0x0000000000005084                WDRV_WINC_EthernetAddressGet
                0x00000000000050ac                WDRV_WINC_OperatingModeGet
                0x00000000000050d0                WDRV_WINC_UserHandleSet
                0x00000000000050f0                WDRV_WINC_UserHandleGet
                0x000000000000510c                WDRV_WINC_InfoDriverVersionGet
                0x0000000000005140                WDRV_WINC_InfoDeviceFirmwareVersionGet
                0x00000000000051b4                WDRV_WINC_InfoDeviceIDGet
                0x00000000000051d0                WDRV_WINC_InfoDeviceMACAddressGet
                0x000000000000521c                WDRV_WINC_InfoDeviceNameSet
                0x0000000000005250                WDRV_WINC_GainTableIndexSet
                0x0000000000005274                WDRV_WINC_AutoRateSelectTransmitRate
                0x00000000000052d4                WDRV_WINC_ISR

.text%55        0x00000000000052ec      0xca0
 .text          0x00000000000052ec      0xca0 build/SAMD21_IOT_WG_ICM42688/production/_ext/1660664302/drv_spi.o
                0x0000000000005948                DRV_SPI_Initialize
                0x00000000000059e0                DRV_SPI_Status
                0x00000000000059f4                DRV_SPI_Open
                0x0000000000005ab0                DRV_SPI_Close
                0x0000000000005bac                DRV_SPI_TransferEventHandlerSet
                0x0000000000005c2c                DRV_SPI_TransferSetup
                0x0000000000005c64                DRV_SPI_WriteReadTransferAdd
                0x0000000000005e9c                DRV_SPI_WriteTransferAdd
                0x0000000000005eb0                DRV_SPI_ReadTransferAdd
                0x0000000000005ec8                DRV_SPI_TransferStatusGet
                0x0000000000005f00                DRV_SPI_Lock

.text%56        0x0000000000005f8c      0xbe8
 .text          0x0000000000005f8c      0xbe8 build/SAMD21_IOT_WG_ICM42688/production/_ext/548032175/socket.o
                0x00000000000063c8                socketInit
                0x00000000000063fc                socketDeinit
                0x0000000000006424                registerSocketCallback
                0x0000000000006430                registerSocketEventCallback
                0x000000000000643c                registerSocketResolveCallback
                0x0000000000006448                socket
                0x0000000000006548                bind
                0x00000000000065b4                listen
                0x00000000000065fc                accept
                0x0000000000006624                connect
                0x0000000000006694                secure
                0x0000000000006700                send
                0x0000000000006778                sendto
                0x00000000000067f0                recv
                0x000000000000687c                shutdown
                0x00000000000068e0                recvfrom
                0x0000000000006968                gethostbyname
                0x0000000000006998                setsockopt
                0x0000000000006a08                getsockopt
                0x0000000000006a10                m2m_ping_req
                0x0000000000006a54                set_alpn_list
                0x0000000000006af4                get_alpn_index
                0x0000000000006b1c                sslEnableCertExpirationCheck
                0x0000000000006b3c                IsSocketReady
                0x0000000000006b48                get_error_detail

.text%57        0x0000000000006b74      0xbd8
 .text          0x0000000000006b74      0xbd8 build/SAMD21_IOT_WG_ICM42688/production/_ext/596309756/pme.o
                0x0000000000006b74                radial_bias_function_unique_category
                0x0000000000006b78                radial_bias_function
                0x0000000000006bec                k__nearest_neighbor
                0x0000000000006d14                distance_by_weight
                0x0000000000006d18                delete_node
                0x0000000000006d48                sort_by_smallest_distance
                0x0000000000006d50                list_to_sort
                0x0000000000006d60                sort_results_by_distance
                0x0000000000006da4                allocate_memory
                0x0000000000006e1c                pme_init
                0x0000000000006e2c                pme_simple_init
                0x0000000000006e3c                find_classifier_index
                0x0000000000006e74                pme_add_new_pattern
                0x0000000000006f0c                pme_rebalance_patterns
                0x000000000000700c                pme_print_model_scores
                0x00000000000070c0                pme_return_pattern
                0x0000000000007118                pme_flush_model
                0x0000000000007184                pme_get_number_patterns
                0x00000000000071c8                pme_submit_pattern
                0x0000000000007340                reduce_influence_fields
                0x00000000000073a4                pme_retrieve_results
                0x0000000000007424                pme_simple_submit_pattern
                0x0000000000007554                pme_simple_submit_pattern_set_result
                0x00000000000075f8                pme_learn_pattern
                0x00000000000076a4                pme_score_pattern

.text%58        0x000000000000774c      0xb50
 .text          0x000000000000774c      0xb50 build/SAMD21_IOT_WG_ICM42688/production/_ext/386530258/sys_time.o
                0x0000000000007aa8                SYS_TIME_Initialize
                0x0000000000007b54                SYS_TIME_Deinitialize
                0x0000000000007b80                SYS_TIME_Status
                0x0000000000007b98                SYS_TIME_FrequencyGet
                0x0000000000007ba4                SYS_TIME_Counter64Get
                0x0000000000007be4                SYS_TIME_CounterGet
                0x0000000000007bec                SYS_TIME_CounterSet
                0x0000000000007c08                SYS_TIME_CountToUS
                0x0000000000007c44                SYS_TIME_CountToMS
                0x0000000000007c64                SYS_TIME_USToCount
                0x0000000000007c88                SYS_TIME_MSToCount
                0x0000000000007ca8                SYS_TIME_TimerCreate
                0x0000000000007cc8                SYS_TIME_TimerReload
                0x0000000000007db8                SYS_TIME_TimerDestroy
                0x0000000000007f18                SYS_TIME_TimerStart
                0x0000000000007fb4                SYS_TIME_TimerStop
                0x0000000000008024                SYS_TIME_TimerCounterGet
                0x00000000000080dc                SYS_TIME_TimerPeriodHasExpired
                0x000000000000813c                SYS_TIME_DelayUS
                0x000000000000818c                SYS_TIME_DelayMS
                0x00000000000081dc                SYS_TIME_DelayIsComplete
                0x00000000000081f4                SYS_TIME_CallbackRegisterUS
                0x0000000000008248                SYS_TIME_CallbackRegisterMS

.text%59        0x000000000000829c      0x704
 .text          0x000000000000829c      0x704 build/SAMD21_IOT_WG_ICM42688/production/_ext/121554788/nmasic.o
                0x000000000000829c                chip_apply_conf
                0x00000000000082cc                chip_idle
                0x00000000000082f4                enable_interrupts
                0x0000000000008348                cpu_start
                0x00000000000083f0                nmi_get_chipid
                0x00000000000084b4                nmi_get_rfrevid
                0x00000000000084d4                restore_pmu_settings_after_global_reset
                0x00000000000084fc                nmi_update_pll
                0x0000000000008524                nmi_set_sys_clk_src_to_xo
                0x0000000000008544                chip_sleep
                0x00000000000085a4                chip_wake
                0x0000000000008600                cpu_halt
                0x0000000000008668                chip_reset
                0x0000000000008680                wait_for_bootrom
                0x0000000000008778                wait_for_firmware_start
                0x00000000000087e4                chip_deinit
                0x0000000000008814                set_gpio_dir
                0x0000000000008848                set_gpio_val
                0x000000000000887c                get_gpio_val
                0x00000000000088a4                pullup_ctrl
                0x00000000000088d4                nmi_get_otp_mac_address
                0x000000000000894c                nmi_get_mac_address

.text%60        0x00000000000089a0      0x680
 .text          0x00000000000089a0      0x680 build/SAMD21_IOT_WG_ICM42688/production/_ext/121554788/nmspi.o
                0x0000000000008cdc                nm_spi_reset
                0x0000000000008d14                nm_spi_lock_init
                0x0000000000008d20                nm_spi_init
                0x0000000000008dd8                nm_spi_deinit
                0x0000000000008de8                nm_spi_read_reg
                0x0000000000008e10                nm_spi_read_reg_with_ret
                0x0000000000008e30                nm_spi_write_reg
                0x0000000000008e50                nm_spi_read_block
                0x0000000000008ef4                nm_spi_write_block

.text%61        0x0000000000009020      0x67c
 .text          0x0000000000009020      0x67c build/SAMD21_IOT_WG_ICM42688/production/_ext/609036575/spi_flash.o
                0x00000000000092f8                spi_flash_enable
                0x00000000000093d8                spi_flash_read
                0x0000000000009468                spi_flash_write
                0x00000000000094e8                spi_flash_erase
                0x00000000000095f0                spi_flash_get_size

.text%62        0x000000000000969c      0x530
 .text          0x000000000000969c      0x530 build/SAMD21_IOT_WG_ICM42688/production/_ext/121554788/m2m_hif.o
                0x00000000000096fc                hif_chip_wake
                0x0000000000009714                hif_set_sleep_mode
                0x0000000000009720                hif_get_sleep_mode
                0x000000000000972c                hif_chip_sleep_sc
                0x0000000000009744                hif_chip_sleep
                0x0000000000009770                hif_init
                0x000000000000979c                hif_deinit
                0x00000000000097c4                hif_send
                0x00000000000099e4                hif_handle_isr
                0x0000000000009b24                hif_receive
                0x0000000000009b78                hif_register_cb

.dinit%63       0x0000000000009bcc      0x520
 .dinit         0x0000000000009bcc      0x520 data_init

.text%64        0x000000000000a0ec      0x500
 .text          0x000000000000a0ec      0x500 build/SAMD21_IOT_WG_ICM42688/production/_ext/121554788/m2m_ota.o
                0x000000000000a1f4                m2m_ota_host_file_get_id
                0x000000000000a200                m2m_ota_init
                0x000000000000a234                m2m_ota_notif_set_url
                0x000000000000a258                m2m_ota_notif_check_for_update
                0x000000000000a274                m2m_ota_notif_sched
                0x000000000000a290                m2m_ota_start_update
                0x000000000000a330                m2m_ota_rollback
                0x000000000000a34c                m2m_ota_abort
                0x000000000000a368                m2m_ota_switch_firmware
                0x000000000000a384                m2m_ota_get_firmware_version
                0x000000000000a3a4                m2m_ota_host_file_get
                0x000000000000a404                m2m_ota_host_file_read_hif
                0x000000000000a450                m2m_ota_host_file_read_spi
                0x000000000000a4e0                m2m_ota_host_file_erase
                0x000000000000a520                m2m_ota_set_ssl_option
                0x000000000000a588                m2m_ota_get_ssl_option

.text.__fmt_fp%65
                0x000000000000a5ec      0x4c0
 .text.__fmt_fp
                0x000000000000a5ec      0x4c0 c:/program files/microchip/xc32/v4.60/bin/bin/../../lib/gcc/pic32c/8.3.1/../../../../pic32c/lib/thumb/v6-m/nofp\libc-musl.a(__fmt_fp.o)
                0x000000000000a5ec                __fmt_f_needed
                0x000000000000a5ec                __fmt_fp

.text%66        0x000000000000aaac      0x48c
 .text          0x000000000000aaac      0x48c build/SAMD21_IOT_WG_ICM42688/production/_ext/121554788/m2m_ssl.o
                0x000000000000abcc                m2m_ssl_init
                0x000000000000abf4                m2m_ssl_handshake_rsp
                0x000000000000ac10                m2m_ssl_send_certs_to_winc
                0x000000000000ad18                m2m_ssl_retrieve_next_for_verifying
                0x000000000000ae8c                m2m_ssl_retrieve_cert
                0x000000000000aeb0                m2m_ssl_retrieve_hash
                0x000000000000aef4                m2m_ssl_stop_retrieving
                0x000000000000af04                m2m_ssl_stop_processing_certs
                0x000000000000af0c                m2m_ssl_ecc_process_done
                0x000000000000af18                m2m_ssl_set_active_ciphersuites

.text%67        0x000000000000af38      0x470
 .text          0x000000000000af38      0x470 build/SAMD21_IOT_WG_ICM42688/production/_ext/1360937237/main.o
                0x000000000000af74                SNSR_ISR_HANDLER
                0x000000000000afd8                Null_Handler
                0x000000000000afdc                SERCOM5_Handler
                0x000000000000b018                UART_Write
                0x000000000000b02c                SERCOM1_Handler
                0x000000000000b030                UART_Read
                0x000000000000b048                read_timer_ms
                0x000000000000b054                read_timer_us
                0x000000000000b074                sleep_ms
                0x000000000000b094                sleep_us
                0x000000000000b0b4                main

.text%68        0x000000000000b3a8      0x45c
 .text          0x000000000000b3a8      0x45c build/SAMD21_IOT_WG_ICM42688/production/_ext/596309756/kb_output.o
                0x000000000000b3a8                sprint_model_feature_vector
                0x000000000000b48c                kb_sprint_model_output_tensor
                0x000000000000b518                kb_sprint_model_result
                0x000000000000b62c                kb_print_model_class_map
                0x000000000000b638                kb_print_model_map
                0x000000000000b64c                kb_sprint_model_cycles
                0x000000000000b71c                kb_sprint_model_times

.text%69        0x000000000000b804      0x414
 .text          0x000000000000b804      0x414 build/SAMD21_IOT_WG_ICM42688/production/_ext/907429946/wdrv_winc_socket.o
                0x000000000000b82c                WDRV_WINC_IPAddressSet
                0x000000000000b860                WDRV_WINC_IPAddressGet
                0x000000000000b884                WDRV_WINC_IPDNSServerAddressSet
                0x000000000000b8b4                WDRV_WINC_IPDefaultGatewaySet
                0x000000000000b8e4                WDRV_WINC_IPUseDHCPSet
                0x000000000000b918                WDRV_WINC_IPUseDHCPGet
                0x000000000000b93c                WDRV_WINC_IPDHCPServerConfigure
                0x000000000000b968                WDRV_WINC_IPLinkActive
                0x000000000000b984                WDRV_WINC_ICMPEchoRequest
                0x000000000000b9c8                WDRV_WINC_OTAUpdateFromURL
                0x000000000000ba10                WDRV_WINC_OTAUpdateAbort
                0x000000000000ba44                WDRV_WINC_OTASSLServerAuthModeSet
                0x000000000000ba8c                WDRV_WINC_OTASSLServerAuthModeIsEnabled
                0x000000000000bad4                WDRV_WINC_OTASSLSNISet
                0x000000000000bb40                WDRV_WINC_OTASSLSNIIsEnabled
                0x000000000000bb88                WDRV_WINC_RollbackActiveFirmwareImage
                0x000000000000bbbc                WDRV_WINC_SwitchActiveFirmwareImage
                0x000000000000bbf0                WDRV_WINC_SocketRegisterEventCallback
                0x000000000000bc04                WDRV_WINC_SocketRegisterResolverCallback

.text%70        0x000000000000bc18      0x400
 .text          0x000000000000bc18      0x400 build/SAMD21_IOT_WG_ICM42688/production/_ext/1580516298/plib_dmac.o
                0x000000000000bc18                DMAC_Initialize
                0x000000000000bc8c                DMAC_ChannelTransfer
                0x000000000000bd50                DMAC_ChannelIsBusy
                0x000000000000bd80                DMAC_ChannelTransferStatusGet
                0x000000000000bdac                DMAC_ChannelDisable
                0x000000000000bde4                DMAC_ChannelGetTransferredCount
                0x000000000000bdfc                DMAC_ChannelSuspend
                0x000000000000be24                DMAC_ChannelResume
                0x000000000000be4c                DMAC_ChannelCallbackRegister
                0x000000000000be5c                DMAC_ChannelSettingsGet
                0x000000000000be70                DMAC_ChannelSettingsSet
                0x000000000000beac                DMAC_CRCDisable
                0x000000000000bec0                DMAC_ChannelCRCSetup
                0x000000000000bf04                DMAC_CRCRead
                0x000000000000bf10                DMAC_CRCCalculate
                0x000000000000bfa4                DMAC_InterruptHandler

.text%71        0x000000000000c018      0x3d8
 .text          0x000000000000c018      0x3d8 build/SAMD21_IOT_WG_ICM42688/production/_ext/1014017276/plib_sercom2_spi_master.o
                0x000000000000c018                SERCOM2_SPI_Initialize
                0x000000000000c050                SERCOM2_SPI_TransferSetup
                0x000000000000c0f0                SERCOM2_SPI_CallbackRegister
                0x000000000000c0fc                SERCOM2_SPI_IsBusy
                0x000000000000c124                SERCOM2_SPI_IsTransmitterBusy
                0x000000000000c138                SERCOM2_SPI_WriteRead
                0x000000000000c298                SERCOM2_SPI_Write
                0x000000000000c2a4                SERCOM2_SPI_Read
                0x000000000000c2b4                SERCOM2_SPI_InterruptHandler

.text%72        0x000000000000c3f0      0x3d4
 .text          0x000000000000c3f0      0x3d4 build/SAMD21_IOT_WG_ICM42688/production/_ext/907429946/wdrv_winc_host_file.o
                0x000000000000c3f0                WDRV_WINC_HostFileDownload
                0x000000000000c498                WDRV_WINC_HostFileRead
                0x000000000000c58c                WDRV_WINC_HostFileErase
                0x000000000000c62c                WDRV_WINC_HostFileFindByID
                0x000000000000c730                WDRV_WINC_HostFileGetSize
                0x000000000000c774                WDRV_WINC_HostFileUpdateReadBuffer

.text%73        0x000000000000c7c4      0x3ac
 .text          0x000000000000c7c4      0x3ac build/SAMD21_IOT_WG_ICM42688/production/_ext/596309756/ma_symmetric.o
                0x000000000000c7c4                MA_Symmetric

.text%74        0x000000000000cb70      0x384
 .text          0x000000000000cb70      0x384 build/SAMD21_IOT_WG_ICM42688/production/_ext/907429946/wdrv_winc_sta.o
                0x000000000000cbd8                WDRV_WINC_BSSConnect
                0x000000000000ce1c                WDRV_WINC_BSSReconnect
                0x000000000000ce68                WDRV_WINC_BSSDisconnect
                0x000000000000ceac                WDRV_WINC_BSSRoamingConfigure

.text.__printf_core%75
                0x000000000000cef4      0x33c
 .text.__printf_core
                0x000000000000cef4      0x33c c:/program files/microchip/xc32/v4.60/bin/bin/../../lib/gcc/pic32c/8.3.1/../../../../pic32c/lib/thumb/v6-m/nofp\libc-musl.a(__printf_core.o)
                0x000000000000cef4                __printf_core

.text%76        0x000000000000d230      0x310
 .text          0x000000000000d230      0x310 build/SAMD21_IOT_WG_ICM42688/production/_ext/177673482/plib_sercom5_usart.o
                0x000000000000d250                SERCOM5_USART_Initialize
                0x000000000000d284                SERCOM5_USART_FrequencyGet
                0x000000000000d28c                SERCOM5_USART_SerialSetup
                0x000000000000d390                SERCOM5_USART_ErrorGet
                0x000000000000d3b0                SERCOM5_USART_Enable
                0x000000000000d3cc                SERCOM5_USART_Disable
                0x000000000000d3e8                SERCOM5_USART_TransmitterEnable
                0x000000000000d400                SERCOM5_USART_TransmitterDisable
                0x000000000000d41c                SERCOM5_USART_Write
                0x000000000000d45c                SERCOM5_USART_TransmitterIsReady
                0x000000000000d46c                SERCOM5_USART_WriteByte
                0x000000000000d480                SERCOM5_USART_TransmitComplete
                0x000000000000d490                SERCOM5_USART_ReceiverEnable
                0x000000000000d4a8                SERCOM5_USART_ReceiverDisable
                0x000000000000d4c4                SERCOM5_USART_Read
                0x000000000000d524                SERCOM5_USART_ReceiverIsReady
                0x000000000000d534                SERCOM5_USART_ReadByte

.text%77        0x000000000000d540      0x2f8
 .text          0x000000000000d540      0x2f8 build/SAMD21_IOT_WG_ICM42688/production/_ext/121554788/nmdrv.o
                0x000000000000d540                nm_get_firmware_info
                0x000000000000d5f0                nm_get_firmware_full_info
                0x000000000000d6a0                nm_get_ota_firmware_info
                0x000000000000d75c                nm_drv_init_download_mode
                0x000000000000d790                nm_drv_init_hold
                0x000000000000d7a8                nm_drv_init_start
                0x000000000000d7f4                nm_drv_init
                0x000000000000d80c                nm_drv_deinit

.text%78        0x000000000000d838      0x2ac
 .text          0x000000000000d838      0x2ac build/SAMD21_IOT_WG_ICM42688/production/_ext/907429946/wdrv_winc_authctx.o
                0x000000000000d838                WDRV_WINC_AuthCtxIsValid
                0x000000000000d85c                WDRV_WINC_AuthCtxSetDefaults
                0x000000000000d870                WDRV_WINC_AuthCtxSetOneTimeUse
                0x000000000000d880                WDRV_WINC_AuthCtxSetOpen
                0x000000000000d890                WDRV_WINC_AuthCtxSetWPA
                0x000000000000d8c8                WDRV_WINC_AuthCtxSetWPAEnterpriseMSCHAPv2
                0x000000000000d96c                WDRV_WINC_AuthCtxSetWPAEnterpriseTLS

.text%79        0x000000000000dae4      0x288
 .text          0x000000000000dae4      0x288 build/SAMD21_IOT_WG_ICM42688/production/_ext/596309756/rb.o
                0x000000000000dae4                next_pow_2
                0x000000000000db00                rb_init
                0x000000000000db10                setup_rb
                0x000000000000db1c                copy_rb_to_buff
                0x000000000000db4c                copy_segment_to_buff
                0x000000000000db74                setup_rb_with_data
                0x000000000000db94                rb_read
                0x000000000000dba0                rb_read_offset
                0x000000000000dbb0                rb_add
                0x000000000000dbd4                rb_write
                0x000000000000dbe0                get_axis_data
                0x000000000000dbec                rb_reset
                0x000000000000dbf8                rb_step_head
                0x000000000000dc04                rb_valid
                0x000000000000dc10                rb_lock
                0x000000000000dc18                rb_unlock
                0x000000000000dc20                rb_status
                0x000000000000dc24                write_axis_data
                0x000000000000dc30                multiply_axis_data
                0x000000000000dc5c                divide_axis_data
                0x000000000000dc84                divide_axis_data_float
                0x000000000000dcb4                multiply_axis_data_float
                0x000000000000dd20                add_axis_data
                0x000000000000dd4c                rb_num_items
                0x000000000000dd5c                rb_items

.text%80        0x000000000000dd6c      0x280
 .text          0x000000000000dd6c      0x280 build/SAMD21_IOT_WG_ICM42688/production/_ext/1014017276/plib_sercom0_spi_master.o
                0x000000000000decc                SERCOM0_SPI_Initialize
                0x000000000000def4                SERCOM0_SPI_TransferSetup
                0x000000000000df88                SERCOM0_SPI_IsTransmitterBusy
                0x000000000000df9c                SERCOM0_SPI_WriteRead
                0x000000000000dfbc                SERCOM0_SPI_Write
                0x000000000000dfd4                SERCOM0_SPI_Read

.text%81        0x000000000000dfec      0x264
 .text          0x000000000000dfec      0x264 build/SAMD21_IOT_WG_ICM42688/production/_ext/596309756/kb_pipeline.o
                0x000000000000dfec                data_streaming_0
                0x000000000000e040                data_segmentation_0
                0x000000000000e094                feature_gen_0
                0x000000000000e204                feature_transform_0
                0x000000000000e240                recognize_vector_0

.text%82        0x000000000000e250      0x228
 .text          0x000000000000e250      0x228 build/SAMD21_IOT_WG_ICM42688/production/_ext/2048461350/icm42688_sensor.o
                0x000000000000e250                icm42688_sensor_event_cb
                0x000000000000e334                inv_icm426xx_get_time_us
                0x000000000000e33c                inv_icm426xx_sleep_us
                0x000000000000e344                icm42688_sensor_init
                0x000000000000e3ec                icm42688_sensor_set_config
                0x000000000000e458                icm42688_sensor_read

.text%83        0x000000000000e478      0x1fc
 .text          0x000000000000e478      0x1fc build/SAMD21_IOT_WG_ICM42688/production/_ext/1360937237/ringbuffer.o
                0x000000000000e478                ringbuffer_init
                0x000000000000e4b0                ringbuffer_reset
                0x000000000000e4b8                ringbuffer_read
                0x000000000000e53c                ringbuffer_write
                0x000000000000e5c4                ringbuffer_get_read_items
                0x000000000000e5d0                ringbuffer_get_write_items
                0x000000000000e5e0                ringbuffer_get_read_buffer
                0x000000000000e608                ringbuffer_get_write_buffer
                0x000000000000e630                ringbuffer_advance_read_index
                0x000000000000e650                ringbuffer_advance_write_index

.rodata.str1.4%84
                0x000000000000e674      0x1dc
 .rodata.str1.4
                0x000000000000e674      0x1dc build/SAMD21_IOT_WG_ICM42688/production/_ext/596309756/kb_output.o

.text.__secs_to_tm%85
                0x000000000000e850      0x1dc
 .text.__secs_to_tm
                0x000000000000e850      0x1dc c:/program files/microchip/xc32/v4.60/bin/bin/../../lib/gcc/pic32c/8.3.1/../../../../pic32c/lib/thumb/v6-m/nofp\libc-musl.a(__secs_to_tm.o)
                0x000000000000e850                __secs_to_tm

.text.__aeabi_dadd%86
                0x000000000000ea2c      0x1c8
 .text.__aeabi_dadd
                0x000000000000ea2c      0x1c8 c:/program files/microchip/xc32/v4.60/bin/bin/../../lib/gcc/pic32c/8.3.1/../../../../pic32c/lib/thumb/v6-m/nofp\libm-fast-emfloat.a(__aeabi_dadd.o)
                0x000000000000ea2c                __aeabi_dadd
                0x000000000000ea32                .L__aeabi_dadd_fast_entry

.text%87        0x000000000000ebf4      0x1bc
 .text          0x000000000000ebf4      0x1bc build/SAMD21_IOT_WG_ICM42688/production/_ext/1341251756/Icm426xxTransport.o
                0x000000000000ebf4                inv_icm426xx_init_transport
                0x000000000000ec64                inv_icm426xx_read_reg
                0x000000000000ecec                inv_icm426xx_write_reg

.text%88        0x000000000000edb0      0x1b4
 .text          0x000000000000edb0      0x1b4 build/SAMD21_IOT_WG_ICM42688/production/_ext/1360937237/winc1500_udp_client.o
                0x000000000000ee3c                UDP_Client_Initialize
                0x000000000000ee74                UDP_Client_Tasks
                0x000000000000ef40                get_UDP_client_state
                0x000000000000ef4c                tx_wifi_new_sensordata

.text%89        0x000000000000ef64      0x190
 .text          0x000000000000ef64      0x190 build/SAMD21_IOT_WG_ICM42688/production/_ext/907429946/wdrv_winc_bssctx.o
                0x000000000000efa0                WDRV_WINC_BSSCtxIsValid
                0x000000000000efbc                WDRV_WINC_BSSCtxSetDefaults
                0x000000000000efec                WDRV_WINC_BSSCtxSetSSID
                0x000000000000f040                WDRV_WINC_BSSCtxSetBSSID
                0x000000000000f094                WDRV_WINC_BSSCtxSetChannel
                0x000000000000f0c0                WDRV_WINC_BSSCtxSetSSIDVisibility

.text.__aeabi_dmul_aux%90
                0x000000000000f0f4      0x18a
 .text.__aeabi_dmul_aux
                0x000000000000f0f4      0x18a c:/program files/microchip/xc32/v4.60/bin/bin/../../lib/gcc/pic32c/8.3.1/../../../../pic32c/lib/thumb/v6-m/nofp\libm-fast-emfloat.a(__aeabi_dmul_aux.o)
                0x000000000000f0f4                __aeabi_dmul_aux
                0x000000000000f12c                __aeabi_dmul

.text%91        0x000000000000f280      0x188
 .text          0x000000000000f280      0x188 build/SAMD21_IOT_WG_ICM42688/production/_ext/101005277/wdrv_winc_spi.o
                0x000000000000f2a8                WDRV_WINC_SPISend
                0x000000000000f2ec                WDRV_WINC_SPIReceive
                0x000000000000f340                WDRV_WINC_SPIOpen
                0x000000000000f3b0                WDRV_WINC_SPIInitialize
                0x000000000000f3d0                WDRV_WINC_SPIDeinitialize

.text%92        0x000000000000f408      0x184
 .text          0x000000000000f408      0x184 build/SAMD21_IOT_WG_ICM42688/production/_ext/1580876256/plib_port.o
                0x000000000000f408                PORT_Initialize
                0x000000000000f4dc                PORT_GroupRead
                0x000000000000f4e0                PORT_GroupWrite
                0x000000000000f4ec                PORT_GroupLatchRead
                0x000000000000f4f0                PORT_GroupSet
                0x000000000000f4f4                PORT_GroupClear
                0x000000000000f4f8                PORT_GroupToggle
                0x000000000000f4fc                PORT_GroupInputEnable
                0x000000000000f520                PORT_GroupOutputEnable
                0x000000000000f524                PORT_PinPeripheralFunctionConfig
                0x000000000000f56c                PORT_PinGPIOConfig

.text%93        0x000000000000f58c      0x17c
 .text          0x000000000000f58c      0x17c build/SAMD21_IOT_WG_ICM42688/production/_ext/907429946/wdrv_winc_systime.o
                0x000000000000f58c                WDRV_WINC_LocalTimeToUTC
                0x000000000000f5f4                WDRV_WINC_UTCToLocalTime
                0x000000000000f634                WDRV_WINC_SystemTimeSNTPClientEnable
                0x000000000000f68c                WDRV_WINC_SystemTimeSNTPClientDisable
                0x000000000000f6b0                WDRV_WINC_SystemTimeSetCurrent
                0x000000000000f6dc                WDRV_WINC_SystemTimeGetCurrent

.rodata.str1.4%94
                0x000000000000f708      0x168
 .rodata.str1.4
                0x000000000000f708      0x168 build/SAMD21_IOT_WG_ICM42688/production/_ext/1360937237/main.o

.text%95        0x000000000000f870      0x160
 .text          0x000000000000f870      0x160 build/SAMD21_IOT_WG_ICM42688/production/_ext/1360937237/ws2812.o
                0x000000000000f870                ws2812_send_data
                0x000000000000f94c                ws2812_init
                0x000000000000f978                ws2812_set_pixel
                0x000000000000f98c                ws2812_clear_all
                0x000000000000f9a0                ws2812_show
                0x000000000000f9b8                ws2812_test_timing

.text%96        0x000000000000f9d0      0x15c
 .text          0x000000000000f9d0      0x15c build/SAMD21_IOT_WG_ICM42688/production/_ext/11470383/plib_nvmctrl.o
                0x000000000000f9d0                NVMCTRL_Initialize
                0x000000000000f9dc                NVMCTRL_CacheInvalidate
                0x000000000000f9ec                NVMCTRL_Read
                0x000000000000f9fc                NVMCTRL_PageBufferWrite
                0x000000000000fa10                NVMCTRL_PageBufferCommit
                0x000000000000fa28                NVMCTRL_PageWrite
                0x000000000000fa50                NVMCTRL_RowErase
                0x000000000000fa68                NVMCTRL_USER_ROW_PageWrite
                0x000000000000faa0                NVMCTRL_USER_ROW_RowErase
                0x000000000000facc                NVMCTRL_ErrorGet
                0x000000000000fae4                NVMCTRL_IsBusy
                0x000000000000faf4                NVMCTRL_RegionLock
                0x000000000000fb08                NVMCTRL_RegionUnlock
                0x000000000000fb1c                NVMCTRL_SecurityBitSet

.text.__aeabi_fadd%97
                0x000000000000fb2c      0x13a
 .text.__aeabi_fadd
                0x000000000000fb2c      0x13a c:/program files/microchip/xc32/v4.60/bin/bin/../../lib/gcc/pic32c/8.3.1/../../../../pic32c/lib/thumb/v6-m/nofp\libm-fast-emfloat.a(__aeabi_fadd.o)
                0x000000000000fb2c                __aeabi_fadd
                0x000000000000fb30                .L__aeabi_fadd_fast_entry

.rodata%98      0x000000000000fc68      0x134
 .rodata        0x000000000000fc68      0x134 build/SAMD21_IOT_WG_ICM42688/production/_ext/121554788/nmspi.o

.text.__fmt_x%99
                0x000000000000fd9c      0x132
 .text.__fmt_x  0x000000000000fd9c      0x132 c:/program files/microchip/xc32/v4.60/bin/bin/../../lib/gcc/pic32c/8.3.1/../../../../pic32c/lib/thumb/v6-m/nofp\libc-musl.a(__fmt_x.o)
                0x000000000000fd9c                __fmt_x_needed
                0x000000000000fd9c                __fmt_x

.text%100       0x000000000000fed0      0x130
 .text          0x000000000000fed0      0x130 build/SAMD21_IOT_WG_ICM42688/production/_ext/399410062/plib_tc4.o
                0x000000000000fed0                TC4_TimerInitialize
                0x000000000000ff0c                TC4_TimerStart
                0x000000000000ff24                TC4_TimerStop
                0x000000000000ff3c                TC4_TimerFrequencyGet
                0x000000000000ff44                TC4_TimerCommandSet
                0x000000000000ff5c                TC4_Timer16bitCounterGet
                0x000000000000ff78                TC4_Timer16bitCounterSet
                0x000000000000ff8c                TC4_Timer16bitPeriodSet
                0x000000000000ffa0                TC4_Timer16bitPeriodGet
                0x000000000000ffbc                TC4_Timer16bitCompareSet
                0x000000000000ffd0                TC4_TimerCallbackRegister
                0x000000000000ffdc                TC4_TimerInterruptHandler

.text%101       0x0000000000010000      0x130
 .text          0x0000000000010000      0x130 c:/program files/microchip/xc32/v4.60/bin/bin/../../lib/gcc/pic32c/8.3.1/thumb/v6-m/nofp\libgcc.a(_divdi3.o)
                0x0000000000010000                __divdi3

.text%102       0x0000000000010130      0x128
 .text          0x0000000000010130      0x128 build/SAMD21_IOT_WG_ICM42688/production/_ext/1580823105/plib_nvic.o
                0x0000000000010130                NVIC_Initialize
                0x00000000000101c4                NVIC_INT_Enable
                0x00000000000101cc                NVIC_INT_Disable
                0x00000000000101e0                NVIC_INT_Restore
                0x00000000000101f4                NVIC_INT_SourceDisable
                0x000000000001023c                NVIC_INT_SourceRestore

.text%103       0x0000000000010258      0x120
 .text          0x0000000000010258      0x120 build/SAMD21_IOT_WG_ICM42688/production/_ext/399410062/plib_tc3.o
                0x0000000000010258                TC3_TimerInitialize
                0x0000000000010298                TC3_TimerStart
                0x00000000000102b0                TC3_TimerStop
                0x00000000000102c8                TC3_TimerFrequencyGet
                0x00000000000102d0                TC3_TimerCommandSet
                0x00000000000102e8                TC3_Timer16bitCounterGet
                0x0000000000010304                TC3_Timer16bitCounterSet
                0x0000000000010318                TC3_Timer16bitPeriodSet
                0x000000000001032c                TC3_Timer16bitPeriodGet
                0x0000000000010348                TC3_TimerCallbackRegister
                0x0000000000010354                TC3_TimerInterruptHandler

.text%104       0x0000000000010378      0x11c
 .text          0x0000000000010378      0x11c build/SAMD21_IOT_WG_ICM42688/production/_ext/223004715/plib_systick.o
                0x0000000000010378                SYSTICK_TimerInitialize
                0x0000000000010394                SYSTICK_TimerRestart
                0x00000000000103b0                SYSTICK_TimerStart
                0x00000000000103c4                SYSTICK_TimerStop
                0x00000000000103d4                SYSTICK_TimerPeriodSet
                0x00000000000103e0                SYSTICK_TimerPeriodGet
                0x00000000000103ec                SYSTICK_TimerCounterGet
                0x00000000000103f8                SYSTICK_TimerFrequencyGet
                0x0000000000010400                SYSTICK_DelayMs
                0x0000000000010444                SYSTICK_DelayUs
                0x0000000000010484                SYSTICK_TimerPeriodHasExpired

.text%105       0x0000000000010494      0x114
 .text          0x0000000000010494      0x114 build/SAMD21_IOT_WG_ICM42688/production/_ext/503204096/plib_eic.o
                0x0000000000010494                EIC_Initialize
                0x0000000000010520                EIC_InterruptEnable
                0x0000000000010530                EIC_InterruptDisable
                0x0000000000010540                EIC_CallbackRegister
                0x000000000001055c                EIC_InterruptHandler

.text.__year_to_secs%106
                0x00000000000105a8      0x100
 .text.__year_to_secs
                0x00000000000105a8      0x100 c:/program files/microchip/xc32/v4.60/bin/bin/../../lib/gcc/pic32c/8.3.1/../../../../pic32c/lib/thumb/v6-m/nofp\libc-musl.a(__year_to_secs.o)
                0x00000000000105a8                __year_to_secs

.rodata%107     0x00000000000106a8       0xf0
 .rodata        0x00000000000106a8       0xf0 build/SAMD21_IOT_WG_ICM42688/production/_ext/907429946/wdrv_winc.o

.text%108       0x0000000000010798       0xe8
 .text          0x0000000000010798       0xe8 build/SAMD21_IOT_WG_ICM42688/production/_ext/121554788/nmbus.o
                0x0000000000010798                nm_bus_iface_init
                0x00000000000107a8                nm_bus_iface_deinit
                0x00000000000107ac                nm_bus_reset
                0x00000000000107b4                nm_bus_iface_reconfigure
                0x00000000000107b8                nm_read_reg
                0x00000000000107c0                nm_read_reg_with_ret
                0x00000000000107c8                nm_write_reg
                0x00000000000107d0                nm_read_block
                0x0000000000010828                nm_write_block

.text%109       0x0000000000010880       0xe2
 .text          0x0000000000010880       0xe2 c:/program files/microchip/xc32/v4.60/bin/bin/../../lib/gcc/pic32c/8.3.1/thumb/v6-m/nofp\libgcc.a(_udivmoddi4.o)
                0x0000000000010880                __udivmoddi4

.text%110       0x0000000000010964       0xd8
 .text          0x0000000000010964       0xd8 build/SAMD21_IOT_WG_ICM42688/production/_ext/596309756/tr_min_max_scale.o
                0x0000000000010964                min_max_scale

.text%111       0x0000000000010a3c       0xd4
 .text          0x0000000000010a3c       0xd4 build/SAMD21_IOT_WG_ICM42688/production/_ext/596309756/utils_model_stats_max_min.o
                0x0000000000010a3c                utils_model_stats_max_min

.text%112       0x0000000000010b10       0xcc
 .text          0x0000000000010b10       0xcc build/SAMD21_IOT_WG_ICM42688/production/_ext/1750425231/plib_clock.o
                0x0000000000010b10                CLOCK_Initialize

.rodata%113     0x0000000000010bdc       0xcc
 .rodata        0x0000000000010bdc       0xcc build/SAMD21_IOT_WG_ICM42688/production/_ext/1832905403/initialization.o

.text%114       0x0000000000010ca8       0xc4
 .text          0x0000000000010ca8       0xc4 build/SAMD21_IOT_WG_ICM42688/production/_ext/596309756/fg_sampling_downsample.o
                0x0000000000010ca8                fg_sampling_downsample

.text.__aeabi_ddiv%115
                0x0000000000010d6c       0xc4
 .text.__aeabi_ddiv
                0x0000000000010d6c       0xc4 c:/program files/microchip/xc32/v4.60/bin/bin/../../lib/gcc/pic32c/8.3.1/../../../../pic32c/lib/thumb/v6-m/nofp\libm-fast-emfloat.a(__aeabi_ddiv.o)
                0x0000000000010d6c                __aeabi_ddiv

.text%116       0x0000000000010e30       0xc0
 .text          0x0000000000010e30       0xc0 build/SAMD21_IOT_WG_ICM42688/production/_ext/548032175/inet_ntop.o
                0x0000000000010e30                inet_ntop

.text.__pop_int%117
                0x0000000000010ef0       0xbe
 .text.__pop_int
                0x0000000000010ef0       0xbe c:/program files/microchip/xc32/v4.60/bin/bin/../../lib/gcc/pic32c/8.3.1/../../../../pic32c/lib/thumb/v6-m/nofp\libc-musl.a(__pop_int.o)
                0x0000000000010ef0                __pop_int_needed
                0x0000000000010ef0                __pop_int

.text.__aeabi_fmul%118
                0x0000000000010fae       0xb6
 .text.__aeabi_fmul
                0x0000000000010fae       0xb6 c:/program files/microchip/xc32/v4.60/bin/bin/../../lib/gcc/pic32c/8.3.1/../../../../pic32c/lib/thumb/v6-m/nofp\libm-fast-emfloat.a(__aeabi_fmul.o)
                0x0000000000010fae                __aeabi_fmul

.text%119       0x0000000000011064       0xb4
 .text          0x0000000000011064       0xb4 build/SAMD21_IOT_WG_ICM42688/production/_ext/596309756/mean.o
                0x0000000000011064                mean
                0x00000000000110c8                i_mean
                0x00000000000110f4                i_mean_buff

.text.floor%120
                0x0000000000011118       0xb4
 .text.floor    0x0000000000011118       0xb4 c:/program files/microchip/xc32/v4.60/bin/bin/../../lib/gcc/pic32c/8.3.1/../../../../pic32c/lib/thumb/v6-m/nofp\libm-fast-emfloat.a(floor.o)
                0x0000000000011118                floor

.text.__fmt_d%121
                0x00000000000111cc       0xb2
 .text.__fmt_d  0x00000000000111cc       0xb2 c:/program files/microchip/xc32/v4.60/bin/bin/../../lib/gcc/pic32c/8.3.1/../../../../pic32c/lib/thumb/v6-m/nofp\libc-musl.a(__fmt_d.o)
                0x00000000000111cc                __fmt_d
                0x00000000000111cc                __fmt_d_needed

.text%122       0x0000000000011280       0xa8
 .text          0x0000000000011280       0xa8 c:/program files/microchip/xc32/v4.60/bin/bin/../../lib/gcc/pic32c/8.3.1/thumb/v6-m/nofp\libgcc.a(_divsi3.o)
                0x0000000000011280                __divsi3
                0x0000000000011280                __aeabi_idiv
                0x0000000000011314                __aeabi_idivmod

.rodata.str1.4%123
                0x0000000000011328       0xa0
 .rodata.str1.4
                0x0000000000011328       0xa0 build/SAMD21_IOT_WG_ICM42688/production/_ext/1360937237/winc1500_udp_client.o

.text.__tm_to_secs%124
                0x00000000000113c8       0xa0
 .text.__tm_to_secs
                0x00000000000113c8       0xa0 c:/program files/microchip/xc32/v4.60/bin/bin/../../lib/gcc/pic32c/8.3.1/../../../../pic32c/lib/thumb/v6-m/nofp\libc-musl.a(__tm_to_secs.o)
                0x00000000000113c8                __tm_to_secs

.text%125       0x0000000000011468       0x98
 .text          0x0000000000011468       0x98 build/SAMD21_IOT_WG_ICM42688/production/_ext/596309756/fg_area_absolute_area_low_frequency.o
                0x0000000000011468                fg_area_absolute_area_low_frequency

.text%126       0x0000000000011500       0x94
 .text          0x0000000000011500       0x94 build/SAMD21_IOT_WG_ICM42688/production/_ext/548032175/inet_addr.o
                0x0000000000011500                inet_addr

.text%127       0x0000000000011594       0x94
 .text          0x0000000000011594       0x94 build/SAMD21_IOT_WG_ICM42688/production/_ext/609036575/flexible_flash.o
                0x0000000000011594                spi_flexible_flash_find_section

.text%128       0x0000000000011628       0x94
 .text          0x0000000000011628       0x94 build/SAMD21_IOT_WG_ICM42688/production/_ext/596309756/sortarray.o
                0x0000000000011628                sortarray

.text.__aeabi_fdiv%129
                0x00000000000116bc       0x94
 .text.__aeabi_fdiv
                0x00000000000116bc       0x94 c:/program files/microchip/xc32/v4.60/bin/bin/../../lib/gcc/pic32c/8.3.1/../../../../pic32c/lib/thumb/v6-m/nofp\libm-fast-emfloat.a(__aeabi_fdiv.o)
                0x00000000000116bc                __aeabi_fdiv

.text%130       0x0000000000011750       0x90
 .text          0x0000000000011750       0x90 build/SAMD21_IOT_WG_ICM42688/production/_ext/1832905403/initialization.o
                0x0000000000011750                SYS_Initialize

.rodata.str1.4%131
                0x00000000000117e0       0x90
 .rodata.str1.4
                0x00000000000117e0       0x90 build/SAMD21_IOT_WG_ICM42688/production/_ext/596309756/pme.o

.text%132       0x0000000000011870       0x8c
 .text          0x0000000000011870       0x8c c:/program files/microchip/xc32/v4.60/bin/bin/../../lib/gcc/pic32c/8.3.1/thumb/v6-m/nofp\libgcc.a(_udivsi3.o)
                0x0000000000011870                __aeabi_uidiv
                0x0000000000011870                __udivsi3
                0x00000000000118e8                __aeabi_uidivmod

.text.__write_buffered%133
                0x00000000000118fc       0x82
 .text.__write_buffered
                0x00000000000118fc       0x82 c:/program files/microchip/xc32/v4.60/bin/bin/../../lib/gcc/pic32c/8.3.1/../../../../pic32c/lib/thumb/v6-m/nofp\libc-musl.a(__stdio_write.o)
                0x00000000000118fc                __do_write

.text.__simple_search_fl%134
                0x0000000000011980       0x80
 .text.__simple_search_fl
                0x0000000000011980       0x80 c:/program files/microchip/xc32/v4.60/bin/bin/../../lib/gcc/pic32c/8.3.1/../../../../pic32c/lib/thumb/v6-m/nofp\liblmalloc-musl.a(lite_free.o)
                0x0000000000011980                __simple_search_fl

.text%135       0x0000000000011a00       0x7c
 .text          0x0000000000011a00       0x7c build/SAMD21_IOT_WG_ICM42688/production/_ext/596309756/fg_stats_abs_mean.o
                0x0000000000011a00                fg_stats_abs_mean

.text.__stdio_write_buffered%136
                0x0000000000011a7c       0x7c
 .text.__stdio_write_buffered
                0x0000000000011a7c       0x7c c:/program files/microchip/xc32/v4.60/bin/bin/../../lib/gcc/pic32c/8.3.1/../../../../pic32c/lib/thumb/v6-m/nofp\libc-musl.a(__stdio_write.o)
                0x0000000000011a7c                __stdio_write_buffered

.text.__pad%137
                0x0000000000011af8       0x7a
 .text.__pad    0x0000000000011af8       0x7a c:/program files/microchip/xc32/v4.60/bin/bin/../../lib/gcc/pic32c/8.3.1/../../../../pic32c/lib/thumb/v6-m/nofp\libc-musl.a(__printf_core.o)
                0x0000000000011af8                __pad

.text%138       0x0000000000011b74       0x78
 .text          0x0000000000011b74       0x78 build/SAMD21_IOT_WG_ICM42688/production/_ext/596309756/utils_buffer_cumsum.o
                0x0000000000011b74                buffer_cumulative_sum_0
                0x0000000000011bc0                buffer_cumulative_sum

.text.__cvt_u%139
                0x0000000000011bec       0x76
 .text.__cvt_u  0x0000000000011bec       0x76 c:/program files/microchip/xc32/v4.60/bin/bin/../../lib/gcc/pic32c/8.3.1/../../../../pic32c/lib/thumb/v6-m/nofp\libc-musl.a(__cvt_u.o)
                0x0000000000011bec                __cvt_u

.text%140       0x0000000000011c64       0x74
 .text          0x0000000000011c64       0x74 build/SAMD21_IOT_WG_ICM42688/production/_ext/596309756/utils_array_max_uint8.o
                0x0000000000011c64                array_max_uint8

.text%141       0x0000000000011cd8       0x74
 .text          0x0000000000011cd8       0x74 build/SAMD21_IOT_WG_ICM42688/production/_ext/1360937237/app.o
                0x0000000000011cd8                APP_Initialize
                0x0000000000011d10                APP_Tasks

.text%142       0x0000000000011d4c       0x6c
 .text          0x0000000000011d4c       0x6c build/SAMD21_IOT_WG_ICM42688/production/_ext/1318297016/sys_int.o
                0x0000000000011d4c                SYS_INT_Enable
                0x0000000000011d54                SYS_INT_Disable
                0x0000000000011d5c                SYS_INT_Restore
                0x0000000000011d64                SYS_INT_SourceDisable
                0x0000000000011d9c                SYS_INT_SourceRestore

.text.__pop_ptr%143
                0x0000000000011db8       0x68
 .text.__pop_ptr
                0x0000000000011db8       0x68 c:/program files/microchip/xc32/v4.60/bin/bin/../../lib/gcc/pic32c/8.3.1/../../../../pic32c/lib/thumb/v6-m/nofp\libc-musl.a(__pop_ptr.o)
                0x0000000000011db8                __pop_ptr
                0x0000000000011db8                __pop_ptr_needed

.text%144       0x0000000000011e20       0x64
 .text          0x0000000000011e20       0x64 build/SAMD21_IOT_WG_ICM42688/production/_ext/596309756/utils_model_cross_difference.o
                0x0000000000011e20                utils_model_cross_difference

.text.__simple_malloc%145
                0x0000000000011e84       0x64
 .text.__simple_malloc
                0x0000000000011e84       0x64 c:/program files/microchip/xc32/v4.60/bin/bin/../../lib/gcc/pic32c/8.3.1/../../../../pic32c/lib/thumb/v6-m/nofp\liblmalloc-musl.a(lite_malloc.o)
                0x0000000000011e84                __malloc0
                0x0000000000011e84                __simple_malloc
                0x0000000000011e84                malloc

.text.__stdio_read%146
                0x0000000000011ee8       0x64
 .text.__stdio_read
                0x0000000000011ee8       0x64 c:/program files/microchip/xc32/v4.60/bin/bin/../../lib/gcc/pic32c/8.3.1/../../../../pic32c/lib/thumb/v6-m/nofp\libc-musl.a(__stdio_read.o)
                0x0000000000011ee8                __stdio_read

.text.__aeabi_d2f%147
                0x0000000000011f4c       0x62
 .text.__aeabi_d2f
                0x0000000000011f4c       0x62 c:/program files/microchip/xc32/v4.60/bin/bin/../../lib/gcc/pic32c/8.3.1/../../../../pic32c/lib/thumb/v6-m/nofp\libm-fast-emfloat.a(__aeabi_d2f.o)
                0x0000000000011f4c                __aeabi_d2f

.text%148       0x0000000000011fb0       0x60
 .text          0x0000000000011fb0       0x60 build/SAMD21_IOT_WG_ICM42688/production/_ext/596309756/fg_amplitude_peak_to_peak.o
                0x0000000000011fb0                fg_amplitude_peak_to_peak

.text.__strchrnul%149
                0x0000000000012010       0x60
 .text.__strchrnul
                0x0000000000012010       0x60 c:/program files/microchip/xc32/v4.60/bin/bin/../../lib/gcc/pic32c/8.3.1/../../../../pic32c/lib/thumb/v6-m/nofp\libc-size-musl.a(strchrnul.o)
                0x0000000000012010                strchrnul
                0x0000000000012010                __strchrnul

.text%150       0x0000000000012070       0x5c
 .text          0x0000000000012070       0x5c build/SAMD21_IOT_WG_ICM42688/production/_ext/596309756/fg_amplitude_global_p2p_low_frequency.o
                0x0000000000012070                fg_amplitude_global_p2p_low_frequency

.text.__libc_start_init%151
                0x00000000000120cc       0x5c
 .text.__libc_start_init
                0x00000000000120cc       0x5c c:/program files/microchip/xc32/v4.60/bin/bin/../../lib/gcc/pic32c/8.3.1/../../../../pic32c/lib/thumb/v6-m/nofp\libc-musl.a(__libc_start_main.o)
                0x00000000000120cc                __libc_init_array

.text.__stdio_close_rw%152
                0x0000000000012128       0x5c
 .text.__stdio_close_rw
                0x0000000000012128       0x5c c:/program files/microchip/xc32/v4.60/bin/bin/../../lib/gcc/pic32c/8.3.1/../../../../pic32c/lib/thumb/v6-m/nofp\libc-musl.a(__stdio_close.o)
                0x0000000000012128                __stdio_close_rw

.text%153       0x0000000000012184       0x58
 .text          0x0000000000012184       0x58 build/SAMD21_IOT_WG_ICM42688/production/_ext/596309756/sf_downsample_by_averaging.o
                0x0000000000012184                streaming_downsample_by_averaging

.text.__fmt_u%154
                0x00000000000121dc       0x56
 .text.__fmt_u  0x00000000000121dc       0x56 c:/program files/microchip/xc32/v4.60/bin/bin/../../lib/gcc/pic32c/8.3.1/../../../../pic32c/lib/thumb/v6-m/nofp\libc-musl.a(__fmt_u.o)
                0x00000000000121dc                __fmt_u_needed
                0x00000000000121dc                __fmt_u

.text%155       0x0000000000012234       0x54
 .text          0x0000000000012234       0x54 build/SAMD21_IOT_WG_ICM42688/production/_ext/171618134/sml_recognition_run.o
                0x0000000000012234                sml_output_results
                0x0000000000012268                sml_recognition_run

.text%156       0x0000000000012288       0x50
 .text          0x0000000000012288       0x50 build/SAMD21_IOT_WG_ICM42688/production/_ext/596309756/utils_buffer_min_max.o
                0x0000000000012288                buffer_min_max

.text.__fmt_s%157
                0x00000000000122d8       0x50
 .text.__fmt_s  0x00000000000122d8       0x50 c:/program files/microchip/xc32/v4.60/bin/bin/../../lib/gcc/pic32c/8.3.1/../../../../pic32c/lib/thumb/v6-m/nofp\libc-musl.a(__fmt_s.o)
                0x00000000000122d8                __fmt_s
                0x00000000000122d8                __fmt_0_needed
                0x00000000000122d8                __fmt_s_needed

.text.setvbuf%158
                0x0000000000012328       0x50
 .text.setvbuf  0x0000000000012328       0x50 c:/program files/microchip/xc32/v4.60/bin/bin/../../lib/gcc/pic32c/8.3.1/../../../../pic32c/lib/thumb/v6-m/nofp\libc-musl.a(setvbuf.o)
                0x0000000000012328                setvbuf

.text.__vsnprintf%159
                0x0000000000012378       0x50
 .text.__vsnprintf
                0x0000000000012378       0x50 c:/program files/microchip/xc32/v4.60/bin/bin/../../lib/gcc/pic32c/8.3.1/../../../../pic32c/lib/thumb/v6-m/nofp\libc-musl.a(__int_vsnprintf.o)
                0x0000000000012378                __vsnprintf

.text._sbrk%160
                0x00000000000123c8       0x50
 .text._sbrk    0x00000000000123c8       0x50 c:/program files/microchip/xc32/v4.60/bin/bin/../../lib/gcc/pic32c/8.3.1/../../../../pic32c/lib/thumb/v6-m/nofp\libpic32c.a(sbrk.o)
                0x00000000000123c8                _sbrk

.text.__overflow%161
                0x0000000000012418       0x4e
 .text.__overflow
                0x0000000000012418       0x4e c:/program files/microchip/xc32/v4.60/bin/bin/../../lib/gcc/pic32c/8.3.1/../../../../pic32c/lib/thumb/v6-m/nofp\libc-musl.a(__overflow.o)
                0x0000000000012418                __overflow

.rodata%162     0x0000000000012468       0x4c
 .rodata        0x0000000000012468       0x4c build/SAMD21_IOT_WG_ICM42688/production/_ext/1341251756/Icm426xxDriver_HL.o

.text%163       0x00000000000124b4       0x4c
 .text          0x00000000000124b4       0x4c build/SAMD21_IOT_WG_ICM42688/production/_ext/596309756/dsp_lsup_distance.o
                0x00000000000124b4                lsup_distance

.text%164       0x0000000000012500       0x4c
 .text          0x0000000000012500       0x4c build/SAMD21_IOT_WG_ICM42688/production/_ext/596309756/save_sensor_data.o
                0x0000000000012500                saveSensorData
                0x0000000000012524                saveSenseDataOffset

.text%165       0x000000000001254c       0x48
 .text          0x000000000001254c       0x48 c:/program files/microchip/xc32/v4.60/bin/bin/../../lib/gcc/pic32c/8.3.1/thumb/v6-m/nofp/crtbegin.o

.text%166       0x0000000000012594       0x48
 .text          0x0000000000012594       0x48 build/SAMD21_IOT_WG_ICM42688/production/_ext/1357625803/xc32_monitor.o
                0x0000000000012594                read
                0x00000000000125b4                write

.text.Reset_Handler%167
                0x00000000000125dc       0x48
 .text.Reset_Handler
                0x00000000000125dc       0x48 build/SAMD21_IOT_WG_ICM42688/production/_ext/1832905403/startup_xc32.o
                0x00000000000125dc                Reset_Handler

.text%168       0x0000000000012624       0x48
 .text          0x0000000000012624       0x48 build/SAMD21_IOT_WG_ICM42688/production/_ext/596309756/sorted_copy.o
                0x0000000000012624                sorted_copy

.text.mktime%169
                0x000000000001266c       0x48
 .text.mktime   0x000000000001266c       0x48 c:/program files/microchip/xc32/v4.60/bin/bin/../../lib/gcc/pic32c/8.3.1/../../../../pic32c/lib/thumb/v6-m/nofp\libc-musl.a(mktime.o)
                0x000000000001266c                mktime

.text%170       0x00000000000126b4       0x48
 .text          0x00000000000126b4       0x48 c:/program files/microchip/xc32/v4.60/bin/bin/../../lib/gcc/pic32c/8.3.1/thumb/v6-m/nofp\libgcc.a(_aeabi_ldivmod.o)
                0x00000000000126b4                __aeabi_ldivmod

.text%171       0x00000000000126fc       0x44
 .text          0x00000000000126fc       0x44 build/SAMD21_IOT_WG_ICM42688/production/_ext/1584719636/sys_dma.o
                0x00000000000126fc                SYS_DMA_AddressingModeSetup
                0x0000000000012720                SYS_DMA_DataWidthSetup

.text.__aeabi_f2d%172
                0x0000000000012740       0x44
 .text.__aeabi_f2d
                0x0000000000012740       0x44 c:/program files/microchip/xc32/v4.60/bin/bin/../../lib/gcc/pic32c/8.3.1/../../../../pic32c/lib/thumb/v6-m/nofp\libm-fast-emfloat.a(__aeabi_f2d.o)
                0x0000000000012740                __aeabi_f2d

.text.__aeabi_dcmple%173
                0x0000000000012784       0x44
 .text.__aeabi_dcmple
                0x0000000000012784       0x44 c:/program files/microchip/xc32/v4.60/bin/bin/../../lib/gcc/pic32c/8.3.1/../../../../pic32c/lib/thumb/v6-m/nofp\libm-fast-emfloat.a(__aeabi_dcmple.o)
                0x0000000000012784                __aeabi_dcmple

.text%174       0x00000000000127c8       0x44
 .text          0x00000000000127c8       0x44 c:/program files/microchip/xc32/v4.60/bin/bin/../../lib/gcc/pic32c/8.3.1/thumb/v6-m/nofp\libgcc.a(_muldi3.o)
                0x00000000000127c8                __muldi3
                0x00000000000127c8                __aeabi_lmul

.text%175       0x000000000001280c       0x40
 .text          0x000000000001280c       0x40 build/SAMD21_IOT_WG_ICM42688/production/_ext/1164161090/wdrv_winc_gpio.o
                0x000000000001280c                WDRV_WINC_GPIOResetAssert
                0x000000000001281c                WDRV_WINC_GPIOResetDeassert
                0x000000000001282c                WDRV_WINC_GPIOChipEnableAssert
                0x000000000001283c                WDRV_WINC_GPIOChipEnableDeassert

.rodata%176     0x000000000001284c       0x40
 .rodata        0x000000000001284c       0x40 build/SAMD21_IOT_WG_ICM42688/production/_ext/1341251756/Icm426xxTransport.o

.text.__simple_free%177
                0x000000000001288c       0x40
 .text.__simple_free
                0x000000000001288c       0x40 c:/program files/microchip/xc32/v4.60/bin/bin/../../lib/gcc/pic32c/8.3.1/../../../../pic32c/lib/thumb/v6-m/nofp\liblmalloc-musl.a(lite_free.o)
                0x000000000001288c                __simple_free
                0x000000000001288c                free
                0x000000000001288c                __free0

.text.atoi%178  0x00000000000128cc       0x40
 .text.atoi     0x00000000000128cc       0x40 c:/program files/microchip/xc32/v4.60/bin/bin/../../lib/gcc/pic32c/8.3.1/../../../../pic32c/lib/thumb/v6-m/nofp\libc-musl.a(atoi.o)
                0x00000000000128cc                atoi

.text%179       0x000000000001290c       0x40
 .text          0x000000000001290c       0x40 c:/program files/microchip/xc32/v4.60/bin/bin/../../lib/gcc/pic32c/8.3.1/thumb/v6-m/nofp\libgcc.a(_aeabi_uldivmod.o)
                0x000000000001290c                __aeabi_uldivmod

.text.__aeabi_dcmpgt%180
                0x000000000001294c       0x3e
 .text.__aeabi_dcmpgt
                0x000000000001294c       0x3e c:/program files/microchip/xc32/v4.60/bin/bin/../../lib/gcc/pic32c/8.3.1/../../../../pic32c/lib/thumb/v6-m/nofp\libm-fast-emfloat.a(__aeabi_dcmpgt.o)
                0x000000000001294c                __aeabi_dcmpgt

.text.__aeabi_dcmplt%181
                0x000000000001298a       0x3e
 .text.__aeabi_dcmplt
                0x000000000001298a       0x3e c:/program files/microchip/xc32/v4.60/bin/bin/../../lib/gcc/pic32c/8.3.1/../../../../pic32c/lib/thumb/v6-m/nofp\libm-fast-emfloat.a(__aeabi_dcmplt.o)
                0x000000000001298a                __aeabi_dcmplt

.text.__aeabi_f2iz%182
                0x00000000000129c8       0x3e
 .text.__aeabi_f2iz
                0x00000000000129c8       0x3e c:/program files/microchip/xc32/v4.60/bin/bin/../../lib/gcc/pic32c/8.3.1/../../../../pic32c/lib/thumb/v6-m/nofp\libm-fast-emfloat.a(__aeabi_f2iz.o)
                0x00000000000129c8                __aeabi_f2iz

.text.__out%183
                0x0000000000012a06       0x3c
 .text.__out    0x0000000000012a06       0x3c c:/program files/microchip/xc32/v4.60/bin/bin/../../lib/gcc/pic32c/8.3.1/../../../../pic32c/lib/thumb/v6-m/nofp\libc-musl.a(__out.o)
                0x0000000000012a06                __out
                0x0000000000012a06                __out_needed

.text.__putc%184
                0x0000000000012a42       0x3c
 .text.__putc   0x0000000000012a42       0x3c c:/program files/microchip/xc32/v4.60/bin/bin/../../lib/gcc/pic32c/8.3.1/../../../../pic32c/lib/thumb/v6-m/nofp\libc-musl.a(__putc.o)
                0x0000000000012a42                __putc_needed
                0x0000000000012a42                __putc

.text%185       0x0000000000012a80       0x3c
 .text          0x0000000000012a80       0x3c c:/program files/microchip/xc32/v4.60/bin/bin/../../lib/gcc/pic32c/8.3.1/thumb/v6-m/nofp\libgcc.a(_clzsi2.o)
                0x0000000000012a80                __clzsi2

.text.__pic32c_data_initialization%186
                0x0000000000012abc       0x38
 .text.__pic32c_data_initialization
                0x0000000000012abc       0x38 c:/program files/microchip/xc32/v4.60/bin/bin/../../lib/gcc/pic32c/8.3.1/../../../../pic32c/lib/thumb/v6-m/nofp\libpic32c.a(data_init.o)
                0x0000000000012abc                __pic32c_data_initialization

.text.__putc_unbuffered%187
                0x0000000000012af4       0x36
 .text.__putc_unbuffered
                0x0000000000012af4       0x36 c:/program files/microchip/xc32/v4.60/bin/bin/../../lib/gcc/pic32c/8.3.1/../../../../pic32c/lib/thumb/v6-m/nofp\libc-musl.a(putc.o)
                0x0000000000012af4                __putc_unbuffered

.text%188       0x0000000000012b2c       0x34
 .text          0x0000000000012b2c       0x34 build/SAMD21_IOT_WG_ICM42688/production/_ext/596309756/dsp_l1_distance.o
                0x0000000000012b2c                l1_distance

.text.__aeabi_d2iz%189
                0x0000000000012b60       0x34
 .text.__aeabi_d2iz
                0x0000000000012b60       0x34 c:/program files/microchip/xc32/v4.60/bin/bin/../../lib/gcc/pic32c/8.3.1/../../../../pic32c/lib/thumb/v6-m/nofp\libm-fast-emfloat.a(__aeabi_d2iz.o)
                0x0000000000012b60                __aeabi_d2iz

.text.__fmt_state%190
                0x0000000000012b94       0x34
 .text.__fmt_state
                0x0000000000012b94       0x34 c:/program files/microchip/xc32/v4.60/bin/bin/../../lib/gcc/pic32c/8.3.1/../../../../pic32c/lib/thumb/v6-m/nofp\libc-musl.a(__printf_core.o)
                0x0000000000012b94                __fmt_state

.text.__gmtime_r%191
                0x0000000000012bc8       0x34
 .text.__gmtime_r
                0x0000000000012bc8       0x34 c:/program files/microchip/xc32/v4.60/bin/bin/../../lib/gcc/pic32c/8.3.1/../../../../pic32c/lib/thumb/v6-m/nofp\libc-musl.a(gmtime_r.o)
                0x0000000000012bc8                __gmtime_r
                0x0000000000012bc8                gmtime_r

.text%192       0x0000000000012bfc       0x34
 .text          0x0000000000012bfc       0x34 c:/program files/microchip/xc32/v4.60/bin/bin/../../lib/gcc/pic32c/8.3.1/thumb/v6-m/nofp\libgcc.a(bpabi.o)
                0x0000000000012bfc                __gnu_ldivmod_helper

.text._sbrk_init%193
                0x0000000000012c30       0x34
 .text._sbrk_init
                0x0000000000012c30       0x34 c:/program files/microchip/xc32/v4.60/bin/bin/../../lib/gcc/pic32c/8.3.1/../../../../pic32c/lib/thumb/v6-m/nofp\libpic32c.a(sbrk.o)

.text.__aeabi_fcmpge%194
                0x0000000000012c64       0x32
 .text.__aeabi_fcmpge
                0x0000000000012c64       0x32 c:/program files/microchip/xc32/v4.60/bin/bin/../../lib/gcc/pic32c/8.3.1/../../../../pic32c/lib/thumb/v6-m/nofp\libm-fast-emfloat.a(__aeabi_fcmpge.o)
                0x0000000000012c64                __aeabi_fcmpge

.text%195       0x0000000000012c98       0x30
 .text          0x0000000000012c98       0x30 build/SAMD21_IOT_WG_ICM42688/production/_ext/90265895/nm_common.o
                0x0000000000012c98                nm_sleep
                0x0000000000012ca0                nm_reset

.text.__aeabi_ul2f%196
                0x0000000000012cc8       0x30
 .text.__aeabi_ul2f
                0x0000000000012cc8       0x30 c:/program files/microchip/xc32/v4.60/bin/bin/../../lib/gcc/pic32c/8.3.1/../../../../pic32c/lib/thumb/v6-m/nofp\libm-fast-emfloat.a(__aeabi_ul2f.o)
                0x0000000000012cc8                __aeabi_ul2f

.rodata%197     0x0000000000012cf8       0x30
 .rodata        0x0000000000012cf8       0x30 c:/program files/microchip/xc32/v4.60/bin/bin/../../lib/gcc/pic32c/8.3.1/../../../../pic32c/lib/thumb/v6-m/nofp\libc-musl.a(__month_to_secs.o)

.text.__aeabi_dcmpeq%198
                0x0000000000012d28       0x2e
 .text.__aeabi_dcmpeq
                0x0000000000012d28       0x2e c:/program files/microchip/xc32/v4.60/bin/bin/../../lib/gcc/pic32c/8.3.1/../../../../pic32c/lib/thumb/v6-m/nofp\libm-fast-emfloat.a(__aeabi_dcmpeq.o)
                0x0000000000012d28                __aeabi_dcmpeq

.text.__aeabi_fcmpgt%199
                0x0000000000012d56       0x2e
 .text.__aeabi_fcmpgt
                0x0000000000012d56       0x2e c:/program files/microchip/xc32/v4.60/bin/bin/../../lib/gcc/pic32c/8.3.1/../../../../pic32c/lib/thumb/v6-m/nofp\libm-fast-emfloat.a(__aeabi_fcmpgt.o)
                0x0000000000012d56                __aeabi_fcmpgt

.text.__aeabi_fcmplt%200
                0x0000000000012d84       0x2e
 .text.__aeabi_fcmplt
                0x0000000000012d84       0x2e c:/program files/microchip/xc32/v4.60/bin/bin/../../lib/gcc/pic32c/8.3.1/../../../../pic32c/lib/thumb/v6-m/nofp\libm-fast-emfloat.a(__aeabi_fcmplt.o)
                0x0000000000012d84                __aeabi_fcmplt

.text.__aeabi_d2uiz%201
                0x0000000000012db2       0x2e
 .text.__aeabi_d2uiz
                0x0000000000012db2       0x2e c:/program files/microchip/xc32/v4.60/bin/bin/../../lib/gcc/pic32c/8.3.1/../../../../pic32c/lib/thumb/v6-m/nofp\libm-fast-emfloat.a(__aeabi_d2uiz.o)
                0x0000000000012db2                __aeabi_d2uiz
                0x0000000000012db6                .L__aeabi_d2uiz_fast_entry

.text.fwrite%202
                0x0000000000012de0       0x2e
 .text.fwrite   0x0000000000012de0       0x2e c:/program files/microchip/xc32/v4.60/bin/bin/../../lib/gcc/pic32c/8.3.1/../../../../pic32c/lib/thumb/v6-m/nofp\libc-musl.a(fwrite.o)
                0x0000000000012de0                fwrite
                0x0000000000012de0                fwrite_unlocked

.text.__pop_float%203
                0x0000000000012e0e       0x2a
 .text.__pop_float
                0x0000000000012e0e       0x2a c:/program files/microchip/xc32/v4.60/bin/bin/../../lib/gcc/pic32c/8.3.1/../../../../pic32c/lib/thumb/v6-m/nofp\libc-musl.a(__pop_float.o)
                0x0000000000012e0e                __pop_float_needed
                0x0000000000012e0e                __pop_float

.text.__towrite_rw%204
                0x0000000000012e38       0x2a
 .text.__towrite_rw
                0x0000000000012e38       0x2a c:/program files/microchip/xc32/v4.60/bin/bin/../../lib/gcc/pic32c/8.3.1/../../../../pic32c/lib/thumb/v6-m/nofp\libc-musl.a(__towrite_rw.o)
                0x0000000000012e38                __towrite_rw
                0x0000000000012e38                __towrite_rw_needed

.text%205       0x0000000000012e64       0x28
 .text          0x0000000000012e64       0x28 build/SAMD21_IOT_WG_ICM42688/production/_ext/1164161090/wdrv_winc_eint.o
                0x0000000000012e64                WDRV_WINC_INTInitialize
                0x0000000000012e80                WDRV_WINC_INTDeinitialize

.rodata%206     0x0000000000012e8c       0x28
 .rodata        0x0000000000012e8c       0x28 build/SAMD21_IOT_WG_ICM42688/production/_ext/907429946/wdrv_winc_authctx.o

.text.puts%207  0x0000000000012eb4       0x28
 .text.puts     0x0000000000012eb4       0x28 c:/program files/microchip/xc32/v4.60/bin/bin/../../lib/gcc/pic32c/8.3.1/../../../../pic32c/lib/thumb/v6-m/nofp\libc-musl.a(puts.o)
                0x0000000000012eb4                puts

.text.__readv%208
                0x0000000000012edc       0x28
 .text.__readv  0x0000000000012edc       0x28 c:/program files/microchip/xc32/v4.60/bin/bin/../../lib/gcc/pic32c/8.3.1/../../../../pic32c/lib/thumb/v6-m/nofp\libc-musl.a(readv.o)
                0x0000000000012edc                readv

.text.__writev%209
                0x0000000000012f04       0x28
 .text.__writev
                0x0000000000012f04       0x28 c:/program files/microchip/xc32/v4.60/bin/bin/../../lib/gcc/pic32c/8.3.1/../../../../pic32c/lib/thumb/v6-m/nofp\libc-musl.a(writev.o)
                0x0000000000012f04                writev

.text.__aeabi_i2f%210
                0x0000000000012f2c       0x26
 .text.__aeabi_i2f
                0x0000000000012f2c       0x26 c:/program files/microchip/xc32/v4.60/bin/bin/../../lib/gcc/pic32c/8.3.1/../../../../pic32c/lib/thumb/v6-m/nofp\libm-fast-emfloat.a(__aeabi_i2f.o)
                0x0000000000012f2c                __aeabi_i2f

.text%211       0x0000000000012f54       0x24
 .text          0x0000000000012f54       0x24 build/SAMD21_IOT_WG_ICM42688/production/_ext/1784303044/wdrv_winc_osal.o
                0x0000000000012f54                WDRV_MSDelay

.text%212       0x0000000000012f78       0x24
 .text          0x0000000000012f78       0x24 build/SAMD21_IOT_WG_ICM42688/production/_ext/596309756/sg_windowing.o
                0x0000000000012f78                sg_windowing
                0x0000000000012f8c                sg_windowing_init

.text.__aeabi_f2uiz%213
                0x0000000000012f9c       0x24
 .text.__aeabi_f2uiz
                0x0000000000012f9c       0x24 c:/program files/microchip/xc32/v4.60/bin/bin/../../lib/gcc/pic32c/8.3.1/../../../../pic32c/lib/thumb/v6-m/nofp\libm-fast-emfloat.a(__aeabi_f2uiz.o)
                0x0000000000012f9c                __aeabi_f2uiz

.text.fputs%214
                0x0000000000012fc0       0x22
 .text.fputs    0x0000000000012fc0       0x22 c:/program files/microchip/xc32/v4.60/bin/bin/../../lib/gcc/pic32c/8.3.1/../../../../pic32c/lib/thumb/v6-m/nofp\libc-musl.a(fputs.o)
                0x0000000000012fc0                fputs
                0x0000000000012fc0                fputs_unlocked

.rodata%215     0x0000000000012fe4       0x20
 .rodata        0x0000000000012fe4       0x20 build/SAMD21_IOT_WG_ICM42688/production/_ext/121554788/m2m_hif.o

.text%216       0x0000000000013004       0x20
 .text          0x0000000000013004       0x20 build/SAMD21_IOT_WG_ICM42688/production/_ext/596309756/utils_tr_sensor.o
                0x0000000000013004                tr_sensor_sensors

.rodata%217     0x0000000000013024       0x20
 .rodata        0x0000000000013024       0x20 build/SAMD21_IOT_WG_ICM42688/production/_ext/1360937237/main.o

.text.memchr%218
                0x0000000000013044       0x20
 .text.memchr   0x0000000000013044       0x20 c:/program files/microchip/xc32/v4.60/bin/bin/../../lib/gcc/pic32c/8.3.1/../../../../pic32c/lib/thumb/v6-m/nofp\libc-size-musl.a(memchr.o)
                0x0000000000013044                memchr

.text.__aeabi_l2f%219
                0x0000000000013064       0x20
 .text.__aeabi_l2f
                0x0000000000013064       0x20 c:/program files/microchip/xc32/v4.60/bin/bin/../../lib/gcc/pic32c/8.3.1/../../../../pic32c/lib/thumb/v6-m/nofp\libm-fast-emfloat.a(__aeabi_l2f.o)
                0x0000000000013064                __aeabi_l2f

.text.__wrap_printf%220
                0x0000000000013084       0x20
 .text.__wrap_printf
                0x0000000000013084       0x20 c:/program files/microchip/xc32/v4.60/bin/bin/../../lib/gcc/pic32c/8.3.1/../../../../pic32c/lib/thumb/v6-m/nofp\libc-musl.a(__sio_printf_cdeEfFgGnpsuxX.o)
                0x0000000000013084                _dprintf_cdeEfFgGnpsuxX
                0x0000000000013084                _printf_cdeEfFgGnpsuxX

.text.__month_to_secs%221
                0x00000000000130a4       0x20
 .text.__month_to_secs
                0x00000000000130a4       0x20 c:/program files/microchip/xc32/v4.60/bin/bin/../../lib/gcc/pic32c/8.3.1/../../../../pic32c/lib/thumb/v6-m/nofp\libc-musl.a(__month_to_secs.o)
                0x00000000000130a4                __month_to_secs

.text._get_heap_left_space%222
                0x00000000000130c4       0x20
 .text._get_heap_left_space
                0x00000000000130c4       0x20 c:/program files/microchip/xc32/v4.60/bin/bin/../../lib/gcc/pic32c/8.3.1/../../../../pic32c/lib/thumb/v6-m/nofp\libpic32c.a(sbrk.o)
                0x00000000000130c4                _get_heap_left_space

.text.__aeabi_fcmpeq%223
                0x00000000000130e4       0x1e
 .text.__aeabi_fcmpeq
                0x00000000000130e4       0x1e c:/program files/microchip/xc32/v4.60/bin/bin/../../lib/gcc/pic32c/8.3.1/../../../../pic32c/lib/thumb/v6-m/nofp\libm-fast-emfloat.a(__aeabi_fcmpeq.o)
                0x00000000000130e4                __aeabi_fcmpeq

.text.__aeabi_ui2f%224
                0x0000000000013102       0x1e
 .text.__aeabi_ui2f
                0x0000000000013102       0x1e c:/program files/microchip/xc32/v4.60/bin/bin/../../lib/gcc/pic32c/8.3.1/../../../../pic32c/lib/thumb/v6-m/nofp\libm-fast-emfloat.a(__aeabi_ui2f.o)
                0x0000000000013102                __aeabi_ui2f

.text.__dinit_copy%225
                0x0000000000013120       0x1e
 .text.__dinit_copy
                0x0000000000013120       0x1e c:/program files/microchip/xc32/v4.60/bin/bin/../../lib/gcc/pic32c/8.3.1/../../../../pic32c/lib/thumb/v6-m/nofp\libpic32c.a(pic32_data_init_copy.o)
                0x0000000000013120                __dinit_copy_needed
                0x0000000000013120                __dinit_copy

.text.__simple_calloc%226
                0x000000000001313e       0x1c
 .text.__simple_calloc
                0x000000000001313e       0x1c c:/program files/microchip/xc32/v4.60/bin/bin/../../lib/gcc/pic32c/8.3.1/../../../../pic32c/lib/thumb/v6-m/nofp\liblmalloc-musl.a(lite_calloc.o)
                0x000000000001313e                calloc
                0x000000000001313e                __simple_calloc
                0x000000000001313e                __calloc0

.text.__init_search_fl%227
                0x000000000001315c       0x1c
 .text.__init_search_fl
                0x000000000001315c       0x1c c:/program files/microchip/xc32/v4.60/bin/bin/../../lib/gcc/pic32c/8.3.1/../../../../pic32c/lib/thumb/v6-m/nofp\liblmalloc-musl.a(lite_free.o)
                0x000000000001315c                __init_search_fl

.text.__aeabi_i2d%228
                0x0000000000013178       0x1c
 .text.__aeabi_i2d
                0x0000000000013178       0x1c c:/program files/microchip/xc32/v4.60/bin/bin/../../lib/gcc/pic32c/8.3.1/../../../../pic32c/lib/thumb/v6-m/nofp\libm-fast-emfloat.a(__aeabi_i2d.o)
                0x0000000000013178                __aeabi_i2d

.text.__aeabi_ui2d%229
                0x0000000000013194       0x1c
 .text.__aeabi_ui2d
                0x0000000000013194       0x1c c:/program files/microchip/xc32/v4.60/bin/bin/../../lib/gcc/pic32c/8.3.1/../../../../pic32c/lib/thumb/v6-m/nofp\libm-fast-emfloat.a(__aeabi_ui2d.o)
                0x0000000000013194                __aeabi_ui2d

.text.__towrite%230
                0x00000000000131b0       0x1a
 .text.__towrite
                0x00000000000131b0       0x1a c:/program files/microchip/xc32/v4.60/bin/bin/../../lib/gcc/pic32c/8.3.1/../../../../pic32c/lib/thumb/v6-m/nofp\libc-musl.a(__towrite.o)
                0x00000000000131b0                __towrite

.text.strlen%231
                0x00000000000131cc       0x18
 .text.strlen   0x00000000000131cc       0x18 c:/program files/microchip/xc32/v4.60/bin/bin/../../lib/gcc/pic32c/8.3.1/../../../../pic32c/lib/thumb/v6-m/nofp\libc-size-musl.a(strlen.o)
                0x00000000000131cc                strlen

.text.strnlen%232
                0x00000000000131e4       0x18
 .text.strnlen  0x00000000000131e4       0x18 c:/program files/microchip/xc32/v4.60/bin/bin/../../lib/gcc/pic32c/8.3.1/../../../../pic32c/lib/thumb/v6-m/nofp\libc-size-musl.a(strnlen.o)
                0x00000000000131e4                strnlen

.text.__vfprintf%233
                0x00000000000131fc       0x18
 .text.__vfprintf
                0x00000000000131fc       0x18 c:/program files/microchip/xc32/v4.60/bin/bin/../../lib/gcc/pic32c/8.3.1/../../../../pic32c/lib/thumb/v6-m/nofp\libc-musl.a(__int_vfprintf.o)
                0x00000000000131fc                __vfprintf

.text%234       0x0000000000013214       0x18
 .text          0x0000000000013214       0x18 c:/program files/microchip/xc32/v4.60/bin/bin/../../lib/gcc/pic32c/8.3.1/thumb/v6-m/nofp\libgcc.a(_lshrdi3.o)
                0x0000000000013214                __lshrdi3
                0x0000000000013214                __aeabi_llsr

.text%235       0x000000000001322c       0x18
 .text          0x000000000001322c       0x18 c:/program files/microchip/xc32/v4.60/bin/bin/../../lib/gcc/pic32c/8.3.1/thumb/v6-m/nofp\libgcc.a(_ashldi3.o)
                0x000000000001322c                __aeabi_llsl
                0x000000000001322c                __ashldi3

.text%236       0x0000000000013244       0x18
 .text          0x0000000000013244       0x18 c:/program files/microchip/xc32/v4.60/bin/bin/../../lib/gcc/pic32c/8.3.1/thumb/v6-m/nofp\libgcc.a(_clzdi2.o)
                0x0000000000013244                __clzdi2

.text.__expand_heap%237
                0x000000000001325c       0x16
 .text.__expand_heap
                0x000000000001325c       0x16 c:/program files/microchip/xc32/v4.60/bin/bin/../../lib/gcc/pic32c/8.3.1/../../../../pic32c/lib/thumb/v6-m/nofp\libc-musl.a(expand_heap.o)
                0x000000000001325c                __expand_heap

.text.__wrap_sprintf%238
                0x0000000000013272       0x16
 .text.__wrap_sprintf
                0x0000000000013272       0x16 c:/program files/microchip/xc32/v4.60/bin/bin/../../lib/gcc/pic32c/8.3.1/../../../../pic32c/lib/thumb/v6-m/nofp\libc-musl.a(__sio_sprintf_cdeEfFgGnpsuxX.o)
                0x0000000000013272                _dsprintf_cdeEfFgGnpsuxX
                0x0000000000013272                _sprintf_cdeEfFgGnpsuxX

.rodata%239     0x0000000000013288       0x16
 .rodata        0x0000000000013288       0x16 c:/program files/microchip/xc32/v4.60/bin/bin/../../lib/gcc/pic32c/8.3.1/../../../../pic32c/lib/thumb/v6-m/nofp\libc-musl.a(__printf_core.o)

.rodata%240     0x00000000000132a0       0x14
 .rodata        0x00000000000132a0       0x14 c:/program files/microchip/xc32/v4.60/bin/bin/../../lib/gcc/pic32c/8.3.1/../../../../pic32c/lib/thumb/v6-m/nofp\libpic32c.a(data_init.o)

.text.memcpy%241
                0x00000000000132b4       0x14
 .text.memcpy   0x00000000000132b4       0x14 c:/program files/microchip/xc32/v4.60/bin/bin/../../lib/gcc/pic32c/8.3.1/../../../../pic32c/lib/thumb/v6-m/nofp\libc-size-musl.a(memcpy.o)
                0x00000000000132b4                memcpy

.text.memset%242
                0x00000000000132c8       0x14
 .text.memset   0x00000000000132c8       0x14 c:/program files/microchip/xc32/v4.60/bin/bin/../../lib/gcc/pic32c/8.3.1/../../../../pic32c/lib/thumb/v6-m/nofp\libc-size-musl.a(memset.o)
                0x00000000000132c8                memset

.text.strchr%243
                0x00000000000132dc       0x14
 .text.strchr   0x00000000000132dc       0x14 c:/program files/microchip/xc32/v4.60/bin/bin/../../lib/gcc/pic32c/8.3.1/../../../../pic32c/lib/thumb/v6-m/nofp\libc-size-musl.a(strchr.o)
                0x00000000000132dc                strchr

.text.__init_stdout%244
                0x00000000000132f0       0x14
 .text.__init_stdout
                0x00000000000132f0       0x14 c:/program files/microchip/xc32/v4.60/bin/bin/../../lib/gcc/pic32c/8.3.1/../../../../pic32c/lib/thumb/v6-m/nofp\libc-musl.a(stdout.o)
                0x00000000000132f0                __init_stdout

.text.putchar%245
                0x0000000000013304       0x14
 .text.putchar  0x0000000000013304       0x14 c:/program files/microchip/xc32/v4.60/bin/bin/../../lib/gcc/pic32c/8.3.1/../../../../pic32c/lib/thumb/v6-m/nofp\libc-musl.a(putchar.o)
                0x0000000000013304                putchar

.text.__vsprintf%246
                0x0000000000013318       0x14
 .text.__vsprintf
                0x0000000000013318       0x14 c:/program files/microchip/xc32/v4.60/bin/bin/../../lib/gcc/pic32c/8.3.1/../../../../pic32c/lib/thumb/v6-m/nofp\libc-musl.a(__int_vsprintf.o)
                0x0000000000013318                __vsprintf

.text.__fwrite%247
                0x000000000001332c       0x14
 .text.__fwrite
                0x000000000001332c       0x14 c:/program files/microchip/xc32/v4.60/bin/bin/../../lib/gcc/pic32c/8.3.1/../../../../pic32c/lib/thumb/v6-m/nofp\libc-musl.a(__fwrite.o)
                0x000000000001332c                __fwrite
                0x000000000001332c                __fwrite_needed

.text.stpcpy%248
                0x0000000000013340       0x14
 .text.stpcpy   0x0000000000013340       0x14 c:/program files/microchip/xc32/v4.60/bin/bin/../../lib/gcc/pic32c/8.3.1/../../../../pic32c/lib/thumb/v6-m/nofp\libc-size-musl.a(stpcpy.o)
                0x0000000000013340                __stpcpy
                0x0000000000013340                stpcpy

.text.setbuf%249
                0x0000000000013354       0x12
 .text.setbuf   0x0000000000013354       0x12 c:/program files/microchip/xc32/v4.60/bin/bin/../../lib/gcc/pic32c/8.3.1/../../../../pic32c/lib/thumb/v6-m/nofp\libc-musl.a(setbuf.o)
                0x0000000000013354                setbuf

.text.__dinit_clear%250
                0x0000000000013366       0x12
 .text.__dinit_clear
                0x0000000000013366       0x12 c:/program files/microchip/xc32/v4.60/bin/bin/../../lib/gcc/pic32c/8.3.1/../../../../pic32c/lib/thumb/v6-m/nofp\libpic32c.a(pic32_data_init_clear.o)
                0x0000000000013366                __dinit_clear
                0x0000000000013366                __dinit_clear_needed

.text%251       0x0000000000013378       0x10
 .text          0x0000000000013378       0x10 build/SAMD21_IOT_WG_ICM42688/production/_ext/596309756/dsp_dtw_distance.o
                0x0000000000013378                compute_distance_matrix
                0x000000000001337c                compute_warping_distance
                0x0000000000013380                get_distance_matrix_value
                0x0000000000013384                get_globdist

.text%252       0x0000000000013388       0x10
 .text          0x0000000000013388       0x10 build/SAMD21_IOT_WG_ICM42688/production/_ext/596309756/fg_cross_p2p_difference.o
                0x0000000000013388                fg_cross_column_p2p_difference

.text%253       0x0000000000013398       0x10
 .text          0x0000000000013398       0x10 build/SAMD21_IOT_WG_ICM42688/production/_ext/596309756/fg_stats_minimum.o
                0x0000000000013398                fg_stats_minimum

.text%254       0x00000000000133a8       0x10
 .text          0x00000000000133a8       0x10 build/SAMD21_IOT_WG_ICM42688/production/_ext/596309756/utils_buffer_abssum.o
                0x00000000000133a8                buffer_absolute_cumulative_sum

.text.__aeabi_fsub%255
                0x00000000000133b8       0x10
 .text.__aeabi_fsub
                0x00000000000133b8       0x10 c:/program files/microchip/xc32/v4.60/bin/bin/../../lib/gcc/pic32c/8.3.1/../../../../pic32c/lib/thumb/v6-m/nofp\libm-fast-emfloat.a(__aeabi_fsub.o)
                0x00000000000133b8                __aeabi_fsub

.rodata.str1.1%256
                0x00000000000133c8       0x10
 .rodata.str1.1
                0x00000000000133c8       0x10 c:/program files/microchip/xc32/v4.60/bin/bin/../../lib/gcc/pic32c/8.3.1/../../../../pic32c/lib/thumb/v6-m/nofp\libc-musl.a(__fmt_fp.o)

.text.gmtime%257
                0x00000000000133d8       0x10
 .text.gmtime   0x00000000000133d8       0x10 c:/program files/microchip/xc32/v4.60/bin/bin/../../lib/gcc/pic32c/8.3.1/../../../../pic32c/lib/thumb/v6-m/nofp\libc-musl.a(gmtime.o)
                0x00000000000133d8                gmtime

.text.__init_stdio%258
                0x00000000000133e8       0x10
 .text.__init_stdio
                0x00000000000133e8       0x10 c:/program files/microchip/xc32/v4.60/bin/bin/../../lib/gcc/pic32c/8.3.1/../../../../pic32c/lib/thumb/v6-m/nofp\libc-musl.a(__init_stdio.o)
                0x00000000000133e8                __init_stdio_needed
                0x00000000000133e8                __init_stdio

.text.fma%259   0x00000000000133f8       0x10
 .text.fma      0x00000000000133f8       0x10 c:/program files/microchip/xc32/v4.60/bin/bin/../../lib/gcc/pic32c/8.3.1/../../../../pic32c/lib/thumb/v6-m/nofp\libm-fast-emfloat.a(fma.o)
                0x00000000000133f8                fma

.text.tolower%260
                0x0000000000013408        0xe
 .text.tolower  0x0000000000013408        0xe c:/program files/microchip/xc32/v4.60/bin/bin/../../lib/gcc/pic32c/8.3.1/../../../../pic32c/lib/thumb/v6-m/nofp\libc-musl.a(tolower.o)
                0x0000000000013408                tolower

.text.toupper%261
                0x0000000000013416        0xe
 .text.toupper  0x0000000000013416        0xe c:/program files/microchip/xc32/v4.60/bin/bin/../../lib/gcc/pic32c/8.3.1/../../../../pic32c/lib/thumb/v6-m/nofp\libc-musl.a(toupper.o)
                0x0000000000013416                toupper

.text%262       0x0000000000013424        0xc
 .text          0x0000000000013424        0xc build/SAMD21_IOT_WG_ICM42688/production/_ext/596309756/utils_bitwise_abs_val.o
                0x0000000000013424                bitwise_absolute_value

.rodata%263     0x0000000000013430        0xc
 .rodata        0x0000000000013430        0xc c:/program files/microchip/xc32/v4.60/bin/bin/../../lib/gcc/pic32c/8.3.1/../../../../pic32c/lib/thumb/v6-m/nofp\libc-musl.a(__secs_to_tm.o)

.text.strcpy%264
                0x000000000001343c        0xc
 .text.strcpy   0x000000000001343c        0xc c:/program files/microchip/xc32/v4.60/bin/bin/../../lib/gcc/pic32c/8.3.1/../../../../pic32c/lib/thumb/v6-m/nofp\libc-size-musl.a(strcpy.o)
                0x000000000001343c                strcpy

.text.__fwrite_min%265
                0x0000000000013448        0xa
 .text.__fwrite_min
                0x0000000000013448        0xa c:/program files/microchip/xc32/v4.60/bin/bin/../../lib/gcc/pic32c/8.3.1/../../../../pic32c/lib/thumb/v6-m/nofp\libc-musl.a(__out.o)
                0x0000000000013448                __stdio_write_unbuffered
                0x0000000000013448                __stdio_write

.text%266       0x0000000000013454        0x8
 .text          0x0000000000013454        0x8 build/SAMD21_IOT_WG_ICM42688/production/_ext/1832905403/exceptions.o
                0x0000000000013454                NonMaskableInt_Handler
                0x0000000000013458                HardFault_Handler

.text%267       0x000000000001345c        0x8
 .text          0x000000000001345c        0x8 build/SAMD21_IOT_WG_ICM42688/production/_ext/1832905403/tasks.o
                0x000000000001345c                SYS_Tasks

.rodata.str1.4%268
                0x0000000000013464        0x8
 .rodata.str1.4
                0x0000000000013464        0x8 build/SAMD21_IOT_WG_ICM42688/production/_ext/1341251756/Icm426xxDriver_HL.o

.rodata.str1.1%269
                0x000000000001346c        0x8
 .rodata.str1.1
                0x000000000001346c        0x8 c:/program files/microchip/xc32/v4.60/bin/bin/../../lib/gcc/pic32c/8.3.1/../../../../pic32c/lib/thumb/v6-m/nofp\libc-musl.a(__printf_core.o)

.text.putc%270  0x0000000000013474        0x8
 .text.putc     0x0000000000013474        0x8 c:/program files/microchip/xc32/v4.60/bin/bin/../../lib/gcc/pic32c/8.3.1/../../../../pic32c/lib/thumb/v6-m/nofp\libc-musl.a(putc.o)
                0x0000000000013474                putc
                0x0000000000013474                fputc
                0x0000000000013474                _IO_putc
                0x0000000000013474                putc_unlocked

.text.__get_stdout%271
                0x000000000001347c        0x8
 .text.__get_stdout
                0x000000000001347c        0x8 c:/program files/microchip/xc32/v4.60/bin/bin/../../lib/gcc/pic32c/8.3.1/../../../../pic32c/lib/thumb/v6-m/nofp\libc-musl.a(__stdout.o)
                0x000000000001347c                __get_stdout
                0x000000000001347c                __init_stdout_needed

.rodata.str1.1%272
                0x0000000000013484        0x7
 .rodata.str1.1
                0x0000000000013484        0x7 c:/program files/microchip/xc32/v4.60/bin/bin/../../lib/gcc/pic32c/8.3.1/../../../../pic32c/lib/thumb/v6-m/nofp\libc-musl.a(__fmt_s.o)

.text.close%273
                0x000000000001348c        0x6
 .text.close    0x000000000001348c        0x6 c:/program files/microchip/xc32/v4.60/bin/bin/../../lib/gcc/pic32c/8.3.1/../../../../pic32c/lib/thumb/v6-m/nofp\libpic32c.a(close.o)
                0x000000000001348c                close

.text.__dummy_decompress%274
                0x0000000000013492        0x4
 .text.__dummy_decompress
                0x0000000000013492        0x4 c:/program files/microchip/xc32/v4.60/bin/bin/../../lib/gcc/pic32c/8.3.1/../../../../pic32c/lib/thumb/v6-m/nofp\libpic32c.a(data_init.o)
                0x0000000000013492                __dinit_decompress
                0x0000000000013492                __dinit_copy_val_data
                0x0000000000013492                __dinit_copy_emb

.text.__dummy_fmt3%275
                0x0000000000013496        0x4
 .text.__dummy_fmt3
                0x0000000000013496        0x4 c:/program files/microchip/xc32/v4.60/bin/bin/../../lib/gcc/pic32c/8.3.1/../../../../pic32c/lib/thumb/v6-m/nofp\libc-musl.a(__printf_core.o)
                0x0000000000013496                __fmt_o

.text.__dummy_fmt4%276
                0x000000000001349a        0x4
 .text.__dummy_fmt4
                0x000000000001349a        0x4 c:/program files/microchip/xc32/v4.60/bin/bin/../../lib/gcc/pic32c/8.3.1/../../../../pic32c/lib/thumb/v6-m/nofp\libc-musl.a(__printf_core.o)
                0x000000000001349a                __fmt_a

.text.__dummy%277
                0x000000000001349e        0x4
 .text.__dummy  0x000000000001349e        0x4 c:/program files/microchip/xc32/v4.60/bin/bin/../../lib/gcc/pic32c/8.3.1/../../../../pic32c/lib/thumb/v6-m/nofp\libc-musl.a(stdin.o)
                0x000000000001349e                __stdio_seek_rw

.rodata.str1.1%278
                0x00000000000134a2        0x4
 .rodata.str1.1
                0x00000000000134a2        0x4 c:/program files/microchip/xc32/v4.60/bin/bin/../../lib/gcc/pic32c/8.3.1/../../../../pic32c/lib/thumb/v6-m/nofp\libc-musl.a(gmtime_r.o)

.rodata.str1.1%279
                0x00000000000134a6        0x4
 .rodata.str1.1
                0x00000000000134a6        0x4 c:/program files/microchip/xc32/v4.60/bin/bin/../../lib/gcc/pic32c/8.3.1/../../../../pic32c/lib/thumb/v6-m/nofp\libc-musl.a(mktime.o)

.text%280       0x00000000000134ac        0x4
 .text          0x00000000000134ac        0x4 c:/program files/microchip/xc32/v4.60/bin/bin/../../lib/gcc/pic32c/8.3.1/thumb/v6-m/nofp\libgcc.a(_dvmd_tls.o)
                0x00000000000134ac                __aeabi_idiv0
                0x00000000000134ac                __aeabi_ldiv0

.text.lseek%281
                0x00000000000134b0        0x4
 .text.lseek    0x00000000000134b0        0x4 c:/program files/microchip/xc32/v4.60/bin/bin/../../lib/gcc/pic32c/8.3.1/../../../../pic32c/lib/thumb/v6-m/nofp\libpic32c.a(lseek.o)
                0x00000000000134b0                lseek

.text%282       0x000000000000f27e        0x2
 .text          0x000000000000f27e        0x2 build/SAMD21_IOT_WG_ICM42688/production/_ext/1832905403/interrupts.o
                0x000000000000f27e                SVCall_Handler
                0x000000000000f27e                AC_Handler
                0x000000000000f27e                SysTick_Handler
                0x000000000000f27e                PendSV_Handler
                0x000000000000f27e                ADC_Handler
                0x000000000000f27e                TCC1_Handler
                0x000000000000f27e                TCC0_Handler
                0x000000000000f27e                RTC_Handler
                0x000000000000f27e                WDT_Handler
                0x000000000000f27e                USB_Handler
                0x000000000000f27e                Dummy_Handler
                0x000000000000f27e                PM_Handler
                0x000000000000f27e                TCC2_Handler
                0x000000000000f27e                EVSYS_Handler
                0x000000000000f27e                SERCOM3_Handler
                0x000000000000f27e                SERCOM4_Handler
                0x000000000000f27e                I2S_Handler
                0x000000000000f27e                NVMCTRL_Handler
                0x000000000000f27e                SERCOM0_Handler
                0x000000000000f27e                DAC_Handler
                0x000000000000f27e                PTC_Handler
                0x000000000000f27e                TC5_Handler
                0x000000000000f27e                SYSCTRL_Handler

.text%283       0x000000000000fc66        0x2
 .text          0x000000000000fc66        0x2 build/SAMD21_IOT_WG_ICM42688/production/_ext/1832905403/startup_xc32.o
                0x000000000000fc66                _on_reset
                0x000000000000fc66                _on_bootstrap
                0x000000000000fc66                __xc32_on_reset
                0x000000000000fc66                Dummy_App_Func
                0x000000000000fc66                __xc32_on_bootstrap

.text.__dummy_init_tls%284
                0x000000000000fece        0x2
 .text.__dummy_init_tls
                0x000000000000fece        0x2 c:/program files/microchip/xc32/v4.60/bin/bin/../../lib/gcc/pic32c/8.3.1/../../../../pic32c/lib/thumb/v6-m/nofp\libpic32c.a(data_init.o)
                0x000000000000fece                xc32_init_tls

.text.__dummy%285
                0x0000000000010962        0x2
 .text.__dummy  0x0000000000010962        0x2 c:/program files/microchip/xc32/v4.60/bin/bin/../../lib/gcc/pic32c/8.3.1/../../../../pic32c/lib/thumb/v6-m/nofp\libc-musl.a(__libc_start_main.o)
                0x0000000000010962                __init_host

.text.__dummy%286
                0x000000000001127e        0x2
 .text.__dummy  0x000000000001127e        0x2 c:/program files/microchip/xc32/v4.60/bin/bin/../../lib/gcc/pic32c/8.3.1/../../../../pic32c/lib/thumb/v6-m/nofp\libc-musl.a(__init_stdio.o)
                0x000000000001127e                __init_stdin
                0x000000000001127e                __init_stderr

.text.__dummy%287
                0x000000000001197e        0x2
 .text.__dummy  0x000000000001197e        0x2 c:/program files/microchip/xc32/v4.60/bin/bin/../../lib/gcc/pic32c/8.3.1/../../../../pic32c/lib/thumb/v6-m/nofp\libc-musl.a(__stderr.o)
                0x000000000001197e                __stdio_seek

.rodata%288     0x000000000001348b        0x1
 .rodata        0x000000000001348b        0x1 build/SAMD21_IOT_WG_ICM42688/production/_ext/907429946/wdrv_winc_socket.o
