Archive member included to satisfy reference by file (symbol)

c:/program files/microchip/xc32/v4.60/bin/bin/../../lib/gcc/pic32c/8.3.1/../../../../pic32c/lib/thumb/v6-m/nofp\libpic32c.a(data_init.o)
                              build/SAMD21_IOT_WG_ICM42688/production/_ext/1832905403/startup_xc32.o (__pic32c_data_initialization)
c:/program files/microchip/xc32/v4.60/bin/bin/../../lib/gcc/pic32c/8.3.1/../../../../pic32c/lib/thumb/v6-m/nofp\libc-size-musl.a(memcpy.o)
                              build/SAMD21_IOT_WG_ICM42688/production/_ext/101005277/wdrv_winc_spi.o (memcpy)
c:/program files/microchip/xc32/v4.60/bin/bin/../../lib/gcc/pic32c/8.3.1/../../../../pic32c/lib/thumb/v6-m/nofp\libc-size-musl.a(memset.o)
                              build/SAMD21_IOT_WG_ICM42688/production/_ext/2048461350/icm42688_sensor.o (memset)
c:/program files/microchip/xc32/v4.60/bin/bin/../../lib/gcc/pic32c/8.3.1/../../../../pic32c/lib/thumb/v6-m/nofp\libc-size-musl.a(strlen.o)
                              build/SAMD21_IOT_WG_ICM42688/production/_ext/121554788/m2m_wifi.o (strlen)
c:/program files/microchip/xc32/v4.60/bin/bin/../../lib/gcc/pic32c/8.3.1/../../../../pic32c/lib/thumb/v6-m/nofp\libc-size-musl.a(strchr.o)
                              build/SAMD21_IOT_WG_ICM42688/production/_ext/907429946/wdrv_winc_sta.o (strchr)
c:/program files/microchip/xc32/v4.60/bin/bin/../../lib/gcc/pic32c/8.3.1/../../../../pic32c/lib/thumb/v6-m/nofp\libc-size-musl.a(strchrnul.o)
                              c:/program files/microchip/xc32/v4.60/bin/bin/../../lib/gcc/pic32c/8.3.1/../../../../pic32c/lib/thumb/v6-m/nofp\libc-size-musl.a(strchr.o) (__strchrnul)
c:/program files/microchip/xc32/v4.60/bin/bin/../../lib/gcc/pic32c/8.3.1/../../../../pic32c/lib/thumb/v6-m/nofp\libc-size-musl.a(strcmp.o)
                              build/SAMD21_IOT_WG_ICM42688/production/_ext/299863938/ssi_comms.o (strcmp)
c:/program files/microchip/xc32/v4.60/bin/bin/../../lib/gcc/pic32c/8.3.1/../../../../pic32c/lib/thumb/v6-m/nofp\libc-size-musl.a(strnlen.o)
                              build/SAMD21_IOT_WG_ICM42688/production/_ext/121554788/m2m_ota.o (strnlen)
c:/program files/microchip/xc32/v4.60/bin/bin/../../lib/gcc/pic32c/8.3.1/../../../../pic32c/lib/thumb/v6-m/nofp\libc-size-musl.a(memchr.o)
                              c:/program files/microchip/xc32/v4.60/bin/bin/../../lib/gcc/pic32c/8.3.1/../../../../pic32c/lib/thumb/v6-m/nofp\libc-size-musl.a(strnlen.o) (memchr)
c:/program files/microchip/xc32/v4.60/bin/bin/../../lib/gcc/pic32c/8.3.1/../../../../pic32c/lib/thumb/v6-m/nofp\liblmalloc-musl.a(lite_calloc.o)
                              build/SAMD21_IOT_WG_ICM42688/production/_ext/121554788/m2m_wifi.o (calloc)
c:/program files/microchip/xc32/v4.60/bin/bin/../../lib/gcc/pic32c/8.3.1/../../../../pic32c/lib/thumb/v6-m/nofp\liblmalloc-musl.a(lite_free.o)
                              build/SAMD21_IOT_WG_ICM42688/production/_ext/121554788/m2m_wifi.o (free)
c:/program files/microchip/xc32/v4.60/bin/bin/../../lib/gcc/pic32c/8.3.1/../../../../pic32c/lib/thumb/v6-m/nofp\liblmalloc-musl.a(lite_malloc.o)
                              c:/program files/microchip/xc32/v4.60/bin/bin/../../lib/gcc/pic32c/8.3.1/../../../../pic32c/lib/thumb/v6-m/nofp\liblmalloc-musl.a(lite_calloc.o) (__simple_malloc)
c:/program files/microchip/xc32/v4.60/bin/bin/../../lib/gcc/pic32c/8.3.1/../../../../pic32c/lib/thumb/v6-m/nofp\libm-fast-emfloat.a(pow.o)
                              build/SAMD21_IOT_WG_ICM42688/production/_ext/1341251756/Icm426xxSelfTest.o (pow)
c:/program files/microchip/xc32/v4.60/bin/bin/../../lib/gcc/pic32c/8.3.1/../../../../pic32c/lib/thumb/v6-m/nofp\libm-fast-emfloat.a(__aeabi_dadd.o)
                              build/SAMD21_IOT_WG_ICM42688/production/_ext/1341251756/Icm426xxSelfTest.o (__aeabi_dadd)
c:/program files/microchip/xc32/v4.60/bin/bin/../../lib/gcc/pic32c/8.3.1/../../../../pic32c/lib/thumb/v6-m/nofp\libm-fast-emfloat.a(__aeabi_dmul_aux.o)
                              build/SAMD21_IOT_WG_ICM42688/production/_ext/1341251756/Icm426xxSelfTest.o (__aeabi_dmul)
c:/program files/microchip/xc32/v4.60/bin/bin/../../lib/gcc/pic32c/8.3.1/../../../../pic32c/lib/thumb/v6-m/nofp\libm-fast-emfloat.a(__aeabi_fdiv.o)
                              build/SAMD21_IOT_WG_ICM42688/production/_ext/1341251756/Icm426xxSelfTest.o (__aeabi_fdiv)
c:/program files/microchip/xc32/v4.60/bin/bin/../../lib/gcc/pic32c/8.3.1/../../../../pic32c/lib/thumb/v6-m/nofp\libm-fast-emfloat.a(__aeabi_ddiv.o)
                              c:/program files/microchip/xc32/v4.60/bin/bin/../../lib/gcc/pic32c/8.3.1/../../../../pic32c/lib/thumb/v6-m/nofp\libm-fast-emfloat.a(pow.o) (__aeabi_ddiv)
c:/program files/microchip/xc32/v4.60/bin/bin/../../lib/gcc/pic32c/8.3.1/../../../../pic32c/lib/thumb/v6-m/nofp\libm-fast-emfloat.a(__aeabi_fcmple.o)
                              build/SAMD21_IOT_WG_ICM42688/production/_ext/1341251756/Icm426xxSelfTest.o (__aeabi_fcmple)
c:/program files/microchip/xc32/v4.60/bin/bin/../../lib/gcc/pic32c/8.3.1/../../../../pic32c/lib/thumb/v6-m/nofp\libm-fast-emfloat.a(__aeabi_dcmpeq.o)
                              c:/program files/microchip/xc32/v4.60/bin/bin/../../lib/gcc/pic32c/8.3.1/../../../../pic32c/lib/thumb/v6-m/nofp\libm-fast-emfloat.a(pow.o) (__aeabi_dcmpeq)
c:/program files/microchip/xc32/v4.60/bin/bin/../../lib/gcc/pic32c/8.3.1/../../../../pic32c/lib/thumb/v6-m/nofp\libm-fast-emfloat.a(__aeabi_fcmpge.o)
                              build/SAMD21_IOT_WG_ICM42688/production/_ext/1341251756/Icm426xxSelfTest.o (__aeabi_fcmpge)
c:/program files/microchip/xc32/v4.60/bin/bin/../../lib/gcc/pic32c/8.3.1/../../../../pic32c/lib/thumb/v6-m/nofp\libm-fast-emfloat.a(__aeabi_dcmplt.o)
                              c:/program files/microchip/xc32/v4.60/bin/bin/../../lib/gcc/pic32c/8.3.1/../../../../pic32c/lib/thumb/v6-m/nofp\libm-fast-emfloat.a(pow.o) (__aeabi_dcmplt)
c:/program files/microchip/xc32/v4.60/bin/bin/../../lib/gcc/pic32c/8.3.1/../../../../pic32c/lib/thumb/v6-m/nofp\libm-fast-emfloat.a(__aeabi_d2iz.o)
                              c:/program files/microchip/xc32/v4.60/bin/bin/../../lib/gcc/pic32c/8.3.1/../../../../pic32c/lib/thumb/v6-m/nofp\libm-fast-emfloat.a(pow.o) (__aeabi_d2iz)
c:/program files/microchip/xc32/v4.60/bin/bin/../../lib/gcc/pic32c/8.3.1/../../../../pic32c/lib/thumb/v6-m/nofp\libm-fast-emfloat.a(__aeabi_d2uiz.o)
                              c:/program files/microchip/xc32/v4.60/bin/bin/../../lib/gcc/pic32c/8.3.1/../../../../pic32c/lib/thumb/v6-m/nofp\libm-fast-emfloat.a(__aeabi_d2iz.o) (.L__aeabi_d2uiz_fast_entry)
c:/program files/microchip/xc32/v4.60/bin/bin/../../lib/gcc/pic32c/8.3.1/../../../../pic32c/lib/thumb/v6-m/nofp\libm-fast-emfloat.a(__aeabi_i2d.o)
                              build/SAMD21_IOT_WG_ICM42688/production/_ext/1341251756/Icm426xxSelfTest.o (__aeabi_i2d)
c:/program files/microchip/xc32/v4.60/bin/bin/../../lib/gcc/pic32c/8.3.1/../../../../pic32c/lib/thumb/v6-m/nofp\libm-fast-emfloat.a(__aeabi_ui2f.o)
                              build/SAMD21_IOT_WG_ICM42688/production/_ext/1341251756/Icm426xxSelfTest.o (__aeabi_ui2f)
c:/program files/microchip/xc32/v4.60/bin/bin/../../lib/gcc/pic32c/8.3.1/../../../../pic32c/lib/thumb/v6-m/nofp\libm-fast-emfloat.a(__aeabi_ui2d.o)
                              c:/program files/microchip/xc32/v4.60/bin/bin/../../lib/gcc/pic32c/8.3.1/../../../../pic32c/lib/thumb/v6-m/nofp\libm-fast-emfloat.a(__aeabi_i2d.o) (__aeabi_ui2d)
c:/program files/microchip/xc32/v4.60/bin/bin/../../lib/gcc/pic32c/8.3.1/../../../../pic32c/lib/thumb/v6-m/nofp\libm-fast-emfloat.a(log.o)
                              c:/program files/microchip/xc32/v4.60/bin/bin/../../lib/gcc/pic32c/8.3.1/../../../../pic32c/lib/thumb/v6-m/nofp\libm-fast-emfloat.a(pow.o) (log)
c:/program files/microchip/xc32/v4.60/bin/bin/../../lib/gcc/pic32c/8.3.1/../../../../pic32c/lib/thumb/v6-m/nofp\libm-fast-emfloat.a(exp.o)
                              c:/program files/microchip/xc32/v4.60/bin/bin/../../lib/gcc/pic32c/8.3.1/../../../../pic32c/lib/thumb/v6-m/nofp\libm-fast-emfloat.a(pow.o) (exp)
c:/program files/microchip/xc32/v4.60/bin/bin/../../lib/gcc/pic32c/8.3.1/../../../../pic32c/lib/thumb/v6-m/nofp\libm-fast-emfloat.a(__SEGGER_RTL_float64_Log.o)
                              c:/program files/microchip/xc32/v4.60/bin/bin/../../lib/gcc/pic32c/8.3.1/../../../../pic32c/lib/thumb/v6-m/nofp\libm-fast-emfloat.a(log.o) (__SEGGER_RTL_float64_Log)
c:/program files/microchip/xc32/v4.60/bin/bin/../../lib/gcc/pic32c/8.3.1/../../../../pic32c/lib/thumb/v6-m/nofp\libm-fast-emfloat.a(__aeabi_dsub.o)
                              c:/program files/microchip/xc32/v4.60/bin/bin/../../lib/gcc/pic32c/8.3.1/../../../../pic32c/lib/thumb/v6-m/nofp\libm-fast-emfloat.a(log.o) (__aeabi_dsub)
c:/program files/microchip/xc32/v4.60/bin/bin/../../lib/gcc/pic32c/8.3.1/../../../../pic32c/lib/thumb/v6-m/nofp\libm-fast-emfloat.a(__SEGGER_RTL_float64_PolyEvalP.o)
                              c:/program files/microchip/xc32/v4.60/bin/bin/../../lib/gcc/pic32c/8.3.1/../../../../pic32c/lib/thumb/v6-m/nofp\libm-fast-emfloat.a(log.o) (__SEGGER_RTL_float64_PolyEvalP)
c:/program files/microchip/xc32/v4.60/bin/bin/../../lib/gcc/pic32c/8.3.1/../../../../pic32c/lib/thumb/v6-m/nofp\libm-fast-emfloat.a(__SEGGER_RTL_float64_PolyEvalQ.o)
                              c:/program files/microchip/xc32/v4.60/bin/bin/../../lib/gcc/pic32c/8.3.1/../../../../pic32c/lib/thumb/v6-m/nofp\libm-fast-emfloat.a(log.o) (__SEGGER_RTL_float64_PolyEvalQ)
c:/program files/microchip/xc32/v4.60/bin/bin/../../lib/gcc/pic32c/8.3.1/../../../../pic32c/lib/thumb/v6-m/nofp\libm-fast-emfloat.a(ldexp.o)
                              c:/program files/microchip/xc32/v4.60/bin/bin/../../lib/gcc/pic32c/8.3.1/../../../../pic32c/lib/thumb/v6-m/nofp\libm-fast-emfloat.a(log.o) (ldexp)
c:/program files/microchip/xc32/v4.60/bin/bin/../../lib/gcc/pic32c/8.3.1/../../../../pic32c/lib/thumb/v6-m/nofp\libm-fast-emfloat.a(frexp.o)
                              c:/program files/microchip/xc32/v4.60/bin/bin/../../lib/gcc/pic32c/8.3.1/../../../../pic32c/lib/thumb/v6-m/nofp\libm-fast-emfloat.a(log.o) (frexp)
c:/program files/microchip/xc32/v4.60/bin/bin/../../lib/gcc/pic32c/8.3.1/../../../../pic32c/lib/thumb/v6-m/nofp\libc-musl.a(__libc_start_main.o)
                              build/SAMD21_IOT_WG_ICM42688/production/_ext/1832905403/startup_xc32.o (__libc_init_array)
c:/program files/microchip/xc32/v4.60/bin/bin/../../lib/gcc/pic32c/8.3.1/../../../../pic32c/lib/thumb/v6-m/nofp\libc-musl.a(__errno_location.o)
                              c:/program files/microchip/xc32/v4.60/bin/bin/../../lib/gcc/pic32c/8.3.1/../../../../pic32c/lib/thumb/v6-m/nofp\liblmalloc-musl.a(lite_malloc.o) (__errno_val)
c:/program files/microchip/xc32/v4.60/bin/bin/../../lib/gcc/pic32c/8.3.1/../../../../pic32c/lib/thumb/v6-m/nofp\libc-musl.a(libc.o)
                              c:/program files/microchip/xc32/v4.60/bin/bin/../../lib/gcc/pic32c/8.3.1/../../../../pic32c/lib/thumb/v6-m/nofp\libc-musl.a(__libc_start_main.o) (__progname_full)
c:/program files/microchip/xc32/v4.60/bin/bin/../../lib/gcc/pic32c/8.3.1/../../../../pic32c/lib/thumb/v6-m/nofp\libc-musl.a(expand_heap.o)
                              c:/program files/microchip/xc32/v4.60/bin/bin/../../lib/gcc/pic32c/8.3.1/../../../../pic32c/lib/thumb/v6-m/nofp\liblmalloc-musl.a(lite_malloc.o) (__expand_heap)
c:/program files/microchip/xc32/v4.60/bin/bin/../../lib/gcc/pic32c/8.3.1/../../../../pic32c/lib/thumb/v6-m/nofp\libc-musl.a(__sio_printf_cdnsu.o)
                              (_printf_cdnsu)
c:/program files/microchip/xc32/v4.60/bin/bin/../../lib/gcc/pic32c/8.3.1/../../../../pic32c/lib/thumb/v6-m/nofp\libc-musl.a(__sio_sprintf_cdnsu.o)
                              (_sprintf_cdnsu)
c:/program files/microchip/xc32/v4.60/bin/bin/../../lib/gcc/pic32c/8.3.1/../../../../pic32c/lib/thumb/v6-m/nofp\libc-musl.a(__fmt_d.o)
                              c:/program files/microchip/xc32/v4.60/bin/bin/../../lib/gcc/pic32c/8.3.1/../../../../pic32c/lib/thumb/v6-m/nofp\libc-musl.a(__sio_printf_cdnsu.o) (__fmt_d_needed)
c:/program files/microchip/xc32/v4.60/bin/bin/../../lib/gcc/pic32c/8.3.1/../../../../pic32c/lib/thumb/v6-m/nofp\libc-musl.a(__fmt_s.o)
                              c:/program files/microchip/xc32/v4.60/bin/bin/../../lib/gcc/pic32c/8.3.1/../../../../pic32c/lib/thumb/v6-m/nofp\libc-musl.a(__sio_printf_cdnsu.o) (__fmt_s_needed)
c:/program files/microchip/xc32/v4.60/bin/bin/../../lib/gcc/pic32c/8.3.1/../../../../pic32c/lib/thumb/v6-m/nofp\libc-musl.a(__fmt_u.o)
                              c:/program files/microchip/xc32/v4.60/bin/bin/../../lib/gcc/pic32c/8.3.1/../../../../pic32c/lib/thumb/v6-m/nofp\libc-musl.a(__sio_printf_cdnsu.o) (__fmt_u_needed)
c:/program files/microchip/xc32/v4.60/bin/bin/../../lib/gcc/pic32c/8.3.1/../../../../pic32c/lib/thumb/v6-m/nofp\libc-musl.a(__pop_int.o)
                              c:/program files/microchip/xc32/v4.60/bin/bin/../../lib/gcc/pic32c/8.3.1/../../../../pic32c/lib/thumb/v6-m/nofp\libc-musl.a(__sio_printf_cdnsu.o) (__pop_int_needed)
c:/program files/microchip/xc32/v4.60/bin/bin/../../lib/gcc/pic32c/8.3.1/../../../../pic32c/lib/thumb/v6-m/nofp\libc-musl.a(__pop_ptr.o)
                              c:/program files/microchip/xc32/v4.60/bin/bin/../../lib/gcc/pic32c/8.3.1/../../../../pic32c/lib/thumb/v6-m/nofp\libc-musl.a(__sio_printf_cdnsu.o) (__pop_ptr_needed)
c:/program files/microchip/xc32/v4.60/bin/bin/../../lib/gcc/pic32c/8.3.1/../../../../pic32c/lib/thumb/v6-m/nofp\libc-musl.a(__printf_core.o)
                              c:/program files/microchip/xc32/v4.60/bin/bin/../../lib/gcc/pic32c/8.3.1/../../../../pic32c/lib/thumb/v6-m/nofp\libc-musl.a(__fmt_d.o) (__pad)
c:/program files/microchip/xc32/v4.60/bin/bin/../../lib/gcc/pic32c/8.3.1/../../../../pic32c/lib/thumb/v6-m/nofp\libc-musl.a(stdin.o)
                              build/SAMD21_IOT_WG_ICM42688/production/_ext/1832905403/initialization.o (_stdin)
c:/program files/microchip/xc32/v4.60/bin/bin/../../lib/gcc/pic32c/8.3.1/../../../../pic32c/lib/thumb/v6-m/nofp\libc-musl.a(stdout.o)
                              build/SAMD21_IOT_WG_ICM42688/production/_ext/1832905403/initialization.o (_stdout)
c:/program files/microchip/xc32/v4.60/bin/bin/../../lib/gcc/pic32c/8.3.1/../../../../pic32c/lib/thumb/v6-m/nofp\libc-musl.a(puts.o)
                              build/SAMD21_IOT_WG_ICM42688/production/_ext/1360937237/main.o (puts)
c:/program files/microchip/xc32/v4.60/bin/bin/../../lib/gcc/pic32c/8.3.1/../../../../pic32c/lib/thumb/v6-m/nofp\libc-musl.a(setbuf.o)
                              build/SAMD21_IOT_WG_ICM42688/production/_ext/1832905403/initialization.o (setbuf)
c:/program files/microchip/xc32/v4.60/bin/bin/../../lib/gcc/pic32c/8.3.1/../../../../pic32c/lib/thumb/v6-m/nofp\libc-musl.a(atoi.o)
                              c:/program files/microchip/xc32/v4.60/bin/bin/../../lib/gcc/pic32c/8.3.1/../../../../pic32c/lib/thumb/v6-m/nofp\libc-musl.a(__printf_core.o) (atoi)
c:/program files/microchip/xc32/v4.60/bin/bin/../../lib/gcc/pic32c/8.3.1/../../../../pic32c/lib/thumb/v6-m/nofp\libc-musl.a(gmtime.o)
                              build/SAMD21_IOT_WG_ICM42688/production/_ext/907429946/wdrv_winc_systime.o (gmtime)
c:/program files/microchip/xc32/v4.60/bin/bin/../../lib/gcc/pic32c/8.3.1/../../../../pic32c/lib/thumb/v6-m/nofp\libc-musl.a(gmtime_r.o)
                              c:/program files/microchip/xc32/v4.60/bin/bin/../../lib/gcc/pic32c/8.3.1/../../../../pic32c/lib/thumb/v6-m/nofp\libc-musl.a(gmtime.o) (__gmtime_r)
c:/program files/microchip/xc32/v4.60/bin/bin/../../lib/gcc/pic32c/8.3.1/../../../../pic32c/lib/thumb/v6-m/nofp\libc-musl.a(mktime.o)
                              build/SAMD21_IOT_WG_ICM42688/production/_ext/907429946/wdrv_winc_systime.o (mktime)
c:/program files/microchip/xc32/v4.60/bin/bin/../../lib/gcc/pic32c/8.3.1/../../../../pic32c/lib/thumb/v6-m/nofp\libc-musl.a(tolower.o)
                              c:/program files/microchip/xc32/v4.60/bin/bin/../../lib/gcc/pic32c/8.3.1/../../../../pic32c/lib/thumb/v6-m/nofp\libc-musl.a(__printf_core.o) (tolower)
c:/program files/microchip/xc32/v4.60/bin/bin/../../lib/gcc/pic32c/8.3.1/../../../../pic32c/lib/thumb/v6-m/nofp\libc-musl.a(__environ.o)
                              c:/program files/microchip/xc32/v4.60/bin/bin/../../lib/gcc/pic32c/8.3.1/../../../../pic32c/lib/thumb/v6-m/nofp\libc-musl.a(__libc_start_main.o) (__environ)
c:/program files/microchip/xc32/v4.60/bin/bin/../../lib/gcc/pic32c/8.3.1/../../../../pic32c/lib/thumb/v6-m/nofp\libc-musl.a(__int_vfprintf.o)
                              c:/program files/microchip/xc32/v4.60/bin/bin/../../lib/gcc/pic32c/8.3.1/../../../../pic32c/lib/thumb/v6-m/nofp\libc-musl.a(__sio_printf_cdnsu.o) (__vfprintf)
c:/program files/microchip/xc32/v4.60/bin/bin/../../lib/gcc/pic32c/8.3.1/../../../../pic32c/lib/thumb/v6-m/nofp\libc-musl.a(__int_vsprintf.o)
                              c:/program files/microchip/xc32/v4.60/bin/bin/../../lib/gcc/pic32c/8.3.1/../../../../pic32c/lib/thumb/v6-m/nofp\libc-musl.a(__sio_sprintf_cdnsu.o) (__vsprintf)
c:/program files/microchip/xc32/v4.60/bin/bin/../../lib/gcc/pic32c/8.3.1/../../../../pic32c/lib/thumb/v6-m/nofp\libc-musl.a(fputs.o)
                              c:/program files/microchip/xc32/v4.60/bin/bin/../../lib/gcc/pic32c/8.3.1/../../../../pic32c/lib/thumb/v6-m/nofp\libc-musl.a(puts.o) (fputs)
c:/program files/microchip/xc32/v4.60/bin/bin/../../lib/gcc/pic32c/8.3.1/../../../../pic32c/lib/thumb/v6-m/nofp\libc-musl.a(__cvt_u.o)
                              c:/program files/microchip/xc32/v4.60/bin/bin/../../lib/gcc/pic32c/8.3.1/../../../../pic32c/lib/thumb/v6-m/nofp\libc-musl.a(__fmt_d.o) (__cvt_u)
c:/program files/microchip/xc32/v4.60/bin/bin/../../lib/gcc/pic32c/8.3.1/../../../../pic32c/lib/thumb/v6-m/nofp\libc-musl.a(__io_init_needed.o)
                              c:/program files/microchip/xc32/v4.60/bin/bin/../../lib/gcc/pic32c/8.3.1/../../../../pic32c/lib/thumb/v6-m/nofp\libc-musl.a(stdout.o) (__io_init_needed)
c:/program files/microchip/xc32/v4.60/bin/bin/../../lib/gcc/pic32c/8.3.1/../../../../pic32c/lib/thumb/v6-m/nofp\libc-musl.a(__io_rw_needed.o)
                              c:/program files/microchip/xc32/v4.60/bin/bin/../../lib/gcc/pic32c/8.3.1/../../../../pic32c/lib/thumb/v6-m/nofp\libc-musl.a(stdin.o) (__io_rw_needed)
c:/program files/microchip/xc32/v4.60/bin/bin/../../lib/gcc/pic32c/8.3.1/../../../../pic32c/lib/thumb/v6-m/nofp\libc-musl.a(__pop_float.o)
                              c:/program files/microchip/xc32/v4.60/bin/bin/../../lib/gcc/pic32c/8.3.1/../../../../pic32c/lib/thumb/v6-m/nofp\libc-musl.a(__printf_core.o) (__pop_float)
c:/program files/microchip/xc32/v4.60/bin/bin/../../lib/gcc/pic32c/8.3.1/../../../../pic32c/lib/thumb/v6-m/nofp\libc-musl.a(__stdio_read.o)
                              c:/program files/microchip/xc32/v4.60/bin/bin/../../lib/gcc/pic32c/8.3.1/../../../../pic32c/lib/thumb/v6-m/nofp\libc-musl.a(stdin.o) (__stdio_read)
c:/program files/microchip/xc32/v4.60/bin/bin/../../lib/gcc/pic32c/8.3.1/../../../../pic32c/lib/thumb/v6-m/nofp\libc-musl.a(__towrite_rw.o)
                              c:/program files/microchip/xc32/v4.60/bin/bin/../../lib/gcc/pic32c/8.3.1/../../../../pic32c/lib/thumb/v6-m/nofp\libc-musl.a(__io_rw_needed.o) (__towrite_rw_needed)
c:/program files/microchip/xc32/v4.60/bin/bin/../../lib/gcc/pic32c/8.3.1/../../../../pic32c/lib/thumb/v6-m/nofp\libc-musl.a(fwrite.o)
                              c:/program files/microchip/xc32/v4.60/bin/bin/../../lib/gcc/pic32c/8.3.1/../../../../pic32c/lib/thumb/v6-m/nofp\libc-musl.a(fputs.o) (fwrite)
c:/program files/microchip/xc32/v4.60/bin/bin/../../lib/gcc/pic32c/8.3.1/../../../../pic32c/lib/thumb/v6-m/nofp\libc-musl.a(putc.o)
                              c:/program files/microchip/xc32/v4.60/bin/bin/../../lib/gcc/pic32c/8.3.1/../../../../pic32c/lib/thumb/v6-m/nofp\libc-musl.a(puts.o) (putc_unlocked)
c:/program files/microchip/xc32/v4.60/bin/bin/../../lib/gcc/pic32c/8.3.1/../../../../pic32c/lib/thumb/v6-m/nofp\libc-musl.a(setvbuf.o)
                              c:/program files/microchip/xc32/v4.60/bin/bin/../../lib/gcc/pic32c/8.3.1/../../../../pic32c/lib/thumb/v6-m/nofp\libc-musl.a(setbuf.o) (setvbuf)
c:/program files/microchip/xc32/v4.60/bin/bin/../../lib/gcc/pic32c/8.3.1/../../../../pic32c/lib/thumb/v6-m/nofp\libc-musl.a(__tm_to_secs.o)
                              c:/program files/microchip/xc32/v4.60/bin/bin/../../lib/gcc/pic32c/8.3.1/../../../../pic32c/lib/thumb/v6-m/nofp\libc-musl.a(mktime.o) (__tm_to_secs)
c:/program files/microchip/xc32/v4.60/bin/bin/../../lib/gcc/pic32c/8.3.1/../../../../pic32c/lib/thumb/v6-m/nofp\libc-musl.a(__year_to_secs.o)
                              c:/program files/microchip/xc32/v4.60/bin/bin/../../lib/gcc/pic32c/8.3.1/../../../../pic32c/lib/thumb/v6-m/nofp\libc-musl.a(__tm_to_secs.o) (__year_to_secs)
c:/program files/microchip/xc32/v4.60/bin/bin/../../lib/gcc/pic32c/8.3.1/../../../../pic32c/lib/thumb/v6-m/nofp\libc-musl.a(__secs_to_tm.o)
                              c:/program files/microchip/xc32/v4.60/bin/bin/../../lib/gcc/pic32c/8.3.1/../../../../pic32c/lib/thumb/v6-m/nofp\libc-musl.a(gmtime_r.o) (__secs_to_tm)
c:/program files/microchip/xc32/v4.60/bin/bin/../../lib/gcc/pic32c/8.3.1/../../../../pic32c/lib/thumb/v6-m/nofp\libc-musl.a(readv.o)
                              c:/program files/microchip/xc32/v4.60/bin/bin/../../lib/gcc/pic32c/8.3.1/../../../../pic32c/lib/thumb/v6-m/nofp\libc-musl.a(__stdio_read.o) (readv)
c:/program files/microchip/xc32/v4.60/bin/bin/../../lib/gcc/pic32c/8.3.1/../../../../pic32c/lib/thumb/v6-m/nofp\libc-musl.a(__int_vsnprintf.o)
                              c:/program files/microchip/xc32/v4.60/bin/bin/../../lib/gcc/pic32c/8.3.1/../../../../pic32c/lib/thumb/v6-m/nofp\libc-musl.a(__int_vsprintf.o) (__vsnprintf)
c:/program files/microchip/xc32/v4.60/bin/bin/../../lib/gcc/pic32c/8.3.1/../../../../pic32c/lib/thumb/v6-m/nofp\libc-musl.a(__fopen_rw.o)
                              c:/program files/microchip/xc32/v4.60/bin/bin/../../lib/gcc/pic32c/8.3.1/../../../../pic32c/lib/thumb/v6-m/nofp\libc-musl.a(__io_rw_needed.o) (__fopen_rw_needed)
c:/program files/microchip/xc32/v4.60/bin/bin/../../lib/gcc/pic32c/8.3.1/../../../../pic32c/lib/thumb/v6-m/nofp\libc-musl.a(__ftello_rw.o)
                              c:/program files/microchip/xc32/v4.60/bin/bin/../../lib/gcc/pic32c/8.3.1/../../../../pic32c/lib/thumb/v6-m/nofp\libc-musl.a(__io_rw_needed.o) (__ftello_adj_rw_needed)
c:/program files/microchip/xc32/v4.60/bin/bin/../../lib/gcc/pic32c/8.3.1/../../../../pic32c/lib/thumb/v6-m/nofp\libc-musl.a(__init_stdio.o)
                              c:/program files/microchip/xc32/v4.60/bin/bin/../../lib/gcc/pic32c/8.3.1/../../../../pic32c/lib/thumb/v6-m/nofp\libc-musl.a(__io_init_needed.o) (__init_stdio_needed)
c:/program files/microchip/xc32/v4.60/bin/bin/../../lib/gcc/pic32c/8.3.1/../../../../pic32c/lib/thumb/v6-m/nofp\libc-musl.a(__io_buf_needed.o)
                              c:/program files/microchip/xc32/v4.60/bin/bin/../../lib/gcc/pic32c/8.3.1/../../../../pic32c/lib/thumb/v6-m/nofp\libc-musl.a(__io_rw_needed.o) (__io_buf_needed)
c:/program files/microchip/xc32/v4.60/bin/bin/../../lib/gcc/pic32c/8.3.1/../../../../pic32c/lib/thumb/v6-m/nofp\libc-musl.a(__io_file_needed.o)
                              c:/program files/microchip/xc32/v4.60/bin/bin/../../lib/gcc/pic32c/8.3.1/../../../../pic32c/lib/thumb/v6-m/nofp\libc-musl.a(__io_init_needed.o) (__io_file_needed)
c:/program files/microchip/xc32/v4.60/bin/bin/../../lib/gcc/pic32c/8.3.1/../../../../pic32c/lib/thumb/v6-m/nofp\libc-musl.a(__io_std_needed.o)
                              c:/program files/microchip/xc32/v4.60/bin/bin/../../lib/gcc/pic32c/8.3.1/../../../../pic32c/lib/thumb/v6-m/nofp\libc-musl.a(__io_buf_needed.o) (__io_std_needed)
c:/program files/microchip/xc32/v4.60/bin/bin/../../lib/gcc/pic32c/8.3.1/../../../../pic32c/lib/thumb/v6-m/nofp\libc-musl.a(__out.o)
                              c:/program files/microchip/xc32/v4.60/bin/bin/../../lib/gcc/pic32c/8.3.1/../../../../pic32c/lib/thumb/v6-m/nofp\libc-musl.a(__fopen_rw.o) (__stdio_write_unbuffered)
c:/program files/microchip/xc32/v4.60/bin/bin/../../lib/gcc/pic32c/8.3.1/../../../../pic32c/lib/thumb/v6-m/nofp\libc-musl.a(__putc.o)
                              c:/program files/microchip/xc32/v4.60/bin/bin/../../lib/gcc/pic32c/8.3.1/../../../../pic32c/lib/thumb/v6-m/nofp\libc-musl.a(__io_buf_needed.o) (__putc_needed)
c:/program files/microchip/xc32/v4.60/bin/bin/../../lib/gcc/pic32c/8.3.1/../../../../pic32c/lib/thumb/v6-m/nofp\libc-musl.a(__stderr.o)
                              c:/program files/microchip/xc32/v4.60/bin/bin/../../lib/gcc/pic32c/8.3.1/../../../../pic32c/lib/thumb/v6-m/nofp\libc-musl.a(__io_std_needed.o) (__init_stderr_needed)
c:/program files/microchip/xc32/v4.60/bin/bin/../../lib/gcc/pic32c/8.3.1/../../../../pic32c/lib/thumb/v6-m/nofp\libc-musl.a(__stdio_close.o)
                              c:/program files/microchip/xc32/v4.60/bin/bin/../../lib/gcc/pic32c/8.3.1/../../../../pic32c/lib/thumb/v6-m/nofp\libc-musl.a(__fopen_rw.o) (__stdio_close_rw)
c:/program files/microchip/xc32/v4.60/bin/bin/../../lib/gcc/pic32c/8.3.1/../../../../pic32c/lib/thumb/v6-m/nofp\libc-musl.a(__stdio_exit.o)
                              c:/program files/microchip/xc32/v4.60/bin/bin/../../lib/gcc/pic32c/8.3.1/../../../../pic32c/lib/thumb/v6-m/nofp\libc-musl.a(__io_buf_needed.o) (__stdio_exit_needed)
c:/program files/microchip/xc32/v4.60/bin/bin/../../lib/gcc/pic32c/8.3.1/../../../../pic32c/lib/thumb/v6-m/nofp\libc-musl.a(__stdio_write.o)
                              c:/program files/microchip/xc32/v4.60/bin/bin/../../lib/gcc/pic32c/8.3.1/../../../../pic32c/lib/thumb/v6-m/nofp\libc-musl.a(setvbuf.o) (__stdio_write_buffered)
c:/program files/microchip/xc32/v4.60/bin/bin/../../lib/gcc/pic32c/8.3.1/../../../../pic32c/lib/thumb/v6-m/nofp\libc-musl.a(__stdout.o)
                              c:/program files/microchip/xc32/v4.60/bin/bin/../../lib/gcc/pic32c/8.3.1/../../../../pic32c/lib/thumb/v6-m/nofp\libc-musl.a(__io_std_needed.o) (__init_stdout_needed)
c:/program files/microchip/xc32/v4.60/bin/bin/../../lib/gcc/pic32c/8.3.1/../../../../pic32c/lib/thumb/v6-m/nofp\libc-musl.a(__towrite.o)
                              c:/program files/microchip/xc32/v4.60/bin/bin/../../lib/gcc/pic32c/8.3.1/../../../../pic32c/lib/thumb/v6-m/nofp\libc-musl.a(__stdio_write.o) (__towrite)
c:/program files/microchip/xc32/v4.60/bin/bin/../../lib/gcc/pic32c/8.3.1/../../../../pic32c/lib/thumb/v6-m/nofp\libc-musl.a(__month_to_secs.o)
                              c:/program files/microchip/xc32/v4.60/bin/bin/../../lib/gcc/pic32c/8.3.1/../../../../pic32c/lib/thumb/v6-m/nofp\libc-musl.a(__tm_to_secs.o) (__month_to_secs)
c:/program files/microchip/xc32/v4.60/bin/bin/../../lib/gcc/pic32c/8.3.1/../../../../pic32c/lib/thumb/v6-m/nofp\libc-musl.a(writev.o)
                              c:/program files/microchip/xc32/v4.60/bin/bin/../../lib/gcc/pic32c/8.3.1/../../../../pic32c/lib/thumb/v6-m/nofp\libc-musl.a(__stdio_write.o) (writev)
c:/program files/microchip/xc32/v4.60/bin/bin/../../lib/gcc/pic32c/8.3.1/../../../../pic32c/lib/thumb/v6-m/nofp\libc-musl.a(__overflow.o)
                              c:/program files/microchip/xc32/v4.60/bin/bin/../../lib/gcc/pic32c/8.3.1/../../../../pic32c/lib/thumb/v6-m/nofp\libc-musl.a(__putc.o) (__overflow)
c:/program files/microchip/xc32/v4.60/bin/bin/../../lib/gcc/pic32c/8.3.1/../../../../pic32c/lib/thumb/v6-m/nofp\libc-musl.a(__fclose.o)
                              c:/program files/microchip/xc32/v4.60/bin/bin/../../lib/gcc/pic32c/8.3.1/../../../../pic32c/lib/thumb/v6-m/nofp\libc-musl.a(__io_buf_needed.o) (__fclose_needed)
c:/program files/microchip/xc32/v4.60/bin/bin/../../lib/gcc/pic32c/8.3.1/../../../../pic32c/lib/thumb/v6-m/nofp\libc-musl.a(__fopen.o)
                              c:/program files/microchip/xc32/v4.60/bin/bin/../../lib/gcc/pic32c/8.3.1/../../../../pic32c/lib/thumb/v6-m/nofp\libc-musl.a(__io_std_needed.o) (__fopen_needed)
c:/program files/microchip/xc32/v4.60/bin/bin/../../lib/gcc/pic32c/8.3.1/../../../../pic32c/lib/thumb/v6-m/nofp\libc-musl.a(__fseeko.o)
                              c:/program files/microchip/xc32/v4.60/bin/bin/../../lib/gcc/pic32c/8.3.1/../../../../pic32c/lib/thumb/v6-m/nofp\libc-musl.a(__io_buf_needed.o) (__fseeko_needed)
c:/program files/microchip/xc32/v4.60/bin/bin/../../lib/gcc/pic32c/8.3.1/../../../../pic32c/lib/thumb/v6-m/nofp\libc-musl.a(__ftello.o)
                              c:/program files/microchip/xc32/v4.60/bin/bin/../../lib/gcc/pic32c/8.3.1/../../../../pic32c/lib/thumb/v6-m/nofp\libc-musl.a(__io_buf_needed.o) (__ftello_adj_needed)
c:/program files/microchip/xc32/v4.60/bin/bin/../../lib/gcc/pic32c/8.3.1/../../../../pic32c/lib/thumb/v6-m/nofp\libc-musl.a(__fwrite.o)
                              c:/program files/microchip/xc32/v4.60/bin/bin/../../lib/gcc/pic32c/8.3.1/../../../../pic32c/lib/thumb/v6-m/nofp\libc-musl.a(__io_std_needed.o) (__fwrite_needed)
c:/program files/microchip/xc32/v4.60/bin/bin/../../lib/gcc/pic32c/8.3.1/thumb/v6-m/nofp\libgcc.a(_udivsi3.o)
                              build/SAMD21_IOT_WG_ICM42688/production/_ext/548032175/inet_ntop.o (__aeabi_uidiv)
c:/program files/microchip/xc32/v4.60/bin/bin/../../lib/gcc/pic32c/8.3.1/thumb/v6-m/nofp\libgcc.a(_divsi3.o)
                              build/SAMD21_IOT_WG_ICM42688/production/_ext/548032175/inet_ntop.o (__aeabi_idiv)
c:/program files/microchip/xc32/v4.60/bin/bin/../../lib/gcc/pic32c/8.3.1/thumb/v6-m/nofp\libgcc.a(_dvmd_tls.o)
                              c:/program files/microchip/xc32/v4.60/bin/bin/../../lib/gcc/pic32c/8.3.1/thumb/v6-m/nofp\libgcc.a(_udivsi3.o) (__aeabi_idiv0)
c:/program files/microchip/xc32/v4.60/bin/bin/../../lib/gcc/pic32c/8.3.1/thumb/v6-m/nofp\libgcc.a(_aeabi_ldivmod.o)
                              build/SAMD21_IOT_WG_ICM42688/production/_ext/177673482/plib_sercom5_usart.o (__aeabi_ldivmod)
c:/program files/microchip/xc32/v4.60/bin/bin/../../lib/gcc/pic32c/8.3.1/thumb/v6-m/nofp\libgcc.a(_aeabi_uldivmod.o)
                              build/SAMD21_IOT_WG_ICM42688/production/_ext/177673482/plib_sercom5_usart.o (__aeabi_uldivmod)
c:/program files/microchip/xc32/v4.60/bin/bin/../../lib/gcc/pic32c/8.3.1/thumb/v6-m/nofp\libgcc.a(_muldi3.o)
                              build/SAMD21_IOT_WG_ICM42688/production/_ext/386530258/sys_time.o (__aeabi_lmul)
c:/program files/microchip/xc32/v4.60/bin/bin/../../lib/gcc/pic32c/8.3.1/thumb/v6-m/nofp\libgcc.a(_udivmoddi4.o)
                              c:/program files/microchip/xc32/v4.60/bin/bin/../../lib/gcc/pic32c/8.3.1/thumb/v6-m/nofp\libgcc.a(_aeabi_uldivmod.o) (__udivmoddi4)
c:/program files/microchip/xc32/v4.60/bin/bin/../../lib/gcc/pic32c/8.3.1/thumb/v6-m/nofp\libgcc.a(bpabi.o)
                              c:/program files/microchip/xc32/v4.60/bin/bin/../../lib/gcc/pic32c/8.3.1/thumb/v6-m/nofp\libgcc.a(_aeabi_ldivmod.o) (__gnu_ldivmod_helper)
c:/program files/microchip/xc32/v4.60/bin/bin/../../lib/gcc/pic32c/8.3.1/thumb/v6-m/nofp\libgcc.a(_lshrdi3.o)
                              c:/program files/microchip/xc32/v4.60/bin/bin/../../lib/gcc/pic32c/8.3.1/thumb/v6-m/nofp\libgcc.a(_udivmoddi4.o) (__aeabi_llsr)
c:/program files/microchip/xc32/v4.60/bin/bin/../../lib/gcc/pic32c/8.3.1/thumb/v6-m/nofp\libgcc.a(_ashldi3.o)
                              c:/program files/microchip/xc32/v4.60/bin/bin/../../lib/gcc/pic32c/8.3.1/thumb/v6-m/nofp\libgcc.a(_udivmoddi4.o) (__aeabi_llsl)
c:/program files/microchip/xc32/v4.60/bin/bin/../../lib/gcc/pic32c/8.3.1/thumb/v6-m/nofp\libgcc.a(_clzdi2.o)
                              c:/program files/microchip/xc32/v4.60/bin/bin/../../lib/gcc/pic32c/8.3.1/thumb/v6-m/nofp\libgcc.a(_udivmoddi4.o) (__clzdi2)
c:/program files/microchip/xc32/v4.60/bin/bin/../../lib/gcc/pic32c/8.3.1/thumb/v6-m/nofp\libgcc.a(_divdi3.o)
                              c:/program files/microchip/xc32/v4.60/bin/bin/../../lib/gcc/pic32c/8.3.1/thumb/v6-m/nofp\libgcc.a(bpabi.o) (__divdi3)
c:/program files/microchip/xc32/v4.60/bin/bin/../../lib/gcc/pic32c/8.3.1/thumb/v6-m/nofp\libgcc.a(_clzsi2.o)
                              c:/program files/microchip/xc32/v4.60/bin/bin/../../lib/gcc/pic32c/8.3.1/thumb/v6-m/nofp\libgcc.a(_clzdi2.o) (__clzsi2)
c:/program files/microchip/xc32/v4.60/bin/bin/../../lib/gcc/pic32c/8.3.1/../../../../pic32c/lib/thumb/v6-m/nofp\libpic32c.a(close.o)
                              c:/program files/microchip/xc32/v4.60/bin/bin/../../lib/gcc/pic32c/8.3.1/../../../../pic32c/lib/thumb/v6-m/nofp\libc-musl.a(__stdio_close.o) (close)
c:/program files/microchip/xc32/v4.60/bin/bin/../../lib/gcc/pic32c/8.3.1/../../../../pic32c/lib/thumb/v6-m/nofp\libpic32c.a(lseek.o)
                              c:/program files/microchip/xc32/v4.60/bin/bin/../../lib/gcc/pic32c/8.3.1/../../../../pic32c/lib/thumb/v6-m/nofp\libc-musl.a(__stdio_close.o) (lseek)
c:/program files/microchip/xc32/v4.60/bin/bin/../../lib/gcc/pic32c/8.3.1/../../../../pic32c/lib/thumb/v6-m/nofp\libpic32c.a(sbrk.o)
                              c:/program files/microchip/xc32/v4.60/bin/bin/../../lib/gcc/pic32c/8.3.1/../../../../pic32c/lib/thumb/v6-m/nofp\liblmalloc-musl.a(lite_malloc.o) (_get_heap_left_space)
c:/program files/microchip/xc32/v4.60/bin/bin/../../lib/gcc/pic32c/8.3.1/../../../../pic32c/lib/thumb/v6-m/nofp\libpic32c.a(pic32_data_init_clear.o)
                              (__dinit_clear_needed)
c:/program files/microchip/xc32/v4.60/bin/bin/../../lib/gcc/pic32c/8.3.1/../../../../pic32c/lib/thumb/v6-m/nofp\libpic32c.a(pic32_data_init_copy.o)
                              (__dinit_copy_needed)

Microchip PIC32 Memory-Usage Report

ROM Program-Memory Usage
section                    address  length [bytes]      (dec)  Description
-------                 ----------  -------------------------  -----------
.vectors                         0           0xb0         176   
.text                         0xb0           0x20          32  App's exec code 
.ARM.exidx                    0xd0           0x10          16   
.text                         0xe0         0x2250        8784  App's exec code 
.text                       0x2330         0x14a8        5288  App's exec code 
.text                       0x37d8          0xd84        3460  App's exec code 
.text                       0x455c          0xca0        3232  App's exec code 
.text                       0x51fc          0xbe8        3048  App's exec code 
.text                       0x5de4          0xb50        2896  App's exec code 
.text                       0x6934          0x704        1796  App's exec code 
.text                       0x7038          0x680        1664  App's exec code 
.text                       0x76b8          0x67c        1660  App's exec code 
.text                       0x7d34          0x530        1328  App's exec code 
.text                       0x8264          0x500        1280  App's exec code 
.text                       0x8764          0x48c        1164  App's exec code 
.text                       0x8bf0          0x414        1044  App's exec code 
.text                       0x9004          0x400        1024  App's exec code 
.text                       0x9404          0x3d8         984  App's exec code 
.text                       0x97dc          0x3d4         980  App's exec code 
.text                       0x9bb0          0x3a4         932  App's exec code 
.text                       0x9f54          0x384         900  App's exec code 
.text.__printf_core         0xa2d8          0x33c         828   
.text                       0xa614          0x310         784  App's exec code 
.text                       0xa924          0x2f8         760  App's exec code 
.dinit                      0xac1c          0x2e0         736   
.text                       0xaefc          0x2ac         684  App's exec code 
.text                       0xb1a8          0x280         640  App's exec code 
.text                       0xb428          0x238         568  App's exec code 
.text                       0xb660          0x228         552  App's exec code 
.text                       0xb888          0x1fc         508  App's exec code 
.text.__secs_to_tm          0xba84          0x1dc         476   
.text                       0xbc60          0x1bc         444  App's exec code 
.text                       0xbe1c          0x190         400  App's exec code 
.text                       0xbfac          0x188         392  App's exec code 
.text                       0xc134          0x17c         380  App's exec code 
.text                       0xc2b0          0x170         368  App's exec code 
.text                       0xc420          0x15c         348  App's exec code 
.rodata.str1.4              0xc57c          0x138         312   
.rodata                     0xc6b4          0x134         308  Read-only const 
.text                       0xc7e8          0x130         304  App's exec code 
.text                       0xc918          0x130         304  App's exec code 
.text                       0xca48          0x128         296  App's exec code 
.text                       0xcb70          0x120         288  App's exec code 
.text                       0xcc90          0x11c         284  App's exec code 
.text                       0xcdac          0x114         276  App's exec code 
.text.__year_to_secs        0xcec0          0x100         256   
.rodata                     0xcfc0           0xf0         240  Read-only const 
.rodata.str1.4              0xd0b0           0xec         236   
.text                       0xd19c           0xe8         232  App's exec code 
.text                       0xd284           0xe2         226  App's exec code 
.text                       0xd366            0x2           2  App's exec code 
.text                       0xd368           0xcc         204  App's exec code 
.rodata                     0xd434           0xcc         204  Read-only const 
.text                       0xd500           0xc0         192  App's exec code 
.text.__pop_int             0xd5c0           0xbe         190   
.text.__fmt_d               0xd67e           0xb2         178   
.text                       0xd730           0xa8         168  App's exec code 
.text.__tm_to_secs          0xd7d8           0xa0         160   
.text                       0xd878           0x94         148  App's exec code 
.text                       0xd90c           0x94         148  App's exec code 
.text                       0xd9a0           0x90         144  App's exec code 
.text                       0xda30           0x8c         140  App's exec code 
.text.__write_buffered      0xdabc           0x82         130   
.text                       0xdb3e            0x2           2  App's exec code 
.text.__simple_search_f     0xdb40           0x80         128   
.text.__stdio_write_buf     0xdbc0           0x7c         124   
.text.__pad                 0xdc3c           0x7a         122   
.text.__cvt_u               0xdcb6           0x76         118   
.text                       0xdd2c           0x6c         108  App's exec code 
.text.__pop_ptr             0xdd98           0x68         104   
.text.__simple_malloc       0xde00           0x64         100   
.text.__stdio_read          0xde64           0x64         100   
.text.__strchrnul           0xdec8           0x60          96   
.text.__libc_start_init     0xdf28           0x5c          92   
.text.__stdio_close_rw      0xdf84           0x5c          92   
.text                       0xdfe0           0x58          88  App's exec code 
.text.__fmt_u               0xe038           0x56          86   
.text.__dummy_init_tls      0xe08e            0x2           2   
.text.__fmt_s               0xe090           0x50          80   
.text.setvbuf               0xe0e0           0x50          80   
.text._sbrk                 0xe130           0x50          80   
.text.__overflow            0xe180           0x4e          78   
.text.__dummy               0xe1ce            0x2           2   
.rodata                     0xe1d0           0x4c          76  Read-only const 
.text                       0xe21c           0x48          72  App's exec code 
.text                       0xe264           0x48          72  App's exec code 
.text.Reset_Handler         0xe2ac           0x48          72   
.text.mktime                0xe2f4           0x48          72   
.text                       0xe33c           0x48          72  App's exec code 
.text                       0xe384           0x44          68  App's exec code 
.text                       0xe3c8           0x44          68  App's exec code 
.text                       0xe40c           0x40          64  App's exec code 
.rodata                     0xe44c           0x40          64  Read-only const 
.text.__simple_free         0xe48c           0x40          64   
.text.atoi                  0xe4cc           0x40          64   
.text                       0xe50c           0x40          64  App's exec code 
.text.__out                 0xe54c           0x3c          60   
.text.__putc                0xe588           0x3c          60   
.text                       0xe5c4           0x3c          60  App's exec code 
.text.__pic32c_data_ini     0xe600           0x38          56   
.text.__putc_unbuffered     0xe638           0x36          54   
.text.__dummy               0xe66e            0x2           2   
.text.__fmt_state           0xe670           0x34          52   
.text.__gmtime_r            0xe6a4           0x34          52   
.text                       0xe6d8           0x34          52  App's exec code 
.text._sbrk_init            0xe70c           0x34          52   
.text                       0xe740           0x30          48  App's exec code 
.rodata                     0xe770           0x30          48  Read-only const 
.text.fwrite                0xe7a0           0x2e          46   
.text.__pop_float           0xe7ce           0x2a          42   
.text.__towrite_rw          0xe7f8           0x2a          42   
.text.__dummy               0xe822            0x2           2   
.text                       0xe824           0x28          40  App's exec code 
.rodata                     0xe84c           0x28          40  Read-only const 
.text.puts                  0xe874           0x28          40   
.text.__readv               0xe89c           0x28          40   
.text.__writev              0xe8c4           0x28          40   
.text                       0xe8ec           0x24          36  App's exec code 
.text.fputs                 0xe910           0x22          34   
.rodata                     0xe934           0x20          32  Read-only const 
.rodata                     0xe954           0x20          32  Read-only const 
.text.memchr                0xe974           0x20          32   
.text.__wrap_printf         0xe994           0x20          32   
.text.__month_to_secs       0xe9b4           0x20          32   
.text._get_heap_left_sp     0xe9d4           0x20          32   
.text.__dinit_copy          0xe9f4           0x1e          30   
.text.__simple_calloc       0xea12           0x1c          28   
.text.__init_search_fl      0xea30           0x1c          28   
.text.__towrite             0xea4c           0x1a          26   
.text.strlen                0xea68           0x18          24   
.text.strnlen               0xea80           0x18          24   
.text.__vfprintf            0xea98           0x18          24   
.text                       0xeab0           0x18          24  App's exec code 
.text                       0xeac8           0x18          24  App's exec code 
.text                       0xeae0           0x18          24  App's exec code 
.text.__expand_heap         0xeaf8           0x16          22   
.rodata                     0xeb0e           0x16          22  Read-only const 
.text                       0xeb24           0x14          20  App's exec code 
.rodata                     0xeb38           0x14          20  Read-only const 
.text.memcpy                0xeb4c           0x14          20   
.text.memset                0xeb60           0x14          20   
.text.strchr                0xeb74           0x14          20   
.text.__init_stdout         0xeb88           0x14          20   
.text.__fwrite              0xeb9c           0x14          20   
.text.setbuf                0xebb0           0x12          18   
.text.__dinit_clear         0xebc2           0x12          18   
.text.gmtime                0xebd4           0x10          16   
.text.__init_stdio          0xebe4           0x10          16   
.text.tolower               0xebf4            0xe          14   
.rodata                     0xec02            0xc          12  Read-only const 
.text.__fwrite_min          0xec0e            0xa          10   
.text                       0xec18            0x8           8  App's exec code 
.rodata.str1.4              0xec20            0x8           8   
.rodata.str1.1              0xec28            0x8           8   
.text.putc                  0xec30            0x8           8   
.text.__get_stdout          0xec38            0x8           8   
.rodata.str1.1              0xec40            0x7           7   
.rodata                     0xec47            0x1           1  Read-only const 
.text.close                 0xec48            0x6           6   
.text.__dummy_decompres     0xec4e            0x4           4   
.text.__dummy_fmt3          0xec52            0x4           4   
.text.__dummy_fmt4          0xec56            0x4           4   
.text.__dummy               0xec5a            0x4           4   
.rodata.str1.1              0xec5e            0x4           4   
.rodata.str1.1              0xec62            0x4           4   
.text                       0xec68            0x4           4  App's exec code 
.text.lseek                 0xec6c            0x4           4   
      Total ROM used  :      0xec68       60520  23.1% of 0x40000
        --------------------------------------------------------------------------
         Total Program Memory used  :      0xec68       60520  23.1% of 0x40000
        --------------------------------------------------------------------------


RAM Data-Memory Usage
section                    address  length [bytes]      (dec)  Description
-------                 ----------  -------------------------  -----------
.bss                    0x20000000          0xf60        3936  Uninitialized data 
.bss                    0x20000f60          0x408        1032  Uninitialized data 
.bss                    0x20001368          0x114         276  Uninitialized data 
.bss                    0x2000147c            0x4           4  Uninitialized data 
.bss                    0x20001480           0xe0         224  Uninitialized data 
.bss                    0x20001560           0xcd         205  Uninitialized data 
.data                   0x2000162d            0x1           1  Initialized data 
.data                   0x2000162e            0x2           2  Initialized data 
.bss                    0x20001630           0xc4         196  Uninitialized data 
.bss                    0x200016f4           0xc0         192  Uninitialized data 
.bss                    0x200017b4           0x78         120  Uninitialized data 
.bss                    0x2000182c           0x68         104  Uninitialized data 
.bss                    0x20001894            0x4           4  Uninitialized data 
.bss                    0x20001898           0x60          96  Uninitialized data 
.bss                    0x200018f8           0x50          80  Uninitialized data 
.bss                    0x20001948           0x2d          45  Uninitialized data 
.data                   0x20001975            0x1           1  Initialized data 
.bss                    0x20001978           0x2c          44  Uninitialized data 
.bss                    0x200019a4           0x29          41  Uninitialized data 
.bss                    0x200019d0           0x28          40  Uninitialized data 
.bss                    0x200019f8           0x1d          29  Uninitialized data 
.bss                    0x20001a18           0x1c          28  Uninitialized data 
.bss                    0x20001a34           0x12          18  Uninitialized data 
.bss                    0x20001a46            0x2           2  Uninitialized data 
.bss                    0x20001a48            0xc          12  Uninitialized data 
.bss                    0x20001a54            0x8           8  Uninitialized data 
.bss                    0x20001a5c            0x8           8  Uninitialized data 
.bss                    0x20001a64            0x8           8  Uninitialized data 
.bss                    0x20001a6c            0x8           8  Uninitialized data 
.bss                    0x20001a74            0x8           8  Uninitialized data 
.bss                    0x20001a7c            0x4           4  Uninitialized data 
.bss                    0x20001a80            0x4           4  Uninitialized data 
.bss                    0x20001a84            0x4           4  Uninitialized data 
.bss                    0x20001a88            0x4           4  Uninitialized data 
.bss                    0x20001a8c            0x4           4  Uninitialized data 
.data                   0x20001a90           0x6c         108  Initialized data 
.data                   0x20001afc           0x60          96  Initialized data 
.data                   0x20001b5c           0x20          32  Initialized data 
.data                   0x20001b7c            0x4           4  Initialized data 
.data                   0x20001b80            0x4           4  Initialized data 
.data                   0x20001b84            0x2           2  Initialized data 
         Total RAM used  :      0x1b7e        7038  21.5% of 0x8000
        --------------------------------------------------------------------------
            Total Data Memory used  :      0x1b7e        7038  21.5% of 0x8000
        --------------------------------------------------------------------------


Dynamic Data-Memory Reservation
section                    address  length [bytes]      (dec)  Description
-------                 ----------  -------------------------  -----------
heap                    0x20001b88          0x200         512  Reserved for heap 
stack                   0x20001da0         0x6250       25168  Reserved for stack 

        --------------------------------------------------------------------------

Microchip PIC32 Memory-Usage Report By Module

        text        data         bss         dec         hex    basename                            filename
--------------------------------------------------------------------------------
        8868           0           0        8868        22a4    Icm426xxDriver_HL.o             build/SAMD21_IOT_WG_ICM42688/production/_ext/1341251756/Icm426xxDriver_HL.o
        5288           4          40        5332        14d4    m2m_wifi.o                      build/SAMD21_IOT_WG_ICM42688/production/_ext/121554788/m2m_wifi.o
        1244           0        3936        5180        143c    main.o                          build/SAMD21_IOT_WG_ICM42688/production/_ext/1360937237/main.o
        3700           0         276        3976         f88    wdrv_winc.o                     build/SAMD21_IOT_WG_ICM42688/production/_ext/907429946/wdrv_winc.o
        3232           0         120        3352         d18    drv_spi.o                       build/SAMD21_IOT_WG_ICM42688/production/_ext/1660664302/drv_spi.o
        3048           0         205        3253         cb5    socket.o                        build/SAMD21_IOT_WG_ICM42688/production/_ext/548032175/socket.o
        2896           2         224        3122         c32    sys_time.o                      build/SAMD21_IOT_WG_ICM42688/production/_ext/386530258/sys_time.o
        1972           0           2        1974         7b6    nmspi.o                         build/SAMD21_IOT_WG_ICM42688/production/_ext/121554788/nmspi.o
        1796           0           4        1800         708    nmasic.o                        build/SAMD21_IOT_WG_ICM42688/production/_ext/121554788/nmasic.o
        1660           0           4        1664         680    spi_flash.o                     build/SAMD21_IOT_WG_ICM42688/production/_ext/609036575/spi_flash.o
        1360           0          41        1401         579    m2m_hif.o                       build/SAMD21_IOT_WG_ICM42688/production/_ext/121554788/m2m_hif.o
        1280           1         104        1385         569    m2m_ota.o                       build/SAMD21_IOT_WG_ICM42688/production/_ext/121554788/m2m_ota.o
        1164           1           8        1173         495    m2m_ssl.o                       build/SAMD21_IOT_WG_ICM42688/production/_ext/121554788/m2m_ssl.o
           4         108        1032        1144         478    stdin.o                         libc-musl.a
        1024           0          96        1120         460    plib_dmac.o                     build/SAMD21_IOT_WG_ICM42688/production/_ext/1580516298/plib_dmac.o
        1045           0           0        1045         415    wdrv_winc_socket.o              build/SAMD21_IOT_WG_ICM42688/production/_ext/907429946/wdrv_winc_socket.o
        1040           0           0        1040         410    __printf_core.o                 libc-musl.a
         984           0          45        1029         405    plib_sercom2_spi_master.o       build/SAMD21_IOT_WG_ICM42688/production/_ext/1014017276/plib_sercom2_spi_master.o
         980           0           0         980         3d4    wdrv_winc_host_file.o           build/SAMD21_IOT_WG_ICM42688/production/_ext/907429946/wdrv_winc_host_file.o
         900           0           0         900         384    wdrv_winc_sta.o                 build/SAMD21_IOT_WG_ICM42688/production/_ext/907429946/wdrv_winc_sta.o
         836           0          18         854         356    winc1500_tcp_client.o           build/SAMD21_IOT_WG_ICM42688/production/_ext/1360937237/winc1500_tcp_client.o
         784           0           0         784         310    plib_sercom5_usart.o            build/SAMD21_IOT_WG_ICM42688/production/_ext/177673482/plib_sercom5_usart.o
         760           0           0         760         2f8    nmdrv.o                         build/SAMD21_IOT_WG_ICM42688/production/_ext/121554788/nmdrv.o
         736           0           0         736         2e0    data_init                       data_init
         724           0           0         724         2d4    wdrv_winc_authctx.o             build/SAMD21_IOT_WG_ICM42688/production/_ext/907429946/wdrv_winc_authctx.o
         640           0           0         640         280    plib_sercom0_spi_master.o       build/SAMD21_IOT_WG_ICM42688/production/_ext/1014017276/plib_sercom0_spi_master.o
         552           0           4         556         22c    icm42688_sensor.o               build/SAMD21_IOT_WG_ICM42688/production/_ext/2048461350/icm42688_sensor.o
         356           0         196         552         228    initialization.o                build/SAMD21_IOT_WG_ICM42688/production/_ext/1832905403/initialization.o
         508           0           0         508         1fc    ringbuffer.o                    build/SAMD21_IOT_WG_ICM42688/production/_ext/1360937237/ringbuffer.o
         508           0           0         508         1fc    Icm426xxTransport.o             build/SAMD21_IOT_WG_ICM42688/production/_ext/1341251756/Icm426xxTransport.o
         488           0           0         488         1e8    __secs_to_tm.o                  libc-musl.a
         276           0         192         468         1d4    plib_eic.o                      build/SAMD21_IOT_WG_ICM42688/production/_ext/503204096/plib_eic.o
         392           0          29         421         1a5    wdrv_winc_spi.o                 build/SAMD21_IOT_WG_ICM42688/production/_ext/101005277/wdrv_winc_spi.o
         400           0           0         400         190    wdrv_winc_bssctx.o              build/SAMD21_IOT_WG_ICM42688/production/_ext/907429946/wdrv_winc_bssctx.o
         380           0           0         380         17c    wdrv_winc_systime.o             build/SAMD21_IOT_WG_ICM42688/production/_ext/907429946/wdrv_winc_systime.o
         368           0           0         368         170    plib_port.o                     build/SAMD21_IOT_WG_ICM42688/production/_ext/1580876256/plib_port.o
         348           0           0         348         15c    plib_nvmctrl.o                  build/SAMD21_IOT_WG_ICM42688/production/_ext/11470383/plib_nvmctrl.o
         312           0           0         312         138    _divdi3.o                       libgcc.a
         304           0           8         312         138    plib_tc4.o                      build/SAMD21_IOT_WG_ICM42688/production/_ext/399410062/plib_tc4.o
         296           0           0         296         128    plib_nvic.o                     build/SAMD21_IOT_WG_ICM42688/production/_ext/1580823105/plib_nvic.o
         288           0           8         296         128    plib_tc3.o                      build/SAMD21_IOT_WG_ICM42688/production/_ext/399410062/plib_tc3.o
         284           0           0         284         11c    plib_systick.o                  build/SAMD21_IOT_WG_ICM42688/production/_ext/223004715/plib_systick.o
         256           0           0         256         100    __year_to_secs.o                libc-musl.a
         254           0           0         254          fe    __stdio_write.o                 libc-musl.a
         232           2           0         234          ea    nmbus.o                         build/SAMD21_IOT_WG_ICM42688/production/_ext/121554788/nmbus.o
         234           0           0         234          ea    _udivmoddi4.o                   libgcc.a
         220           0           4         224          e0    lite_free.o                     liblmalloc-musl.a
         204           0           0         204          cc    plib_clock.o                    build/SAMD21_IOT_WG_ICM42688/production/_ext/1750425231/plib_clock.o
         192           0           0         192          c0    inet_ntop.o                     build/SAMD21_IOT_WG_ICM42688/production/_ext/548032175/inet_ntop.o
         190           0           0         190          be    __pop_int.o                     libc-musl.a
         178           0           0         178          b2    interrupts.o                    build/SAMD21_IOT_WG_ICM42688/production/_ext/1832905403/interrupts.o
         178           0           0         178          b2    __fmt_d.o                       libc-musl.a
         164           0          12         176          b0    sbrk.o                          libpic32c.a
         168           0           0         168          a8    _divsi3.o                       libgcc.a
         160           0           0         160          a0    __tm_to_secs.o                  libc-musl.a
         148           0           0         148          94    flexible_flash.o                build/SAMD21_IOT_WG_ICM42688/production/_ext/609036575/flexible_flash.o
         148           0           0         148          94    inet_addr.o                     build/SAMD21_IOT_WG_ICM42688/production/_ext/548032175/inet_addr.o
         140           0           0         140          8c    _udivsi3.o                      libgcc.a
         118           0           0         118          76    __cvt_u.o                       libc-musl.a
          80           0          28         108          6c    crtbegin.o                      c:/program files/microchip/xc32/v4.60/bin/bin/../../lib/gcc/pic32c/8.3.1/thumb/v6-m/nofp/crtbegin.o
         108           0           0         108          6c    sys_int.o                       build/SAMD21_IOT_WG_ICM42688/production/_ext/1318297016/sys_int.o
           8          96           0         104          68    __stdout.o                      libc-musl.a
         100           4           0         104          68    lite_malloc.o                   liblmalloc-musl.a
         104           0           0         104          68    __pop_ptr.o                     libc-musl.a
         100           0           0         100          64    __stdio_read.o                  libc-musl.a
          88           0           8          96          60    app.o                           build/SAMD21_IOT_WG_ICM42688/production/_ext/1360937237/app.o
          96           0           0          96          60    strchrnul.o                     libc-size-musl.a
          94           0           0          94          5e    __libc_start_main.o             libc-musl.a
          92           0           0          92          5c    __stdio_close.o                 libc-musl.a
          87           0           0          87          57    __fmt_s.o                       libc-musl.a
          82           0           4          86          56    data_init.o                     libpic32c.a
          86           0           0          86          56    __fmt_u.o                       libc-musl.a
          80           0           0          80          50    __month_to_secs.o               libc-musl.a
           0           0          80          80          50    libc.o                          libc-musl.a
          80           0           0          80          50    setvbuf.o                       libc-musl.a
          78           0           0          78          4e    __overflow.o                    libc-musl.a
          76           0           0          76          4c    mktime.o                        libc-musl.a
          74           0           0          74          4a    startup_xc32.o                  build/SAMD21_IOT_WG_ICM42688/production/_ext/1832905403/startup_xc32.o
          72           0           0          72          48    _aeabi_ldivmod.o                libgcc.a
          72           0           0          72          48    xc32_monitor.o                  build/SAMD21_IOT_WG_ICM42688/production/_ext/1357625803/xc32_monitor.o
          70           0           0          70          46    __out.o                         libc-musl.a
          68           0           0          68          44    sys_dma.o                       build/SAMD21_IOT_WG_ICM42688/production/_ext/1584719636/sys_dma.o
          68           0           0          68          44    _muldi3.o                       libgcc.a
          64           0           0          64          40    wdrv_winc_gpio.o                build/SAMD21_IOT_WG_ICM42688/production/_ext/1164161090/wdrv_winc_gpio.o
          64           0           0          64          40    _aeabi_uldivmod.o               libgcc.a
          64           0           0          64          40    atoi.o                          libc-musl.a
          62           0           0          62          3e    putc.o                          libc-musl.a
          20          32           8          60          3c    stdout.o                        libc-musl.a
          60           0           0          60          3c    _clzsi2.o                       libgcc.a
          16           0          44          60          3c    gmtime.o                        libc-musl.a
          60           0           0          60          3c    __putc.o                        libc-musl.a
          56           0           0          56          38    gmtime_r.o                      libc-musl.a
          52           0           0          52          34    bpabi.o                         libgcc.a
          48           0           0          48          30    nm_common.o                     build/SAMD21_IOT_WG_ICM42688/production/_ext/90265895/nm_common.o
          46           0           0          46          2e    fwrite.o                        libc-musl.a
          42           0           0          42          2a    __pop_float.o                   libc-musl.a
          42           0           0          42          2a    __towrite_rw.o                  libc-musl.a
          40           0           0          40          28    readv.o                         libc-musl.a
          40           0           0          40          28    puts.o                          libc-musl.a
          40           0           0          40          28    writev.o                        libc-musl.a
          40           0           0          40          28    wdrv_winc_eint.o                build/SAMD21_IOT_WG_ICM42688/production/_ext/1164161090/wdrv_winc_eint.o
          36           0           0          36          24    wdrv_winc_osal.o                build/SAMD21_IOT_WG_ICM42688/production/_ext/1784303044/wdrv_winc_osal.o
          34           0           0          34          22    fputs.o                         libc-musl.a
          32           0           0          32          20    memchr.o                        libc-size-musl.a
          32           0           0          32          20    __sio_printf_cdnsu.o            libc-musl.a
          30           0           0          30          1e    pic32_data_init_copy.o          libpic32c.a
          28           0           0          28          1c    lite_calloc.o                   liblmalloc-musl.a
          26           0           0          26          1a    __towrite.o                     libc-musl.a
          24           0           0          24          18    _clzdi2.o                       libgcc.a
          24           0           0          24          18    strnlen.o                       libc-size-musl.a
          24           0           0          24          18    _ashldi3.o                      libgcc.a
          24           0           0          24          18    __int_vfprintf.o                libc-musl.a
          24           0           0          24          18    _lshrdi3.o                      libgcc.a
          24           0           0          24          18    strlen.o                        libc-size-musl.a
          22           0           0          22          16    expand_heap.o                   libc-musl.a
          20           0           0          20          14    strchr.o                        libc-size-musl.a
          20           0           0          20          14    memcpy.o                        libc-size-musl.a
          20           0           0          20          14    tasks.o                         build/SAMD21_IOT_WG_ICM42688/production/_ext/1832905403/tasks.o
          20           0           0          20          14    __fwrite.o                      libc-musl.a
          20           0           0          20          14    memset.o                        libc-size-musl.a
          18           0           0          18          12    setbuf.o                        libc-musl.a
          18           0           0          18          12    __init_stdio.o                  libc-musl.a
          18           0           0          18          12    pic32_data_init_clear.o         libpic32c.a
          16           0           0          16          10    crtn.o                          c:/program files/microchip/xc32/v4.60/bin/bin/../../lib/gcc/pic32c/8.3.1/thumb/v6-m/nofp/crtn.o
          14           0           0          14           e    tolower.o                       libc-musl.a
           8           0           0           8           8    crti.o                          c:/program files/microchip/xc32/v4.60/bin/bin/../../lib/gcc/pic32c/8.3.1/thumb/v6-m/nofp/crti.o
           8           0           0           8           8    exceptions.o                    build/SAMD21_IOT_WG_ICM42688/production/_ext/1832905403/exceptions.o
           6           0           0           6           6    close.o                         libpic32c.a
           4           0           0           4           4    lseek.o                         libpic32c.a
           4           0           0           4           4    _dvmd_tls.o                     libgcc.a
           0           0           4           4           4    __errno_location.o              libc-musl.a
           0           0           4           4           4    __environ.o                     libc-musl.a
           2           0           0           2           2    __stderr.o                      libc-musl.a
--------------------------------------------------------------------------------
       60528         250        6788       67566       107ee    dist/SAMD21_IOT_WG_ICM42688/production/samd21_iot_imu.X.production.elf


Discarded input sections

 .text          0x0000000000000000        0x0 c:/program files/microchip/xc32/v4.60/bin/bin/../../lib/gcc/pic32c/8.3.1/thumb/v6-m/nofp/crti.o
 .data          0x0000000000000000        0x0 c:/program files/microchip/xc32/v4.60/bin/bin/../../lib/gcc/pic32c/8.3.1/thumb/v6-m/nofp/crti.o
 .bss           0x0000000000000000        0x0 c:/program files/microchip/xc32/v4.60/bin/bin/../../lib/gcc/pic32c/8.3.1/thumb/v6-m/nofp/crti.o
 .xc_stack_usage.hdr
                0x0000000000000000        0xe c:/program files/microchip/xc32/v4.60/bin/bin/../../lib/gcc/pic32c/8.3.1/thumb/v6-m/nofp/crti.o
 .xc_stack_usage
                0x0000000000000000       0x26 c:/program files/microchip/xc32/v4.60/bin/bin/../../lib/gcc/pic32c/8.3.1/thumb/v6-m/nofp/crti.o
 .data          0x0000000000000000        0x4 c:/program files/microchip/xc32/v4.60/bin/bin/../../lib/gcc/pic32c/8.3.1/thumb/v6-m/nofp/crtbegin.o
 .xc_stack_usage
                0x0000000000000000       0x3c c:/program files/microchip/xc32/v4.60/bin/bin/../../lib/gcc/pic32c/8.3.1/thumb/v6-m/nofp/crtbegin.o
 .xc_stack_usage.hdr
                0x0000000000000000        0xe c:/program files/microchip/xc32/v4.60/bin/bin/../../lib/gcc/pic32c/8.3.1/thumb/v6-m/nofp/crtbegin.o
 .data          0x0000000000000000        0x0 build/SAMD21_IOT_WG_ICM42688/production/_ext/2048461350/icm42688_sensor.o
 .data          0x0000000000000000        0x0 build/SAMD21_IOT_WG_ICM42688/production/_ext/1660664302/drv_spi.o
 .data          0x0000000000000000        0x0 build/SAMD21_IOT_WG_ICM42688/production/_ext/1164161090/wdrv_winc_gpio.o
 .bss           0x0000000000000000        0x0 build/SAMD21_IOT_WG_ICM42688/production/_ext/1164161090/wdrv_winc_gpio.o
 .data          0x0000000000000000        0x0 build/SAMD21_IOT_WG_ICM42688/production/_ext/1164161090/wdrv_winc_eint.o
 .bss           0x0000000000000000        0x0 build/SAMD21_IOT_WG_ICM42688/production/_ext/1164161090/wdrv_winc_eint.o
 .data          0x0000000000000000        0x0 build/SAMD21_IOT_WG_ICM42688/production/_ext/101005277/wdrv_winc_spi.o
 .data          0x0000000000000000        0x0 build/SAMD21_IOT_WG_ICM42688/production/_ext/90265895/nm_common.o
 .bss           0x0000000000000000        0x0 build/SAMD21_IOT_WG_ICM42688/production/_ext/90265895/nm_common.o
 .data          0x0000000000000000        0x0 build/SAMD21_IOT_WG_ICM42688/production/_ext/121554788/m2m_hif.o
 .data          0x0000000000000000        0x0 build/SAMD21_IOT_WG_ICM42688/production/_ext/121554788/nmspi.o
 .data          0x0000000000000000        0x0 build/SAMD21_IOT_WG_ICM42688/production/_ext/121554788/nmdrv.o
 .bss           0x0000000000000000        0x0 build/SAMD21_IOT_WG_ICM42688/production/_ext/121554788/nmdrv.o
 .text          0x0000000000000000       0x68 build/SAMD21_IOT_WG_ICM42688/production/_ext/121554788/m2m_periph.o
 .data          0x0000000000000000        0x0 build/SAMD21_IOT_WG_ICM42688/production/_ext/121554788/m2m_periph.o
 .bss           0x0000000000000000        0x0 build/SAMD21_IOT_WG_ICM42688/production/_ext/121554788/m2m_periph.o
 .debug_info    0x0000000000000000      0x60b build/SAMD21_IOT_WG_ICM42688/production/_ext/121554788/m2m_periph.o
 .debug_abbrev  0x0000000000000000      0x190 build/SAMD21_IOT_WG_ICM42688/production/_ext/121554788/m2m_periph.o
 .debug_loc     0x0000000000000000      0x455 build/SAMD21_IOT_WG_ICM42688/production/_ext/121554788/m2m_periph.o
 .debug_aranges
                0x0000000000000000       0x20 build/SAMD21_IOT_WG_ICM42688/production/_ext/121554788/m2m_periph.o
 .debug_line    0x0000000000000000      0x234 build/SAMD21_IOT_WG_ICM42688/production/_ext/121554788/m2m_periph.o
 .debug_str     0x0000000000000000      0x484 build/SAMD21_IOT_WG_ICM42688/production/_ext/121554788/m2m_periph.o
 .comment       0x0000000000000000       0x2c build/SAMD21_IOT_WG_ICM42688/production/_ext/121554788/m2m_periph.o
 .debug_frame   0x0000000000000000       0x7c build/SAMD21_IOT_WG_ICM42688/production/_ext/121554788/m2m_periph.o
 .ARM.attributes
                0x0000000000000000       0x2c build/SAMD21_IOT_WG_ICM42688/production/_ext/121554788/m2m_periph.o
 .data          0x0000000000000000        0x0 build/SAMD21_IOT_WG_ICM42688/production/_ext/121554788/nmasic.o
 .bss           0x0000000000000000        0x0 build/SAMD21_IOT_WG_ICM42688/production/_ext/121554788/nmbus.o
 .data          0x0000000000000000        0x0 build/SAMD21_IOT_WG_ICM42688/production/_ext/548032175/socket.o
 .data          0x0000000000000000        0x0 build/SAMD21_IOT_WG_ICM42688/production/_ext/548032175/inet_addr.o
 .bss           0x0000000000000000        0x0 build/SAMD21_IOT_WG_ICM42688/production/_ext/548032175/inet_addr.o
 .data          0x0000000000000000        0x0 build/SAMD21_IOT_WG_ICM42688/production/_ext/548032175/inet_ntop.o
 .bss           0x0000000000000000        0x0 build/SAMD21_IOT_WG_ICM42688/production/_ext/548032175/inet_ntop.o
 .data          0x0000000000000000        0x0 build/SAMD21_IOT_WG_ICM42688/production/_ext/609036575/flexible_flash.o
 .bss           0x0000000000000000        0x0 build/SAMD21_IOT_WG_ICM42688/production/_ext/609036575/flexible_flash.o
 .data          0x0000000000000000        0x0 build/SAMD21_IOT_WG_ICM42688/production/_ext/609036575/spi_flash.o
 .data          0x0000000000000000        0x0 build/SAMD21_IOT_WG_ICM42688/production/_ext/1784303044/wdrv_winc_osal.o
 .bss           0x0000000000000000        0x0 build/SAMD21_IOT_WG_ICM42688/production/_ext/1784303044/wdrv_winc_osal.o
 .text          0x0000000000000000      0x1f4 build/SAMD21_IOT_WG_ICM42688/production/_ext/907429946/wdrv_winc_softap.o
 .data          0x0000000000000000        0x0 build/SAMD21_IOT_WG_ICM42688/production/_ext/907429946/wdrv_winc_softap.o
 .bss           0x0000000000000000        0x0 build/SAMD21_IOT_WG_ICM42688/production/_ext/907429946/wdrv_winc_softap.o
 .debug_info    0x0000000000000000     0x157a build/SAMD21_IOT_WG_ICM42688/production/_ext/907429946/wdrv_winc_softap.o
 .debug_abbrev  0x0000000000000000      0x2bd build/SAMD21_IOT_WG_ICM42688/production/_ext/907429946/wdrv_winc_softap.o
 .debug_loc     0x0000000000000000      0x49e build/SAMD21_IOT_WG_ICM42688/production/_ext/907429946/wdrv_winc_softap.o
 .debug_aranges
                0x0000000000000000       0x20 build/SAMD21_IOT_WG_ICM42688/production/_ext/907429946/wdrv_winc_softap.o
 .debug_line    0x0000000000000000      0x610 build/SAMD21_IOT_WG_ICM42688/production/_ext/907429946/wdrv_winc_softap.o
 .debug_str     0x0000000000000000     0x1973 build/SAMD21_IOT_WG_ICM42688/production/_ext/907429946/wdrv_winc_softap.o
 .comment       0x0000000000000000       0x2c build/SAMD21_IOT_WG_ICM42688/production/_ext/907429946/wdrv_winc_softap.o
 .debug_frame   0x0000000000000000       0x6c build/SAMD21_IOT_WG_ICM42688/production/_ext/907429946/wdrv_winc_softap.o
 .ARM.attributes
                0x0000000000000000       0x2c build/SAMD21_IOT_WG_ICM42688/production/_ext/907429946/wdrv_winc_softap.o
 .text          0x0000000000000000      0x318 build/SAMD21_IOT_WG_ICM42688/production/_ext/907429946/wdrv_winc_bssfind.o
 .data          0x0000000000000000        0x0 build/SAMD21_IOT_WG_ICM42688/production/_ext/907429946/wdrv_winc_bssfind.o
 .bss           0x0000000000000000        0x0 build/SAMD21_IOT_WG_ICM42688/production/_ext/907429946/wdrv_winc_bssfind.o
 .debug_info    0x0000000000000000     0x17e2 build/SAMD21_IOT_WG_ICM42688/production/_ext/907429946/wdrv_winc_bssfind.o
 .debug_abbrev  0x0000000000000000      0x2e5 build/SAMD21_IOT_WG_ICM42688/production/_ext/907429946/wdrv_winc_bssfind.o
 .debug_loc     0x0000000000000000      0xcd6 build/SAMD21_IOT_WG_ICM42688/production/_ext/907429946/wdrv_winc_bssfind.o
 .debug_aranges
                0x0000000000000000       0x20 build/SAMD21_IOT_WG_ICM42688/production/_ext/907429946/wdrv_winc_bssfind.o
 .debug_line    0x0000000000000000      0x7e0 build/SAMD21_IOT_WG_ICM42688/production/_ext/907429946/wdrv_winc_bssfind.o
 .debug_str     0x0000000000000000     0x1cb7 build/SAMD21_IOT_WG_ICM42688/production/_ext/907429946/wdrv_winc_bssfind.o
 .comment       0x0000000000000000       0x2c build/SAMD21_IOT_WG_ICM42688/production/_ext/907429946/wdrv_winc_bssfind.o
 .debug_frame   0x0000000000000000      0x110 build/SAMD21_IOT_WG_ICM42688/production/_ext/907429946/wdrv_winc_bssfind.o
 .ARM.attributes
                0x0000000000000000       0x2c build/SAMD21_IOT_WG_ICM42688/production/_ext/907429946/wdrv_winc_bssfind.o
 .data          0x0000000000000000        0x0 build/SAMD21_IOT_WG_ICM42688/production/_ext/907429946/wdrv_winc_sta.o
 .bss           0x0000000000000000        0x0 build/SAMD21_IOT_WG_ICM42688/production/_ext/907429946/wdrv_winc_sta.o
 .text          0x0000000000000000      0x148 build/SAMD21_IOT_WG_ICM42688/production/_ext/907429946/wdrv_winc_wps.o
 .data          0x0000000000000000        0x0 build/SAMD21_IOT_WG_ICM42688/production/_ext/907429946/wdrv_winc_wps.o
 .bss           0x0000000000000000        0x0 build/SAMD21_IOT_WG_ICM42688/production/_ext/907429946/wdrv_winc_wps.o
 .rodata.str1.4
                0x0000000000000000        0x8 build/SAMD21_IOT_WG_ICM42688/production/_ext/907429946/wdrv_winc_wps.o
 .debug_info    0x0000000000000000     0x1271 build/SAMD21_IOT_WG_ICM42688/production/_ext/907429946/wdrv_winc_wps.o
 .debug_abbrev  0x0000000000000000      0x2e5 build/SAMD21_IOT_WG_ICM42688/production/_ext/907429946/wdrv_winc_wps.o
 .debug_loc     0x0000000000000000      0x5d4 build/SAMD21_IOT_WG_ICM42688/production/_ext/907429946/wdrv_winc_wps.o
 .debug_aranges
                0x0000000000000000       0x20 build/SAMD21_IOT_WG_ICM42688/production/_ext/907429946/wdrv_winc_wps.o
 .debug_line    0x0000000000000000      0x471 build/SAMD21_IOT_WG_ICM42688/production/_ext/907429946/wdrv_winc_wps.o
 .debug_str     0x0000000000000000     0x175f build/SAMD21_IOT_WG_ICM42688/production/_ext/907429946/wdrv_winc_wps.o
 .comment       0x0000000000000000       0x2c build/SAMD21_IOT_WG_ICM42688/production/_ext/907429946/wdrv_winc_wps.o
 .debug_frame   0x0000000000000000       0x68 build/SAMD21_IOT_WG_ICM42688/production/_ext/907429946/wdrv_winc_wps.o
 .ARM.attributes
                0x0000000000000000       0x2c build/SAMD21_IOT_WG_ICM42688/production/_ext/907429946/wdrv_winc_wps.o
 .text          0x0000000000000000      0x168 build/SAMD21_IOT_WG_ICM42688/production/_ext/907429946/wdrv_winc_assoc.o
 .data          0x0000000000000000        0x0 build/SAMD21_IOT_WG_ICM42688/production/_ext/907429946/wdrv_winc_assoc.o
 .bss           0x0000000000000000        0x0 build/SAMD21_IOT_WG_ICM42688/production/_ext/907429946/wdrv_winc_assoc.o
 .debug_info    0x0000000000000000     0x130f build/SAMD21_IOT_WG_ICM42688/production/_ext/907429946/wdrv_winc_assoc.o
 .debug_abbrev  0x0000000000000000      0x287 build/SAMD21_IOT_WG_ICM42688/production/_ext/907429946/wdrv_winc_assoc.o
 .debug_loc     0x0000000000000000      0x8bf build/SAMD21_IOT_WG_ICM42688/production/_ext/907429946/wdrv_winc_assoc.o
 .debug_aranges
                0x0000000000000000       0x20 build/SAMD21_IOT_WG_ICM42688/production/_ext/907429946/wdrv_winc_assoc.o
 .debug_line    0x0000000000000000      0x560 build/SAMD21_IOT_WG_ICM42688/production/_ext/907429946/wdrv_winc_assoc.o
 .debug_str     0x0000000000000000     0x177f build/SAMD21_IOT_WG_ICM42688/production/_ext/907429946/wdrv_winc_assoc.o
 .comment       0x0000000000000000       0x2c build/SAMD21_IOT_WG_ICM42688/production/_ext/907429946/wdrv_winc_assoc.o
 .debug_frame   0x0000000000000000       0x88 build/SAMD21_IOT_WG_ICM42688/production/_ext/907429946/wdrv_winc_assoc.o
 .ARM.attributes
                0x0000000000000000       0x2c build/SAMD21_IOT_WG_ICM42688/production/_ext/907429946/wdrv_winc_assoc.o
 .data          0x0000000000000000        0x0 build/SAMD21_IOT_WG_ICM42688/production/_ext/907429946/wdrv_winc_socket.o
 .bss           0x0000000000000000        0x0 build/SAMD21_IOT_WG_ICM42688/production/_ext/907429946/wdrv_winc_socket.o
 .data          0x0000000000000000        0x0 build/SAMD21_IOT_WG_ICM42688/production/_ext/907429946/wdrv_winc_systime.o
 .bss           0x0000000000000000        0x0 build/SAMD21_IOT_WG_ICM42688/production/_ext/907429946/wdrv_winc_systime.o
 .text          0x0000000000000000      0x1cc build/SAMD21_IOT_WG_ICM42688/production/_ext/907429946/wdrv_winc_enterprise.o
 .data          0x0000000000000000        0x0 build/SAMD21_IOT_WG_ICM42688/production/_ext/907429946/wdrv_winc_enterprise.o
 .bss           0x0000000000000000        0x0 build/SAMD21_IOT_WG_ICM42688/production/_ext/907429946/wdrv_winc_enterprise.o
 .rodata        0x0000000000000000        0x4 build/SAMD21_IOT_WG_ICM42688/production/_ext/907429946/wdrv_winc_enterprise.o
 .debug_info    0x0000000000000000     0x1546 build/SAMD21_IOT_WG_ICM42688/production/_ext/907429946/wdrv_winc_enterprise.o
 .debug_abbrev  0x0000000000000000      0x297 build/SAMD21_IOT_WG_ICM42688/production/_ext/907429946/wdrv_winc_enterprise.o
 .debug_loc     0x0000000000000000      0x84a build/SAMD21_IOT_WG_ICM42688/production/_ext/907429946/wdrv_winc_enterprise.o
 .debug_aranges
                0x0000000000000000       0x20 build/SAMD21_IOT_WG_ICM42688/production/_ext/907429946/wdrv_winc_enterprise.o
 .debug_line    0x0000000000000000      0x5a8 build/SAMD21_IOT_WG_ICM42688/production/_ext/907429946/wdrv_winc_enterprise.o
 .debug_str     0x0000000000000000     0x19ae build/SAMD21_IOT_WG_ICM42688/production/_ext/907429946/wdrv_winc_enterprise.o
 .comment       0x0000000000000000       0x2c build/SAMD21_IOT_WG_ICM42688/production/_ext/907429946/wdrv_winc_enterprise.o
 .debug_frame   0x0000000000000000       0xd4 build/SAMD21_IOT_WG_ICM42688/production/_ext/907429946/wdrv_winc_enterprise.o
 .ARM.attributes
                0x0000000000000000       0x2c build/SAMD21_IOT_WG_ICM42688/production/_ext/907429946/wdrv_winc_enterprise.o
 .text          0x0000000000000000      0x29c build/SAMD21_IOT_WG_ICM42688/production/_ext/907429946/wdrv_winc_nvm.o
 .data          0x0000000000000000        0x0 build/SAMD21_IOT_WG_ICM42688/production/_ext/907429946/wdrv_winc_nvm.o
 .bss           0x0000000000000000        0x0 build/SAMD21_IOT_WG_ICM42688/production/_ext/907429946/wdrv_winc_nvm.o
 .rodata        0x0000000000000000       0x18 build/SAMD21_IOT_WG_ICM42688/production/_ext/907429946/wdrv_winc_nvm.o
 .debug_info    0x0000000000000000     0x1972 build/SAMD21_IOT_WG_ICM42688/production/_ext/907429946/wdrv_winc_nvm.o
 .debug_abbrev  0x0000000000000000      0x375 build/SAMD21_IOT_WG_ICM42688/production/_ext/907429946/wdrv_winc_nvm.o
 .debug_loc     0x0000000000000000      0x898 build/SAMD21_IOT_WG_ICM42688/production/_ext/907429946/wdrv_winc_nvm.o
 .debug_aranges
                0x0000000000000000       0x20 build/SAMD21_IOT_WG_ICM42688/production/_ext/907429946/wdrv_winc_nvm.o
 .debug_ranges  0x0000000000000000       0x78 build/SAMD21_IOT_WG_ICM42688/production/_ext/907429946/wdrv_winc_nvm.o
 .debug_line    0x0000000000000000      0x76b build/SAMD21_IOT_WG_ICM42688/production/_ext/907429946/wdrv_winc_nvm.o
 .debug_str     0x0000000000000000     0x1e94 build/SAMD21_IOT_WG_ICM42688/production/_ext/907429946/wdrv_winc_nvm.o
 .comment       0x0000000000000000       0x2c build/SAMD21_IOT_WG_ICM42688/production/_ext/907429946/wdrv_winc_nvm.o
 .debug_frame   0x0000000000000000       0xb4 build/SAMD21_IOT_WG_ICM42688/production/_ext/907429946/wdrv_winc_nvm.o
 .ARM.attributes
                0x0000000000000000       0x2c build/SAMD21_IOT_WG_ICM42688/production/_ext/907429946/wdrv_winc_nvm.o
 .text          0x0000000000000000       0x68 build/SAMD21_IOT_WG_ICM42688/production/_ext/907429946/wdrv_winc_httpprovctx.o
 .data          0x0000000000000000        0x0 build/SAMD21_IOT_WG_ICM42688/production/_ext/907429946/wdrv_winc_httpprovctx.o
 .bss           0x0000000000000000        0x0 build/SAMD21_IOT_WG_ICM42688/production/_ext/907429946/wdrv_winc_httpprovctx.o
 .debug_info    0x0000000000000000      0x5c2 build/SAMD21_IOT_WG_ICM42688/production/_ext/907429946/wdrv_winc_httpprovctx.o
 .debug_abbrev  0x0000000000000000      0x1ea build/SAMD21_IOT_WG_ICM42688/production/_ext/907429946/wdrv_winc_httpprovctx.o
 .debug_loc     0x0000000000000000      0x195 build/SAMD21_IOT_WG_ICM42688/production/_ext/907429946/wdrv_winc_httpprovctx.o
 .debug_aranges
                0x0000000000000000       0x20 build/SAMD21_IOT_WG_ICM42688/production/_ext/907429946/wdrv_winc_httpprovctx.o
 .debug_line    0x0000000000000000      0x291 build/SAMD21_IOT_WG_ICM42688/production/_ext/907429946/wdrv_winc_httpprovctx.o
 .debug_str     0x0000000000000000      0x858 build/SAMD21_IOT_WG_ICM42688/production/_ext/907429946/wdrv_winc_httpprovctx.o
 .comment       0x0000000000000000       0x2c build/SAMD21_IOT_WG_ICM42688/production/_ext/907429946/wdrv_winc_httpprovctx.o
 .debug_frame   0x0000000000000000       0x5c build/SAMD21_IOT_WG_ICM42688/production/_ext/907429946/wdrv_winc_httpprovctx.o
 .ARM.attributes
                0x0000000000000000       0x2c build/SAMD21_IOT_WG_ICM42688/production/_ext/907429946/wdrv_winc_httpprovctx.o
 .text          0x0000000000000000       0xe8 build/SAMD21_IOT_WG_ICM42688/production/_ext/907429946/wdrv_winc_powersave.o
 .data          0x0000000000000000        0x0 build/SAMD21_IOT_WG_ICM42688/production/_ext/907429946/wdrv_winc_powersave.o
 .bss           0x0000000000000000        0x0 build/SAMD21_IOT_WG_ICM42688/production/_ext/907429946/wdrv_winc_powersave.o
 .debug_info    0x0000000000000000     0x12b0 build/SAMD21_IOT_WG_ICM42688/production/_ext/907429946/wdrv_winc_powersave.o
 .debug_abbrev  0x0000000000000000      0x239 build/SAMD21_IOT_WG_ICM42688/production/_ext/907429946/wdrv_winc_powersave.o
 .debug_loc     0x0000000000000000      0x422 build/SAMD21_IOT_WG_ICM42688/production/_ext/907429946/wdrv_winc_powersave.o
 .debug_aranges
                0x0000000000000000       0x20 build/SAMD21_IOT_WG_ICM42688/production/_ext/907429946/wdrv_winc_powersave.o
 .debug_line    0x0000000000000000      0x47b build/SAMD21_IOT_WG_ICM42688/production/_ext/907429946/wdrv_winc_powersave.o
 .debug_str     0x0000000000000000     0x185a build/SAMD21_IOT_WG_ICM42688/production/_ext/907429946/wdrv_winc_powersave.o
 .comment       0x0000000000000000       0x2c build/SAMD21_IOT_WG_ICM42688/production/_ext/907429946/wdrv_winc_powersave.o
 .debug_frame   0x0000000000000000       0x78 build/SAMD21_IOT_WG_ICM42688/production/_ext/907429946/wdrv_winc_powersave.o
 .ARM.attributes
                0x0000000000000000       0x2c build/SAMD21_IOT_WG_ICM42688/production/_ext/907429946/wdrv_winc_powersave.o
 .data          0x0000000000000000        0x0 build/SAMD21_IOT_WG_ICM42688/production/_ext/907429946/wdrv_winc_authctx.o
 .bss           0x0000000000000000        0x0 build/SAMD21_IOT_WG_ICM42688/production/_ext/907429946/wdrv_winc_authctx.o
 .text          0x0000000000000000      0x2ec build/SAMD21_IOT_WG_ICM42688/production/_ext/907429946/wdrv_winc_ssl.o
 .data          0x0000000000000000        0x0 build/SAMD21_IOT_WG_ICM42688/production/_ext/907429946/wdrv_winc_ssl.o
 .bss           0x0000000000000000        0x0 build/SAMD21_IOT_WG_ICM42688/production/_ext/907429946/wdrv_winc_ssl.o
 .rodata        0x0000000000000000       0x58 build/SAMD21_IOT_WG_ICM42688/production/_ext/907429946/wdrv_winc_ssl.o
 .debug_info    0x0000000000000000     0x1a1a build/SAMD21_IOT_WG_ICM42688/production/_ext/907429946/wdrv_winc_ssl.o
 .debug_abbrev  0x0000000000000000      0x338 build/SAMD21_IOT_WG_ICM42688/production/_ext/907429946/wdrv_winc_ssl.o
 .debug_loc     0x0000000000000000      0x96a build/SAMD21_IOT_WG_ICM42688/production/_ext/907429946/wdrv_winc_ssl.o
 .debug_aranges
                0x0000000000000000       0x20 build/SAMD21_IOT_WG_ICM42688/production/_ext/907429946/wdrv_winc_ssl.o
 .debug_line    0x0000000000000000      0x6a4 build/SAMD21_IOT_WG_ICM42688/production/_ext/907429946/wdrv_winc_ssl.o
 .debug_str     0x0000000000000000     0x1de6 build/SAMD21_IOT_WG_ICM42688/production/_ext/907429946/wdrv_winc_ssl.o
 .comment       0x0000000000000000       0x2c build/SAMD21_IOT_WG_ICM42688/production/_ext/907429946/wdrv_winc_ssl.o
 .debug_frame   0x0000000000000000       0xfc build/SAMD21_IOT_WG_ICM42688/production/_ext/907429946/wdrv_winc_ssl.o
 .ARM.attributes
                0x0000000000000000       0x2c build/SAMD21_IOT_WG_ICM42688/production/_ext/907429946/wdrv_winc_ssl.o
 .text          0x0000000000000000      0x108 build/SAMD21_IOT_WG_ICM42688/production/_ext/907429946/wdrv_winc_custie.o
 .data          0x0000000000000000        0x0 build/SAMD21_IOT_WG_ICM42688/production/_ext/907429946/wdrv_winc_custie.o
 .bss           0x0000000000000000        0x0 build/SAMD21_IOT_WG_ICM42688/production/_ext/907429946/wdrv_winc_custie.o
 .debug_info    0x0000000000000000      0x39d build/SAMD21_IOT_WG_ICM42688/production/_ext/907429946/wdrv_winc_custie.o
 .debug_abbrev  0x0000000000000000      0x14e build/SAMD21_IOT_WG_ICM42688/production/_ext/907429946/wdrv_winc_custie.o
 .debug_loc     0x0000000000000000      0x3c7 build/SAMD21_IOT_WG_ICM42688/production/_ext/907429946/wdrv_winc_custie.o
 .debug_aranges
                0x0000000000000000       0x20 build/SAMD21_IOT_WG_ICM42688/production/_ext/907429946/wdrv_winc_custie.o
 .debug_line    0x0000000000000000      0x2c2 build/SAMD21_IOT_WG_ICM42688/production/_ext/907429946/wdrv_winc_custie.o
 .debug_str     0x0000000000000000      0x60b build/SAMD21_IOT_WG_ICM42688/production/_ext/907429946/wdrv_winc_custie.o
 .comment       0x0000000000000000       0x2c build/SAMD21_IOT_WG_ICM42688/production/_ext/907429946/wdrv_winc_custie.o
 .debug_frame   0x0000000000000000       0x6c build/SAMD21_IOT_WG_ICM42688/production/_ext/907429946/wdrv_winc_custie.o
 .ARM.attributes
                0x0000000000000000       0x2c build/SAMD21_IOT_WG_ICM42688/production/_ext/907429946/wdrv_winc_custie.o
 .data          0x0000000000000000        0x0 build/SAMD21_IOT_WG_ICM42688/production/_ext/907429946/wdrv_winc_host_file.o
 .bss           0x0000000000000000        0x0 build/SAMD21_IOT_WG_ICM42688/production/_ext/907429946/wdrv_winc_host_file.o
 .data          0x0000000000000000        0x0 build/SAMD21_IOT_WG_ICM42688/production/_ext/907429946/wdrv_winc.o
 .data          0x0000000000000000        0x0 build/SAMD21_IOT_WG_ICM42688/production/_ext/907429946/wdrv_winc_bssctx.o
 .bss           0x0000000000000000        0x0 build/SAMD21_IOT_WG_ICM42688/production/_ext/907429946/wdrv_winc_bssctx.o
 .data          0x0000000000000000        0x0 build/SAMD21_IOT_WG_ICM42688/production/_ext/1750425231/plib_clock.o
 .bss           0x0000000000000000        0x0 build/SAMD21_IOT_WG_ICM42688/production/_ext/1750425231/plib_clock.o
 .data          0x0000000000000000        0x0 build/SAMD21_IOT_WG_ICM42688/production/_ext/1580516298/plib_dmac.o
 .data          0x0000000000000000        0x0 build/SAMD21_IOT_WG_ICM42688/production/_ext/503204096/plib_eic.o
 .text          0x0000000000000000        0x4 build/SAMD21_IOT_WG_ICM42688/production/_ext/1752574717/plib_evsys.o
 .data          0x0000000000000000        0x0 build/SAMD21_IOT_WG_ICM42688/production/_ext/1752574717/plib_evsys.o
 .bss           0x0000000000000000        0x0 build/SAMD21_IOT_WG_ICM42688/production/_ext/1752574717/plib_evsys.o
 .debug_info    0x0000000000000000       0x97 build/SAMD21_IOT_WG_ICM42688/production/_ext/1752574717/plib_evsys.o
 .debug_abbrev  0x0000000000000000       0x44 build/SAMD21_IOT_WG_ICM42688/production/_ext/1752574717/plib_evsys.o
 .debug_aranges
                0x0000000000000000       0x20 build/SAMD21_IOT_WG_ICM42688/production/_ext/1752574717/plib_evsys.o
 .debug_line    0x0000000000000000       0x75 build/SAMD21_IOT_WG_ICM42688/production/_ext/1752574717/plib_evsys.o
 .debug_str     0x0000000000000000      0x2cf build/SAMD21_IOT_WG_ICM42688/production/_ext/1752574717/plib_evsys.o
 .comment       0x0000000000000000       0x2c build/SAMD21_IOT_WG_ICM42688/production/_ext/1752574717/plib_evsys.o
 .debug_frame   0x0000000000000000       0x20 build/SAMD21_IOT_WG_ICM42688/production/_ext/1752574717/plib_evsys.o
 .ARM.attributes
                0x0000000000000000       0x2c build/SAMD21_IOT_WG_ICM42688/production/_ext/1752574717/plib_evsys.o
 .data          0x0000000000000000        0x0 build/SAMD21_IOT_WG_ICM42688/production/_ext/1580823105/plib_nvic.o
 .bss           0x0000000000000000        0x0 build/SAMD21_IOT_WG_ICM42688/production/_ext/1580823105/plib_nvic.o
 .data          0x0000000000000000        0x0 build/SAMD21_IOT_WG_ICM42688/production/_ext/11470383/plib_nvmctrl.o
 .bss           0x0000000000000000        0x0 build/SAMD21_IOT_WG_ICM42688/production/_ext/11470383/plib_nvmctrl.o
 .data          0x0000000000000000        0x0 build/SAMD21_IOT_WG_ICM42688/production/_ext/1580876256/plib_port.o
 .bss           0x0000000000000000        0x0 build/SAMD21_IOT_WG_ICM42688/production/_ext/1580876256/plib_port.o
 .data          0x0000000000000000        0x0 build/SAMD21_IOT_WG_ICM42688/production/_ext/1014017276/plib_sercom0_spi_master.o
 .bss           0x0000000000000000        0x0 build/SAMD21_IOT_WG_ICM42688/production/_ext/1014017276/plib_sercom0_spi_master.o
 .data          0x0000000000000000        0x0 build/SAMD21_IOT_WG_ICM42688/production/_ext/1014017276/plib_sercom2_spi_master.o
 .data          0x0000000000000000        0x0 build/SAMD21_IOT_WG_ICM42688/production/_ext/177673482/plib_sercom5_usart.o
 .bss           0x0000000000000000        0x0 build/SAMD21_IOT_WG_ICM42688/production/_ext/177673482/plib_sercom5_usart.o
 .data          0x0000000000000000        0x0 build/SAMD21_IOT_WG_ICM42688/production/_ext/223004715/plib_systick.o
 .bss           0x0000000000000000        0x0 build/SAMD21_IOT_WG_ICM42688/production/_ext/223004715/plib_systick.o
 .data          0x0000000000000000        0x0 build/SAMD21_IOT_WG_ICM42688/production/_ext/399410062/plib_tc3.o
 .data          0x0000000000000000        0x0 build/SAMD21_IOT_WG_ICM42688/production/_ext/399410062/plib_tc4.o
 .data          0x0000000000000000        0x0 build/SAMD21_IOT_WG_ICM42688/production/_ext/1357625803/xc32_monitor.o
 .bss           0x0000000000000000        0x0 build/SAMD21_IOT_WG_ICM42688/production/_ext/1357625803/xc32_monitor.o
 .data          0x0000000000000000        0x0 build/SAMD21_IOT_WG_ICM42688/production/_ext/1584719636/sys_dma.o
 .bss           0x0000000000000000        0x0 build/SAMD21_IOT_WG_ICM42688/production/_ext/1584719636/sys_dma.o
 .data          0x0000000000000000        0x0 build/SAMD21_IOT_WG_ICM42688/production/_ext/1318297016/sys_int.o
 .bss           0x0000000000000000        0x0 build/SAMD21_IOT_WG_ICM42688/production/_ext/1318297016/sys_int.o
 .data          0x0000000000000000        0x0 build/SAMD21_IOT_WG_ICM42688/production/_ext/1832905403/initialization.o
 .data          0x0000000000000000        0x0 build/SAMD21_IOT_WG_ICM42688/production/_ext/1832905403/interrupts.o
 .bss           0x0000000000000000        0x0 build/SAMD21_IOT_WG_ICM42688/production/_ext/1832905403/interrupts.o
 .data          0x0000000000000000        0x0 build/SAMD21_IOT_WG_ICM42688/production/_ext/1832905403/exceptions.o
 .bss           0x0000000000000000        0x0 build/SAMD21_IOT_WG_ICM42688/production/_ext/1832905403/exceptions.o
 .data          0x0000000000000000        0x0 build/SAMD21_IOT_WG_ICM42688/production/_ext/1832905403/startup_xc32.o
 .bss           0x0000000000000000        0x0 build/SAMD21_IOT_WG_ICM42688/production/_ext/1832905403/startup_xc32.o
 .text          0x0000000000000000        0x4 build/SAMD21_IOT_WG_ICM42688/production/_ext/1832905403/libc_syscalls.o
 .data          0x0000000000000000        0x0 build/SAMD21_IOT_WG_ICM42688/production/_ext/1832905403/libc_syscalls.o
 .bss           0x0000000000000000        0x0 build/SAMD21_IOT_WG_ICM42688/production/_ext/1832905403/libc_syscalls.o
 .debug_info    0x0000000000000000       0xa6 build/SAMD21_IOT_WG_ICM42688/production/_ext/1832905403/libc_syscalls.o
 .debug_abbrev  0x0000000000000000       0x5b build/SAMD21_IOT_WG_ICM42688/production/_ext/1832905403/libc_syscalls.o
 .debug_loc     0x0000000000000000       0x15 build/SAMD21_IOT_WG_ICM42688/production/_ext/1832905403/libc_syscalls.o
 .debug_aranges
                0x0000000000000000       0x20 build/SAMD21_IOT_WG_ICM42688/production/_ext/1832905403/libc_syscalls.o
 .debug_line    0x0000000000000000       0x6a build/SAMD21_IOT_WG_ICM42688/production/_ext/1832905403/libc_syscalls.o
 .debug_str     0x0000000000000000      0x2b1 build/SAMD21_IOT_WG_ICM42688/production/_ext/1832905403/libc_syscalls.o
 .comment       0x0000000000000000       0x2c build/SAMD21_IOT_WG_ICM42688/production/_ext/1832905403/libc_syscalls.o
 .debug_frame   0x0000000000000000       0x20 build/SAMD21_IOT_WG_ICM42688/production/_ext/1832905403/libc_syscalls.o
 .ARM.attributes
                0x0000000000000000       0x2c build/SAMD21_IOT_WG_ICM42688/production/_ext/1832905403/libc_syscalls.o
 .data          0x0000000000000000        0x0 build/SAMD21_IOT_WG_ICM42688/production/_ext/1832905403/tasks.o
 .bss           0x0000000000000000        0x0 build/SAMD21_IOT_WG_ICM42688/production/_ext/1832905403/tasks.o
 .data          0x0000000000000000        0x0 build/SAMD21_IOT_WG_ICM42688/production/_ext/1341251756/Icm426xxDriver_HL.o
 .bss           0x0000000000000000        0x0 build/SAMD21_IOT_WG_ICM42688/production/_ext/1341251756/Icm426xxDriver_HL.o
 .text          0x0000000000000000      0xd64 build/SAMD21_IOT_WG_ICM42688/production/_ext/1341251756/Icm426xxDriver_HL_apex.o
 .data          0x0000000000000000        0x0 build/SAMD21_IOT_WG_ICM42688/production/_ext/1341251756/Icm426xxDriver_HL_apex.o
 .bss           0x0000000000000000        0x0 build/SAMD21_IOT_WG_ICM42688/production/_ext/1341251756/Icm426xxDriver_HL_apex.o
 .debug_info    0x0000000000000000     0x2d26 build/SAMD21_IOT_WG_ICM42688/production/_ext/1341251756/Icm426xxDriver_HL_apex.o
 .debug_abbrev  0x0000000000000000      0x37d build/SAMD21_IOT_WG_ICM42688/production/_ext/1341251756/Icm426xxDriver_HL_apex.o
 .debug_loc     0x0000000000000000     0x1d25 build/SAMD21_IOT_WG_ICM42688/production/_ext/1341251756/Icm426xxDriver_HL_apex.o
 .debug_aranges
                0x0000000000000000       0x20 build/SAMD21_IOT_WG_ICM42688/production/_ext/1341251756/Icm426xxDriver_HL_apex.o
 .debug_ranges  0x0000000000000000       0x30 build/SAMD21_IOT_WG_ICM42688/production/_ext/1341251756/Icm426xxDriver_HL_apex.o
 .debug_line    0x0000000000000000     0x10ab build/SAMD21_IOT_WG_ICM42688/production/_ext/1341251756/Icm426xxDriver_HL_apex.o
 .debug_str     0x0000000000000000     0x2bfe build/SAMD21_IOT_WG_ICM42688/production/_ext/1341251756/Icm426xxDriver_HL_apex.o
 .comment       0x0000000000000000       0x2c build/SAMD21_IOT_WG_ICM42688/production/_ext/1341251756/Icm426xxDriver_HL_apex.o
 .debug_frame   0x0000000000000000      0x3c8 build/SAMD21_IOT_WG_ICM42688/production/_ext/1341251756/Icm426xxDriver_HL_apex.o
 .ARM.attributes
                0x0000000000000000       0x2c build/SAMD21_IOT_WG_ICM42688/production/_ext/1341251756/Icm426xxDriver_HL_apex.o
 .text          0x0000000000000000      0xa4c build/SAMD21_IOT_WG_ICM42688/production/_ext/1341251756/Icm426xxSelfTest.o
 .data          0x0000000000000000        0x0 build/SAMD21_IOT_WG_ICM42688/production/_ext/1341251756/Icm426xxSelfTest.o
 .bss           0x0000000000000000        0x0 build/SAMD21_IOT_WG_ICM42688/production/_ext/1341251756/Icm426xxSelfTest.o
 .debug_info    0x0000000000000000     0x1ae7 build/SAMD21_IOT_WG_ICM42688/production/_ext/1341251756/Icm426xxSelfTest.o
 .debug_abbrev  0x0000000000000000      0x3f3 build/SAMD21_IOT_WG_ICM42688/production/_ext/1341251756/Icm426xxSelfTest.o
 .debug_loc     0x0000000000000000     0x1352 build/SAMD21_IOT_WG_ICM42688/production/_ext/1341251756/Icm426xxSelfTest.o
 .debug_aranges
                0x0000000000000000       0x20 build/SAMD21_IOT_WG_ICM42688/production/_ext/1341251756/Icm426xxSelfTest.o
 .debug_ranges  0x0000000000000000      0x120 build/SAMD21_IOT_WG_ICM42688/production/_ext/1341251756/Icm426xxSelfTest.o
 .debug_line    0x0000000000000000      0xb01 build/SAMD21_IOT_WG_ICM42688/production/_ext/1341251756/Icm426xxSelfTest.o
 .debug_str     0x0000000000000000     0x1586 build/SAMD21_IOT_WG_ICM42688/production/_ext/1341251756/Icm426xxSelfTest.o
 .comment       0x0000000000000000       0x2c build/SAMD21_IOT_WG_ICM42688/production/_ext/1341251756/Icm426xxSelfTest.o
 .debug_frame   0x0000000000000000       0xc0 build/SAMD21_IOT_WG_ICM42688/production/_ext/1341251756/Icm426xxSelfTest.o
 .ARM.attributes
                0x0000000000000000       0x2c build/SAMD21_IOT_WG_ICM42688/production/_ext/1341251756/Icm426xxSelfTest.o
 .data          0x0000000000000000        0x0 build/SAMD21_IOT_WG_ICM42688/production/_ext/1341251756/Icm426xxTransport.o
 .bss           0x0000000000000000        0x0 build/SAMD21_IOT_WG_ICM42688/production/_ext/1341251756/Icm426xxTransport.o
 .text          0x0000000000000000      0x208 build/SAMD21_IOT_WG_ICM42688/production/_ext/299863938/ssi_comms.o
 .data          0x0000000000000000        0x8 build/SAMD21_IOT_WG_ICM42688/production/_ext/299863938/ssi_comms.o
 .bss           0x0000000000000000       0x20 build/SAMD21_IOT_WG_ICM42688/production/_ext/299863938/ssi_comms.o
 .rodata.str1.4
                0x0000000000000000       0x14 build/SAMD21_IOT_WG_ICM42688/production/_ext/299863938/ssi_comms.o
 .debug_info    0x0000000000000000      0x5fc build/SAMD21_IOT_WG_ICM42688/production/_ext/299863938/ssi_comms.o
 .debug_abbrev  0x0000000000000000      0x2b0 build/SAMD21_IOT_WG_ICM42688/production/_ext/299863938/ssi_comms.o
 .debug_loc     0x0000000000000000      0x458 build/SAMD21_IOT_WG_ICM42688/production/_ext/299863938/ssi_comms.o
 .debug_aranges
                0x0000000000000000       0x20 build/SAMD21_IOT_WG_ICM42688/production/_ext/299863938/ssi_comms.o
 .debug_ranges  0x0000000000000000       0x48 build/SAMD21_IOT_WG_ICM42688/production/_ext/299863938/ssi_comms.o
 .debug_line    0x0000000000000000      0x307 build/SAMD21_IOT_WG_ICM42688/production/_ext/299863938/ssi_comms.o
 .debug_str     0x0000000000000000      0x465 build/SAMD21_IOT_WG_ICM42688/production/_ext/299863938/ssi_comms.o
 .comment       0x0000000000000000       0x2c build/SAMD21_IOT_WG_ICM42688/production/_ext/299863938/ssi_comms.o
 .debug_frame   0x0000000000000000      0x10c build/SAMD21_IOT_WG_ICM42688/production/_ext/299863938/ssi_comms.o
 .ARM.attributes
                0x0000000000000000       0x2c build/SAMD21_IOT_WG_ICM42688/production/_ext/299863938/ssi_comms.o
 .data          0x0000000000000000        0x0 build/SAMD21_IOT_WG_ICM42688/production/_ext/1360937237/main.o
 .data          0x0000000000000000        0x0 build/SAMD21_IOT_WG_ICM42688/production/_ext/1360937237/ringbuffer.o
 .bss           0x0000000000000000        0x0 build/SAMD21_IOT_WG_ICM42688/production/_ext/1360937237/ringbuffer.o
 .data          0x0000000000000000        0x0 build/SAMD21_IOT_WG_ICM42688/production/_ext/1360937237/app.o
 .data          0x0000000000000000        0x0 build/SAMD21_IOT_WG_ICM42688/production/_ext/1360937237/winc1500_tcp_client.o
 .text          0x0000000000000000        0x0 c:/program files/microchip/xc32/v4.60/bin/bin/../../lib/gcc/pic32c/8.3.1/../../../../pic32c/lib/thumb/v6-m/nofp\libpic32c.a(data_init.o)
 .data          0x0000000000000000        0x0 c:/program files/microchip/xc32/v4.60/bin/bin/../../lib/gcc/pic32c/8.3.1/../../../../pic32c/lib/thumb/v6-m/nofp\libpic32c.a(data_init.o)
 .xc_stack_usage
                0x0000000000000000       0x68 c:/program files/microchip/xc32/v4.60/bin/bin/../../lib/gcc/pic32c/8.3.1/../../../../pic32c/lib/thumb/v6-m/nofp\libpic32c.a(data_init.o)
 .xc_stack_usage.hdr
                0x0000000000000000        0xe c:/program files/microchip/xc32/v4.60/bin/bin/../../lib/gcc/pic32c/8.3.1/../../../../pic32c/lib/thumb/v6-m/nofp\libpic32c.a(data_init.o)
 .text          0x0000000000000000        0x0 c:/program files/microchip/xc32/v4.60/bin/bin/../../lib/gcc/pic32c/8.3.1/../../../../pic32c/lib/thumb/v6-m/nofp\libc-size-musl.a(memcpy.o)
 .data          0x0000000000000000        0x0 c:/program files/microchip/xc32/v4.60/bin/bin/../../lib/gcc/pic32c/8.3.1/../../../../pic32c/lib/thumb/v6-m/nofp\libc-size-musl.a(memcpy.o)
 .bss           0x0000000000000000        0x0 c:/program files/microchip/xc32/v4.60/bin/bin/../../lib/gcc/pic32c/8.3.1/../../../../pic32c/lib/thumb/v6-m/nofp\libc-size-musl.a(memcpy.o)
 .xc_stack_usage
                0x0000000000000000       0x14 c:/program files/microchip/xc32/v4.60/bin/bin/../../lib/gcc/pic32c/8.3.1/../../../../pic32c/lib/thumb/v6-m/nofp\libc-size-musl.a(memcpy.o)
 .xc_stack_usage.hdr
                0x0000000000000000        0xe c:/program files/microchip/xc32/v4.60/bin/bin/../../lib/gcc/pic32c/8.3.1/../../../../pic32c/lib/thumb/v6-m/nofp\libc-size-musl.a(memcpy.o)
 .text          0x0000000000000000        0x0 c:/program files/microchip/xc32/v4.60/bin/bin/../../lib/gcc/pic32c/8.3.1/../../../../pic32c/lib/thumb/v6-m/nofp\libc-size-musl.a(memset.o)
 .data          0x0000000000000000        0x0 c:/program files/microchip/xc32/v4.60/bin/bin/../../lib/gcc/pic32c/8.3.1/../../../../pic32c/lib/thumb/v6-m/nofp\libc-size-musl.a(memset.o)
 .bss           0x0000000000000000        0x0 c:/program files/microchip/xc32/v4.60/bin/bin/../../lib/gcc/pic32c/8.3.1/../../../../pic32c/lib/thumb/v6-m/nofp\libc-size-musl.a(memset.o)
 .xc_stack_usage
                0x0000000000000000       0x14 c:/program files/microchip/xc32/v4.60/bin/bin/../../lib/gcc/pic32c/8.3.1/../../../../pic32c/lib/thumb/v6-m/nofp\libc-size-musl.a(memset.o)
 .xc_stack_usage.hdr
                0x0000000000000000        0xe c:/program files/microchip/xc32/v4.60/bin/bin/../../lib/gcc/pic32c/8.3.1/../../../../pic32c/lib/thumb/v6-m/nofp\libc-size-musl.a(memset.o)
 .text          0x0000000000000000        0x0 c:/program files/microchip/xc32/v4.60/bin/bin/../../lib/gcc/pic32c/8.3.1/../../../../pic32c/lib/thumb/v6-m/nofp\libc-size-musl.a(strlen.o)
 .data          0x0000000000000000        0x0 c:/program files/microchip/xc32/v4.60/bin/bin/../../lib/gcc/pic32c/8.3.1/../../../../pic32c/lib/thumb/v6-m/nofp\libc-size-musl.a(strlen.o)
 .bss           0x0000000000000000        0x0 c:/program files/microchip/xc32/v4.60/bin/bin/../../lib/gcc/pic32c/8.3.1/../../../../pic32c/lib/thumb/v6-m/nofp\libc-size-musl.a(strlen.o)
 .xc_stack_usage
                0x0000000000000000       0x14 c:/program files/microchip/xc32/v4.60/bin/bin/../../lib/gcc/pic32c/8.3.1/../../../../pic32c/lib/thumb/v6-m/nofp\libc-size-musl.a(strlen.o)
 .xc_stack_usage.hdr
                0x0000000000000000        0xe c:/program files/microchip/xc32/v4.60/bin/bin/../../lib/gcc/pic32c/8.3.1/../../../../pic32c/lib/thumb/v6-m/nofp\libc-size-musl.a(strlen.o)
 .text          0x0000000000000000        0x0 c:/program files/microchip/xc32/v4.60/bin/bin/../../lib/gcc/pic32c/8.3.1/../../../../pic32c/lib/thumb/v6-m/nofp\libc-size-musl.a(strchr.o)
 .data          0x0000000000000000        0x0 c:/program files/microchip/xc32/v4.60/bin/bin/../../lib/gcc/pic32c/8.3.1/../../../../pic32c/lib/thumb/v6-m/nofp\libc-size-musl.a(strchr.o)
 .bss           0x0000000000000000        0x0 c:/program files/microchip/xc32/v4.60/bin/bin/../../lib/gcc/pic32c/8.3.1/../../../../pic32c/lib/thumb/v6-m/nofp\libc-size-musl.a(strchr.o)
 .xc_stack_usage
                0x0000000000000000       0x14 c:/program files/microchip/xc32/v4.60/bin/bin/../../lib/gcc/pic32c/8.3.1/../../../../pic32c/lib/thumb/v6-m/nofp\libc-size-musl.a(strchr.o)
 .xc_stack_usage.hdr
                0x0000000000000000        0xe c:/program files/microchip/xc32/v4.60/bin/bin/../../lib/gcc/pic32c/8.3.1/../../../../pic32c/lib/thumb/v6-m/nofp\libc-size-musl.a(strchr.o)
 .text          0x0000000000000000        0x0 c:/program files/microchip/xc32/v4.60/bin/bin/../../lib/gcc/pic32c/8.3.1/../../../../pic32c/lib/thumb/v6-m/nofp\libc-size-musl.a(strchrnul.o)
 .data          0x0000000000000000        0x0 c:/program files/microchip/xc32/v4.60/bin/bin/../../lib/gcc/pic32c/8.3.1/../../../../pic32c/lib/thumb/v6-m/nofp\libc-size-musl.a(strchrnul.o)
 .bss           0x0000000000000000        0x0 c:/program files/microchip/xc32/v4.60/bin/bin/../../lib/gcc/pic32c/8.3.1/../../../../pic32c/lib/thumb/v6-m/nofp\libc-size-musl.a(strchrnul.o)
 .xc_stack_usage
                0x0000000000000000       0x19 c:/program files/microchip/xc32/v4.60/bin/bin/../../lib/gcc/pic32c/8.3.1/../../../../pic32c/lib/thumb/v6-m/nofp\libc-size-musl.a(strchrnul.o)
 .xc_stack_usage.hdr
                0x0000000000000000        0xe c:/program files/microchip/xc32/v4.60/bin/bin/../../lib/gcc/pic32c/8.3.1/../../../../pic32c/lib/thumb/v6-m/nofp\libc-size-musl.a(strchrnul.o)
 .text          0x0000000000000000        0x0 c:/program files/microchip/xc32/v4.60/bin/bin/../../lib/gcc/pic32c/8.3.1/../../../../pic32c/lib/thumb/v6-m/nofp\libc-size-musl.a(strcmp.o)
 .data          0x0000000000000000        0x0 c:/program files/microchip/xc32/v4.60/bin/bin/../../lib/gcc/pic32c/8.3.1/../../../../pic32c/lib/thumb/v6-m/nofp\libc-size-musl.a(strcmp.o)
 .bss           0x0000000000000000        0x0 c:/program files/microchip/xc32/v4.60/bin/bin/../../lib/gcc/pic32c/8.3.1/../../../../pic32c/lib/thumb/v6-m/nofp\libc-size-musl.a(strcmp.o)
 .xc_stack_usage
                0x0000000000000000       0x14 c:/program files/microchip/xc32/v4.60/bin/bin/../../lib/gcc/pic32c/8.3.1/../../../../pic32c/lib/thumb/v6-m/nofp\libc-size-musl.a(strcmp.o)
 .text.strcmp   0x0000000000000000       0x16 c:/program files/microchip/xc32/v4.60/bin/bin/../../lib/gcc/pic32c/8.3.1/../../../../pic32c/lib/thumb/v6-m/nofp\libc-size-musl.a(strcmp.o)
 .xc_stack_usage.hdr
                0x0000000000000000        0xe c:/program files/microchip/xc32/v4.60/bin/bin/../../lib/gcc/pic32c/8.3.1/../../../../pic32c/lib/thumb/v6-m/nofp\libc-size-musl.a(strcmp.o)
 .debug_info    0x0000000000000000       0x95 c:/program files/microchip/xc32/v4.60/bin/bin/../../lib/gcc/pic32c/8.3.1/../../../../pic32c/lib/thumb/v6-m/nofp\libc-size-musl.a(strcmp.o)
 .debug_abbrev  0x0000000000000000       0x6e c:/program files/microchip/xc32/v4.60/bin/bin/../../lib/gcc/pic32c/8.3.1/../../../../pic32c/lib/thumb/v6-m/nofp\libc-size-musl.a(strcmp.o)
 .debug_loc     0x0000000000000000       0x96 c:/program files/microchip/xc32/v4.60/bin/bin/../../lib/gcc/pic32c/8.3.1/../../../../pic32c/lib/thumb/v6-m/nofp\libc-size-musl.a(strcmp.o)
 .debug_aranges
                0x0000000000000000       0x20 c:/program files/microchip/xc32/v4.60/bin/bin/../../lib/gcc/pic32c/8.3.1/../../../../pic32c/lib/thumb/v6-m/nofp\libc-size-musl.a(strcmp.o)
 .debug_ranges  0x0000000000000000       0x10 c:/program files/microchip/xc32/v4.60/bin/bin/../../lib/gcc/pic32c/8.3.1/../../../../pic32c/lib/thumb/v6-m/nofp\libc-size-musl.a(strcmp.o)
 .debug_line    0x0000000000000000       0xb9 c:/program files/microchip/xc32/v4.60/bin/bin/../../lib/gcc/pic32c/8.3.1/../../../../pic32c/lib/thumb/v6-m/nofp\libc-size-musl.a(strcmp.o)
 .debug_str     0x0000000000000000      0x1ff c:/program files/microchip/xc32/v4.60/bin/bin/../../lib/gcc/pic32c/8.3.1/../../../../pic32c/lib/thumb/v6-m/nofp\libc-size-musl.a(strcmp.o)
 .comment       0x0000000000000000       0x2c c:/program files/microchip/xc32/v4.60/bin/bin/../../lib/gcc/pic32c/8.3.1/../../../../pic32c/lib/thumb/v6-m/nofp\libc-size-musl.a(strcmp.o)
 .note.GNU-stack
                0x0000000000000000        0x0 c:/program files/microchip/xc32/v4.60/bin/bin/../../lib/gcc/pic32c/8.3.1/../../../../pic32c/lib/thumb/v6-m/nofp\libc-size-musl.a(strcmp.o)
 .debug_frame   0x0000000000000000       0x28 c:/program files/microchip/xc32/v4.60/bin/bin/../../lib/gcc/pic32c/8.3.1/../../../../pic32c/lib/thumb/v6-m/nofp\libc-size-musl.a(strcmp.o)
 .ARM.attributes
                0x0000000000000000       0x2e c:/program files/microchip/xc32/v4.60/bin/bin/../../lib/gcc/pic32c/8.3.1/../../../../pic32c/lib/thumb/v6-m/nofp\libc-size-musl.a(strcmp.o)
 .text          0x0000000000000000        0x0 c:/program files/microchip/xc32/v4.60/bin/bin/../../lib/gcc/pic32c/8.3.1/../../../../pic32c/lib/thumb/v6-m/nofp\libc-size-musl.a(strnlen.o)
 .data          0x0000000000000000        0x0 c:/program files/microchip/xc32/v4.60/bin/bin/../../lib/gcc/pic32c/8.3.1/../../../../pic32c/lib/thumb/v6-m/nofp\libc-size-musl.a(strnlen.o)
 .bss           0x0000000000000000        0x0 c:/program files/microchip/xc32/v4.60/bin/bin/../../lib/gcc/pic32c/8.3.1/../../../../pic32c/lib/thumb/v6-m/nofp\libc-size-musl.a(strnlen.o)
 .xc_stack_usage
                0x0000000000000000       0x15 c:/program files/microchip/xc32/v4.60/bin/bin/../../lib/gcc/pic32c/8.3.1/../../../../pic32c/lib/thumb/v6-m/nofp\libc-size-musl.a(strnlen.o)
 .xc_stack_usage.hdr
                0x0000000000000000        0xe c:/program files/microchip/xc32/v4.60/bin/bin/../../lib/gcc/pic32c/8.3.1/../../../../pic32c/lib/thumb/v6-m/nofp\libc-size-musl.a(strnlen.o)
 .text          0x0000000000000000        0x0 c:/program files/microchip/xc32/v4.60/bin/bin/../../lib/gcc/pic32c/8.3.1/../../../../pic32c/lib/thumb/v6-m/nofp\libc-size-musl.a(memchr.o)
 .data          0x0000000000000000        0x0 c:/program files/microchip/xc32/v4.60/bin/bin/../../lib/gcc/pic32c/8.3.1/../../../../pic32c/lib/thumb/v6-m/nofp\libc-size-musl.a(memchr.o)
 .bss           0x0000000000000000        0x0 c:/program files/microchip/xc32/v4.60/bin/bin/../../lib/gcc/pic32c/8.3.1/../../../../pic32c/lib/thumb/v6-m/nofp\libc-size-musl.a(memchr.o)
 .xc_stack_usage
                0x0000000000000000       0x14 c:/program files/microchip/xc32/v4.60/bin/bin/../../lib/gcc/pic32c/8.3.1/../../../../pic32c/lib/thumb/v6-m/nofp\libc-size-musl.a(memchr.o)
 .xc_stack_usage.hdr
                0x0000000000000000        0xe c:/program files/microchip/xc32/v4.60/bin/bin/../../lib/gcc/pic32c/8.3.1/../../../../pic32c/lib/thumb/v6-m/nofp\libc-size-musl.a(memchr.o)
 .text          0x0000000000000000        0x0 c:/program files/microchip/xc32/v4.60/bin/bin/../../lib/gcc/pic32c/8.3.1/../../../../pic32c/lib/thumb/v6-m/nofp\liblmalloc-musl.a(lite_calloc.o)
 .data          0x0000000000000000        0x0 c:/program files/microchip/xc32/v4.60/bin/bin/../../lib/gcc/pic32c/8.3.1/../../../../pic32c/lib/thumb/v6-m/nofp\liblmalloc-musl.a(lite_calloc.o)
 .bss           0x0000000000000000        0x0 c:/program files/microchip/xc32/v4.60/bin/bin/../../lib/gcc/pic32c/8.3.1/../../../../pic32c/lib/thumb/v6-m/nofp\liblmalloc-musl.a(lite_calloc.o)
 .xc_stack_usage
                0x0000000000000000       0x1d c:/program files/microchip/xc32/v4.60/bin/bin/../../lib/gcc/pic32c/8.3.1/../../../../pic32c/lib/thumb/v6-m/nofp\liblmalloc-musl.a(lite_calloc.o)
 .xc_stack_usage.hdr
                0x0000000000000000        0xe c:/program files/microchip/xc32/v4.60/bin/bin/../../lib/gcc/pic32c/8.3.1/../../../../pic32c/lib/thumb/v6-m/nofp\liblmalloc-musl.a(lite_calloc.o)
 .text          0x0000000000000000        0x0 c:/program files/microchip/xc32/v4.60/bin/bin/../../lib/gcc/pic32c/8.3.1/../../../../pic32c/lib/thumb/v6-m/nofp\liblmalloc-musl.a(lite_free.o)
 .data          0x0000000000000000        0x0 c:/program files/microchip/xc32/v4.60/bin/bin/../../lib/gcc/pic32c/8.3.1/../../../../pic32c/lib/thumb/v6-m/nofp\liblmalloc-musl.a(lite_free.o)
 .xc_stack_usage
                0x0000000000000000       0x59 c:/program files/microchip/xc32/v4.60/bin/bin/../../lib/gcc/pic32c/8.3.1/../../../../pic32c/lib/thumb/v6-m/nofp\liblmalloc-musl.a(lite_free.o)
 .xc_stack_usage.hdr
                0x0000000000000000        0xe c:/program files/microchip/xc32/v4.60/bin/bin/../../lib/gcc/pic32c/8.3.1/../../../../pic32c/lib/thumb/v6-m/nofp\liblmalloc-musl.a(lite_free.o)
 .text          0x0000000000000000        0x0 c:/program files/microchip/xc32/v4.60/bin/bin/../../lib/gcc/pic32c/8.3.1/../../../../pic32c/lib/thumb/v6-m/nofp\liblmalloc-musl.a(lite_malloc.o)
 .bss           0x0000000000000000        0x0 c:/program files/microchip/xc32/v4.60/bin/bin/../../lib/gcc/pic32c/8.3.1/../../../../pic32c/lib/thumb/v6-m/nofp\liblmalloc-musl.a(lite_malloc.o)
 .xc_stack_usage
                0x0000000000000000       0x1d c:/program files/microchip/xc32/v4.60/bin/bin/../../lib/gcc/pic32c/8.3.1/../../../../pic32c/lib/thumb/v6-m/nofp\liblmalloc-musl.a(lite_malloc.o)
 .xc_stack_usage.hdr
                0x0000000000000000        0xe c:/program files/microchip/xc32/v4.60/bin/bin/../../lib/gcc/pic32c/8.3.1/../../../../pic32c/lib/thumb/v6-m/nofp\liblmalloc-musl.a(lite_malloc.o)
 .ARM.attributes
                0x0000000000000000       0x2c c:/program files/microchip/xc32/v4.60/bin/bin/../../lib/gcc/pic32c/8.3.1/../../../../pic32c/lib/thumb/v6-m/nofp\libm-fast-emfloat.a(pow.o)
 .comment       0x0000000000000000       0x2c c:/program files/microchip/xc32/v4.60/bin/bin/../../lib/gcc/pic32c/8.3.1/../../../../pic32c/lib/thumb/v6-m/nofp\libm-fast-emfloat.a(pow.o)
 .text.pow      0x0000000000000000      0x460 c:/program files/microchip/xc32/v4.60/bin/bin/../../lib/gcc/pic32c/8.3.1/../../../../pic32c/lib/thumb/v6-m/nofp\libm-fast-emfloat.a(pow.o)
 .xc_stack_usage.hdr
                0x0000000000000000        0xe c:/program files/microchip/xc32/v4.60/bin/bin/../../lib/gcc/pic32c/8.3.1/../../../../pic32c/lib/thumb/v6-m/nofp\libm-fast-emfloat.a(pow.o)
 .xc_stack_usage
                0x0000000000000000       0x11 c:/program files/microchip/xc32/v4.60/bin/bin/../../lib/gcc/pic32c/8.3.1/../../../../pic32c/lib/thumb/v6-m/nofp\libm-fast-emfloat.a(pow.o)
 .ARM.attributes
                0x0000000000000000       0x1c c:/program files/microchip/xc32/v4.60/bin/bin/../../lib/gcc/pic32c/8.3.1/../../../../pic32c/lib/thumb/v6-m/nofp\libm-fast-emfloat.a(__aeabi_dadd.o)
 .text.__aeabi_dadd
                0x0000000000000000      0x1c8 c:/program files/microchip/xc32/v4.60/bin/bin/../../lib/gcc/pic32c/8.3.1/../../../../pic32c/lib/thumb/v6-m/nofp\libm-fast-emfloat.a(__aeabi_dadd.o)
 .xc_stack_usage.hdr
                0x0000000000000000        0xe c:/program files/microchip/xc32/v4.60/bin/bin/../../lib/gcc/pic32c/8.3.1/../../../../pic32c/lib/thumb/v6-m/nofp\libm-fast-emfloat.a(__aeabi_dadd.o)
 .xc_stack_usage
                0x0000000000000000       0x41 c:/program files/microchip/xc32/v4.60/bin/bin/../../lib/gcc/pic32c/8.3.1/../../../../pic32c/lib/thumb/v6-m/nofp\libm-fast-emfloat.a(__aeabi_dadd.o)
 .ARM.attributes
                0x0000000000000000       0x1c c:/program files/microchip/xc32/v4.60/bin/bin/../../lib/gcc/pic32c/8.3.1/../../../../pic32c/lib/thumb/v6-m/nofp\libm-fast-emfloat.a(__aeabi_dmul_aux.o)
 .text.__aeabi_dmul_aux
                0x0000000000000000      0x18a c:/program files/microchip/xc32/v4.60/bin/bin/../../lib/gcc/pic32c/8.3.1/../../../../pic32c/lib/thumb/v6-m/nofp\libm-fast-emfloat.a(__aeabi_dmul_aux.o)
 .xc_stack_usage.hdr
                0x0000000000000000        0xe c:/program files/microchip/xc32/v4.60/bin/bin/../../lib/gcc/pic32c/8.3.1/../../../../pic32c/lib/thumb/v6-m/nofp\libm-fast-emfloat.a(__aeabi_dmul_aux.o)
 .xc_stack_usage
                0x0000000000000000       0x38 c:/program files/microchip/xc32/v4.60/bin/bin/../../lib/gcc/pic32c/8.3.1/../../../../pic32c/lib/thumb/v6-m/nofp\libm-fast-emfloat.a(__aeabi_dmul_aux.o)
 .ARM.attributes
                0x0000000000000000       0x1c c:/program files/microchip/xc32/v4.60/bin/bin/../../lib/gcc/pic32c/8.3.1/../../../../pic32c/lib/thumb/v6-m/nofp\libm-fast-emfloat.a(__aeabi_fdiv.o)
 .text.__aeabi_fdiv
                0x0000000000000000       0x94 c:/program files/microchip/xc32/v4.60/bin/bin/../../lib/gcc/pic32c/8.3.1/../../../../pic32c/lib/thumb/v6-m/nofp\libm-fast-emfloat.a(__aeabi_fdiv.o)
 .xc_stack_usage.hdr
                0x0000000000000000        0xe c:/program files/microchip/xc32/v4.60/bin/bin/../../lib/gcc/pic32c/8.3.1/../../../../pic32c/lib/thumb/v6-m/nofp\libm-fast-emfloat.a(__aeabi_fdiv.o)
 .xc_stack_usage
                0x0000000000000000       0x1a c:/program files/microchip/xc32/v4.60/bin/bin/../../lib/gcc/pic32c/8.3.1/../../../../pic32c/lib/thumb/v6-m/nofp\libm-fast-emfloat.a(__aeabi_fdiv.o)
 .ARM.attributes
                0x0000000000000000       0x1c c:/program files/microchip/xc32/v4.60/bin/bin/../../lib/gcc/pic32c/8.3.1/../../../../pic32c/lib/thumb/v6-m/nofp\libm-fast-emfloat.a(__aeabi_ddiv.o)
 .text.__aeabi_ddiv
                0x0000000000000000       0xc4 c:/program files/microchip/xc32/v4.60/bin/bin/../../lib/gcc/pic32c/8.3.1/../../../../pic32c/lib/thumb/v6-m/nofp\libm-fast-emfloat.a(__aeabi_ddiv.o)
 .xc_stack_usage.hdr
                0x0000000000000000        0xe c:/program files/microchip/xc32/v4.60/bin/bin/../../lib/gcc/pic32c/8.3.1/../../../../pic32c/lib/thumb/v6-m/nofp\libm-fast-emfloat.a(__aeabi_ddiv.o)
 .xc_stack_usage
                0x0000000000000000       0x1a c:/program files/microchip/xc32/v4.60/bin/bin/../../lib/gcc/pic32c/8.3.1/../../../../pic32c/lib/thumb/v6-m/nofp\libm-fast-emfloat.a(__aeabi_ddiv.o)
 .ARM.attributes
                0x0000000000000000       0x1c c:/program files/microchip/xc32/v4.60/bin/bin/../../lib/gcc/pic32c/8.3.1/../../../../pic32c/lib/thumb/v6-m/nofp\libm-fast-emfloat.a(__aeabi_fcmple.o)
 .text.__aeabi_fcmple
                0x0000000000000000       0x32 c:/program files/microchip/xc32/v4.60/bin/bin/../../lib/gcc/pic32c/8.3.1/../../../../pic32c/lib/thumb/v6-m/nofp\libm-fast-emfloat.a(__aeabi_fcmple.o)
 .xc_stack_usage.hdr
                0x0000000000000000        0xe c:/program files/microchip/xc32/v4.60/bin/bin/../../lib/gcc/pic32c/8.3.1/../../../../pic32c/lib/thumb/v6-m/nofp\libm-fast-emfloat.a(__aeabi_fcmple.o)
 .xc_stack_usage
                0x0000000000000000       0x1c c:/program files/microchip/xc32/v4.60/bin/bin/../../lib/gcc/pic32c/8.3.1/../../../../pic32c/lib/thumb/v6-m/nofp\libm-fast-emfloat.a(__aeabi_fcmple.o)
 .ARM.attributes
                0x0000000000000000       0x1c c:/program files/microchip/xc32/v4.60/bin/bin/../../lib/gcc/pic32c/8.3.1/../../../../pic32c/lib/thumb/v6-m/nofp\libm-fast-emfloat.a(__aeabi_dcmpeq.o)
 .text.__aeabi_dcmpeq
                0x0000000000000000       0x2e c:/program files/microchip/xc32/v4.60/bin/bin/../../lib/gcc/pic32c/8.3.1/../../../../pic32c/lib/thumb/v6-m/nofp\libm-fast-emfloat.a(__aeabi_dcmpeq.o)
 .xc_stack_usage.hdr
                0x0000000000000000        0xe c:/program files/microchip/xc32/v4.60/bin/bin/../../lib/gcc/pic32c/8.3.1/../../../../pic32c/lib/thumb/v6-m/nofp\libm-fast-emfloat.a(__aeabi_dcmpeq.o)
 .xc_stack_usage
                0x0000000000000000       0x1c c:/program files/microchip/xc32/v4.60/bin/bin/../../lib/gcc/pic32c/8.3.1/../../../../pic32c/lib/thumb/v6-m/nofp\libm-fast-emfloat.a(__aeabi_dcmpeq.o)
 .ARM.attributes
                0x0000000000000000       0x1c c:/program files/microchip/xc32/v4.60/bin/bin/../../lib/gcc/pic32c/8.3.1/../../../../pic32c/lib/thumb/v6-m/nofp\libm-fast-emfloat.a(__aeabi_fcmpge.o)
 .text.__aeabi_fcmpge
                0x0000000000000000       0x32 c:/program files/microchip/xc32/v4.60/bin/bin/../../lib/gcc/pic32c/8.3.1/../../../../pic32c/lib/thumb/v6-m/nofp\libm-fast-emfloat.a(__aeabi_fcmpge.o)
 .xc_stack_usage.hdr
                0x0000000000000000        0xe c:/program files/microchip/xc32/v4.60/bin/bin/../../lib/gcc/pic32c/8.3.1/../../../../pic32c/lib/thumb/v6-m/nofp\libm-fast-emfloat.a(__aeabi_fcmpge.o)
 .xc_stack_usage
                0x0000000000000000       0x1c c:/program files/microchip/xc32/v4.60/bin/bin/../../lib/gcc/pic32c/8.3.1/../../../../pic32c/lib/thumb/v6-m/nofp\libm-fast-emfloat.a(__aeabi_fcmpge.o)
 .ARM.attributes
                0x0000000000000000       0x1c c:/program files/microchip/xc32/v4.60/bin/bin/../../lib/gcc/pic32c/8.3.1/../../../../pic32c/lib/thumb/v6-m/nofp\libm-fast-emfloat.a(__aeabi_dcmplt.o)
 .text.__aeabi_dcmplt
                0x0000000000000000       0x3e c:/program files/microchip/xc32/v4.60/bin/bin/../../lib/gcc/pic32c/8.3.1/../../../../pic32c/lib/thumb/v6-m/nofp\libm-fast-emfloat.a(__aeabi_dcmplt.o)
 .xc_stack_usage.hdr
                0x0000000000000000        0xe c:/program files/microchip/xc32/v4.60/bin/bin/../../lib/gcc/pic32c/8.3.1/../../../../pic32c/lib/thumb/v6-m/nofp\libm-fast-emfloat.a(__aeabi_dcmplt.o)
 .xc_stack_usage
                0x0000000000000000       0x1c c:/program files/microchip/xc32/v4.60/bin/bin/../../lib/gcc/pic32c/8.3.1/../../../../pic32c/lib/thumb/v6-m/nofp\libm-fast-emfloat.a(__aeabi_dcmplt.o)
 .ARM.attributes
                0x0000000000000000       0x1c c:/program files/microchip/xc32/v4.60/bin/bin/../../lib/gcc/pic32c/8.3.1/../../../../pic32c/lib/thumb/v6-m/nofp\libm-fast-emfloat.a(__aeabi_d2iz.o)
 .text.__aeabi_d2iz
                0x0000000000000000       0x34 c:/program files/microchip/xc32/v4.60/bin/bin/../../lib/gcc/pic32c/8.3.1/../../../../pic32c/lib/thumb/v6-m/nofp\libm-fast-emfloat.a(__aeabi_d2iz.o)
 .xc_stack_usage.hdr
                0x0000000000000000        0xe c:/program files/microchip/xc32/v4.60/bin/bin/../../lib/gcc/pic32c/8.3.1/../../../../pic32c/lib/thumb/v6-m/nofp\libm-fast-emfloat.a(__aeabi_d2iz.o)
 .xc_stack_usage
                0x0000000000000000       0x1a c:/program files/microchip/xc32/v4.60/bin/bin/../../lib/gcc/pic32c/8.3.1/../../../../pic32c/lib/thumb/v6-m/nofp\libm-fast-emfloat.a(__aeabi_d2iz.o)
 .ARM.attributes
                0x0000000000000000       0x1c c:/program files/microchip/xc32/v4.60/bin/bin/../../lib/gcc/pic32c/8.3.1/../../../../pic32c/lib/thumb/v6-m/nofp\libm-fast-emfloat.a(__aeabi_d2uiz.o)
 .text.__aeabi_d2uiz
                0x0000000000000000       0x2e c:/program files/microchip/xc32/v4.60/bin/bin/../../lib/gcc/pic32c/8.3.1/../../../../pic32c/lib/thumb/v6-m/nofp\libm-fast-emfloat.a(__aeabi_d2uiz.o)
 .xc_stack_usage.hdr
                0x0000000000000000        0xe c:/program files/microchip/xc32/v4.60/bin/bin/../../lib/gcc/pic32c/8.3.1/../../../../pic32c/lib/thumb/v6-m/nofp\libm-fast-emfloat.a(__aeabi_d2uiz.o)
 .xc_stack_usage
                0x0000000000000000       0x43 c:/program files/microchip/xc32/v4.60/bin/bin/../../lib/gcc/pic32c/8.3.1/../../../../pic32c/lib/thumb/v6-m/nofp\libm-fast-emfloat.a(__aeabi_d2uiz.o)
 .ARM.attributes
                0x0000000000000000       0x1c c:/program files/microchip/xc32/v4.60/bin/bin/../../lib/gcc/pic32c/8.3.1/../../../../pic32c/lib/thumb/v6-m/nofp\libm-fast-emfloat.a(__aeabi_i2d.o)
 .text.__aeabi_i2d
                0x0000000000000000       0x1c c:/program files/microchip/xc32/v4.60/bin/bin/../../lib/gcc/pic32c/8.3.1/../../../../pic32c/lib/thumb/v6-m/nofp\libm-fast-emfloat.a(__aeabi_i2d.o)
 .xc_stack_usage.hdr
                0x0000000000000000        0xe c:/program files/microchip/xc32/v4.60/bin/bin/../../lib/gcc/pic32c/8.3.1/../../../../pic32c/lib/thumb/v6-m/nofp\libm-fast-emfloat.a(__aeabi_i2d.o)
 .xc_stack_usage
                0x0000000000000000       0x19 c:/program files/microchip/xc32/v4.60/bin/bin/../../lib/gcc/pic32c/8.3.1/../../../../pic32c/lib/thumb/v6-m/nofp\libm-fast-emfloat.a(__aeabi_i2d.o)
 .ARM.attributes
                0x0000000000000000       0x1c c:/program files/microchip/xc32/v4.60/bin/bin/../../lib/gcc/pic32c/8.3.1/../../../../pic32c/lib/thumb/v6-m/nofp\libm-fast-emfloat.a(__aeabi_ui2f.o)
 .text.__aeabi_ui2f
                0x0000000000000000       0x1e c:/program files/microchip/xc32/v4.60/bin/bin/../../lib/gcc/pic32c/8.3.1/../../../../pic32c/lib/thumb/v6-m/nofp\libm-fast-emfloat.a(__aeabi_ui2f.o)
 .xc_stack_usage.hdr
                0x0000000000000000        0xe c:/program files/microchip/xc32/v4.60/bin/bin/../../lib/gcc/pic32c/8.3.1/../../../../pic32c/lib/thumb/v6-m/nofp\libm-fast-emfloat.a(__aeabi_ui2f.o)
 .xc_stack_usage
                0x0000000000000000       0x1a c:/program files/microchip/xc32/v4.60/bin/bin/../../lib/gcc/pic32c/8.3.1/../../../../pic32c/lib/thumb/v6-m/nofp\libm-fast-emfloat.a(__aeabi_ui2f.o)
 .ARM.attributes
                0x0000000000000000       0x1c c:/program files/microchip/xc32/v4.60/bin/bin/../../lib/gcc/pic32c/8.3.1/../../../../pic32c/lib/thumb/v6-m/nofp\libm-fast-emfloat.a(__aeabi_ui2d.o)
 .text.__aeabi_ui2d
                0x0000000000000000       0x1c c:/program files/microchip/xc32/v4.60/bin/bin/../../lib/gcc/pic32c/8.3.1/../../../../pic32c/lib/thumb/v6-m/nofp\libm-fast-emfloat.a(__aeabi_ui2d.o)
 .xc_stack_usage.hdr
                0x0000000000000000        0xe c:/program files/microchip/xc32/v4.60/bin/bin/../../lib/gcc/pic32c/8.3.1/../../../../pic32c/lib/thumb/v6-m/nofp\libm-fast-emfloat.a(__aeabi_ui2d.o)
 .xc_stack_usage
                0x0000000000000000       0x1a c:/program files/microchip/xc32/v4.60/bin/bin/../../lib/gcc/pic32c/8.3.1/../../../../pic32c/lib/thumb/v6-m/nofp\libm-fast-emfloat.a(__aeabi_ui2d.o)
 .ARM.attributes
                0x0000000000000000       0x2c c:/program files/microchip/xc32/v4.60/bin/bin/../../lib/gcc/pic32c/8.3.1/../../../../pic32c/lib/thumb/v6-m/nofp\libm-fast-emfloat.a(log.o)
 .comment       0x0000000000000000       0x2c c:/program files/microchip/xc32/v4.60/bin/bin/../../lib/gcc/pic32c/8.3.1/../../../../pic32c/lib/thumb/v6-m/nofp\libm-fast-emfloat.a(log.o)
 .text.log      0x0000000000000000      0x1dc c:/program files/microchip/xc32/v4.60/bin/bin/../../lib/gcc/pic32c/8.3.1/../../../../pic32c/lib/thumb/v6-m/nofp\libm-fast-emfloat.a(log.o)
 .xc_stack_usage.hdr
                0x0000000000000000        0xe c:/program files/microchip/xc32/v4.60/bin/bin/../../lib/gcc/pic32c/8.3.1/../../../../pic32c/lib/thumb/v6-m/nofp\libm-fast-emfloat.a(log.o)
 .xc_stack_usage
                0x0000000000000000       0x11 c:/program files/microchip/xc32/v4.60/bin/bin/../../lib/gcc/pic32c/8.3.1/../../../../pic32c/lib/thumb/v6-m/nofp\libm-fast-emfloat.a(log.o)
 .ARM.attributes
                0x0000000000000000       0x2c c:/program files/microchip/xc32/v4.60/bin/bin/../../lib/gcc/pic32c/8.3.1/../../../../pic32c/lib/thumb/v6-m/nofp\libm-fast-emfloat.a(exp.o)
 .comment       0x0000000000000000       0x2c c:/program files/microchip/xc32/v4.60/bin/bin/../../lib/gcc/pic32c/8.3.1/../../../../pic32c/lib/thumb/v6-m/nofp\libm-fast-emfloat.a(exp.o)
 .text.exp      0x0000000000000000      0x20c c:/program files/microchip/xc32/v4.60/bin/bin/../../lib/gcc/pic32c/8.3.1/../../../../pic32c/lib/thumb/v6-m/nofp\libm-fast-emfloat.a(exp.o)
 .xc_stack_usage.hdr
                0x0000000000000000        0xe c:/program files/microchip/xc32/v4.60/bin/bin/../../lib/gcc/pic32c/8.3.1/../../../../pic32c/lib/thumb/v6-m/nofp\libm-fast-emfloat.a(exp.o)
 .xc_stack_usage
                0x0000000000000000       0x11 c:/program files/microchip/xc32/v4.60/bin/bin/../../lib/gcc/pic32c/8.3.1/../../../../pic32c/lib/thumb/v6-m/nofp\libm-fast-emfloat.a(exp.o)
 .ARM.attributes
                0x0000000000000000       0x2c c:/program files/microchip/xc32/v4.60/bin/bin/../../lib/gcc/pic32c/8.3.1/../../../../pic32c/lib/thumb/v6-m/nofp\libm-fast-emfloat.a(__SEGGER_RTL_float64_Log.o)
 .comment       0x0000000000000000       0x2c c:/program files/microchip/xc32/v4.60/bin/bin/../../lib/gcc/pic32c/8.3.1/../../../../pic32c/lib/thumb/v6-m/nofp\libm-fast-emfloat.a(__SEGGER_RTL_float64_Log.o)
 .rodata.__SEGGER_RTL_float64_Log
                0x0000000000000000       0x28 c:/program files/microchip/xc32/v4.60/bin/bin/../../lib/gcc/pic32c/8.3.1/../../../../pic32c/lib/thumb/v6-m/nofp\libm-fast-emfloat.a(__SEGGER_RTL_float64_Log.o)
 .xc_stack_usage.hdr
                0x0000000000000000        0xe c:/program files/microchip/xc32/v4.60/bin/bin/../../lib/gcc/pic32c/8.3.1/../../../../pic32c/lib/thumb/v6-m/nofp\libm-fast-emfloat.a(__SEGGER_RTL_float64_Log.o)
 .xc_stack_usage
                0x0000000000000000        0x0 c:/program files/microchip/xc32/v4.60/bin/bin/../../lib/gcc/pic32c/8.3.1/../../../../pic32c/lib/thumb/v6-m/nofp\libm-fast-emfloat.a(__SEGGER_RTL_float64_Log.o)
 .ARM.attributes
                0x0000000000000000       0x1c c:/program files/microchip/xc32/v4.60/bin/bin/../../lib/gcc/pic32c/8.3.1/../../../../pic32c/lib/thumb/v6-m/nofp\libm-fast-emfloat.a(__aeabi_dsub.o)
 .text.__aeabi_dsub
                0x0000000000000000       0x10 c:/program files/microchip/xc32/v4.60/bin/bin/../../lib/gcc/pic32c/8.3.1/../../../../pic32c/lib/thumb/v6-m/nofp\libm-fast-emfloat.a(__aeabi_dsub.o)
 .xc_stack_usage.hdr
                0x0000000000000000        0xe c:/program files/microchip/xc32/v4.60/bin/bin/../../lib/gcc/pic32c/8.3.1/../../../../pic32c/lib/thumb/v6-m/nofp\libm-fast-emfloat.a(__aeabi_dsub.o)
 .xc_stack_usage
                0x0000000000000000       0x1a c:/program files/microchip/xc32/v4.60/bin/bin/../../lib/gcc/pic32c/8.3.1/../../../../pic32c/lib/thumb/v6-m/nofp\libm-fast-emfloat.a(__aeabi_dsub.o)
 .ARM.attributes
                0x0000000000000000       0x2c c:/program files/microchip/xc32/v4.60/bin/bin/../../lib/gcc/pic32c/8.3.1/../../../../pic32c/lib/thumb/v6-m/nofp\libm-fast-emfloat.a(__SEGGER_RTL_float64_PolyEvalP.o)
 .comment       0x0000000000000000       0x2c c:/program files/microchip/xc32/v4.60/bin/bin/../../lib/gcc/pic32c/8.3.1/../../../../pic32c/lib/thumb/v6-m/nofp\libm-fast-emfloat.a(__SEGGER_RTL_float64_PolyEvalP.o)
 .text.__SEGGER_RTL_float64_PolyEvalP
                0x0000000000000000       0xd4 c:/program files/microchip/xc32/v4.60/bin/bin/../../lib/gcc/pic32c/8.3.1/../../../../pic32c/lib/thumb/v6-m/nofp\libm-fast-emfloat.a(__SEGGER_RTL_float64_PolyEvalP.o)
 .xc_stack_usage.hdr
                0x0000000000000000        0xe c:/program files/microchip/xc32/v4.60/bin/bin/../../lib/gcc/pic32c/8.3.1/../../../../pic32c/lib/thumb/v6-m/nofp\libm-fast-emfloat.a(__SEGGER_RTL_float64_PolyEvalP.o)
 .xc_stack_usage
                0x0000000000000000       0x2c c:/program files/microchip/xc32/v4.60/bin/bin/../../lib/gcc/pic32c/8.3.1/../../../../pic32c/lib/thumb/v6-m/nofp\libm-fast-emfloat.a(__SEGGER_RTL_float64_PolyEvalP.o)
 .ARM.attributes
                0x0000000000000000       0x2c c:/program files/microchip/xc32/v4.60/bin/bin/../../lib/gcc/pic32c/8.3.1/../../../../pic32c/lib/thumb/v6-m/nofp\libm-fast-emfloat.a(__SEGGER_RTL_float64_PolyEvalQ.o)
 .comment       0x0000000000000000       0x2c c:/program files/microchip/xc32/v4.60/bin/bin/../../lib/gcc/pic32c/8.3.1/../../../../pic32c/lib/thumb/v6-m/nofp\libm-fast-emfloat.a(__SEGGER_RTL_float64_PolyEvalQ.o)
 .text.__SEGGER_RTL_float64_PolyEvalQ
                0x0000000000000000       0x80 c:/program files/microchip/xc32/v4.60/bin/bin/../../lib/gcc/pic32c/8.3.1/../../../../pic32c/lib/thumb/v6-m/nofp\libm-fast-emfloat.a(__SEGGER_RTL_float64_PolyEvalQ.o)
 .xc_stack_usage.hdr
                0x0000000000000000        0xe c:/program files/microchip/xc32/v4.60/bin/bin/../../lib/gcc/pic32c/8.3.1/../../../../pic32c/lib/thumb/v6-m/nofp\libm-fast-emfloat.a(__SEGGER_RTL_float64_PolyEvalQ.o)
 .xc_stack_usage
                0x0000000000000000       0x2c c:/program files/microchip/xc32/v4.60/bin/bin/../../lib/gcc/pic32c/8.3.1/../../../../pic32c/lib/thumb/v6-m/nofp\libm-fast-emfloat.a(__SEGGER_RTL_float64_PolyEvalQ.o)
 .ARM.attributes
                0x0000000000000000       0x2c c:/program files/microchip/xc32/v4.60/bin/bin/../../lib/gcc/pic32c/8.3.1/../../../../pic32c/lib/thumb/v6-m/nofp\libm-fast-emfloat.a(ldexp.o)
 .comment       0x0000000000000000       0x2c c:/program files/microchip/xc32/v4.60/bin/bin/../../lib/gcc/pic32c/8.3.1/../../../../pic32c/lib/thumb/v6-m/nofp\libm-fast-emfloat.a(ldexp.o)
 .text.ldexp    0x0000000000000000       0x54 c:/program files/microchip/xc32/v4.60/bin/bin/../../lib/gcc/pic32c/8.3.1/../../../../pic32c/lib/thumb/v6-m/nofp\libm-fast-emfloat.a(ldexp.o)
 .xc_stack_usage.hdr
                0x0000000000000000        0xe c:/program files/microchip/xc32/v4.60/bin/bin/../../lib/gcc/pic32c/8.3.1/../../../../pic32c/lib/thumb/v6-m/nofp\libm-fast-emfloat.a(ldexp.o)
 .xc_stack_usage
                0x0000000000000000       0x13 c:/program files/microchip/xc32/v4.60/bin/bin/../../lib/gcc/pic32c/8.3.1/../../../../pic32c/lib/thumb/v6-m/nofp\libm-fast-emfloat.a(ldexp.o)
 .ARM.attributes
                0x0000000000000000       0x2c c:/program files/microchip/xc32/v4.60/bin/bin/../../lib/gcc/pic32c/8.3.1/../../../../pic32c/lib/thumb/v6-m/nofp\libm-fast-emfloat.a(frexp.o)
 .comment       0x0000000000000000       0x2c c:/program files/microchip/xc32/v4.60/bin/bin/../../lib/gcc/pic32c/8.3.1/../../../../pic32c/lib/thumb/v6-m/nofp\libm-fast-emfloat.a(frexp.o)
 .text.frexp    0x0000000000000000       0x40 c:/program files/microchip/xc32/v4.60/bin/bin/../../lib/gcc/pic32c/8.3.1/../../../../pic32c/lib/thumb/v6-m/nofp\libm-fast-emfloat.a(frexp.o)
 .xc_stack_usage.hdr
                0x0000000000000000        0xe c:/program files/microchip/xc32/v4.60/bin/bin/../../lib/gcc/pic32c/8.3.1/../../../../pic32c/lib/thumb/v6-m/nofp\libm-fast-emfloat.a(frexp.o)
 .xc_stack_usage
                0x0000000000000000       0x13 c:/program files/microchip/xc32/v4.60/bin/bin/../../lib/gcc/pic32c/8.3.1/../../../../pic32c/lib/thumb/v6-m/nofp\libm-fast-emfloat.a(frexp.o)
 .text          0x0000000000000000        0x0 c:/program files/microchip/xc32/v4.60/bin/bin/../../lib/gcc/pic32c/8.3.1/../../../../pic32c/lib/thumb/v6-m/nofp\libc-musl.a(__libc_start_main.o)
 .data          0x0000000000000000        0x0 c:/program files/microchip/xc32/v4.60/bin/bin/../../lib/gcc/pic32c/8.3.1/../../../../pic32c/lib/thumb/v6-m/nofp\libc-musl.a(__libc_start_main.o)
 .bss           0x0000000000000000        0x0 c:/program files/microchip/xc32/v4.60/bin/bin/../../lib/gcc/pic32c/8.3.1/../../../../pic32c/lib/thumb/v6-m/nofp\libc-musl.a(__libc_start_main.o)
 .xc_stack_usage
                0x0000000000000000       0x34 c:/program files/microchip/xc32/v4.60/bin/bin/../../lib/gcc/pic32c/8.3.1/../../../../pic32c/lib/thumb/v6-m/nofp\libc-musl.a(__libc_start_main.o)
 .xc_stack_usage.hdr
                0x0000000000000000        0xe c:/program files/microchip/xc32/v4.60/bin/bin/../../lib/gcc/pic32c/8.3.1/../../../../pic32c/lib/thumb/v6-m/nofp\libc-musl.a(__libc_start_main.o)
 .text          0x0000000000000000        0x0 c:/program files/microchip/xc32/v4.60/bin/bin/../../lib/gcc/pic32c/8.3.1/../../../../pic32c/lib/thumb/v6-m/nofp\libc-musl.a(__errno_location.o)
 .data          0x0000000000000000        0x0 c:/program files/microchip/xc32/v4.60/bin/bin/../../lib/gcc/pic32c/8.3.1/../../../../pic32c/lib/thumb/v6-m/nofp\libc-musl.a(__errno_location.o)
 .xc_stack_usage.hdr
                0x0000000000000000        0xe c:/program files/microchip/xc32/v4.60/bin/bin/../../lib/gcc/pic32c/8.3.1/../../../../pic32c/lib/thumb/v6-m/nofp\libc-musl.a(__errno_location.o)
 .text          0x0000000000000000        0x0 c:/program files/microchip/xc32/v4.60/bin/bin/../../lib/gcc/pic32c/8.3.1/../../../../pic32c/lib/thumb/v6-m/nofp\libc-musl.a(libc.o)
 .data          0x0000000000000000        0x0 c:/program files/microchip/xc32/v4.60/bin/bin/../../lib/gcc/pic32c/8.3.1/../../../../pic32c/lib/thumb/v6-m/nofp\libc-musl.a(libc.o)
 .xc_stack_usage.hdr
                0x0000000000000000        0xe c:/program files/microchip/xc32/v4.60/bin/bin/../../lib/gcc/pic32c/8.3.1/../../../../pic32c/lib/thumb/v6-m/nofp\libc-musl.a(libc.o)
 .text          0x0000000000000000        0x0 c:/program files/microchip/xc32/v4.60/bin/bin/../../lib/gcc/pic32c/8.3.1/../../../../pic32c/lib/thumb/v6-m/nofp\libc-musl.a(expand_heap.o)
 .data          0x0000000000000000        0x0 c:/program files/microchip/xc32/v4.60/bin/bin/../../lib/gcc/pic32c/8.3.1/../../../../pic32c/lib/thumb/v6-m/nofp\libc-musl.a(expand_heap.o)
 .bss           0x0000000000000000        0x0 c:/program files/microchip/xc32/v4.60/bin/bin/../../lib/gcc/pic32c/8.3.1/../../../../pic32c/lib/thumb/v6-m/nofp\libc-musl.a(expand_heap.o)
 .xc_stack_usage
                0x0000000000000000       0x1b c:/program files/microchip/xc32/v4.60/bin/bin/../../lib/gcc/pic32c/8.3.1/../../../../pic32c/lib/thumb/v6-m/nofp\libc-musl.a(expand_heap.o)
 .xc_stack_usage.hdr
                0x0000000000000000        0xe c:/program files/microchip/xc32/v4.60/bin/bin/../../lib/gcc/pic32c/8.3.1/../../../../pic32c/lib/thumb/v6-m/nofp\libc-musl.a(expand_heap.o)
 .text          0x0000000000000000        0x0 c:/program files/microchip/xc32/v4.60/bin/bin/../../lib/gcc/pic32c/8.3.1/../../../../pic32c/lib/thumb/v6-m/nofp\libc-musl.a(__sio_printf_cdnsu.o)
 .data          0x0000000000000000        0x0 c:/program files/microchip/xc32/v4.60/bin/bin/../../lib/gcc/pic32c/8.3.1/../../../../pic32c/lib/thumb/v6-m/nofp\libc-musl.a(__sio_printf_cdnsu.o)
 .bss           0x0000000000000000        0x0 c:/program files/microchip/xc32/v4.60/bin/bin/../../lib/gcc/pic32c/8.3.1/../../../../pic32c/lib/thumb/v6-m/nofp\libc-musl.a(__sio_printf_cdnsu.o)
 .xc_stack_usage
                0x0000000000000000       0x3b c:/program files/microchip/xc32/v4.60/bin/bin/../../lib/gcc/pic32c/8.3.1/../../../../pic32c/lib/thumb/v6-m/nofp\libc-musl.a(__sio_printf_cdnsu.o)
 .text.__sio_printf_cdnsu
                0x0000000000000000       0x18 c:/program files/microchip/xc32/v4.60/bin/bin/../../lib/gcc/pic32c/8.3.1/../../../../pic32c/lib/thumb/v6-m/nofp\libc-musl.a(__sio_printf_cdnsu.o)
 .xc_stack_usage.hdr
                0x0000000000000000        0xe c:/program files/microchip/xc32/v4.60/bin/bin/../../lib/gcc/pic32c/8.3.1/../../../../pic32c/lib/thumb/v6-m/nofp\libc-musl.a(__sio_printf_cdnsu.o)
 .text          0x0000000000000000        0x0 c:/program files/microchip/xc32/v4.60/bin/bin/../../lib/gcc/pic32c/8.3.1/../../../../pic32c/lib/thumb/v6-m/nofp\libc-musl.a(__sio_sprintf_cdnsu.o)
 .data          0x0000000000000000        0x0 c:/program files/microchip/xc32/v4.60/bin/bin/../../lib/gcc/pic32c/8.3.1/../../../../pic32c/lib/thumb/v6-m/nofp\libc-musl.a(__sio_sprintf_cdnsu.o)
 .bss           0x0000000000000000        0x0 c:/program files/microchip/xc32/v4.60/bin/bin/../../lib/gcc/pic32c/8.3.1/../../../../pic32c/lib/thumb/v6-m/nofp\libc-musl.a(__sio_sprintf_cdnsu.o)
 .xc_stack_usage
                0x0000000000000000       0x3d c:/program files/microchip/xc32/v4.60/bin/bin/../../lib/gcc/pic32c/8.3.1/../../../../pic32c/lib/thumb/v6-m/nofp\libc-musl.a(__sio_sprintf_cdnsu.o)
 .text.__wrap_sprintf
                0x0000000000000000       0x16 c:/program files/microchip/xc32/v4.60/bin/bin/../../lib/gcc/pic32c/8.3.1/../../../../pic32c/lib/thumb/v6-m/nofp\libc-musl.a(__sio_sprintf_cdnsu.o)
 .text.__sio_sprintf_cdnsu
                0x0000000000000000       0x18 c:/program files/microchip/xc32/v4.60/bin/bin/../../lib/gcc/pic32c/8.3.1/../../../../pic32c/lib/thumb/v6-m/nofp\libc-musl.a(__sio_sprintf_cdnsu.o)
 .xc_stack_usage.hdr
                0x0000000000000000        0xe c:/program files/microchip/xc32/v4.60/bin/bin/../../lib/gcc/pic32c/8.3.1/../../../../pic32c/lib/thumb/v6-m/nofp\libc-musl.a(__sio_sprintf_cdnsu.o)
 .debug_info    0x0000000000000000      0x1d5 c:/program files/microchip/xc32/v4.60/bin/bin/../../lib/gcc/pic32c/8.3.1/../../../../pic32c/lib/thumb/v6-m/nofp\libc-musl.a(__sio_sprintf_cdnsu.o)
 .debug_abbrev  0x0000000000000000      0x12b c:/program files/microchip/xc32/v4.60/bin/bin/../../lib/gcc/pic32c/8.3.1/../../../../pic32c/lib/thumb/v6-m/nofp\libc-musl.a(__sio_sprintf_cdnsu.o)
 .debug_loc     0x0000000000000000       0x86 c:/program files/microchip/xc32/v4.60/bin/bin/../../lib/gcc/pic32c/8.3.1/../../../../pic32c/lib/thumb/v6-m/nofp\libc-musl.a(__sio_sprintf_cdnsu.o)
 .debug_aranges
                0x0000000000000000       0x28 c:/program files/microchip/xc32/v4.60/bin/bin/../../lib/gcc/pic32c/8.3.1/../../../../pic32c/lib/thumb/v6-m/nofp\libc-musl.a(__sio_sprintf_cdnsu.o)
 .debug_ranges  0x0000000000000000       0x18 c:/program files/microchip/xc32/v4.60/bin/bin/../../lib/gcc/pic32c/8.3.1/../../../../pic32c/lib/thumb/v6-m/nofp\libc-musl.a(__sio_sprintf_cdnsu.o)
 .debug_line    0x0000000000000000      0x1a5 c:/program files/microchip/xc32/v4.60/bin/bin/../../lib/gcc/pic32c/8.3.1/../../../../pic32c/lib/thumb/v6-m/nofp\libc-musl.a(__sio_sprintf_cdnsu.o)
 .debug_str     0x0000000000000000      0x311 c:/program files/microchip/xc32/v4.60/bin/bin/../../lib/gcc/pic32c/8.3.1/../../../../pic32c/lib/thumb/v6-m/nofp\libc-musl.a(__sio_sprintf_cdnsu.o)
 .comment       0x0000000000000000       0x2c c:/program files/microchip/xc32/v4.60/bin/bin/../../lib/gcc/pic32c/8.3.1/../../../../pic32c/lib/thumb/v6-m/nofp\libc-musl.a(__sio_sprintf_cdnsu.o)
 .note.GNU-stack
                0x0000000000000000        0x0 c:/program files/microchip/xc32/v4.60/bin/bin/../../lib/gcc/pic32c/8.3.1/../../../../pic32c/lib/thumb/v6-m/nofp\libc-musl.a(__sio_sprintf_cdnsu.o)
 .debug_frame   0x0000000000000000       0x44 c:/program files/microchip/xc32/v4.60/bin/bin/../../lib/gcc/pic32c/8.3.1/../../../../pic32c/lib/thumb/v6-m/nofp\libc-musl.a(__sio_sprintf_cdnsu.o)
 .ARM.attributes
                0x0000000000000000       0x2e c:/program files/microchip/xc32/v4.60/bin/bin/../../lib/gcc/pic32c/8.3.1/../../../../pic32c/lib/thumb/v6-m/nofp\libc-musl.a(__sio_sprintf_cdnsu.o)
 .text          0x0000000000000000        0x0 c:/program files/microchip/xc32/v4.60/bin/bin/../../lib/gcc/pic32c/8.3.1/../../../../pic32c/lib/thumb/v6-m/nofp\libc-musl.a(__fmt_d.o)
 .data          0x0000000000000000        0x0 c:/program files/microchip/xc32/v4.60/bin/bin/../../lib/gcc/pic32c/8.3.1/../../../../pic32c/lib/thumb/v6-m/nofp\libc-musl.a(__fmt_d.o)
 .bss           0x0000000000000000        0x0 c:/program files/microchip/xc32/v4.60/bin/bin/../../lib/gcc/pic32c/8.3.1/../../../../pic32c/lib/thumb/v6-m/nofp\libc-musl.a(__fmt_d.o)
 .xc_stack_usage
                0x0000000000000000       0x15 c:/program files/microchip/xc32/v4.60/bin/bin/../../lib/gcc/pic32c/8.3.1/../../../../pic32c/lib/thumb/v6-m/nofp\libc-musl.a(__fmt_d.o)
 .xc_stack_usage.hdr
                0x0000000000000000        0xe c:/program files/microchip/xc32/v4.60/bin/bin/../../lib/gcc/pic32c/8.3.1/../../../../pic32c/lib/thumb/v6-m/nofp\libc-musl.a(__fmt_d.o)
 .text          0x0000000000000000        0x0 c:/program files/microchip/xc32/v4.60/bin/bin/../../lib/gcc/pic32c/8.3.1/../../../../pic32c/lib/thumb/v6-m/nofp\libc-musl.a(__fmt_s.o)
 .data          0x0000000000000000        0x0 c:/program files/microchip/xc32/v4.60/bin/bin/../../lib/gcc/pic32c/8.3.1/../../../../pic32c/lib/thumb/v6-m/nofp\libc-musl.a(__fmt_s.o)
 .bss           0x0000000000000000        0x0 c:/program files/microchip/xc32/v4.60/bin/bin/../../lib/gcc/pic32c/8.3.1/../../../../pic32c/lib/thumb/v6-m/nofp\libc-musl.a(__fmt_s.o)
 .xc_stack_usage
                0x0000000000000000       0x15 c:/program files/microchip/xc32/v4.60/bin/bin/../../lib/gcc/pic32c/8.3.1/../../../../pic32c/lib/thumb/v6-m/nofp\libc-musl.a(__fmt_s.o)
 .xc_stack_usage.hdr
                0x0000000000000000        0xe c:/program files/microchip/xc32/v4.60/bin/bin/../../lib/gcc/pic32c/8.3.1/../../../../pic32c/lib/thumb/v6-m/nofp\libc-musl.a(__fmt_s.o)
 .text          0x0000000000000000        0x0 c:/program files/microchip/xc32/v4.60/bin/bin/../../lib/gcc/pic32c/8.3.1/../../../../pic32c/lib/thumb/v6-m/nofp\libc-musl.a(__fmt_u.o)
 .data          0x0000000000000000        0x0 c:/program files/microchip/xc32/v4.60/bin/bin/../../lib/gcc/pic32c/8.3.1/../../../../pic32c/lib/thumb/v6-m/nofp\libc-musl.a(__fmt_u.o)
 .bss           0x0000000000000000        0x0 c:/program files/microchip/xc32/v4.60/bin/bin/../../lib/gcc/pic32c/8.3.1/../../../../pic32c/lib/thumb/v6-m/nofp\libc-musl.a(__fmt_u.o)
 .xc_stack_usage
                0x0000000000000000       0x15 c:/program files/microchip/xc32/v4.60/bin/bin/../../lib/gcc/pic32c/8.3.1/../../../../pic32c/lib/thumb/v6-m/nofp\libc-musl.a(__fmt_u.o)
 .xc_stack_usage.hdr
                0x0000000000000000        0xe c:/program files/microchip/xc32/v4.60/bin/bin/../../lib/gcc/pic32c/8.3.1/../../../../pic32c/lib/thumb/v6-m/nofp\libc-musl.a(__fmt_u.o)
 .text          0x0000000000000000        0x0 c:/program files/microchip/xc32/v4.60/bin/bin/../../lib/gcc/pic32c/8.3.1/../../../../pic32c/lib/thumb/v6-m/nofp\libc-musl.a(__pop_int.o)
 .data          0x0000000000000000        0x0 c:/program files/microchip/xc32/v4.60/bin/bin/../../lib/gcc/pic32c/8.3.1/../../../../pic32c/lib/thumb/v6-m/nofp\libc-musl.a(__pop_int.o)
 .bss           0x0000000000000000        0x0 c:/program files/microchip/xc32/v4.60/bin/bin/../../lib/gcc/pic32c/8.3.1/../../../../pic32c/lib/thumb/v6-m/nofp\libc-musl.a(__pop_int.o)
 .xc_stack_usage
                0x0000000000000000       0x17 c:/program files/microchip/xc32/v4.60/bin/bin/../../lib/gcc/pic32c/8.3.1/../../../../pic32c/lib/thumb/v6-m/nofp\libc-musl.a(__pop_int.o)
 .xc_stack_usage.hdr
                0x0000000000000000        0xe c:/program files/microchip/xc32/v4.60/bin/bin/../../lib/gcc/pic32c/8.3.1/../../../../pic32c/lib/thumb/v6-m/nofp\libc-musl.a(__pop_int.o)
 .text          0x0000000000000000        0x0 c:/program files/microchip/xc32/v4.60/bin/bin/../../lib/gcc/pic32c/8.3.1/../../../../pic32c/lib/thumb/v6-m/nofp\libc-musl.a(__pop_ptr.o)
 .data          0x0000000000000000        0x0 c:/program files/microchip/xc32/v4.60/bin/bin/../../lib/gcc/pic32c/8.3.1/../../../../pic32c/lib/thumb/v6-m/nofp\libc-musl.a(__pop_ptr.o)
 .bss           0x0000000000000000        0x0 c:/program files/microchip/xc32/v4.60/bin/bin/../../lib/gcc/pic32c/8.3.1/../../../../pic32c/lib/thumb/v6-m/nofp\libc-musl.a(__pop_ptr.o)
 .xc_stack_usage
                0x0000000000000000       0x17 c:/program files/microchip/xc32/v4.60/bin/bin/../../lib/gcc/pic32c/8.3.1/../../../../pic32c/lib/thumb/v6-m/nofp\libc-musl.a(__pop_ptr.o)
 .xc_stack_usage.hdr
                0x0000000000000000        0xe c:/program files/microchip/xc32/v4.60/bin/bin/../../lib/gcc/pic32c/8.3.1/../../../../pic32c/lib/thumb/v6-m/nofp\libc-musl.a(__pop_ptr.o)
 .text          0x0000000000000000        0x0 c:/program files/microchip/xc32/v4.60/bin/bin/../../lib/gcc/pic32c/8.3.1/../../../../pic32c/lib/thumb/v6-m/nofp\libc-musl.a(__printf_core.o)
 .data          0x0000000000000000        0x0 c:/program files/microchip/xc32/v4.60/bin/bin/../../lib/gcc/pic32c/8.3.1/../../../../pic32c/lib/thumb/v6-m/nofp\libc-musl.a(__printf_core.o)
 .bss           0x0000000000000000        0x0 c:/program files/microchip/xc32/v4.60/bin/bin/../../lib/gcc/pic32c/8.3.1/../../../../pic32c/lib/thumb/v6-m/nofp\libc-musl.a(__printf_core.o)
 .xc_stack_usage
                0x0000000000000000       0xaf c:/program files/microchip/xc32/v4.60/bin/bin/../../lib/gcc/pic32c/8.3.1/../../../../pic32c/lib/thumb/v6-m/nofp\libc-musl.a(__printf_core.o)
 .text.__string_out
                0x0000000000000000       0x2a c:/program files/microchip/xc32/v4.60/bin/bin/../../lib/gcc/pic32c/8.3.1/../../../../pic32c/lib/thumb/v6-m/nofp\libc-musl.a(__printf_core.o)
 .text.__dummy_fmts
                0x0000000000000000        0x4 c:/program files/microchip/xc32/v4.60/bin/bin/../../lib/gcc/pic32c/8.3.1/../../../../pic32c/lib/thumb/v6-m/nofp\libc-musl.a(__printf_core.o)
 .xc_stack_usage.hdr
                0x0000000000000000        0xe c:/program files/microchip/xc32/v4.60/bin/bin/../../lib/gcc/pic32c/8.3.1/../../../../pic32c/lib/thumb/v6-m/nofp\libc-musl.a(__printf_core.o)
 .text          0x0000000000000000        0x0 c:/program files/microchip/xc32/v4.60/bin/bin/../../lib/gcc/pic32c/8.3.1/../../../../pic32c/lib/thumb/v6-m/nofp\libc-musl.a(stdin.o)
 .xc_stack_usage
                0x0000000000000000       0x33 c:/program files/microchip/xc32/v4.60/bin/bin/../../lib/gcc/pic32c/8.3.1/../../../../pic32c/lib/thumb/v6-m/nofp\libc-musl.a(stdin.o)
 .xc_stack_usage.hdr
                0x0000000000000000        0xe c:/program files/microchip/xc32/v4.60/bin/bin/../../lib/gcc/pic32c/8.3.1/../../../../pic32c/lib/thumb/v6-m/nofp\libc-musl.a(stdin.o)
 .text          0x0000000000000000        0x0 c:/program files/microchip/xc32/v4.60/bin/bin/../../lib/gcc/pic32c/8.3.1/../../../../pic32c/lib/thumb/v6-m/nofp\libc-musl.a(stdout.o)
 .xc_stack_usage
                0x0000000000000000       0x51 c:/program files/microchip/xc32/v4.60/bin/bin/../../lib/gcc/pic32c/8.3.1/../../../../pic32c/lib/thumb/v6-m/nofp\libc-musl.a(stdout.o)
 .text.__dummy  0x0000000000000000        0x8 c:/program files/microchip/xc32/v4.60/bin/bin/../../lib/gcc/pic32c/8.3.1/../../../../pic32c/lib/thumb/v6-m/nofp\libc-musl.a(stdout.o)
 .xc_stack_usage.hdr
                0x0000000000000000        0xe c:/program files/microchip/xc32/v4.60/bin/bin/../../lib/gcc/pic32c/8.3.1/../../../../pic32c/lib/thumb/v6-m/nofp\libc-musl.a(stdout.o)
 .text          0x0000000000000000        0x0 c:/program files/microchip/xc32/v4.60/bin/bin/../../lib/gcc/pic32c/8.3.1/../../../../pic32c/lib/thumb/v6-m/nofp\libc-musl.a(puts.o)
 .data          0x0000000000000000        0x0 c:/program files/microchip/xc32/v4.60/bin/bin/../../lib/gcc/pic32c/8.3.1/../../../../pic32c/lib/thumb/v6-m/nofp\libc-musl.a(puts.o)
 .bss           0x0000000000000000        0x0 c:/program files/microchip/xc32/v4.60/bin/bin/../../lib/gcc/pic32c/8.3.1/../../../../pic32c/lib/thumb/v6-m/nofp\libc-musl.a(puts.o)
 .xc_stack_usage
                0x0000000000000000       0x12 c:/program files/microchip/xc32/v4.60/bin/bin/../../lib/gcc/pic32c/8.3.1/../../../../pic32c/lib/thumb/v6-m/nofp\libc-musl.a(puts.o)
 .xc_stack_usage.hdr
                0x0000000000000000        0xe c:/program files/microchip/xc32/v4.60/bin/bin/../../lib/gcc/pic32c/8.3.1/../../../../pic32c/lib/thumb/v6-m/nofp\libc-musl.a(puts.o)
 .text          0x0000000000000000        0x0 c:/program files/microchip/xc32/v4.60/bin/bin/../../lib/gcc/pic32c/8.3.1/../../../../pic32c/lib/thumb/v6-m/nofp\libc-musl.a(setbuf.o)
 .data          0x0000000000000000        0x0 c:/program files/microchip/xc32/v4.60/bin/bin/../../lib/gcc/pic32c/8.3.1/../../../../pic32c/lib/thumb/v6-m/nofp\libc-musl.a(setbuf.o)
 .bss           0x0000000000000000        0x0 c:/program files/microchip/xc32/v4.60/bin/bin/../../lib/gcc/pic32c/8.3.1/../../../../pic32c/lib/thumb/v6-m/nofp\libc-musl.a(setbuf.o)
 .xc_stack_usage
                0x0000000000000000       0x14 c:/program files/microchip/xc32/v4.60/bin/bin/../../lib/gcc/pic32c/8.3.1/../../../../pic32c/lib/thumb/v6-m/nofp\libc-musl.a(setbuf.o)
 .xc_stack_usage.hdr
                0x0000000000000000        0xe c:/program files/microchip/xc32/v4.60/bin/bin/../../lib/gcc/pic32c/8.3.1/../../../../pic32c/lib/thumb/v6-m/nofp\libc-musl.a(setbuf.o)
 .text          0x0000000000000000        0x0 c:/program files/microchip/xc32/v4.60/bin/bin/../../lib/gcc/pic32c/8.3.1/../../../../pic32c/lib/thumb/v6-m/nofp\libc-musl.a(atoi.o)
 .data          0x0000000000000000        0x0 c:/program files/microchip/xc32/v4.60/bin/bin/../../lib/gcc/pic32c/8.3.1/../../../../pic32c/lib/thumb/v6-m/nofp\libc-musl.a(atoi.o)
 .bss           0x0000000000000000        0x0 c:/program files/microchip/xc32/v4.60/bin/bin/../../lib/gcc/pic32c/8.3.1/../../../../pic32c/lib/thumb/v6-m/nofp\libc-musl.a(atoi.o)
 .xc_stack_usage
                0x0000000000000000       0x12 c:/program files/microchip/xc32/v4.60/bin/bin/../../lib/gcc/pic32c/8.3.1/../../../../pic32c/lib/thumb/v6-m/nofp\libc-musl.a(atoi.o)
 .xc_stack_usage.hdr
                0x0000000000000000        0xe c:/program files/microchip/xc32/v4.60/bin/bin/../../lib/gcc/pic32c/8.3.1/../../../../pic32c/lib/thumb/v6-m/nofp\libc-musl.a(atoi.o)
 .text          0x0000000000000000        0x0 c:/program files/microchip/xc32/v4.60/bin/bin/../../lib/gcc/pic32c/8.3.1/../../../../pic32c/lib/thumb/v6-m/nofp\libc-musl.a(gmtime.o)
 .data          0x0000000000000000        0x0 c:/program files/microchip/xc32/v4.60/bin/bin/../../lib/gcc/pic32c/8.3.1/../../../../pic32c/lib/thumb/v6-m/nofp\libc-musl.a(gmtime.o)
 .xc_stack_usage
                0x0000000000000000       0x14 c:/program files/microchip/xc32/v4.60/bin/bin/../../lib/gcc/pic32c/8.3.1/../../../../pic32c/lib/thumb/v6-m/nofp\libc-musl.a(gmtime.o)
 .xc_stack_usage.hdr
                0x0000000000000000        0xe c:/program files/microchip/xc32/v4.60/bin/bin/../../lib/gcc/pic32c/8.3.1/../../../../pic32c/lib/thumb/v6-m/nofp\libc-musl.a(gmtime.o)
 .text          0x0000000000000000        0x0 c:/program files/microchip/xc32/v4.60/bin/bin/../../lib/gcc/pic32c/8.3.1/../../../../pic32c/lib/thumb/v6-m/nofp\libc-musl.a(gmtime_r.o)
 .data          0x0000000000000000        0x0 c:/program files/microchip/xc32/v4.60/bin/bin/../../lib/gcc/pic32c/8.3.1/../../../../pic32c/lib/thumb/v6-m/nofp\libc-musl.a(gmtime_r.o)
 .bss           0x0000000000000000        0x0 c:/program files/microchip/xc32/v4.60/bin/bin/../../lib/gcc/pic32c/8.3.1/../../../../pic32c/lib/thumb/v6-m/nofp\libc-musl.a(gmtime_r.o)
 .xc_stack_usage
                0x0000000000000000       0x18 c:/program files/microchip/xc32/v4.60/bin/bin/../../lib/gcc/pic32c/8.3.1/../../../../pic32c/lib/thumb/v6-m/nofp\libc-musl.a(gmtime_r.o)
 .xc_stack_usage.hdr
                0x0000000000000000        0xe c:/program files/microchip/xc32/v4.60/bin/bin/../../lib/gcc/pic32c/8.3.1/../../../../pic32c/lib/thumb/v6-m/nofp\libc-musl.a(gmtime_r.o)
 .text          0x0000000000000000        0x0 c:/program files/microchip/xc32/v4.60/bin/bin/../../lib/gcc/pic32c/8.3.1/../../../../pic32c/lib/thumb/v6-m/nofp\libc-musl.a(mktime.o)
 .data          0x0000000000000000        0x0 c:/program files/microchip/xc32/v4.60/bin/bin/../../lib/gcc/pic32c/8.3.1/../../../../pic32c/lib/thumb/v6-m/nofp\libc-musl.a(mktime.o)
 .bss           0x0000000000000000        0x0 c:/program files/microchip/xc32/v4.60/bin/bin/../../lib/gcc/pic32c/8.3.1/../../../../pic32c/lib/thumb/v6-m/nofp\libc-musl.a(mktime.o)
 .xc_stack_usage
                0x0000000000000000       0x14 c:/program files/microchip/xc32/v4.60/bin/bin/../../lib/gcc/pic32c/8.3.1/../../../../pic32c/lib/thumb/v6-m/nofp\libc-musl.a(mktime.o)
 .xc_stack_usage.hdr
                0x0000000000000000        0xe c:/program files/microchip/xc32/v4.60/bin/bin/../../lib/gcc/pic32c/8.3.1/../../../../pic32c/lib/thumb/v6-m/nofp\libc-musl.a(mktime.o)
 .text          0x0000000000000000        0x0 c:/program files/microchip/xc32/v4.60/bin/bin/../../lib/gcc/pic32c/8.3.1/../../../../pic32c/lib/thumb/v6-m/nofp\libc-musl.a(tolower.o)
 .data          0x0000000000000000        0x0 c:/program files/microchip/xc32/v4.60/bin/bin/../../lib/gcc/pic32c/8.3.1/../../../../pic32c/lib/thumb/v6-m/nofp\libc-musl.a(tolower.o)
 .bss           0x0000000000000000        0x0 c:/program files/microchip/xc32/v4.60/bin/bin/../../lib/gcc/pic32c/8.3.1/../../../../pic32c/lib/thumb/v6-m/nofp\libc-musl.a(tolower.o)
 .xc_stack_usage
                0x0000000000000000       0x2e c:/program files/microchip/xc32/v4.60/bin/bin/../../lib/gcc/pic32c/8.3.1/../../../../pic32c/lib/thumb/v6-m/nofp\libc-musl.a(tolower.o)
 .text.__tolower_l
                0x0000000000000000        0x8 c:/program files/microchip/xc32/v4.60/bin/bin/../../lib/gcc/pic32c/8.3.1/../../../../pic32c/lib/thumb/v6-m/nofp\libc-musl.a(tolower.o)
 .xc_stack_usage.hdr
                0x0000000000000000        0xe c:/program files/microchip/xc32/v4.60/bin/bin/../../lib/gcc/pic32c/8.3.1/../../../../pic32c/lib/thumb/v6-m/nofp\libc-musl.a(tolower.o)
 .text          0x0000000000000000        0x0 c:/program files/microchip/xc32/v4.60/bin/bin/../../lib/gcc/pic32c/8.3.1/../../../../pic32c/lib/thumb/v6-m/nofp\libc-musl.a(__environ.o)
 .data          0x0000000000000000        0x0 c:/program files/microchip/xc32/v4.60/bin/bin/../../lib/gcc/pic32c/8.3.1/../../../../pic32c/lib/thumb/v6-m/nofp\libc-musl.a(__environ.o)
 .xc_stack_usage.hdr
                0x0000000000000000        0xe c:/program files/microchip/xc32/v4.60/bin/bin/../../lib/gcc/pic32c/8.3.1/../../../../pic32c/lib/thumb/v6-m/nofp\libc-musl.a(__environ.o)
 .text          0x0000000000000000        0x0 c:/program files/microchip/xc32/v4.60/bin/bin/../../lib/gcc/pic32c/8.3.1/../../../../pic32c/lib/thumb/v6-m/nofp\libc-musl.a(__int_vfprintf.o)
 .data          0x0000000000000000        0x0 c:/program files/microchip/xc32/v4.60/bin/bin/../../lib/gcc/pic32c/8.3.1/../../../../pic32c/lib/thumb/v6-m/nofp\libc-musl.a(__int_vfprintf.o)
 .bss           0x0000000000000000        0x0 c:/program files/microchip/xc32/v4.60/bin/bin/../../lib/gcc/pic32c/8.3.1/../../../../pic32c/lib/thumb/v6-m/nofp\libc-musl.a(__int_vfprintf.o)
 .xc_stack_usage
                0x0000000000000000       0x18 c:/program files/microchip/xc32/v4.60/bin/bin/../../lib/gcc/pic32c/8.3.1/../../../../pic32c/lib/thumb/v6-m/nofp\libc-musl.a(__int_vfprintf.o)
 .xc_stack_usage.hdr
                0x0000000000000000        0xe c:/program files/microchip/xc32/v4.60/bin/bin/../../lib/gcc/pic32c/8.3.1/../../../../pic32c/lib/thumb/v6-m/nofp\libc-musl.a(__int_vfprintf.o)
 .text          0x0000000000000000        0x0 c:/program files/microchip/xc32/v4.60/bin/bin/../../lib/gcc/pic32c/8.3.1/../../../../pic32c/lib/thumb/v6-m/nofp\libc-musl.a(__int_vsprintf.o)
 .data          0x0000000000000000        0x0 c:/program files/microchip/xc32/v4.60/bin/bin/../../lib/gcc/pic32c/8.3.1/../../../../pic32c/lib/thumb/v6-m/nofp\libc-musl.a(__int_vsprintf.o)
 .bss           0x0000000000000000        0x0 c:/program files/microchip/xc32/v4.60/bin/bin/../../lib/gcc/pic32c/8.3.1/../../../../pic32c/lib/thumb/v6-m/nofp\libc-musl.a(__int_vsprintf.o)
 .xc_stack_usage
                0x0000000000000000       0x18 c:/program files/microchip/xc32/v4.60/bin/bin/../../lib/gcc/pic32c/8.3.1/../../../../pic32c/lib/thumb/v6-m/nofp\libc-musl.a(__int_vsprintf.o)
 .text.__vsprintf
                0x0000000000000000       0x14 c:/program files/microchip/xc32/v4.60/bin/bin/../../lib/gcc/pic32c/8.3.1/../../../../pic32c/lib/thumb/v6-m/nofp\libc-musl.a(__int_vsprintf.o)
 .xc_stack_usage.hdr
                0x0000000000000000        0xe c:/program files/microchip/xc32/v4.60/bin/bin/../../lib/gcc/pic32c/8.3.1/../../../../pic32c/lib/thumb/v6-m/nofp\libc-musl.a(__int_vsprintf.o)
 .debug_info    0x0000000000000000      0x13f c:/program files/microchip/xc32/v4.60/bin/bin/../../lib/gcc/pic32c/8.3.1/../../../../pic32c/lib/thumb/v6-m/nofp\libc-musl.a(__int_vsprintf.o)
 .debug_abbrev  0x0000000000000000       0xcb c:/program files/microchip/xc32/v4.60/bin/bin/../../lib/gcc/pic32c/8.3.1/../../../../pic32c/lib/thumb/v6-m/nofp\libc-musl.a(__int_vsprintf.o)
 .debug_loc     0x0000000000000000       0x8c c:/program files/microchip/xc32/v4.60/bin/bin/../../lib/gcc/pic32c/8.3.1/../../../../pic32c/lib/thumb/v6-m/nofp\libc-musl.a(__int_vsprintf.o)
 .debug_aranges
                0x0000000000000000       0x20 c:/program files/microchip/xc32/v4.60/bin/bin/../../lib/gcc/pic32c/8.3.1/../../../../pic32c/lib/thumb/v6-m/nofp\libc-musl.a(__int_vsprintf.o)
 .debug_ranges  0x0000000000000000       0x10 c:/program files/microchip/xc32/v4.60/bin/bin/../../lib/gcc/pic32c/8.3.1/../../../../pic32c/lib/thumb/v6-m/nofp\libc-musl.a(__int_vsprintf.o)
 .debug_line    0x0000000000000000      0x153 c:/program files/microchip/xc32/v4.60/bin/bin/../../lib/gcc/pic32c/8.3.1/../../../../pic32c/lib/thumb/v6-m/nofp\libc-musl.a(__int_vsprintf.o)
 .debug_str     0x0000000000000000      0x2a6 c:/program files/microchip/xc32/v4.60/bin/bin/../../lib/gcc/pic32c/8.3.1/../../../../pic32c/lib/thumb/v6-m/nofp\libc-musl.a(__int_vsprintf.o)
 .comment       0x0000000000000000       0x2c c:/program files/microchip/xc32/v4.60/bin/bin/../../lib/gcc/pic32c/8.3.1/../../../../pic32c/lib/thumb/v6-m/nofp\libc-musl.a(__int_vsprintf.o)
 .note.GNU-stack
                0x0000000000000000        0x0 c:/program files/microchip/xc32/v4.60/bin/bin/../../lib/gcc/pic32c/8.3.1/../../../../pic32c/lib/thumb/v6-m/nofp\libc-musl.a(__int_vsprintf.o)
 .debug_frame   0x0000000000000000       0x28 c:/program files/microchip/xc32/v4.60/bin/bin/../../lib/gcc/pic32c/8.3.1/../../../../pic32c/lib/thumb/v6-m/nofp\libc-musl.a(__int_vsprintf.o)
 .ARM.attributes
                0x0000000000000000       0x2e c:/program files/microchip/xc32/v4.60/bin/bin/../../lib/gcc/pic32c/8.3.1/../../../../pic32c/lib/thumb/v6-m/nofp\libc-musl.a(__int_vsprintf.o)
 .text          0x0000000000000000        0x0 c:/program files/microchip/xc32/v4.60/bin/bin/../../lib/gcc/pic32c/8.3.1/../../../../pic32c/lib/thumb/v6-m/nofp\libc-musl.a(fputs.o)
 .data          0x0000000000000000        0x0 c:/program files/microchip/xc32/v4.60/bin/bin/../../lib/gcc/pic32c/8.3.1/../../../../pic32c/lib/thumb/v6-m/nofp\libc-musl.a(fputs.o)
 .bss           0x0000000000000000        0x0 c:/program files/microchip/xc32/v4.60/bin/bin/../../lib/gcc/pic32c/8.3.1/../../../../pic32c/lib/thumb/v6-m/nofp\libc-musl.a(fputs.o)
 .xc_stack_usage
                0x0000000000000000       0x13 c:/program files/microchip/xc32/v4.60/bin/bin/../../lib/gcc/pic32c/8.3.1/../../../../pic32c/lib/thumb/v6-m/nofp\libc-musl.a(fputs.o)
 .xc_stack_usage.hdr
                0x0000000000000000        0xe c:/program files/microchip/xc32/v4.60/bin/bin/../../lib/gcc/pic32c/8.3.1/../../../../pic32c/lib/thumb/v6-m/nofp\libc-musl.a(fputs.o)
 .text          0x0000000000000000        0x0 c:/program files/microchip/xc32/v4.60/bin/bin/../../lib/gcc/pic32c/8.3.1/../../../../pic32c/lib/thumb/v6-m/nofp\libc-musl.a(__cvt_u.o)
 .data          0x0000000000000000        0x0 c:/program files/microchip/xc32/v4.60/bin/bin/../../lib/gcc/pic32c/8.3.1/../../../../pic32c/lib/thumb/v6-m/nofp\libc-musl.a(__cvt_u.o)
 .bss           0x0000000000000000        0x0 c:/program files/microchip/xc32/v4.60/bin/bin/../../lib/gcc/pic32c/8.3.1/../../../../pic32c/lib/thumb/v6-m/nofp\libc-musl.a(__cvt_u.o)
 .xc_stack_usage
                0x0000000000000000       0x15 c:/program files/microchip/xc32/v4.60/bin/bin/../../lib/gcc/pic32c/8.3.1/../../../../pic32c/lib/thumb/v6-m/nofp\libc-musl.a(__cvt_u.o)
 .xc_stack_usage.hdr
                0x0000000000000000        0xe c:/program files/microchip/xc32/v4.60/bin/bin/../../lib/gcc/pic32c/8.3.1/../../../../pic32c/lib/thumb/v6-m/nofp\libc-musl.a(__cvt_u.o)
 .text          0x0000000000000000        0x0 c:/program files/microchip/xc32/v4.60/bin/bin/../../lib/gcc/pic32c/8.3.1/../../../../pic32c/lib/thumb/v6-m/nofp\libc-musl.a(__io_init_needed.o)
 .data          0x0000000000000000        0x0 c:/program files/microchip/xc32/v4.60/bin/bin/../../lib/gcc/pic32c/8.3.1/../../../../pic32c/lib/thumb/v6-m/nofp\libc-musl.a(__io_init_needed.o)
 .bss           0x0000000000000000        0x0 c:/program files/microchip/xc32/v4.60/bin/bin/../../lib/gcc/pic32c/8.3.1/../../../../pic32c/lib/thumb/v6-m/nofp\libc-musl.a(__io_init_needed.o)
 .xc_stack_usage
                0x0000000000000000       0x40 c:/program files/microchip/xc32/v4.60/bin/bin/../../lib/gcc/pic32c/8.3.1/../../../../pic32c/lib/thumb/v6-m/nofp\libc-musl.a(__io_init_needed.o)
 .xc_stack_usage.hdr
                0x0000000000000000        0xe c:/program files/microchip/xc32/v4.60/bin/bin/../../lib/gcc/pic32c/8.3.1/../../../../pic32c/lib/thumb/v6-m/nofp\libc-musl.a(__io_init_needed.o)
 .debug_info    0x0000000000000000       0xea c:/program files/microchip/xc32/v4.60/bin/bin/../../lib/gcc/pic32c/8.3.1/../../../../pic32c/lib/thumb/v6-m/nofp\libc-musl.a(__io_init_needed.o)
 .debug_abbrev  0x0000000000000000       0x81 c:/program files/microchip/xc32/v4.60/bin/bin/../../lib/gcc/pic32c/8.3.1/../../../../pic32c/lib/thumb/v6-m/nofp\libc-musl.a(__io_init_needed.o)
 .debug_loc     0x0000000000000000       0x40 c:/program files/microchip/xc32/v4.60/bin/bin/../../lib/gcc/pic32c/8.3.1/../../../../pic32c/lib/thumb/v6-m/nofp\libc-musl.a(__io_init_needed.o)
 .debug_aranges
                0x0000000000000000       0x28 c:/program files/microchip/xc32/v4.60/bin/bin/../../lib/gcc/pic32c/8.3.1/../../../../pic32c/lib/thumb/v6-m/nofp\libc-musl.a(__io_init_needed.o)
 .debug_ranges  0x0000000000000000       0x18 c:/program files/microchip/xc32/v4.60/bin/bin/../../lib/gcc/pic32c/8.3.1/../../../../pic32c/lib/thumb/v6-m/nofp\libc-musl.a(__io_init_needed.o)
 .debug_line    0x0000000000000000      0x137 c:/program files/microchip/xc32/v4.60/bin/bin/../../lib/gcc/pic32c/8.3.1/../../../../pic32c/lib/thumb/v6-m/nofp\libc-musl.a(__io_init_needed.o)
 .debug_str     0x0000000000000000      0x2d4 c:/program files/microchip/xc32/v4.60/bin/bin/../../lib/gcc/pic32c/8.3.1/../../../../pic32c/lib/thumb/v6-m/nofp\libc-musl.a(__io_init_needed.o)
 .comment       0x0000000000000000       0x2c c:/program files/microchip/xc32/v4.60/bin/bin/../../lib/gcc/pic32c/8.3.1/../../../../pic32c/lib/thumb/v6-m/nofp\libc-musl.a(__io_init_needed.o)
 .note.GNU-stack
                0x0000000000000000        0x0 c:/program files/microchip/xc32/v4.60/bin/bin/../../lib/gcc/pic32c/8.3.1/../../../../pic32c/lib/thumb/v6-m/nofp\libc-musl.a(__io_init_needed.o)
 .debug_frame   0x0000000000000000       0x40 c:/program files/microchip/xc32/v4.60/bin/bin/../../lib/gcc/pic32c/8.3.1/../../../../pic32c/lib/thumb/v6-m/nofp\libc-musl.a(__io_init_needed.o)
 .ARM.attributes
                0x0000000000000000       0x2e c:/program files/microchip/xc32/v4.60/bin/bin/../../lib/gcc/pic32c/8.3.1/../../../../pic32c/lib/thumb/v6-m/nofp\libc-musl.a(__io_init_needed.o)
 .text          0x0000000000000000        0x0 c:/program files/microchip/xc32/v4.60/bin/bin/../../lib/gcc/pic32c/8.3.1/../../../../pic32c/lib/thumb/v6-m/nofp\libc-musl.a(__io_rw_needed.o)
 .data          0x0000000000000000        0x0 c:/program files/microchip/xc32/v4.60/bin/bin/../../lib/gcc/pic32c/8.3.1/../../../../pic32c/lib/thumb/v6-m/nofp\libc-musl.a(__io_rw_needed.o)
 .bss           0x0000000000000000        0x0 c:/program files/microchip/xc32/v4.60/bin/bin/../../lib/gcc/pic32c/8.3.1/../../../../pic32c/lib/thumb/v6-m/nofp\libc-musl.a(__io_rw_needed.o)
 .xc_stack_usage
                0x0000000000000000       0x1c c:/program files/microchip/xc32/v4.60/bin/bin/../../lib/gcc/pic32c/8.3.1/../../../../pic32c/lib/thumb/v6-m/nofp\libc-musl.a(__io_rw_needed.o)
 .xc_stack_usage.hdr
                0x0000000000000000        0xe c:/program files/microchip/xc32/v4.60/bin/bin/../../lib/gcc/pic32c/8.3.1/../../../../pic32c/lib/thumb/v6-m/nofp\libc-musl.a(__io_rw_needed.o)
 .debug_info    0x0000000000000000       0xfd c:/program files/microchip/xc32/v4.60/bin/bin/../../lib/gcc/pic32c/8.3.1/../../../../pic32c/lib/thumb/v6-m/nofp\libc-musl.a(__io_rw_needed.o)
 .debug_abbrev  0x0000000000000000       0x67 c:/program files/microchip/xc32/v4.60/bin/bin/../../lib/gcc/pic32c/8.3.1/../../../../pic32c/lib/thumb/v6-m/nofp\libc-musl.a(__io_rw_needed.o)
 .debug_loc     0x0000000000000000       0x20 c:/program files/microchip/xc32/v4.60/bin/bin/../../lib/gcc/pic32c/8.3.1/../../../../pic32c/lib/thumb/v6-m/nofp\libc-musl.a(__io_rw_needed.o)
 .debug_aranges
                0x0000000000000000       0x20 c:/program files/microchip/xc32/v4.60/bin/bin/../../lib/gcc/pic32c/8.3.1/../../../../pic32c/lib/thumb/v6-m/nofp\libc-musl.a(__io_rw_needed.o)
 .debug_ranges  0x0000000000000000       0x10 c:/program files/microchip/xc32/v4.60/bin/bin/../../lib/gcc/pic32c/8.3.1/../../../../pic32c/lib/thumb/v6-m/nofp\libc-musl.a(__io_rw_needed.o)
 .debug_line    0x0000000000000000      0x12d c:/program files/microchip/xc32/v4.60/bin/bin/../../lib/gcc/pic32c/8.3.1/../../../../pic32c/lib/thumb/v6-m/nofp\libc-musl.a(__io_rw_needed.o)
 .debug_str     0x0000000000000000      0x2e3 c:/program files/microchip/xc32/v4.60/bin/bin/../../lib/gcc/pic32c/8.3.1/../../../../pic32c/lib/thumb/v6-m/nofp\libc-musl.a(__io_rw_needed.o)
 .comment       0x0000000000000000       0x2c c:/program files/microchip/xc32/v4.60/bin/bin/../../lib/gcc/pic32c/8.3.1/../../../../pic32c/lib/thumb/v6-m/nofp\libc-musl.a(__io_rw_needed.o)
 .note.GNU-stack
                0x0000000000000000        0x0 c:/program files/microchip/xc32/v4.60/bin/bin/../../lib/gcc/pic32c/8.3.1/../../../../pic32c/lib/thumb/v6-m/nofp\libc-musl.a(__io_rw_needed.o)
 .debug_frame   0x0000000000000000       0x28 c:/program files/microchip/xc32/v4.60/bin/bin/../../lib/gcc/pic32c/8.3.1/../../../../pic32c/lib/thumb/v6-m/nofp\libc-musl.a(__io_rw_needed.o)
 .ARM.attributes
                0x0000000000000000       0x2e c:/program files/microchip/xc32/v4.60/bin/bin/../../lib/gcc/pic32c/8.3.1/../../../../pic32c/lib/thumb/v6-m/nofp\libc-musl.a(__io_rw_needed.o)
 .text          0x0000000000000000        0x0 c:/program files/microchip/xc32/v4.60/bin/bin/../../lib/gcc/pic32c/8.3.1/../../../../pic32c/lib/thumb/v6-m/nofp\libc-musl.a(__pop_float.o)
 .data          0x0000000000000000        0x0 c:/program files/microchip/xc32/v4.60/bin/bin/../../lib/gcc/pic32c/8.3.1/../../../../pic32c/lib/thumb/v6-m/nofp\libc-musl.a(__pop_float.o)
 .bss           0x0000000000000000        0x0 c:/program files/microchip/xc32/v4.60/bin/bin/../../lib/gcc/pic32c/8.3.1/../../../../pic32c/lib/thumb/v6-m/nofp\libc-musl.a(__pop_float.o)
 .xc_stack_usage
                0x0000000000000000       0x19 c:/program files/microchip/xc32/v4.60/bin/bin/../../lib/gcc/pic32c/8.3.1/../../../../pic32c/lib/thumb/v6-m/nofp\libc-musl.a(__pop_float.o)
 .xc_stack_usage.hdr
                0x0000000000000000        0xe c:/program files/microchip/xc32/v4.60/bin/bin/../../lib/gcc/pic32c/8.3.1/../../../../pic32c/lib/thumb/v6-m/nofp\libc-musl.a(__pop_float.o)
 .text          0x0000000000000000        0x0 c:/program files/microchip/xc32/v4.60/bin/bin/../../lib/gcc/pic32c/8.3.1/../../../../pic32c/lib/thumb/v6-m/nofp\libc-musl.a(__stdio_read.o)
 .data          0x0000000000000000        0x0 c:/program files/microchip/xc32/v4.60/bin/bin/../../lib/gcc/pic32c/8.3.1/../../../../pic32c/lib/thumb/v6-m/nofp\libc-musl.a(__stdio_read.o)
 .bss           0x0000000000000000        0x0 c:/program files/microchip/xc32/v4.60/bin/bin/../../lib/gcc/pic32c/8.3.1/../../../../pic32c/lib/thumb/v6-m/nofp\libc-musl.a(__stdio_read.o)
 .xc_stack_usage
                0x0000000000000000       0x1a c:/program files/microchip/xc32/v4.60/bin/bin/../../lib/gcc/pic32c/8.3.1/../../../../pic32c/lib/thumb/v6-m/nofp\libc-musl.a(__stdio_read.o)
 .xc_stack_usage.hdr
                0x0000000000000000        0xe c:/program files/microchip/xc32/v4.60/bin/bin/../../lib/gcc/pic32c/8.3.1/../../../../pic32c/lib/thumb/v6-m/nofp\libc-musl.a(__stdio_read.o)
 .text          0x0000000000000000        0x0 c:/program files/microchip/xc32/v4.60/bin/bin/../../lib/gcc/pic32c/8.3.1/../../../../pic32c/lib/thumb/v6-m/nofp\libc-musl.a(__towrite_rw.o)
 .data          0x0000000000000000        0x0 c:/program files/microchip/xc32/v4.60/bin/bin/../../lib/gcc/pic32c/8.3.1/../../../../pic32c/lib/thumb/v6-m/nofp\libc-musl.a(__towrite_rw.o)
 .bss           0x0000000000000000        0x0 c:/program files/microchip/xc32/v4.60/bin/bin/../../lib/gcc/pic32c/8.3.1/../../../../pic32c/lib/thumb/v6-m/nofp\libc-musl.a(__towrite_rw.o)
 .xc_stack_usage
                0x0000000000000000       0x1a c:/program files/microchip/xc32/v4.60/bin/bin/../../lib/gcc/pic32c/8.3.1/../../../../pic32c/lib/thumb/v6-m/nofp\libc-musl.a(__towrite_rw.o)
 .xc_stack_usage.hdr
                0x0000000000000000        0xe c:/program files/microchip/xc32/v4.60/bin/bin/../../lib/gcc/pic32c/8.3.1/../../../../pic32c/lib/thumb/v6-m/nofp\libc-musl.a(__towrite_rw.o)
 .text          0x0000000000000000        0x0 c:/program files/microchip/xc32/v4.60/bin/bin/../../lib/gcc/pic32c/8.3.1/../../../../pic32c/lib/thumb/v6-m/nofp\libc-musl.a(fwrite.o)
 .data          0x0000000000000000        0x0 c:/program files/microchip/xc32/v4.60/bin/bin/../../lib/gcc/pic32c/8.3.1/../../../../pic32c/lib/thumb/v6-m/nofp\libc-musl.a(fwrite.o)
 .bss           0x0000000000000000        0x0 c:/program files/microchip/xc32/v4.60/bin/bin/../../lib/gcc/pic32c/8.3.1/../../../../pic32c/lib/thumb/v6-m/nofp\libc-musl.a(fwrite.o)
 .xc_stack_usage
                0x0000000000000000       0x2e c:/program files/microchip/xc32/v4.60/bin/bin/../../lib/gcc/pic32c/8.3.1/../../../../pic32c/lib/thumb/v6-m/nofp\libc-musl.a(fwrite.o)
 .text.__fwrite_min
                0x0000000000000000        0xa c:/program files/microchip/xc32/v4.60/bin/bin/../../lib/gcc/pic32c/8.3.1/../../../../pic32c/lib/thumb/v6-m/nofp\libc-musl.a(fwrite.o)
 .xc_stack_usage.hdr
                0x0000000000000000        0xe c:/program files/microchip/xc32/v4.60/bin/bin/../../lib/gcc/pic32c/8.3.1/../../../../pic32c/lib/thumb/v6-m/nofp\libc-musl.a(fwrite.o)
 .text          0x0000000000000000        0x0 c:/program files/microchip/xc32/v4.60/bin/bin/../../lib/gcc/pic32c/8.3.1/../../../../pic32c/lib/thumb/v6-m/nofp\libc-musl.a(putc.o)
 .data          0x0000000000000000        0x0 c:/program files/microchip/xc32/v4.60/bin/bin/../../lib/gcc/pic32c/8.3.1/../../../../pic32c/lib/thumb/v6-m/nofp\libc-musl.a(putc.o)
 .bss           0x0000000000000000        0x0 c:/program files/microchip/xc32/v4.60/bin/bin/../../lib/gcc/pic32c/8.3.1/../../../../pic32c/lib/thumb/v6-m/nofp\libc-musl.a(putc.o)
 .xc_stack_usage
                0x0000000000000000       0x4f c:/program files/microchip/xc32/v4.60/bin/bin/../../lib/gcc/pic32c/8.3.1/../../../../pic32c/lib/thumb/v6-m/nofp\libc-musl.a(putc.o)
 .xc_stack_usage.hdr
                0x0000000000000000        0xe c:/program files/microchip/xc32/v4.60/bin/bin/../../lib/gcc/pic32c/8.3.1/../../../../pic32c/lib/thumb/v6-m/nofp\libc-musl.a(putc.o)
 .text          0x0000000000000000        0x0 c:/program files/microchip/xc32/v4.60/bin/bin/../../lib/gcc/pic32c/8.3.1/../../../../pic32c/lib/thumb/v6-m/nofp\libc-musl.a(setvbuf.o)
 .data          0x0000000000000000        0x0 c:/program files/microchip/xc32/v4.60/bin/bin/../../lib/gcc/pic32c/8.3.1/../../../../pic32c/lib/thumb/v6-m/nofp\libc-musl.a(setvbuf.o)
 .bss           0x0000000000000000        0x0 c:/program files/microchip/xc32/v4.60/bin/bin/../../lib/gcc/pic32c/8.3.1/../../../../pic32c/lib/thumb/v6-m/nofp\libc-musl.a(setvbuf.o)
 .xc_stack_usage
                0x0000000000000000       0x36 c:/program files/microchip/xc32/v4.60/bin/bin/../../lib/gcc/pic32c/8.3.1/../../../../pic32c/lib/thumb/v6-m/nofp\libc-musl.a(setvbuf.o)
 .xc_stack_usage.hdr
                0x0000000000000000        0xe c:/program files/microchip/xc32/v4.60/bin/bin/../../lib/gcc/pic32c/8.3.1/../../../../pic32c/lib/thumb/v6-m/nofp\libc-musl.a(setvbuf.o)
 .text          0x0000000000000000        0x0 c:/program files/microchip/xc32/v4.60/bin/bin/../../lib/gcc/pic32c/8.3.1/../../../../pic32c/lib/thumb/v6-m/nofp\libc-musl.a(__tm_to_secs.o)
 .data          0x0000000000000000        0x0 c:/program files/microchip/xc32/v4.60/bin/bin/../../lib/gcc/pic32c/8.3.1/../../../../pic32c/lib/thumb/v6-m/nofp\libc-musl.a(__tm_to_secs.o)
 .bss           0x0000000000000000        0x0 c:/program files/microchip/xc32/v4.60/bin/bin/../../lib/gcc/pic32c/8.3.1/../../../../pic32c/lib/thumb/v6-m/nofp\libc-musl.a(__tm_to_secs.o)
 .xc_stack_usage
                0x0000000000000000       0x1a c:/program files/microchip/xc32/v4.60/bin/bin/../../lib/gcc/pic32c/8.3.1/../../../../pic32c/lib/thumb/v6-m/nofp\libc-musl.a(__tm_to_secs.o)
 .xc_stack_usage.hdr
                0x0000000000000000        0xe c:/program files/microchip/xc32/v4.60/bin/bin/../../lib/gcc/pic32c/8.3.1/../../../../pic32c/lib/thumb/v6-m/nofp\libc-musl.a(__tm_to_secs.o)
 .text          0x0000000000000000        0x0 c:/program files/microchip/xc32/v4.60/bin/bin/../../lib/gcc/pic32c/8.3.1/../../../../pic32c/lib/thumb/v6-m/nofp\libc-musl.a(__year_to_secs.o)
 .data          0x0000000000000000        0x0 c:/program files/microchip/xc32/v4.60/bin/bin/../../lib/gcc/pic32c/8.3.1/../../../../pic32c/lib/thumb/v6-m/nofp\libc-musl.a(__year_to_secs.o)
 .bss           0x0000000000000000        0x0 c:/program files/microchip/xc32/v4.60/bin/bin/../../lib/gcc/pic32c/8.3.1/../../../../pic32c/lib/thumb/v6-m/nofp\libc-musl.a(__year_to_secs.o)
 .xc_stack_usage
                0x0000000000000000       0x1c c:/program files/microchip/xc32/v4.60/bin/bin/../../lib/gcc/pic32c/8.3.1/../../../../pic32c/lib/thumb/v6-m/nofp\libc-musl.a(__year_to_secs.o)
 .xc_stack_usage.hdr
                0x0000000000000000        0xe c:/program files/microchip/xc32/v4.60/bin/bin/../../lib/gcc/pic32c/8.3.1/../../../../pic32c/lib/thumb/v6-m/nofp\libc-musl.a(__year_to_secs.o)
 .text          0x0000000000000000        0x0 c:/program files/microchip/xc32/v4.60/bin/bin/../../lib/gcc/pic32c/8.3.1/../../../../pic32c/lib/thumb/v6-m/nofp\libc-musl.a(__secs_to_tm.o)
 .data          0x0000000000000000        0x0 c:/program files/microchip/xc32/v4.60/bin/bin/../../lib/gcc/pic32c/8.3.1/../../../../pic32c/lib/thumb/v6-m/nofp\libc-musl.a(__secs_to_tm.o)
 .bss           0x0000000000000000        0x0 c:/program files/microchip/xc32/v4.60/bin/bin/../../lib/gcc/pic32c/8.3.1/../../../../pic32c/lib/thumb/v6-m/nofp\libc-musl.a(__secs_to_tm.o)
 .xc_stack_usage
                0x0000000000000000       0x1a c:/program files/microchip/xc32/v4.60/bin/bin/../../lib/gcc/pic32c/8.3.1/../../../../pic32c/lib/thumb/v6-m/nofp\libc-musl.a(__secs_to_tm.o)
 .xc_stack_usage.hdr
                0x0000000000000000        0xe c:/program files/microchip/xc32/v4.60/bin/bin/../../lib/gcc/pic32c/8.3.1/../../../../pic32c/lib/thumb/v6-m/nofp\libc-musl.a(__secs_to_tm.o)
 .text          0x0000000000000000        0x0 c:/program files/microchip/xc32/v4.60/bin/bin/../../lib/gcc/pic32c/8.3.1/../../../../pic32c/lib/thumb/v6-m/nofp\libc-musl.a(readv.o)
 .data          0x0000000000000000        0x0 c:/program files/microchip/xc32/v4.60/bin/bin/../../lib/gcc/pic32c/8.3.1/../../../../pic32c/lib/thumb/v6-m/nofp\libc-musl.a(readv.o)
 .bss           0x0000000000000000        0x0 c:/program files/microchip/xc32/v4.60/bin/bin/../../lib/gcc/pic32c/8.3.1/../../../../pic32c/lib/thumb/v6-m/nofp\libc-musl.a(readv.o)
 .xc_stack_usage
                0x0000000000000000       0x15 c:/program files/microchip/xc32/v4.60/bin/bin/../../lib/gcc/pic32c/8.3.1/../../../../pic32c/lib/thumb/v6-m/nofp\libc-musl.a(readv.o)
 .xc_stack_usage.hdr
                0x0000000000000000        0xe c:/program files/microchip/xc32/v4.60/bin/bin/../../lib/gcc/pic32c/8.3.1/../../../../pic32c/lib/thumb/v6-m/nofp\libc-musl.a(readv.o)
 .text          0x0000000000000000        0x0 c:/program files/microchip/xc32/v4.60/bin/bin/../../lib/gcc/pic32c/8.3.1/../../../../pic32c/lib/thumb/v6-m/nofp\libc-musl.a(__int_vsnprintf.o)
 .data          0x0000000000000000        0x0 c:/program files/microchip/xc32/v4.60/bin/bin/../../lib/gcc/pic32c/8.3.1/../../../../pic32c/lib/thumb/v6-m/nofp\libc-musl.a(__int_vsnprintf.o)
 .bss           0x0000000000000000        0x0 c:/program files/microchip/xc32/v4.60/bin/bin/../../lib/gcc/pic32c/8.3.1/../../../../pic32c/lib/thumb/v6-m/nofp\libc-musl.a(__int_vsnprintf.o)
 .xc_stack_usage
                0x0000000000000000       0x19 c:/program files/microchip/xc32/v4.60/bin/bin/../../lib/gcc/pic32c/8.3.1/../../../../pic32c/lib/thumb/v6-m/nofp\libc-musl.a(__int_vsnprintf.o)
 .text.__vsnprintf
                0x0000000000000000       0x50 c:/program files/microchip/xc32/v4.60/bin/bin/../../lib/gcc/pic32c/8.3.1/../../../../pic32c/lib/thumb/v6-m/nofp\libc-musl.a(__int_vsnprintf.o)
 .xc_stack_usage.hdr
                0x0000000000000000        0xe c:/program files/microchip/xc32/v4.60/bin/bin/../../lib/gcc/pic32c/8.3.1/../../../../pic32c/lib/thumb/v6-m/nofp\libc-musl.a(__int_vsnprintf.o)
 .debug_info    0x0000000000000000      0x21a c:/program files/microchip/xc32/v4.60/bin/bin/../../lib/gcc/pic32c/8.3.1/../../../../pic32c/lib/thumb/v6-m/nofp\libc-musl.a(__int_vsnprintf.o)
 .debug_abbrev  0x0000000000000000      0x154 c:/program files/microchip/xc32/v4.60/bin/bin/../../lib/gcc/pic32c/8.3.1/../../../../pic32c/lib/thumb/v6-m/nofp\libc-musl.a(__int_vsnprintf.o)
 .debug_loc     0x0000000000000000      0x102 c:/program files/microchip/xc32/v4.60/bin/bin/../../lib/gcc/pic32c/8.3.1/../../../../pic32c/lib/thumb/v6-m/nofp\libc-musl.a(__int_vsnprintf.o)
 .debug_aranges
                0x0000000000000000       0x20 c:/program files/microchip/xc32/v4.60/bin/bin/../../lib/gcc/pic32c/8.3.1/../../../../pic32c/lib/thumb/v6-m/nofp\libc-musl.a(__int_vsnprintf.o)
 .debug_ranges  0x0000000000000000       0x10 c:/program files/microchip/xc32/v4.60/bin/bin/../../lib/gcc/pic32c/8.3.1/../../../../pic32c/lib/thumb/v6-m/nofp\libc-musl.a(__int_vsnprintf.o)
 .debug_line    0x0000000000000000      0x1c7 c:/program files/microchip/xc32/v4.60/bin/bin/../../lib/gcc/pic32c/8.3.1/../../../../pic32c/lib/thumb/v6-m/nofp\libc-musl.a(__int_vsnprintf.o)
 .debug_str     0x0000000000000000      0x2f4 c:/program files/microchip/xc32/v4.60/bin/bin/../../lib/gcc/pic32c/8.3.1/../../../../pic32c/lib/thumb/v6-m/nofp\libc-musl.a(__int_vsnprintf.o)
 .comment       0x0000000000000000       0x2c c:/program files/microchip/xc32/v4.60/bin/bin/../../lib/gcc/pic32c/8.3.1/../../../../pic32c/lib/thumb/v6-m/nofp\libc-musl.a(__int_vsnprintf.o)
 .note.GNU-stack
                0x0000000000000000        0x0 c:/program files/microchip/xc32/v4.60/bin/bin/../../lib/gcc/pic32c/8.3.1/../../../../pic32c/lib/thumb/v6-m/nofp\libc-musl.a(__int_vsnprintf.o)
 .debug_frame   0x0000000000000000       0x2c c:/program files/microchip/xc32/v4.60/bin/bin/../../lib/gcc/pic32c/8.3.1/../../../../pic32c/lib/thumb/v6-m/nofp\libc-musl.a(__int_vsnprintf.o)
 .ARM.attributes
                0x0000000000000000       0x2e c:/program files/microchip/xc32/v4.60/bin/bin/../../lib/gcc/pic32c/8.3.1/../../../../pic32c/lib/thumb/v6-m/nofp\libc-musl.a(__int_vsnprintf.o)
 .text          0x0000000000000000        0x0 c:/program files/microchip/xc32/v4.60/bin/bin/../../lib/gcc/pic32c/8.3.1/../../../../pic32c/lib/thumb/v6-m/nofp\libc-musl.a(__fopen_rw.o)
 .data          0x0000000000000000        0x0 c:/program files/microchip/xc32/v4.60/bin/bin/../../lib/gcc/pic32c/8.3.1/../../../../pic32c/lib/thumb/v6-m/nofp\libc-musl.a(__fopen_rw.o)
 .bss           0x0000000000000000        0x0 c:/program files/microchip/xc32/v4.60/bin/bin/../../lib/gcc/pic32c/8.3.1/../../../../pic32c/lib/thumb/v6-m/nofp\libc-musl.a(__fopen_rw.o)
 .xc_stack_usage
                0x0000000000000000       0x18 c:/program files/microchip/xc32/v4.60/bin/bin/../../lib/gcc/pic32c/8.3.1/../../../../pic32c/lib/thumb/v6-m/nofp\libc-musl.a(__fopen_rw.o)
 .text.__fopen_rw
                0x0000000000000000       0x4c c:/program files/microchip/xc32/v4.60/bin/bin/../../lib/gcc/pic32c/8.3.1/../../../../pic32c/lib/thumb/v6-m/nofp\libc-musl.a(__fopen_rw.o)
 .xc_stack_usage.hdr
                0x0000000000000000        0xe c:/program files/microchip/xc32/v4.60/bin/bin/../../lib/gcc/pic32c/8.3.1/../../../../pic32c/lib/thumb/v6-m/nofp\libc-musl.a(__fopen_rw.o)
 .debug_info    0x0000000000000000      0x3dc c:/program files/microchip/xc32/v4.60/bin/bin/../../lib/gcc/pic32c/8.3.1/../../../../pic32c/lib/thumb/v6-m/nofp\libc-musl.a(__fopen_rw.o)
 .debug_abbrev  0x0000000000000000      0x12c c:/program files/microchip/xc32/v4.60/bin/bin/../../lib/gcc/pic32c/8.3.1/../../../../pic32c/lib/thumb/v6-m/nofp\libc-musl.a(__fopen_rw.o)
 .debug_loc     0x0000000000000000       0x4f c:/program files/microchip/xc32/v4.60/bin/bin/../../lib/gcc/pic32c/8.3.1/../../../../pic32c/lib/thumb/v6-m/nofp\libc-musl.a(__fopen_rw.o)
 .debug_aranges
                0x0000000000000000       0x20 c:/program files/microchip/xc32/v4.60/bin/bin/../../lib/gcc/pic32c/8.3.1/../../../../pic32c/lib/thumb/v6-m/nofp\libc-musl.a(__fopen_rw.o)
 .debug_ranges  0x0000000000000000       0x10 c:/program files/microchip/xc32/v4.60/bin/bin/../../lib/gcc/pic32c/8.3.1/../../../../pic32c/lib/thumb/v6-m/nofp\libc-musl.a(__fopen_rw.o)
 .debug_line    0x0000000000000000      0x28e c:/program files/microchip/xc32/v4.60/bin/bin/../../lib/gcc/pic32c/8.3.1/../../../../pic32c/lib/thumb/v6-m/nofp\libc-musl.a(__fopen_rw.o)
 .debug_str     0x0000000000000000      0x355 c:/program files/microchip/xc32/v4.60/bin/bin/../../lib/gcc/pic32c/8.3.1/../../../../pic32c/lib/thumb/v6-m/nofp\libc-musl.a(__fopen_rw.o)
 .comment       0x0000000000000000       0x2c c:/program files/microchip/xc32/v4.60/bin/bin/../../lib/gcc/pic32c/8.3.1/../../../../pic32c/lib/thumb/v6-m/nofp\libc-musl.a(__fopen_rw.o)
 .note.GNU-stack
                0x0000000000000000        0x0 c:/program files/microchip/xc32/v4.60/bin/bin/../../lib/gcc/pic32c/8.3.1/../../../../pic32c/lib/thumb/v6-m/nofp\libc-musl.a(__fopen_rw.o)
 .debug_frame   0x0000000000000000       0x28 c:/program files/microchip/xc32/v4.60/bin/bin/../../lib/gcc/pic32c/8.3.1/../../../../pic32c/lib/thumb/v6-m/nofp\libc-musl.a(__fopen_rw.o)
 .ARM.attributes
                0x0000000000000000       0x2e c:/program files/microchip/xc32/v4.60/bin/bin/../../lib/gcc/pic32c/8.3.1/../../../../pic32c/lib/thumb/v6-m/nofp\libc-musl.a(__fopen_rw.o)
 .text          0x0000000000000000        0x0 c:/program files/microchip/xc32/v4.60/bin/bin/../../lib/gcc/pic32c/8.3.1/../../../../pic32c/lib/thumb/v6-m/nofp\libc-musl.a(__ftello_rw.o)
 .data          0x0000000000000000        0x0 c:/program files/microchip/xc32/v4.60/bin/bin/../../lib/gcc/pic32c/8.3.1/../../../../pic32c/lib/thumb/v6-m/nofp\libc-musl.a(__ftello_rw.o)
 .bss           0x0000000000000000        0x0 c:/program files/microchip/xc32/v4.60/bin/bin/../../lib/gcc/pic32c/8.3.1/../../../../pic32c/lib/thumb/v6-m/nofp\libc-musl.a(__ftello_rw.o)
 .xc_stack_usage
                0x0000000000000000       0x1d c:/program files/microchip/xc32/v4.60/bin/bin/../../lib/gcc/pic32c/8.3.1/../../../../pic32c/lib/thumb/v6-m/nofp\libc-musl.a(__ftello_rw.o)
 .text.__ftello_adj_rw
                0x0000000000000000       0x28 c:/program files/microchip/xc32/v4.60/bin/bin/../../lib/gcc/pic32c/8.3.1/../../../../pic32c/lib/thumb/v6-m/nofp\libc-musl.a(__ftello_rw.o)
 .xc_stack_usage.hdr
                0x0000000000000000        0xe c:/program files/microchip/xc32/v4.60/bin/bin/../../lib/gcc/pic32c/8.3.1/../../../../pic32c/lib/thumb/v6-m/nofp\libc-musl.a(__ftello_rw.o)
 .debug_info    0x0000000000000000      0x34a c:/program files/microchip/xc32/v4.60/bin/bin/../../lib/gcc/pic32c/8.3.1/../../../../pic32c/lib/thumb/v6-m/nofp\libc-musl.a(__ftello_rw.o)
 .debug_abbrev  0x0000000000000000      0x10b c:/program files/microchip/xc32/v4.60/bin/bin/../../lib/gcc/pic32c/8.3.1/../../../../pic32c/lib/thumb/v6-m/nofp\libc-musl.a(__ftello_rw.o)
 .debug_loc     0x0000000000000000       0x45 c:/program files/microchip/xc32/v4.60/bin/bin/../../lib/gcc/pic32c/8.3.1/../../../../pic32c/lib/thumb/v6-m/nofp\libc-musl.a(__ftello_rw.o)
 .debug_aranges
                0x0000000000000000       0x20 c:/program files/microchip/xc32/v4.60/bin/bin/../../lib/gcc/pic32c/8.3.1/../../../../pic32c/lib/thumb/v6-m/nofp\libc-musl.a(__ftello_rw.o)
 .debug_ranges  0x0000000000000000       0x10 c:/program files/microchip/xc32/v4.60/bin/bin/../../lib/gcc/pic32c/8.3.1/../../../../pic32c/lib/thumb/v6-m/nofp\libc-musl.a(__ftello_rw.o)
 .debug_line    0x0000000000000000      0x1d2 c:/program files/microchip/xc32/v4.60/bin/bin/../../lib/gcc/pic32c/8.3.1/../../../../pic32c/lib/thumb/v6-m/nofp\libc-musl.a(__ftello_rw.o)
 .debug_str     0x0000000000000000      0x33f c:/program files/microchip/xc32/v4.60/bin/bin/../../lib/gcc/pic32c/8.3.1/../../../../pic32c/lib/thumb/v6-m/nofp\libc-musl.a(__ftello_rw.o)
 .comment       0x0000000000000000       0x2c c:/program files/microchip/xc32/v4.60/bin/bin/../../lib/gcc/pic32c/8.3.1/../../../../pic32c/lib/thumb/v6-m/nofp\libc-musl.a(__ftello_rw.o)
 .note.GNU-stack
                0x0000000000000000        0x0 c:/program files/microchip/xc32/v4.60/bin/bin/../../lib/gcc/pic32c/8.3.1/../../../../pic32c/lib/thumb/v6-m/nofp\libc-musl.a(__ftello_rw.o)
 .debug_frame   0x0000000000000000       0x2c c:/program files/microchip/xc32/v4.60/bin/bin/../../lib/gcc/pic32c/8.3.1/../../../../pic32c/lib/thumb/v6-m/nofp\libc-musl.a(__ftello_rw.o)
 .ARM.attributes
                0x0000000000000000       0x2e c:/program files/microchip/xc32/v4.60/bin/bin/../../lib/gcc/pic32c/8.3.1/../../../../pic32c/lib/thumb/v6-m/nofp\libc-musl.a(__ftello_rw.o)
 .text          0x0000000000000000        0x0 c:/program files/microchip/xc32/v4.60/bin/bin/../../lib/gcc/pic32c/8.3.1/../../../../pic32c/lib/thumb/v6-m/nofp\libc-musl.a(__init_stdio.o)
 .data          0x0000000000000000        0x0 c:/program files/microchip/xc32/v4.60/bin/bin/../../lib/gcc/pic32c/8.3.1/../../../../pic32c/lib/thumb/v6-m/nofp\libc-musl.a(__init_stdio.o)
 .bss           0x0000000000000000        0x0 c:/program files/microchip/xc32/v4.60/bin/bin/../../lib/gcc/pic32c/8.3.1/../../../../pic32c/lib/thumb/v6-m/nofp\libc-musl.a(__init_stdio.o)
 .xc_stack_usage
                0x0000000000000000       0x2f c:/program files/microchip/xc32/v4.60/bin/bin/../../lib/gcc/pic32c/8.3.1/../../../../pic32c/lib/thumb/v6-m/nofp\libc-musl.a(__init_stdio.o)
 .xc_stack_usage.hdr
                0x0000000000000000        0xe c:/program files/microchip/xc32/v4.60/bin/bin/../../lib/gcc/pic32c/8.3.1/../../../../pic32c/lib/thumb/v6-m/nofp\libc-musl.a(__init_stdio.o)
 .text          0x0000000000000000        0x0 c:/program files/microchip/xc32/v4.60/bin/bin/../../lib/gcc/pic32c/8.3.1/../../../../pic32c/lib/thumb/v6-m/nofp\libc-musl.a(__io_buf_needed.o)
 .data          0x0000000000000000        0x0 c:/program files/microchip/xc32/v4.60/bin/bin/../../lib/gcc/pic32c/8.3.1/../../../../pic32c/lib/thumb/v6-m/nofp\libc-musl.a(__io_buf_needed.o)
 .bss           0x0000000000000000        0x0 c:/program files/microchip/xc32/v4.60/bin/bin/../../lib/gcc/pic32c/8.3.1/../../../../pic32c/lib/thumb/v6-m/nofp\libc-musl.a(__io_buf_needed.o)
 .xc_stack_usage
                0x0000000000000000       0x1d c:/program files/microchip/xc32/v4.60/bin/bin/../../lib/gcc/pic32c/8.3.1/../../../../pic32c/lib/thumb/v6-m/nofp\libc-musl.a(__io_buf_needed.o)
 .xc_stack_usage.hdr
                0x0000000000000000        0xe c:/program files/microchip/xc32/v4.60/bin/bin/../../lib/gcc/pic32c/8.3.1/../../../../pic32c/lib/thumb/v6-m/nofp\libc-musl.a(__io_buf_needed.o)
 .debug_info    0x0000000000000000      0x142 c:/program files/microchip/xc32/v4.60/bin/bin/../../lib/gcc/pic32c/8.3.1/../../../../pic32c/lib/thumb/v6-m/nofp\libc-musl.a(__io_buf_needed.o)
 .debug_abbrev  0x0000000000000000       0x67 c:/program files/microchip/xc32/v4.60/bin/bin/../../lib/gcc/pic32c/8.3.1/../../../../pic32c/lib/thumb/v6-m/nofp\libc-musl.a(__io_buf_needed.o)
 .debug_loc     0x0000000000000000       0x20 c:/program files/microchip/xc32/v4.60/bin/bin/../../lib/gcc/pic32c/8.3.1/../../../../pic32c/lib/thumb/v6-m/nofp\libc-musl.a(__io_buf_needed.o)
 .debug_aranges
                0x0000000000000000       0x20 c:/program files/microchip/xc32/v4.60/bin/bin/../../lib/gcc/pic32c/8.3.1/../../../../pic32c/lib/thumb/v6-m/nofp\libc-musl.a(__io_buf_needed.o)
 .debug_ranges  0x0000000000000000       0x10 c:/program files/microchip/xc32/v4.60/bin/bin/../../lib/gcc/pic32c/8.3.1/../../../../pic32c/lib/thumb/v6-m/nofp\libc-musl.a(__io_buf_needed.o)
 .debug_line    0x0000000000000000      0x131 c:/program files/microchip/xc32/v4.60/bin/bin/../../lib/gcc/pic32c/8.3.1/../../../../pic32c/lib/thumb/v6-m/nofp\libc-musl.a(__io_buf_needed.o)
 .debug_str     0x0000000000000000      0x30f c:/program files/microchip/xc32/v4.60/bin/bin/../../lib/gcc/pic32c/8.3.1/../../../../pic32c/lib/thumb/v6-m/nofp\libc-musl.a(__io_buf_needed.o)
 .comment       0x0000000000000000       0x2c c:/program files/microchip/xc32/v4.60/bin/bin/../../lib/gcc/pic32c/8.3.1/../../../../pic32c/lib/thumb/v6-m/nofp\libc-musl.a(__io_buf_needed.o)
 .note.GNU-stack
                0x0000000000000000        0x0 c:/program files/microchip/xc32/v4.60/bin/bin/../../lib/gcc/pic32c/8.3.1/../../../../pic32c/lib/thumb/v6-m/nofp\libc-musl.a(__io_buf_needed.o)
 .debug_frame   0x0000000000000000       0x28 c:/program files/microchip/xc32/v4.60/bin/bin/../../lib/gcc/pic32c/8.3.1/../../../../pic32c/lib/thumb/v6-m/nofp\libc-musl.a(__io_buf_needed.o)
 .ARM.attributes
                0x0000000000000000       0x2e c:/program files/microchip/xc32/v4.60/bin/bin/../../lib/gcc/pic32c/8.3.1/../../../../pic32c/lib/thumb/v6-m/nofp\libc-musl.a(__io_buf_needed.o)
 .text          0x0000000000000000        0x0 c:/program files/microchip/xc32/v4.60/bin/bin/../../lib/gcc/pic32c/8.3.1/../../../../pic32c/lib/thumb/v6-m/nofp\libc-musl.a(__io_file_needed.o)
 .data          0x0000000000000000        0x0 c:/program files/microchip/xc32/v4.60/bin/bin/../../lib/gcc/pic32c/8.3.1/../../../../pic32c/lib/thumb/v6-m/nofp\libc-musl.a(__io_file_needed.o)
 .bss           0x0000000000000000        0x0 c:/program files/microchip/xc32/v4.60/bin/bin/../../lib/gcc/pic32c/8.3.1/../../../../pic32c/lib/thumb/v6-m/nofp\libc-musl.a(__io_file_needed.o)
 .xc_stack_usage
                0x0000000000000000       0x1e c:/program files/microchip/xc32/v4.60/bin/bin/../../lib/gcc/pic32c/8.3.1/../../../../pic32c/lib/thumb/v6-m/nofp\libc-musl.a(__io_file_needed.o)
 .xc_stack_usage.hdr
                0x0000000000000000        0xe c:/program files/microchip/xc32/v4.60/bin/bin/../../lib/gcc/pic32c/8.3.1/../../../../pic32c/lib/thumb/v6-m/nofp\libc-musl.a(__io_file_needed.o)
 .debug_info    0x0000000000000000       0xb8 c:/program files/microchip/xc32/v4.60/bin/bin/../../lib/gcc/pic32c/8.3.1/../../../../pic32c/lib/thumb/v6-m/nofp\libc-musl.a(__io_file_needed.o)
 .debug_abbrev  0x0000000000000000       0x67 c:/program files/microchip/xc32/v4.60/bin/bin/../../lib/gcc/pic32c/8.3.1/../../../../pic32c/lib/thumb/v6-m/nofp\libc-musl.a(__io_file_needed.o)
 .debug_loc     0x0000000000000000       0x20 c:/program files/microchip/xc32/v4.60/bin/bin/../../lib/gcc/pic32c/8.3.1/../../../../pic32c/lib/thumb/v6-m/nofp\libc-musl.a(__io_file_needed.o)
 .debug_aranges
                0x0000000000000000       0x20 c:/program files/microchip/xc32/v4.60/bin/bin/../../lib/gcc/pic32c/8.3.1/../../../../pic32c/lib/thumb/v6-m/nofp\libc-musl.a(__io_file_needed.o)
 .debug_ranges  0x0000000000000000       0x10 c:/program files/microchip/xc32/v4.60/bin/bin/../../lib/gcc/pic32c/8.3.1/../../../../pic32c/lib/thumb/v6-m/nofp\libc-musl.a(__io_file_needed.o)
 .debug_line    0x0000000000000000       0xb6 c:/program files/microchip/xc32/v4.60/bin/bin/../../lib/gcc/pic32c/8.3.1/../../../../pic32c/lib/thumb/v6-m/nofp\libc-musl.a(__io_file_needed.o)
 .debug_str     0x0000000000000000      0x2a7 c:/program files/microchip/xc32/v4.60/bin/bin/../../lib/gcc/pic32c/8.3.1/../../../../pic32c/lib/thumb/v6-m/nofp\libc-musl.a(__io_file_needed.o)
 .comment       0x0000000000000000       0x2c c:/program files/microchip/xc32/v4.60/bin/bin/../../lib/gcc/pic32c/8.3.1/../../../../pic32c/lib/thumb/v6-m/nofp\libc-musl.a(__io_file_needed.o)
 .note.GNU-stack
                0x0000000000000000        0x0 c:/program files/microchip/xc32/v4.60/bin/bin/../../lib/gcc/pic32c/8.3.1/../../../../pic32c/lib/thumb/v6-m/nofp\libc-musl.a(__io_file_needed.o)
 .debug_frame   0x0000000000000000       0x28 c:/program files/microchip/xc32/v4.60/bin/bin/../../lib/gcc/pic32c/8.3.1/../../../../pic32c/lib/thumb/v6-m/nofp\libc-musl.a(__io_file_needed.o)
 .ARM.attributes
                0x0000000000000000       0x2e c:/program files/microchip/xc32/v4.60/bin/bin/../../lib/gcc/pic32c/8.3.1/../../../../pic32c/lib/thumb/v6-m/nofp\libc-musl.a(__io_file_needed.o)
 .text          0x0000000000000000        0x0 c:/program files/microchip/xc32/v4.60/bin/bin/../../lib/gcc/pic32c/8.3.1/../../../../pic32c/lib/thumb/v6-m/nofp\libc-musl.a(__io_std_needed.o)
 .data          0x0000000000000000        0x0 c:/program files/microchip/xc32/v4.60/bin/bin/../../lib/gcc/pic32c/8.3.1/../../../../pic32c/lib/thumb/v6-m/nofp\libc-musl.a(__io_std_needed.o)
 .bss           0x0000000000000000        0x0 c:/program files/microchip/xc32/v4.60/bin/bin/../../lib/gcc/pic32c/8.3.1/../../../../pic32c/lib/thumb/v6-m/nofp\libc-musl.a(__io_std_needed.o)
 .xc_stack_usage
                0x0000000000000000       0x1d c:/program files/microchip/xc32/v4.60/bin/bin/../../lib/gcc/pic32c/8.3.1/../../../../pic32c/lib/thumb/v6-m/nofp\libc-musl.a(__io_std_needed.o)
 .xc_stack_usage.hdr
                0x0000000000000000        0xe c:/program files/microchip/xc32/v4.60/bin/bin/../../lib/gcc/pic32c/8.3.1/../../../../pic32c/lib/thumb/v6-m/nofp\libc-musl.a(__io_std_needed.o)
 .debug_info    0x0000000000000000      0x12b c:/program files/microchip/xc32/v4.60/bin/bin/../../lib/gcc/pic32c/8.3.1/../../../../pic32c/lib/thumb/v6-m/nofp\libc-musl.a(__io_std_needed.o)
 .debug_abbrev  0x0000000000000000       0x67 c:/program files/microchip/xc32/v4.60/bin/bin/../../lib/gcc/pic32c/8.3.1/../../../../pic32c/lib/thumb/v6-m/nofp\libc-musl.a(__io_std_needed.o)
 .debug_loc     0x0000000000000000       0x20 c:/program files/microchip/xc32/v4.60/bin/bin/../../lib/gcc/pic32c/8.3.1/../../../../pic32c/lib/thumb/v6-m/nofp\libc-musl.a(__io_std_needed.o)
 .debug_aranges
                0x0000000000000000       0x20 c:/program files/microchip/xc32/v4.60/bin/bin/../../lib/gcc/pic32c/8.3.1/../../../../pic32c/lib/thumb/v6-m/nofp\libc-musl.a(__io_std_needed.o)
 .debug_ranges  0x0000000000000000       0x10 c:/program files/microchip/xc32/v4.60/bin/bin/../../lib/gcc/pic32c/8.3.1/../../../../pic32c/lib/thumb/v6-m/nofp\libc-musl.a(__io_std_needed.o)
 .debug_line    0x0000000000000000      0x130 c:/program files/microchip/xc32/v4.60/bin/bin/../../lib/gcc/pic32c/8.3.1/../../../../pic32c/lib/thumb/v6-m/nofp\libc-musl.a(__io_std_needed.o)
 .debug_str     0x0000000000000000      0x303 c:/program files/microchip/xc32/v4.60/bin/bin/../../lib/gcc/pic32c/8.3.1/../../../../pic32c/lib/thumb/v6-m/nofp\libc-musl.a(__io_std_needed.o)
 .comment       0x0000000000000000       0x2c c:/program files/microchip/xc32/v4.60/bin/bin/../../lib/gcc/pic32c/8.3.1/../../../../pic32c/lib/thumb/v6-m/nofp\libc-musl.a(__io_std_needed.o)
 .note.GNU-stack
                0x0000000000000000        0x0 c:/program files/microchip/xc32/v4.60/bin/bin/../../lib/gcc/pic32c/8.3.1/../../../../pic32c/lib/thumb/v6-m/nofp\libc-musl.a(__io_std_needed.o)
 .debug_frame   0x0000000000000000       0x28 c:/program files/microchip/xc32/v4.60/bin/bin/../../lib/gcc/pic32c/8.3.1/../../../../pic32c/lib/thumb/v6-m/nofp\libc-musl.a(__io_std_needed.o)
 .ARM.attributes
                0x0000000000000000       0x2e c:/program files/microchip/xc32/v4.60/bin/bin/../../lib/gcc/pic32c/8.3.1/../../../../pic32c/lib/thumb/v6-m/nofp\libc-musl.a(__io_std_needed.o)
 .text          0x0000000000000000        0x0 c:/program files/microchip/xc32/v4.60/bin/bin/../../lib/gcc/pic32c/8.3.1/../../../../pic32c/lib/thumb/v6-m/nofp\libc-musl.a(__out.o)
 .data          0x0000000000000000        0x0 c:/program files/microchip/xc32/v4.60/bin/bin/../../lib/gcc/pic32c/8.3.1/../../../../pic32c/lib/thumb/v6-m/nofp\libc-musl.a(__out.o)
 .bss           0x0000000000000000        0x0 c:/program files/microchip/xc32/v4.60/bin/bin/../../lib/gcc/pic32c/8.3.1/../../../../pic32c/lib/thumb/v6-m/nofp\libc-musl.a(__out.o)
 .xc_stack_usage
                0x0000000000000000       0x2d c:/program files/microchip/xc32/v4.60/bin/bin/../../lib/gcc/pic32c/8.3.1/../../../../pic32c/lib/thumb/v6-m/nofp\libc-musl.a(__out.o)
 .xc_stack_usage.hdr
                0x0000000000000000        0xe c:/program files/microchip/xc32/v4.60/bin/bin/../../lib/gcc/pic32c/8.3.1/../../../../pic32c/lib/thumb/v6-m/nofp\libc-musl.a(__out.o)
 .text          0x0000000000000000        0x0 c:/program files/microchip/xc32/v4.60/bin/bin/../../lib/gcc/pic32c/8.3.1/../../../../pic32c/lib/thumb/v6-m/nofp\libc-musl.a(__putc.o)
 .data          0x0000000000000000        0x0 c:/program files/microchip/xc32/v4.60/bin/bin/../../lib/gcc/pic32c/8.3.1/../../../../pic32c/lib/thumb/v6-m/nofp\libc-musl.a(__putc.o)
 .bss           0x0000000000000000        0x0 c:/program files/microchip/xc32/v4.60/bin/bin/../../lib/gcc/pic32c/8.3.1/../../../../pic32c/lib/thumb/v6-m/nofp\libc-musl.a(__putc.o)
 .xc_stack_usage
                0x0000000000000000       0x14 c:/program files/microchip/xc32/v4.60/bin/bin/../../lib/gcc/pic32c/8.3.1/../../../../pic32c/lib/thumb/v6-m/nofp\libc-musl.a(__putc.o)
 .xc_stack_usage.hdr
                0x0000000000000000        0xe c:/program files/microchip/xc32/v4.60/bin/bin/../../lib/gcc/pic32c/8.3.1/../../../../pic32c/lib/thumb/v6-m/nofp\libc-musl.a(__putc.o)
 .text          0x0000000000000000        0x0 c:/program files/microchip/xc32/v4.60/bin/bin/../../lib/gcc/pic32c/8.3.1/../../../../pic32c/lib/thumb/v6-m/nofp\libc-musl.a(__stderr.o)
 .data          0x0000000000000000       0x60 c:/program files/microchip/xc32/v4.60/bin/bin/../../lib/gcc/pic32c/8.3.1/../../../../pic32c/lib/thumb/v6-m/nofp\libc-musl.a(__stderr.o)
 .bss           0x0000000000000000        0x0 c:/program files/microchip/xc32/v4.60/bin/bin/../../lib/gcc/pic32c/8.3.1/../../../../pic32c/lib/thumb/v6-m/nofp\libc-musl.a(__stderr.o)
 .xc_stack_usage
                0x0000000000000000       0x50 c:/program files/microchip/xc32/v4.60/bin/bin/../../lib/gcc/pic32c/8.3.1/../../../../pic32c/lib/thumb/v6-m/nofp\libc-musl.a(__stderr.o)
 .text.__get_stderr
                0x0000000000000000        0x8 c:/program files/microchip/xc32/v4.60/bin/bin/../../lib/gcc/pic32c/8.3.1/../../../../pic32c/lib/thumb/v6-m/nofp\libc-musl.a(__stderr.o)
 .xc_stack_usage.hdr
                0x0000000000000000        0xe c:/program files/microchip/xc32/v4.60/bin/bin/../../lib/gcc/pic32c/8.3.1/../../../../pic32c/lib/thumb/v6-m/nofp\libc-musl.a(__stderr.o)
 .text          0x0000000000000000        0x0 c:/program files/microchip/xc32/v4.60/bin/bin/../../lib/gcc/pic32c/8.3.1/../../../../pic32c/lib/thumb/v6-m/nofp\libc-musl.a(__stdio_close.o)
 .data          0x0000000000000000        0x0 c:/program files/microchip/xc32/v4.60/bin/bin/../../lib/gcc/pic32c/8.3.1/../../../../pic32c/lib/thumb/v6-m/nofp\libc-musl.a(__stdio_close.o)
 .bss           0x0000000000000000        0x0 c:/program files/microchip/xc32/v4.60/bin/bin/../../lib/gcc/pic32c/8.3.1/../../../../pic32c/lib/thumb/v6-m/nofp\libc-musl.a(__stdio_close.o)
 .xc_stack_usage
                0x0000000000000000       0x39 c:/program files/microchip/xc32/v4.60/bin/bin/../../lib/gcc/pic32c/8.3.1/../../../../pic32c/lib/thumb/v6-m/nofp\libc-musl.a(__stdio_close.o)
 .text.__stdio_close
                0x0000000000000000       0x44 c:/program files/microchip/xc32/v4.60/bin/bin/../../lib/gcc/pic32c/8.3.1/../../../../pic32c/lib/thumb/v6-m/nofp\libc-musl.a(__stdio_close.o)
 .xc_stack_usage.hdr
                0x0000000000000000        0xe c:/program files/microchip/xc32/v4.60/bin/bin/../../lib/gcc/pic32c/8.3.1/../../../../pic32c/lib/thumb/v6-m/nofp\libc-musl.a(__stdio_close.o)
 .text          0x0000000000000000        0x0 c:/program files/microchip/xc32/v4.60/bin/bin/../../lib/gcc/pic32c/8.3.1/../../../../pic32c/lib/thumb/v6-m/nofp\libc-musl.a(__stdio_exit.o)
 .data          0x0000000000000000        0x0 c:/program files/microchip/xc32/v4.60/bin/bin/../../lib/gcc/pic32c/8.3.1/../../../../pic32c/lib/thumb/v6-m/nofp\libc-musl.a(__stdio_exit.o)
 .bss           0x0000000000000000        0x4 c:/program files/microchip/xc32/v4.60/bin/bin/../../lib/gcc/pic32c/8.3.1/../../../../pic32c/lib/thumb/v6-m/nofp\libc-musl.a(__stdio_exit.o)
 .xc_stack_usage
                0x0000000000000000       0x45 c:/program files/microchip/xc32/v4.60/bin/bin/../../lib/gcc/pic32c/8.3.1/../../../../pic32c/lib/thumb/v6-m/nofp\libc-musl.a(__stdio_exit.o)
 .text.__dummy  0x0000000000000000        0x2 c:/program files/microchip/xc32/v4.60/bin/bin/../../lib/gcc/pic32c/8.3.1/../../../../pic32c/lib/thumb/v6-m/nofp\libc-musl.a(__stdio_exit.o)
 .text.__dummy1
                0x0000000000000000        0x4 c:/program files/microchip/xc32/v4.60/bin/bin/../../lib/gcc/pic32c/8.3.1/../../../../pic32c/lib/thumb/v6-m/nofp\libc-musl.a(__stdio_exit.o)
 .text.__stdio_exit
                0x0000000000000000       0x34 c:/program files/microchip/xc32/v4.60/bin/bin/../../lib/gcc/pic32c/8.3.1/../../../../pic32c/lib/thumb/v6-m/nofp\libc-musl.a(__stdio_exit.o)
 .xc_stack_usage.hdr
                0x0000000000000000        0xe c:/program files/microchip/xc32/v4.60/bin/bin/../../lib/gcc/pic32c/8.3.1/../../../../pic32c/lib/thumb/v6-m/nofp\libc-musl.a(__stdio_exit.o)
 .debug_info    0x0000000000000000      0x2dd c:/program files/microchip/xc32/v4.60/bin/bin/../../lib/gcc/pic32c/8.3.1/../../../../pic32c/lib/thumb/v6-m/nofp\libc-musl.a(__stdio_exit.o)
 .debug_abbrev  0x0000000000000000      0x173 c:/program files/microchip/xc32/v4.60/bin/bin/../../lib/gcc/pic32c/8.3.1/../../../../pic32c/lib/thumb/v6-m/nofp\libc-musl.a(__stdio_exit.o)
 .debug_loc     0x0000000000000000       0x45 c:/program files/microchip/xc32/v4.60/bin/bin/../../lib/gcc/pic32c/8.3.1/../../../../pic32c/lib/thumb/v6-m/nofp\libc-musl.a(__stdio_exit.o)
 .debug_aranges
                0x0000000000000000       0x30 c:/program files/microchip/xc32/v4.60/bin/bin/../../lib/gcc/pic32c/8.3.1/../../../../pic32c/lib/thumb/v6-m/nofp\libc-musl.a(__stdio_exit.o)
 .debug_ranges  0x0000000000000000       0x20 c:/program files/microchip/xc32/v4.60/bin/bin/../../lib/gcc/pic32c/8.3.1/../../../../pic32c/lib/thumb/v6-m/nofp\libc-musl.a(__stdio_exit.o)
 .debug_line    0x0000000000000000      0x178 c:/program files/microchip/xc32/v4.60/bin/bin/../../lib/gcc/pic32c/8.3.1/../../../../pic32c/lib/thumb/v6-m/nofp\libc-musl.a(__stdio_exit.o)
 .debug_str     0x0000000000000000      0x32c c:/program files/microchip/xc32/v4.60/bin/bin/../../lib/gcc/pic32c/8.3.1/../../../../pic32c/lib/thumb/v6-m/nofp\libc-musl.a(__stdio_exit.o)
 .comment       0x0000000000000000       0x2c c:/program files/microchip/xc32/v4.60/bin/bin/../../lib/gcc/pic32c/8.3.1/../../../../pic32c/lib/thumb/v6-m/nofp\libc-musl.a(__stdio_exit.o)
 .note.GNU-stack
                0x0000000000000000        0x0 c:/program files/microchip/xc32/v4.60/bin/bin/../../lib/gcc/pic32c/8.3.1/../../../../pic32c/lib/thumb/v6-m/nofp\libc-musl.a(__stdio_exit.o)
 .debug_frame   0x0000000000000000       0x48 c:/program files/microchip/xc32/v4.60/bin/bin/../../lib/gcc/pic32c/8.3.1/../../../../pic32c/lib/thumb/v6-m/nofp\libc-musl.a(__stdio_exit.o)
 .ARM.attributes
                0x0000000000000000       0x2e c:/program files/microchip/xc32/v4.60/bin/bin/../../lib/gcc/pic32c/8.3.1/../../../../pic32c/lib/thumb/v6-m/nofp\libc-musl.a(__stdio_exit.o)
 .text          0x0000000000000000        0x0 c:/program files/microchip/xc32/v4.60/bin/bin/../../lib/gcc/pic32c/8.3.1/../../../../pic32c/lib/thumb/v6-m/nofp\libc-musl.a(__stdio_write.o)
 .data          0x0000000000000000        0x0 c:/program files/microchip/xc32/v4.60/bin/bin/../../lib/gcc/pic32c/8.3.1/../../../../pic32c/lib/thumb/v6-m/nofp\libc-musl.a(__stdio_write.o)
 .bss           0x0000000000000000        0x0 c:/program files/microchip/xc32/v4.60/bin/bin/../../lib/gcc/pic32c/8.3.1/../../../../pic32c/lib/thumb/v6-m/nofp\libc-musl.a(__stdio_write.o)
 .xc_stack_usage
                0x0000000000000000       0x42 c:/program files/microchip/xc32/v4.60/bin/bin/../../lib/gcc/pic32c/8.3.1/../../../../pic32c/lib/thumb/v6-m/nofp\libc-musl.a(__stdio_write.o)
 .xc_stack_usage.hdr
                0x0000000000000000        0xe c:/program files/microchip/xc32/v4.60/bin/bin/../../lib/gcc/pic32c/8.3.1/../../../../pic32c/lib/thumb/v6-m/nofp\libc-musl.a(__stdio_write.o)
 .text          0x0000000000000000        0x0 c:/program files/microchip/xc32/v4.60/bin/bin/../../lib/gcc/pic32c/8.3.1/../../../../pic32c/lib/thumb/v6-m/nofp\libc-musl.a(__stdout.o)
 .bss           0x0000000000000000        0x0 c:/program files/microchip/xc32/v4.60/bin/bin/../../lib/gcc/pic32c/8.3.1/../../../../pic32c/lib/thumb/v6-m/nofp\libc-musl.a(__stdout.o)
 .xc_stack_usage
                0x0000000000000000       0x50 c:/program files/microchip/xc32/v4.60/bin/bin/../../lib/gcc/pic32c/8.3.1/../../../../pic32c/lib/thumb/v6-m/nofp\libc-musl.a(__stdout.o)
 .text.__dummy  0x0000000000000000        0x2 c:/program files/microchip/xc32/v4.60/bin/bin/../../lib/gcc/pic32c/8.3.1/../../../../pic32c/lib/thumb/v6-m/nofp\libc-musl.a(__stdout.o)
 .xc_stack_usage.hdr
                0x0000000000000000        0xe c:/program files/microchip/xc32/v4.60/bin/bin/../../lib/gcc/pic32c/8.3.1/../../../../pic32c/lib/thumb/v6-m/nofp\libc-musl.a(__stdout.o)
 .text          0x0000000000000000        0x0 c:/program files/microchip/xc32/v4.60/bin/bin/../../lib/gcc/pic32c/8.3.1/../../../../pic32c/lib/thumb/v6-m/nofp\libc-musl.a(__towrite.o)
 .data          0x0000000000000000        0x0 c:/program files/microchip/xc32/v4.60/bin/bin/../../lib/gcc/pic32c/8.3.1/../../../../pic32c/lib/thumb/v6-m/nofp\libc-musl.a(__towrite.o)
 .bss           0x0000000000000000        0x0 c:/program files/microchip/xc32/v4.60/bin/bin/../../lib/gcc/pic32c/8.3.1/../../../../pic32c/lib/thumb/v6-m/nofp\libc-musl.a(__towrite.o)
 .xc_stack_usage
                0x0000000000000000       0x2c c:/program files/microchip/xc32/v4.60/bin/bin/../../lib/gcc/pic32c/8.3.1/../../../../pic32c/lib/thumb/v6-m/nofp\libc-musl.a(__towrite.o)
 .text.__dummy  0x0000000000000000        0x4 c:/program files/microchip/xc32/v4.60/bin/bin/../../lib/gcc/pic32c/8.3.1/../../../../pic32c/lib/thumb/v6-m/nofp\libc-musl.a(__towrite.o)
 .xc_stack_usage.hdr
                0x0000000000000000        0xe c:/program files/microchip/xc32/v4.60/bin/bin/../../lib/gcc/pic32c/8.3.1/../../../../pic32c/lib/thumb/v6-m/nofp\libc-musl.a(__towrite.o)
 .text          0x0000000000000000        0x0 c:/program files/microchip/xc32/v4.60/bin/bin/../../lib/gcc/pic32c/8.3.1/../../../../pic32c/lib/thumb/v6-m/nofp\libc-musl.a(__month_to_secs.o)
 .data          0x0000000000000000        0x0 c:/program files/microchip/xc32/v4.60/bin/bin/../../lib/gcc/pic32c/8.3.1/../../../../pic32c/lib/thumb/v6-m/nofp\libc-musl.a(__month_to_secs.o)
 .bss           0x0000000000000000        0x0 c:/program files/microchip/xc32/v4.60/bin/bin/../../lib/gcc/pic32c/8.3.1/../../../../pic32c/lib/thumb/v6-m/nofp\libc-musl.a(__month_to_secs.o)
 .xc_stack_usage
                0x0000000000000000       0x1d c:/program files/microchip/xc32/v4.60/bin/bin/../../lib/gcc/pic32c/8.3.1/../../../../pic32c/lib/thumb/v6-m/nofp\libc-musl.a(__month_to_secs.o)
 .xc_stack_usage.hdr
                0x0000000000000000        0xe c:/program files/microchip/xc32/v4.60/bin/bin/../../lib/gcc/pic32c/8.3.1/../../../../pic32c/lib/thumb/v6-m/nofp\libc-musl.a(__month_to_secs.o)
 .text          0x0000000000000000        0x0 c:/program files/microchip/xc32/v4.60/bin/bin/../../lib/gcc/pic32c/8.3.1/../../../../pic32c/lib/thumb/v6-m/nofp\libc-musl.a(writev.o)
 .data          0x0000000000000000        0x0 c:/program files/microchip/xc32/v4.60/bin/bin/../../lib/gcc/pic32c/8.3.1/../../../../pic32c/lib/thumb/v6-m/nofp\libc-musl.a(writev.o)
 .bss           0x0000000000000000        0x0 c:/program files/microchip/xc32/v4.60/bin/bin/../../lib/gcc/pic32c/8.3.1/../../../../pic32c/lib/thumb/v6-m/nofp\libc-musl.a(writev.o)
 .xc_stack_usage
                0x0000000000000000       0x16 c:/program files/microchip/xc32/v4.60/bin/bin/../../lib/gcc/pic32c/8.3.1/../../../../pic32c/lib/thumb/v6-m/nofp\libc-musl.a(writev.o)
 .xc_stack_usage.hdr
                0x0000000000000000        0xe c:/program files/microchip/xc32/v4.60/bin/bin/../../lib/gcc/pic32c/8.3.1/../../../../pic32c/lib/thumb/v6-m/nofp\libc-musl.a(writev.o)
 .text          0x0000000000000000        0x0 c:/program files/microchip/xc32/v4.60/bin/bin/../../lib/gcc/pic32c/8.3.1/../../../../pic32c/lib/thumb/v6-m/nofp\libc-musl.a(__overflow.o)
 .data          0x0000000000000000        0x0 c:/program files/microchip/xc32/v4.60/bin/bin/../../lib/gcc/pic32c/8.3.1/../../../../pic32c/lib/thumb/v6-m/nofp\libc-musl.a(__overflow.o)
 .bss           0x0000000000000000        0x0 c:/program files/microchip/xc32/v4.60/bin/bin/../../lib/gcc/pic32c/8.3.1/../../../../pic32c/lib/thumb/v6-m/nofp\libc-musl.a(__overflow.o)
 .xc_stack_usage
                0x0000000000000000       0x18 c:/program files/microchip/xc32/v4.60/bin/bin/../../lib/gcc/pic32c/8.3.1/../../../../pic32c/lib/thumb/v6-m/nofp\libc-musl.a(__overflow.o)
 .xc_stack_usage.hdr
                0x0000000000000000        0xe c:/program files/microchip/xc32/v4.60/bin/bin/../../lib/gcc/pic32c/8.3.1/../../../../pic32c/lib/thumb/v6-m/nofp\libc-musl.a(__overflow.o)
 .text          0x0000000000000000        0x0 c:/program files/microchip/xc32/v4.60/bin/bin/../../lib/gcc/pic32c/8.3.1/../../../../pic32c/lib/thumb/v6-m/nofp\libc-musl.a(__fclose.o)
 .data          0x0000000000000000        0x0 c:/program files/microchip/xc32/v4.60/bin/bin/../../lib/gcc/pic32c/8.3.1/../../../../pic32c/lib/thumb/v6-m/nofp\libc-musl.a(__fclose.o)
 .bss           0x0000000000000000        0x0 c:/program files/microchip/xc32/v4.60/bin/bin/../../lib/gcc/pic32c/8.3.1/../../../../pic32c/lib/thumb/v6-m/nofp\libc-musl.a(__fclose.o)
 .xc_stack_usage
                0x0000000000000000       0x16 c:/program files/microchip/xc32/v4.60/bin/bin/../../lib/gcc/pic32c/8.3.1/../../../../pic32c/lib/thumb/v6-m/nofp\libc-musl.a(__fclose.o)
 .text.__fclose
                0x0000000000000000       0x12 c:/program files/microchip/xc32/v4.60/bin/bin/../../lib/gcc/pic32c/8.3.1/../../../../pic32c/lib/thumb/v6-m/nofp\libc-musl.a(__fclose.o)
 .xc_stack_usage.hdr
                0x0000000000000000        0xe c:/program files/microchip/xc32/v4.60/bin/bin/../../lib/gcc/pic32c/8.3.1/../../../../pic32c/lib/thumb/v6-m/nofp\libc-musl.a(__fclose.o)
 .debug_info    0x0000000000000000      0x1ba c:/program files/microchip/xc32/v4.60/bin/bin/../../lib/gcc/pic32c/8.3.1/../../../../pic32c/lib/thumb/v6-m/nofp\libc-musl.a(__fclose.o)
 .debug_abbrev  0x0000000000000000       0xdd c:/program files/microchip/xc32/v4.60/bin/bin/../../lib/gcc/pic32c/8.3.1/../../../../pic32c/lib/thumb/v6-m/nofp\libc-musl.a(__fclose.o)
 .debug_loc     0x0000000000000000       0x77 c:/program files/microchip/xc32/v4.60/bin/bin/../../lib/gcc/pic32c/8.3.1/../../../../pic32c/lib/thumb/v6-m/nofp\libc-musl.a(__fclose.o)
 .debug_aranges
                0x0000000000000000       0x20 c:/program files/microchip/xc32/v4.60/bin/bin/../../lib/gcc/pic32c/8.3.1/../../../../pic32c/lib/thumb/v6-m/nofp\libc-musl.a(__fclose.o)
 .debug_ranges  0x0000000000000000       0x10 c:/program files/microchip/xc32/v4.60/bin/bin/../../lib/gcc/pic32c/8.3.1/../../../../pic32c/lib/thumb/v6-m/nofp\libc-musl.a(__fclose.o)
 .debug_line    0x0000000000000000      0x151 c:/program files/microchip/xc32/v4.60/bin/bin/../../lib/gcc/pic32c/8.3.1/../../../../pic32c/lib/thumb/v6-m/nofp\libc-musl.a(__fclose.o)
 .debug_str     0x0000000000000000      0x2c9 c:/program files/microchip/xc32/v4.60/bin/bin/../../lib/gcc/pic32c/8.3.1/../../../../pic32c/lib/thumb/v6-m/nofp\libc-musl.a(__fclose.o)
 .comment       0x0000000000000000       0x2c c:/program files/microchip/xc32/v4.60/bin/bin/../../lib/gcc/pic32c/8.3.1/../../../../pic32c/lib/thumb/v6-m/nofp\libc-musl.a(__fclose.o)
 .note.GNU-stack
                0x0000000000000000        0x0 c:/program files/microchip/xc32/v4.60/bin/bin/../../lib/gcc/pic32c/8.3.1/../../../../pic32c/lib/thumb/v6-m/nofp\libc-musl.a(__fclose.o)
 .debug_frame   0x0000000000000000       0x28 c:/program files/microchip/xc32/v4.60/bin/bin/../../lib/gcc/pic32c/8.3.1/../../../../pic32c/lib/thumb/v6-m/nofp\libc-musl.a(__fclose.o)
 .ARM.attributes
                0x0000000000000000       0x2e c:/program files/microchip/xc32/v4.60/bin/bin/../../lib/gcc/pic32c/8.3.1/../../../../pic32c/lib/thumb/v6-m/nofp\libc-musl.a(__fclose.o)
 .text          0x0000000000000000        0x0 c:/program files/microchip/xc32/v4.60/bin/bin/../../lib/gcc/pic32c/8.3.1/../../../../pic32c/lib/thumb/v6-m/nofp\libc-musl.a(__fopen.o)
 .data          0x0000000000000000        0x0 c:/program files/microchip/xc32/v4.60/bin/bin/../../lib/gcc/pic32c/8.3.1/../../../../pic32c/lib/thumb/v6-m/nofp\libc-musl.a(__fopen.o)
 .bss           0x0000000000000000        0x0 c:/program files/microchip/xc32/v4.60/bin/bin/../../lib/gcc/pic32c/8.3.1/../../../../pic32c/lib/thumb/v6-m/nofp\libc-musl.a(__fopen.o)
 .xc_stack_usage
                0x0000000000000000       0x43 c:/program files/microchip/xc32/v4.60/bin/bin/../../lib/gcc/pic32c/8.3.1/../../../../pic32c/lib/thumb/v6-m/nofp\libc-musl.a(__fopen.o)
 .text.__dummy  0x0000000000000000        0x4 c:/program files/microchip/xc32/v4.60/bin/bin/../../lib/gcc/pic32c/8.3.1/../../../../pic32c/lib/thumb/v6-m/nofp\libc-musl.a(__fopen.o)
 .text.__fopen_std
                0x0000000000000000       0x30 c:/program files/microchip/xc32/v4.60/bin/bin/../../lib/gcc/pic32c/8.3.1/../../../../pic32c/lib/thumb/v6-m/nofp\libc-musl.a(__fopen.o)
 .text.__fopen  0x0000000000000000        0x8 c:/program files/microchip/xc32/v4.60/bin/bin/../../lib/gcc/pic32c/8.3.1/../../../../pic32c/lib/thumb/v6-m/nofp\libc-musl.a(__fopen.o)
 .xc_stack_usage.hdr
                0x0000000000000000        0xe c:/program files/microchip/xc32/v4.60/bin/bin/../../lib/gcc/pic32c/8.3.1/../../../../pic32c/lib/thumb/v6-m/nofp\libc-musl.a(__fopen.o)
 .debug_info    0x0000000000000000      0x2e2 c:/program files/microchip/xc32/v4.60/bin/bin/../../lib/gcc/pic32c/8.3.1/../../../../pic32c/lib/thumb/v6-m/nofp\libc-musl.a(__fopen.o)
 .debug_abbrev  0x0000000000000000      0x17c c:/program files/microchip/xc32/v4.60/bin/bin/../../lib/gcc/pic32c/8.3.1/../../../../pic32c/lib/thumb/v6-m/nofp\libc-musl.a(__fopen.o)
 .debug_loc     0x0000000000000000       0x94 c:/program files/microchip/xc32/v4.60/bin/bin/../../lib/gcc/pic32c/8.3.1/../../../../pic32c/lib/thumb/v6-m/nofp\libc-musl.a(__fopen.o)
 .debug_aranges
                0x0000000000000000       0x30 c:/program files/microchip/xc32/v4.60/bin/bin/../../lib/gcc/pic32c/8.3.1/../../../../pic32c/lib/thumb/v6-m/nofp\libc-musl.a(__fopen.o)
 .debug_ranges  0x0000000000000000       0x20 c:/program files/microchip/xc32/v4.60/bin/bin/../../lib/gcc/pic32c/8.3.1/../../../../pic32c/lib/thumb/v6-m/nofp\libc-musl.a(__fopen.o)
 .debug_line    0x0000000000000000      0x21c c:/program files/microchip/xc32/v4.60/bin/bin/../../lib/gcc/pic32c/8.3.1/../../../../pic32c/lib/thumb/v6-m/nofp\libc-musl.a(__fopen.o)
 .debug_str     0x0000000000000000      0x306 c:/program files/microchip/xc32/v4.60/bin/bin/../../lib/gcc/pic32c/8.3.1/../../../../pic32c/lib/thumb/v6-m/nofp\libc-musl.a(__fopen.o)
 .comment       0x0000000000000000       0x2c c:/program files/microchip/xc32/v4.60/bin/bin/../../lib/gcc/pic32c/8.3.1/../../../../pic32c/lib/thumb/v6-m/nofp\libc-musl.a(__fopen.o)
 .note.GNU-stack
                0x0000000000000000        0x0 c:/program files/microchip/xc32/v4.60/bin/bin/../../lib/gcc/pic32c/8.3.1/../../../../pic32c/lib/thumb/v6-m/nofp\libc-musl.a(__fopen.o)
 .debug_frame   0x0000000000000000       0x50 c:/program files/microchip/xc32/v4.60/bin/bin/../../lib/gcc/pic32c/8.3.1/../../../../pic32c/lib/thumb/v6-m/nofp\libc-musl.a(__fopen.o)
 .ARM.attributes
                0x0000000000000000       0x2e c:/program files/microchip/xc32/v4.60/bin/bin/../../lib/gcc/pic32c/8.3.1/../../../../pic32c/lib/thumb/v6-m/nofp\libc-musl.a(__fopen.o)
 .text          0x0000000000000000        0x0 c:/program files/microchip/xc32/v4.60/bin/bin/../../lib/gcc/pic32c/8.3.1/../../../../pic32c/lib/thumb/v6-m/nofp\libc-musl.a(__fseeko.o)
 .data          0x0000000000000000        0x0 c:/program files/microchip/xc32/v4.60/bin/bin/../../lib/gcc/pic32c/8.3.1/../../../../pic32c/lib/thumb/v6-m/nofp\libc-musl.a(__fseeko.o)
 .bss           0x0000000000000000        0x0 c:/program files/microchip/xc32/v4.60/bin/bin/../../lib/gcc/pic32c/8.3.1/../../../../pic32c/lib/thumb/v6-m/nofp\libc-musl.a(__fseeko.o)
 .xc_stack_usage
                0x0000000000000000       0x16 c:/program files/microchip/xc32/v4.60/bin/bin/../../lib/gcc/pic32c/8.3.1/../../../../pic32c/lib/thumb/v6-m/nofp\libc-musl.a(__fseeko.o)
 .text.__fseeko
                0x0000000000000000        0x8 c:/program files/microchip/xc32/v4.60/bin/bin/../../lib/gcc/pic32c/8.3.1/../../../../pic32c/lib/thumb/v6-m/nofp\libc-musl.a(__fseeko.o)
 .xc_stack_usage.hdr
                0x0000000000000000        0xe c:/program files/microchip/xc32/v4.60/bin/bin/../../lib/gcc/pic32c/8.3.1/../../../../pic32c/lib/thumb/v6-m/nofp\libc-musl.a(__fseeko.o)
 .debug_info    0x0000000000000000      0x26a c:/program files/microchip/xc32/v4.60/bin/bin/../../lib/gcc/pic32c/8.3.1/../../../../pic32c/lib/thumb/v6-m/nofp\libc-musl.a(__fseeko.o)
 .debug_abbrev  0x0000000000000000       0xf8 c:/program files/microchip/xc32/v4.60/bin/bin/../../lib/gcc/pic32c/8.3.1/../../../../pic32c/lib/thumb/v6-m/nofp\libc-musl.a(__fseeko.o)
 .debug_loc     0x0000000000000000       0x8f c:/program files/microchip/xc32/v4.60/bin/bin/../../lib/gcc/pic32c/8.3.1/../../../../pic32c/lib/thumb/v6-m/nofp\libc-musl.a(__fseeko.o)
 .debug_aranges
                0x0000000000000000       0x20 c:/program files/microchip/xc32/v4.60/bin/bin/../../lib/gcc/pic32c/8.3.1/../../../../pic32c/lib/thumb/v6-m/nofp\libc-musl.a(__fseeko.o)
 .debug_ranges  0x0000000000000000       0x10 c:/program files/microchip/xc32/v4.60/bin/bin/../../lib/gcc/pic32c/8.3.1/../../../../pic32c/lib/thumb/v6-m/nofp\libc-musl.a(__fseeko.o)
 .debug_line    0x0000000000000000      0x13f c:/program files/microchip/xc32/v4.60/bin/bin/../../lib/gcc/pic32c/8.3.1/../../../../pic32c/lib/thumb/v6-m/nofp\libc-musl.a(__fseeko.o)
 .debug_str     0x0000000000000000      0x2e6 c:/program files/microchip/xc32/v4.60/bin/bin/../../lib/gcc/pic32c/8.3.1/../../../../pic32c/lib/thumb/v6-m/nofp\libc-musl.a(__fseeko.o)
 .comment       0x0000000000000000       0x2c c:/program files/microchip/xc32/v4.60/bin/bin/../../lib/gcc/pic32c/8.3.1/../../../../pic32c/lib/thumb/v6-m/nofp\libc-musl.a(__fseeko.o)
 .note.GNU-stack
                0x0000000000000000        0x0 c:/program files/microchip/xc32/v4.60/bin/bin/../../lib/gcc/pic32c/8.3.1/../../../../pic32c/lib/thumb/v6-m/nofp\libc-musl.a(__fseeko.o)
 .debug_frame   0x0000000000000000       0x28 c:/program files/microchip/xc32/v4.60/bin/bin/../../lib/gcc/pic32c/8.3.1/../../../../pic32c/lib/thumb/v6-m/nofp\libc-musl.a(__fseeko.o)
 .ARM.attributes
                0x0000000000000000       0x2e c:/program files/microchip/xc32/v4.60/bin/bin/../../lib/gcc/pic32c/8.3.1/../../../../pic32c/lib/thumb/v6-m/nofp\libc-musl.a(__fseeko.o)
 .text          0x0000000000000000        0x0 c:/program files/microchip/xc32/v4.60/bin/bin/../../lib/gcc/pic32c/8.3.1/../../../../pic32c/lib/thumb/v6-m/nofp\libc-musl.a(__ftello.o)
 .data          0x0000000000000000        0x0 c:/program files/microchip/xc32/v4.60/bin/bin/../../lib/gcc/pic32c/8.3.1/../../../../pic32c/lib/thumb/v6-m/nofp\libc-musl.a(__ftello.o)
 .bss           0x0000000000000000        0x0 c:/program files/microchip/xc32/v4.60/bin/bin/../../lib/gcc/pic32c/8.3.1/../../../../pic32c/lib/thumb/v6-m/nofp\libc-musl.a(__ftello.o)
 .xc_stack_usage
                0x0000000000000000       0x2f c:/program files/microchip/xc32/v4.60/bin/bin/../../lib/gcc/pic32c/8.3.1/../../../../pic32c/lib/thumb/v6-m/nofp\libc-musl.a(__ftello.o)
 .text.__dummy  0x0000000000000000       0x1a c:/program files/microchip/xc32/v4.60/bin/bin/../../lib/gcc/pic32c/8.3.1/../../../../pic32c/lib/thumb/v6-m/nofp\libc-musl.a(__ftello.o)
 .text.__ftello_adj
                0x0000000000000000        0x8 c:/program files/microchip/xc32/v4.60/bin/bin/../../lib/gcc/pic32c/8.3.1/../../../../pic32c/lib/thumb/v6-m/nofp\libc-musl.a(__ftello.o)
 .xc_stack_usage.hdr
                0x0000000000000000        0xe c:/program files/microchip/xc32/v4.60/bin/bin/../../lib/gcc/pic32c/8.3.1/../../../../pic32c/lib/thumb/v6-m/nofp\libc-musl.a(__ftello.o)
 .debug_info    0x0000000000000000      0x29a c:/program files/microchip/xc32/v4.60/bin/bin/../../lib/gcc/pic32c/8.3.1/../../../../pic32c/lib/thumb/v6-m/nofp\libc-musl.a(__ftello.o)
 .debug_abbrev  0x0000000000000000      0x100 c:/program files/microchip/xc32/v4.60/bin/bin/../../lib/gcc/pic32c/8.3.1/../../../../pic32c/lib/thumb/v6-m/nofp\libc-musl.a(__ftello.o)
 .debug_loc     0x0000000000000000       0xd4 c:/program files/microchip/xc32/v4.60/bin/bin/../../lib/gcc/pic32c/8.3.1/../../../../pic32c/lib/thumb/v6-m/nofp\libc-musl.a(__ftello.o)
 .debug_aranges
                0x0000000000000000       0x28 c:/program files/microchip/xc32/v4.60/bin/bin/../../lib/gcc/pic32c/8.3.1/../../../../pic32c/lib/thumb/v6-m/nofp\libc-musl.a(__ftello.o)
 .debug_ranges  0x0000000000000000       0x18 c:/program files/microchip/xc32/v4.60/bin/bin/../../lib/gcc/pic32c/8.3.1/../../../../pic32c/lib/thumb/v6-m/nofp\libc-musl.a(__ftello.o)
 .debug_line    0x0000000000000000      0x175 c:/program files/microchip/xc32/v4.60/bin/bin/../../lib/gcc/pic32c/8.3.1/../../../../pic32c/lib/thumb/v6-m/nofp\libc-musl.a(__ftello.o)
 .debug_str     0x0000000000000000      0x2eb c:/program files/microchip/xc32/v4.60/bin/bin/../../lib/gcc/pic32c/8.3.1/../../../../pic32c/lib/thumb/v6-m/nofp\libc-musl.a(__ftello.o)
 .comment       0x0000000000000000       0x2c c:/program files/microchip/xc32/v4.60/bin/bin/../../lib/gcc/pic32c/8.3.1/../../../../pic32c/lib/thumb/v6-m/nofp\libc-musl.a(__ftello.o)
 .note.GNU-stack
                0x0000000000000000        0x0 c:/program files/microchip/xc32/v4.60/bin/bin/../../lib/gcc/pic32c/8.3.1/../../../../pic32c/lib/thumb/v6-m/nofp\libc-musl.a(__ftello.o)
 .debug_frame   0x0000000000000000       0x40 c:/program files/microchip/xc32/v4.60/bin/bin/../../lib/gcc/pic32c/8.3.1/../../../../pic32c/lib/thumb/v6-m/nofp\libc-musl.a(__ftello.o)
 .ARM.attributes
                0x0000000000000000       0x2e c:/program files/microchip/xc32/v4.60/bin/bin/../../lib/gcc/pic32c/8.3.1/../../../../pic32c/lib/thumb/v6-m/nofp\libc-musl.a(__ftello.o)
 .text          0x0000000000000000        0x0 c:/program files/microchip/xc32/v4.60/bin/bin/../../lib/gcc/pic32c/8.3.1/../../../../pic32c/lib/thumb/v6-m/nofp\libc-musl.a(__fwrite.o)
 .data          0x0000000000000000        0x0 c:/program files/microchip/xc32/v4.60/bin/bin/../../lib/gcc/pic32c/8.3.1/../../../../pic32c/lib/thumb/v6-m/nofp\libc-musl.a(__fwrite.o)
 .bss           0x0000000000000000        0x0 c:/program files/microchip/xc32/v4.60/bin/bin/../../lib/gcc/pic32c/8.3.1/../../../../pic32c/lib/thumb/v6-m/nofp\libc-musl.a(__fwrite.o)
 .xc_stack_usage
                0x0000000000000000       0x36 c:/program files/microchip/xc32/v4.60/bin/bin/../../lib/gcc/pic32c/8.3.1/../../../../pic32c/lib/thumb/v6-m/nofp\libc-musl.a(__fwrite.o)
 .xc_stack_usage.hdr
                0x0000000000000000        0xe c:/program files/microchip/xc32/v4.60/bin/bin/../../lib/gcc/pic32c/8.3.1/../../../../pic32c/lib/thumb/v6-m/nofp\libc-musl.a(__fwrite.o)
 .data          0x0000000000000000        0x0 c:/program files/microchip/xc32/v4.60/bin/bin/../../lib/gcc/pic32c/8.3.1/thumb/v6-m/nofp\libgcc.a(_udivsi3.o)
 .bss           0x0000000000000000        0x0 c:/program files/microchip/xc32/v4.60/bin/bin/../../lib/gcc/pic32c/8.3.1/thumb/v6-m/nofp\libgcc.a(_udivsi3.o)
 .xc_stack_usage.hdr
                0x0000000000000000        0xe c:/program files/microchip/xc32/v4.60/bin/bin/../../lib/gcc/pic32c/8.3.1/thumb/v6-m/nofp\libgcc.a(_udivsi3.o)
 .xc_stack_usage
                0x0000000000000000       0x35 c:/program files/microchip/xc32/v4.60/bin/bin/../../lib/gcc/pic32c/8.3.1/thumb/v6-m/nofp\libgcc.a(_udivsi3.o)
 .data          0x0000000000000000        0x0 c:/program files/microchip/xc32/v4.60/bin/bin/../../lib/gcc/pic32c/8.3.1/thumb/v6-m/nofp\libgcc.a(_divsi3.o)
 .bss           0x0000000000000000        0x0 c:/program files/microchip/xc32/v4.60/bin/bin/../../lib/gcc/pic32c/8.3.1/thumb/v6-m/nofp\libgcc.a(_divsi3.o)
 .xc_stack_usage.hdr
                0x0000000000000000        0xe c:/program files/microchip/xc32/v4.60/bin/bin/../../lib/gcc/pic32c/8.3.1/thumb/v6-m/nofp\libgcc.a(_divsi3.o)
 .xc_stack_usage
                0x0000000000000000       0x33 c:/program files/microchip/xc32/v4.60/bin/bin/../../lib/gcc/pic32c/8.3.1/thumb/v6-m/nofp\libgcc.a(_divsi3.o)
 .data          0x0000000000000000        0x0 c:/program files/microchip/xc32/v4.60/bin/bin/../../lib/gcc/pic32c/8.3.1/thumb/v6-m/nofp\libgcc.a(_dvmd_tls.o)
 .bss           0x0000000000000000        0x0 c:/program files/microchip/xc32/v4.60/bin/bin/../../lib/gcc/pic32c/8.3.1/thumb/v6-m/nofp\libgcc.a(_dvmd_tls.o)
 .xc_stack_usage.hdr
                0x0000000000000000        0xe c:/program files/microchip/xc32/v4.60/bin/bin/../../lib/gcc/pic32c/8.3.1/thumb/v6-m/nofp\libgcc.a(_dvmd_tls.o)
 .xc_stack_usage
                0x0000000000000000       0x36 c:/program files/microchip/xc32/v4.60/bin/bin/../../lib/gcc/pic32c/8.3.1/thumb/v6-m/nofp\libgcc.a(_dvmd_tls.o)
 .data          0x0000000000000000        0x0 c:/program files/microchip/xc32/v4.60/bin/bin/../../lib/gcc/pic32c/8.3.1/thumb/v6-m/nofp\libgcc.a(_aeabi_ldivmod.o)
 .bss           0x0000000000000000        0x0 c:/program files/microchip/xc32/v4.60/bin/bin/../../lib/gcc/pic32c/8.3.1/thumb/v6-m/nofp\libgcc.a(_aeabi_ldivmod.o)
 .xc_stack_usage.hdr
                0x0000000000000000        0xe c:/program files/microchip/xc32/v4.60/bin/bin/../../lib/gcc/pic32c/8.3.1/thumb/v6-m/nofp\libgcc.a(_aeabi_ldivmod.o)
 .xc_stack_usage
                0x0000000000000000       0x1d c:/program files/microchip/xc32/v4.60/bin/bin/../../lib/gcc/pic32c/8.3.1/thumb/v6-m/nofp\libgcc.a(_aeabi_ldivmod.o)
 .data          0x0000000000000000        0x0 c:/program files/microchip/xc32/v4.60/bin/bin/../../lib/gcc/pic32c/8.3.1/thumb/v6-m/nofp\libgcc.a(_aeabi_uldivmod.o)
 .bss           0x0000000000000000        0x0 c:/program files/microchip/xc32/v4.60/bin/bin/../../lib/gcc/pic32c/8.3.1/thumb/v6-m/nofp\libgcc.a(_aeabi_uldivmod.o)
 .xc_stack_usage.hdr
                0x0000000000000000        0xe c:/program files/microchip/xc32/v4.60/bin/bin/../../lib/gcc/pic32c/8.3.1/thumb/v6-m/nofp\libgcc.a(_aeabi_uldivmod.o)
 .xc_stack_usage
                0x0000000000000000       0x1e c:/program files/microchip/xc32/v4.60/bin/bin/../../lib/gcc/pic32c/8.3.1/thumb/v6-m/nofp\libgcc.a(_aeabi_uldivmod.o)
 .data          0x0000000000000000        0x0 c:/program files/microchip/xc32/v4.60/bin/bin/../../lib/gcc/pic32c/8.3.1/thumb/v6-m/nofp\libgcc.a(_muldi3.o)
 .bss           0x0000000000000000        0x0 c:/program files/microchip/xc32/v4.60/bin/bin/../../lib/gcc/pic32c/8.3.1/thumb/v6-m/nofp\libgcc.a(_muldi3.o)
 .xc_stack_usage
                0x0000000000000000       0x16 c:/program files/microchip/xc32/v4.60/bin/bin/../../lib/gcc/pic32c/8.3.1/thumb/v6-m/nofp\libgcc.a(_muldi3.o)
 .xc_stack_usage.hdr
                0x0000000000000000        0xe c:/program files/microchip/xc32/v4.60/bin/bin/../../lib/gcc/pic32c/8.3.1/thumb/v6-m/nofp\libgcc.a(_muldi3.o)
 .data          0x0000000000000000        0x0 c:/program files/microchip/xc32/v4.60/bin/bin/../../lib/gcc/pic32c/8.3.1/thumb/v6-m/nofp\libgcc.a(_udivmoddi4.o)
 .bss           0x0000000000000000        0x0 c:/program files/microchip/xc32/v4.60/bin/bin/../../lib/gcc/pic32c/8.3.1/thumb/v6-m/nofp\libgcc.a(_udivmoddi4.o)
 .xc_stack_usage
                0x0000000000000000       0x1a c:/program files/microchip/xc32/v4.60/bin/bin/../../lib/gcc/pic32c/8.3.1/thumb/v6-m/nofp\libgcc.a(_udivmoddi4.o)
 .ARM.extab     0x0000000000000000        0x0 c:/program files/microchip/xc32/v4.60/bin/bin/../../lib/gcc/pic32c/8.3.1/thumb/v6-m/nofp\libgcc.a(_udivmoddi4.o)
 .xc_stack_usage.hdr
                0x0000000000000000        0xe c:/program files/microchip/xc32/v4.60/bin/bin/../../lib/gcc/pic32c/8.3.1/thumb/v6-m/nofp\libgcc.a(_udivmoddi4.o)
 .data          0x0000000000000000        0x0 c:/program files/microchip/xc32/v4.60/bin/bin/../../lib/gcc/pic32c/8.3.1/thumb/v6-m/nofp\libgcc.a(bpabi.o)
 .bss           0x0000000000000000        0x0 c:/program files/microchip/xc32/v4.60/bin/bin/../../lib/gcc/pic32c/8.3.1/thumb/v6-m/nofp\libgcc.a(bpabi.o)
 .xc_stack_usage
                0x0000000000000000       0x22 c:/program files/microchip/xc32/v4.60/bin/bin/../../lib/gcc/pic32c/8.3.1/thumb/v6-m/nofp\libgcc.a(bpabi.o)
 .xc_stack_usage.hdr
                0x0000000000000000        0xe c:/program files/microchip/xc32/v4.60/bin/bin/../../lib/gcc/pic32c/8.3.1/thumb/v6-m/nofp\libgcc.a(bpabi.o)
 .data          0x0000000000000000        0x0 c:/program files/microchip/xc32/v4.60/bin/bin/../../lib/gcc/pic32c/8.3.1/thumb/v6-m/nofp\libgcc.a(_lshrdi3.o)
 .bss           0x0000000000000000        0x0 c:/program files/microchip/xc32/v4.60/bin/bin/../../lib/gcc/pic32c/8.3.1/thumb/v6-m/nofp\libgcc.a(_lshrdi3.o)
 .xc_stack_usage.hdr
                0x0000000000000000        0xe c:/program files/microchip/xc32/v4.60/bin/bin/../../lib/gcc/pic32c/8.3.1/thumb/v6-m/nofp\libgcc.a(_lshrdi3.o)
 .xc_stack_usage
                0x0000000000000000       0x17 c:/program files/microchip/xc32/v4.60/bin/bin/../../lib/gcc/pic32c/8.3.1/thumb/v6-m/nofp\libgcc.a(_lshrdi3.o)
 .data          0x0000000000000000        0x0 c:/program files/microchip/xc32/v4.60/bin/bin/../../lib/gcc/pic32c/8.3.1/thumb/v6-m/nofp\libgcc.a(_ashldi3.o)
 .bss           0x0000000000000000        0x0 c:/program files/microchip/xc32/v4.60/bin/bin/../../lib/gcc/pic32c/8.3.1/thumb/v6-m/nofp\libgcc.a(_ashldi3.o)
 .xc_stack_usage.hdr
                0x0000000000000000        0xe c:/program files/microchip/xc32/v4.60/bin/bin/../../lib/gcc/pic32c/8.3.1/thumb/v6-m/nofp\libgcc.a(_ashldi3.o)
 .xc_stack_usage
                0x0000000000000000       0x17 c:/program files/microchip/xc32/v4.60/bin/bin/../../lib/gcc/pic32c/8.3.1/thumb/v6-m/nofp\libgcc.a(_ashldi3.o)
 .data          0x0000000000000000        0x0 c:/program files/microchip/xc32/v4.60/bin/bin/../../lib/gcc/pic32c/8.3.1/thumb/v6-m/nofp\libgcc.a(_clzdi2.o)
 .bss           0x0000000000000000        0x0 c:/program files/microchip/xc32/v4.60/bin/bin/../../lib/gcc/pic32c/8.3.1/thumb/v6-m/nofp\libgcc.a(_clzdi2.o)
 .xc_stack_usage.hdr
                0x0000000000000000        0xe c:/program files/microchip/xc32/v4.60/bin/bin/../../lib/gcc/pic32c/8.3.1/thumb/v6-m/nofp\libgcc.a(_clzdi2.o)
 .xc_stack_usage
                0x0000000000000000       0x16 c:/program files/microchip/xc32/v4.60/bin/bin/../../lib/gcc/pic32c/8.3.1/thumb/v6-m/nofp\libgcc.a(_clzdi2.o)
 .data          0x0000000000000000        0x0 c:/program files/microchip/xc32/v4.60/bin/bin/../../lib/gcc/pic32c/8.3.1/thumb/v6-m/nofp\libgcc.a(_divdi3.o)
 .bss           0x0000000000000000        0x0 c:/program files/microchip/xc32/v4.60/bin/bin/../../lib/gcc/pic32c/8.3.1/thumb/v6-m/nofp\libgcc.a(_divdi3.o)
 .xc_stack_usage
                0x0000000000000000       0x16 c:/program files/microchip/xc32/v4.60/bin/bin/../../lib/gcc/pic32c/8.3.1/thumb/v6-m/nofp\libgcc.a(_divdi3.o)
 .ARM.extab     0x0000000000000000        0x0 c:/program files/microchip/xc32/v4.60/bin/bin/../../lib/gcc/pic32c/8.3.1/thumb/v6-m/nofp\libgcc.a(_divdi3.o)
 .xc_stack_usage.hdr
                0x0000000000000000        0xe c:/program files/microchip/xc32/v4.60/bin/bin/../../lib/gcc/pic32c/8.3.1/thumb/v6-m/nofp\libgcc.a(_divdi3.o)
 .data          0x0000000000000000        0x0 c:/program files/microchip/xc32/v4.60/bin/bin/../../lib/gcc/pic32c/8.3.1/thumb/v6-m/nofp\libgcc.a(_clzsi2.o)
 .bss           0x0000000000000000        0x0 c:/program files/microchip/xc32/v4.60/bin/bin/../../lib/gcc/pic32c/8.3.1/thumb/v6-m/nofp\libgcc.a(_clzsi2.o)
 .xc_stack_usage.hdr
                0x0000000000000000        0xe c:/program files/microchip/xc32/v4.60/bin/bin/../../lib/gcc/pic32c/8.3.1/thumb/v6-m/nofp\libgcc.a(_clzsi2.o)
 .xc_stack_usage
                0x0000000000000000       0x16 c:/program files/microchip/xc32/v4.60/bin/bin/../../lib/gcc/pic32c/8.3.1/thumb/v6-m/nofp\libgcc.a(_clzsi2.o)
 .text          0x0000000000000000        0x0 c:/program files/microchip/xc32/v4.60/bin/bin/../../lib/gcc/pic32c/8.3.1/../../../../pic32c/lib/thumb/v6-m/nofp\libpic32c.a(close.o)
 .data          0x0000000000000000        0x0 c:/program files/microchip/xc32/v4.60/bin/bin/../../lib/gcc/pic32c/8.3.1/../../../../pic32c/lib/thumb/v6-m/nofp\libpic32c.a(close.o)
 .bss           0x0000000000000000        0x0 c:/program files/microchip/xc32/v4.60/bin/bin/../../lib/gcc/pic32c/8.3.1/../../../../pic32c/lib/thumb/v6-m/nofp\libpic32c.a(close.o)
 .xc_stack_usage
                0x0000000000000000       0x13 c:/program files/microchip/xc32/v4.60/bin/bin/../../lib/gcc/pic32c/8.3.1/../../../../pic32c/lib/thumb/v6-m/nofp\libpic32c.a(close.o)
 .gnu.warning.closestub
                0x0000000000000000        0x0 c:/program files/microchip/xc32/v4.60/bin/bin/../../lib/gcc/pic32c/8.3.1/../../../../pic32c/lib/thumb/v6-m/nofp\libpic32c.a(close.o)
 .xc_stack_usage.hdr
                0x0000000000000000        0xe c:/program files/microchip/xc32/v4.60/bin/bin/../../lib/gcc/pic32c/8.3.1/../../../../pic32c/lib/thumb/v6-m/nofp\libpic32c.a(close.o)
 .text          0x0000000000000000        0x0 c:/program files/microchip/xc32/v4.60/bin/bin/../../lib/gcc/pic32c/8.3.1/../../../../pic32c/lib/thumb/v6-m/nofp\libpic32c.a(lseek.o)
 .data          0x0000000000000000        0x0 c:/program files/microchip/xc32/v4.60/bin/bin/../../lib/gcc/pic32c/8.3.1/../../../../pic32c/lib/thumb/v6-m/nofp\libpic32c.a(lseek.o)
 .bss           0x0000000000000000        0x0 c:/program files/microchip/xc32/v4.60/bin/bin/../../lib/gcc/pic32c/8.3.1/../../../../pic32c/lib/thumb/v6-m/nofp\libpic32c.a(lseek.o)
 .xc_stack_usage
                0x0000000000000000       0x13 c:/program files/microchip/xc32/v4.60/bin/bin/../../lib/gcc/pic32c/8.3.1/../../../../pic32c/lib/thumb/v6-m/nofp\libpic32c.a(lseek.o)
 .xc_stack_usage.hdr
                0x0000000000000000        0xe c:/program files/microchip/xc32/v4.60/bin/bin/../../lib/gcc/pic32c/8.3.1/../../../../pic32c/lib/thumb/v6-m/nofp\libpic32c.a(lseek.o)
 .text          0x0000000000000000        0x0 c:/program files/microchip/xc32/v4.60/bin/bin/../../lib/gcc/pic32c/8.3.1/../../../../pic32c/lib/thumb/v6-m/nofp\libpic32c.a(sbrk.o)
 .data          0x0000000000000000        0x0 c:/program files/microchip/xc32/v4.60/bin/bin/../../lib/gcc/pic32c/8.3.1/../../../../pic32c/lib/thumb/v6-m/nofp\libpic32c.a(sbrk.o)
 .xc_stack_usage
                0x0000000000000000       0x4d c:/program files/microchip/xc32/v4.60/bin/bin/../../lib/gcc/pic32c/8.3.1/../../../../pic32c/lib/thumb/v6-m/nofp\libpic32c.a(sbrk.o)
 .xc_stack_usage.hdr
                0x0000000000000000        0xe c:/program files/microchip/xc32/v4.60/bin/bin/../../lib/gcc/pic32c/8.3.1/../../../../pic32c/lib/thumb/v6-m/nofp\libpic32c.a(sbrk.o)
 .text          0x0000000000000000        0x0 c:/program files/microchip/xc32/v4.60/bin/bin/../../lib/gcc/pic32c/8.3.1/thumb/v6-m/nofp/crtend.o
 .data          0x0000000000000000        0x0 c:/program files/microchip/xc32/v4.60/bin/bin/../../lib/gcc/pic32c/8.3.1/thumb/v6-m/nofp/crtend.o
 .bss           0x0000000000000000        0x0 c:/program files/microchip/xc32/v4.60/bin/bin/../../lib/gcc/pic32c/8.3.1/thumb/v6-m/nofp/crtend.o
 .eh_frame      0x0000000000000000        0x4 c:/program files/microchip/xc32/v4.60/bin/bin/../../lib/gcc/pic32c/8.3.1/thumb/v6-m/nofp/crtend.o
 .xc_stack_usage.hdr
                0x0000000000000000        0xe c:/program files/microchip/xc32/v4.60/bin/bin/../../lib/gcc/pic32c/8.3.1/thumb/v6-m/nofp/crtend.o
 .comment       0x0000000000000000       0x2c c:/program files/microchip/xc32/v4.60/bin/bin/../../lib/gcc/pic32c/8.3.1/thumb/v6-m/nofp/crtend.o
 .ARM.attributes
                0x0000000000000000       0x2c c:/program files/microchip/xc32/v4.60/bin/bin/../../lib/gcc/pic32c/8.3.1/thumb/v6-m/nofp/crtend.o
 .text          0x0000000000000000        0x0 c:/program files/microchip/xc32/v4.60/bin/bin/../../lib/gcc/pic32c/8.3.1/thumb/v6-m/nofp/crtn.o
 .data          0x0000000000000000        0x0 c:/program files/microchip/xc32/v4.60/bin/bin/../../lib/gcc/pic32c/8.3.1/thumb/v6-m/nofp/crtn.o
 .bss           0x0000000000000000        0x0 c:/program files/microchip/xc32/v4.60/bin/bin/../../lib/gcc/pic32c/8.3.1/thumb/v6-m/nofp/crtn.o
 .xc_stack_usage.hdr
                0x0000000000000000        0xe c:/program files/microchip/xc32/v4.60/bin/bin/../../lib/gcc/pic32c/8.3.1/thumb/v6-m/nofp/crtn.o
 .text          0x0000000000000000        0x0 c:/program files/microchip/xc32/v4.60/bin/bin/../../lib/gcc/pic32c/8.3.1/../../../../pic32c/lib/thumb/v6-m/nofp\libpic32c.a(pic32_data_init_clear.o)
 .data          0x0000000000000000        0x0 c:/program files/microchip/xc32/v4.60/bin/bin/../../lib/gcc/pic32c/8.3.1/../../../../pic32c/lib/thumb/v6-m/nofp\libpic32c.a(pic32_data_init_clear.o)
 .bss           0x0000000000000000        0x0 c:/program files/microchip/xc32/v4.60/bin/bin/../../lib/gcc/pic32c/8.3.1/../../../../pic32c/lib/thumb/v6-m/nofp\libpic32c.a(pic32_data_init_clear.o)
 .xc_stack_usage
                0x0000000000000000       0x1b c:/program files/microchip/xc32/v4.60/bin/bin/../../lib/gcc/pic32c/8.3.1/../../../../pic32c/lib/thumb/v6-m/nofp\libpic32c.a(pic32_data_init_clear.o)
 .xc_stack_usage.hdr
                0x0000000000000000        0xe c:/program files/microchip/xc32/v4.60/bin/bin/../../lib/gcc/pic32c/8.3.1/../../../../pic32c/lib/thumb/v6-m/nofp\libpic32c.a(pic32_data_init_clear.o)
 .text          0x0000000000000000        0x0 c:/program files/microchip/xc32/v4.60/bin/bin/../../lib/gcc/pic32c/8.3.1/../../../../pic32c/lib/thumb/v6-m/nofp\libpic32c.a(pic32_data_init_copy.o)
 .data          0x0000000000000000        0x0 c:/program files/microchip/xc32/v4.60/bin/bin/../../lib/gcc/pic32c/8.3.1/../../../../pic32c/lib/thumb/v6-m/nofp\libpic32c.a(pic32_data_init_copy.o)
 .bss           0x0000000000000000        0x0 c:/program files/microchip/xc32/v4.60/bin/bin/../../lib/gcc/pic32c/8.3.1/../../../../pic32c/lib/thumb/v6-m/nofp\libpic32c.a(pic32_data_init_copy.o)
 .xc_stack_usage
                0x0000000000000000       0x1a c:/program files/microchip/xc32/v4.60/bin/bin/../../lib/gcc/pic32c/8.3.1/../../../../pic32c/lib/thumb/v6-m/nofp\libpic32c.a(pic32_data_init_copy.o)
 .xc_stack_usage.hdr
                0x0000000000000000        0xe c:/program files/microchip/xc32/v4.60/bin/bin/../../lib/gcc/pic32c/8.3.1/../../../../pic32c/lib/thumb/v6-m/nofp\libpic32c.a(pic32_data_init_copy.o)

Memory Configuration

Name             Origin             Length             Attributes
rom              0x0000000000000000 0x0000000000040000 xrl
ram              0x0000000020000000 0x0000000000008000 xw !r
config_00804000  0x0000000000804000 0x0000000000000004
config_00804004  0x0000000000804004 0x0000000000000004
*default*        0x0000000000000000 0xffffffffffffffff

Linker script and memory map

LOAD c:/program files/microchip/xc32/v4.60/bin/bin/../../lib/gcc/pic32c/8.3.1/thumb/v6-m/nofp/crti.o
LOAD c:/program files/microchip/xc32/v4.60/bin/bin/../../lib/gcc/pic32c/8.3.1/thumb/v6-m/nofp/crtbegin.o
LOAD build/SAMD21_IOT_WG_ICM42688/production/_ext/2048461350/icm42688_sensor.o
LOAD build/SAMD21_IOT_WG_ICM42688/production/_ext/1660664302/drv_spi.o
LOAD build/SAMD21_IOT_WG_ICM42688/production/_ext/1164161090/wdrv_winc_gpio.o
LOAD build/SAMD21_IOT_WG_ICM42688/production/_ext/1164161090/wdrv_winc_eint.o
LOAD build/SAMD21_IOT_WG_ICM42688/production/_ext/101005277/wdrv_winc_spi.o
LOAD build/SAMD21_IOT_WG_ICM42688/production/_ext/90265895/nm_common.o
LOAD build/SAMD21_IOT_WG_ICM42688/production/_ext/121554788/m2m_ssl.o
LOAD build/SAMD21_IOT_WG_ICM42688/production/_ext/121554788/m2m_hif.o
LOAD build/SAMD21_IOT_WG_ICM42688/production/_ext/121554788/m2m_wifi.o
LOAD build/SAMD21_IOT_WG_ICM42688/production/_ext/121554788/nmspi.o
LOAD build/SAMD21_IOT_WG_ICM42688/production/_ext/121554788/nmdrv.o
LOAD build/SAMD21_IOT_WG_ICM42688/production/_ext/121554788/m2m_periph.o
LOAD build/SAMD21_IOT_WG_ICM42688/production/_ext/121554788/m2m_ota.o
LOAD build/SAMD21_IOT_WG_ICM42688/production/_ext/121554788/nmasic.o
LOAD build/SAMD21_IOT_WG_ICM42688/production/_ext/121554788/nmbus.o
LOAD build/SAMD21_IOT_WG_ICM42688/production/_ext/548032175/socket.o
LOAD build/SAMD21_IOT_WG_ICM42688/production/_ext/548032175/inet_addr.o
LOAD build/SAMD21_IOT_WG_ICM42688/production/_ext/548032175/inet_ntop.o
LOAD build/SAMD21_IOT_WG_ICM42688/production/_ext/609036575/flexible_flash.o
LOAD build/SAMD21_IOT_WG_ICM42688/production/_ext/609036575/spi_flash.o
LOAD build/SAMD21_IOT_WG_ICM42688/production/_ext/1784303044/wdrv_winc_osal.o
LOAD build/SAMD21_IOT_WG_ICM42688/production/_ext/907429946/wdrv_winc_softap.o
LOAD build/SAMD21_IOT_WG_ICM42688/production/_ext/907429946/wdrv_winc_bssfind.o
LOAD build/SAMD21_IOT_WG_ICM42688/production/_ext/907429946/wdrv_winc_sta.o
LOAD build/SAMD21_IOT_WG_ICM42688/production/_ext/907429946/wdrv_winc_wps.o
LOAD build/SAMD21_IOT_WG_ICM42688/production/_ext/907429946/wdrv_winc_assoc.o
LOAD build/SAMD21_IOT_WG_ICM42688/production/_ext/907429946/wdrv_winc_socket.o
LOAD build/SAMD21_IOT_WG_ICM42688/production/_ext/907429946/wdrv_winc_systime.o
LOAD build/SAMD21_IOT_WG_ICM42688/production/_ext/907429946/wdrv_winc_enterprise.o
LOAD build/SAMD21_IOT_WG_ICM42688/production/_ext/907429946/wdrv_winc_nvm.o
LOAD build/SAMD21_IOT_WG_ICM42688/production/_ext/907429946/wdrv_winc_httpprovctx.o
LOAD build/SAMD21_IOT_WG_ICM42688/production/_ext/907429946/wdrv_winc_powersave.o
LOAD build/SAMD21_IOT_WG_ICM42688/production/_ext/907429946/wdrv_winc_authctx.o
LOAD build/SAMD21_IOT_WG_ICM42688/production/_ext/907429946/wdrv_winc_ssl.o
LOAD build/SAMD21_IOT_WG_ICM42688/production/_ext/907429946/wdrv_winc_custie.o
LOAD build/SAMD21_IOT_WG_ICM42688/production/_ext/907429946/wdrv_winc_host_file.o
LOAD build/SAMD21_IOT_WG_ICM42688/production/_ext/907429946/wdrv_winc.o
LOAD build/SAMD21_IOT_WG_ICM42688/production/_ext/907429946/wdrv_winc_bssctx.o
LOAD build/SAMD21_IOT_WG_ICM42688/production/_ext/1750425231/plib_clock.o
LOAD build/SAMD21_IOT_WG_ICM42688/production/_ext/1580516298/plib_dmac.o
LOAD build/SAMD21_IOT_WG_ICM42688/production/_ext/503204096/plib_eic.o
LOAD build/SAMD21_IOT_WG_ICM42688/production/_ext/1752574717/plib_evsys.o
LOAD build/SAMD21_IOT_WG_ICM42688/production/_ext/1580823105/plib_nvic.o
LOAD build/SAMD21_IOT_WG_ICM42688/production/_ext/11470383/plib_nvmctrl.o
LOAD build/SAMD21_IOT_WG_ICM42688/production/_ext/1580876256/plib_port.o
LOAD build/SAMD21_IOT_WG_ICM42688/production/_ext/1014017276/plib_sercom0_spi_master.o
LOAD build/SAMD21_IOT_WG_ICM42688/production/_ext/1014017276/plib_sercom2_spi_master.o
LOAD build/SAMD21_IOT_WG_ICM42688/production/_ext/177673482/plib_sercom5_usart.o
LOAD build/SAMD21_IOT_WG_ICM42688/production/_ext/223004715/plib_systick.o
LOAD build/SAMD21_IOT_WG_ICM42688/production/_ext/399410062/plib_tc3.o
LOAD build/SAMD21_IOT_WG_ICM42688/production/_ext/399410062/plib_tc4.o
LOAD build/SAMD21_IOT_WG_ICM42688/production/_ext/1357625803/xc32_monitor.o
LOAD build/SAMD21_IOT_WG_ICM42688/production/_ext/1584719636/sys_dma.o
LOAD build/SAMD21_IOT_WG_ICM42688/production/_ext/1318297016/sys_int.o
LOAD build/SAMD21_IOT_WG_ICM42688/production/_ext/386530258/sys_time.o
LOAD build/SAMD21_IOT_WG_ICM42688/production/_ext/1832905403/initialization.o
LOAD build/SAMD21_IOT_WG_ICM42688/production/_ext/1832905403/interrupts.o
LOAD build/SAMD21_IOT_WG_ICM42688/production/_ext/1832905403/exceptions.o
LOAD build/SAMD21_IOT_WG_ICM42688/production/_ext/1832905403/startup_xc32.o
LOAD build/SAMD21_IOT_WG_ICM42688/production/_ext/1832905403/libc_syscalls.o
LOAD build/SAMD21_IOT_WG_ICM42688/production/_ext/1832905403/tasks.o
LOAD build/SAMD21_IOT_WG_ICM42688/production/_ext/1341251756/Icm426xxDriver_HL.o
LOAD build/SAMD21_IOT_WG_ICM42688/production/_ext/1341251756/Icm426xxDriver_HL_apex.o
LOAD build/SAMD21_IOT_WG_ICM42688/production/_ext/1341251756/Icm426xxSelfTest.o
LOAD build/SAMD21_IOT_WG_ICM42688/production/_ext/1341251756/Icm426xxTransport.o
LOAD build/SAMD21_IOT_WG_ICM42688/production/_ext/299863938/ssi_comms.o
LOAD build/SAMD21_IOT_WG_ICM42688/production/_ext/1360937237/main.o
LOAD build/SAMD21_IOT_WG_ICM42688/production/_ext/1360937237/ringbuffer.o
LOAD build/SAMD21_IOT_WG_ICM42688/production/_ext/1360937237/app.o
LOAD build/SAMD21_IOT_WG_ICM42688/production/_ext/1360937237/winc1500_tcp_client.o
                0x0000000000000001                __MPLAB_BUILD = 0x1
                0x0000000000040000                __rom_end = (ORIGIN (rom) + LENGTH (rom))
                0x0000000020008000                __ram_end = (ORIGIN (ram) + LENGTH (ram))

.config_00804000
                0x0000000000804000        0x4
 *(.config_00804000)
 .config_00804000
                0x0000000000804000        0x4 build/SAMD21_IOT_WG_ICM42688/production/_ext/1832905403/initialization.o
                0x0000000000804000                __config_00804000

.config_00804004
                0x0000000000804004        0x4
 *(.config_00804004)
 .config_00804004
                0x0000000000804004        0x4 build/SAMD21_IOT_WG_ICM42688/production/_ext/1832905403/initialization.o
                0x0000000000804004                __config_00804004

.vectors        0x0000000000000000       0xb0
                0x0000000000000000                . = ALIGN (0x4)
                0x0000000000000000                _sfixed = .
 *(.vectors .vectors.* .vectors_default .vectors_default.*)
 .vectors       0x0000000000000000       0xb0 build/SAMD21_IOT_WG_ICM42688/production/_ext/1832905403/interrupts.o
                0x0000000000000000                exception_table
 *(.isr_vector)
 *(.reset*)
 *(.after_vectors)

.text           0x00000000000000b0       0x20
                0x00000000000000b0                . = ALIGN (0x4)
 *(.glue_7t)
 .glue_7t       0x00000000000000b0        0x0 linker stubs
 *(.glue_7)
 .glue_7        0x00000000000000b0        0x0 linker stubs
 *(.gnu.linkonce.r.*)
 *(.ARM.extab* .gnu.linkonce.armextab.*)
                0x00000000000000b0                . = ALIGN (0x4)
 *(.init)
 .init          0x00000000000000b0        0x4 c:/program files/microchip/xc32/v4.60/bin/bin/../../lib/gcc/pic32c/8.3.1/thumb/v6-m/nofp/crti.o
                0x00000000000000b0                _init
 .init          0x00000000000000b4        0x8 c:/program files/microchip/xc32/v4.60/bin/bin/../../lib/gcc/pic32c/8.3.1/thumb/v6-m/nofp/crtn.o
                0x00000000000000bc                . = ALIGN (0x4)
                0x00000000000000bc                __preinit_array_start = .
 *(.preinit_array)
                0x00000000000000bc                __preinit_array_end = .
                0x00000000000000bc                . = ALIGN (0x4)
                0x00000000000000bc                __init_array_start = .
 *(SORT_BY_NAME(.init_array.*))
 *(.init_array)
 .init_array    0x00000000000000bc        0x4 c:/program files/microchip/xc32/v4.60/bin/bin/../../lib/gcc/pic32c/8.3.1/thumb/v6-m/nofp/crtbegin.o
                0x00000000000000c0                __init_array_end = .
                0x00000000000000c0                . = ALIGN (0x4)
 *crtbegin.o(.ctors)
 *(EXCLUDE_FILE(*crtend.o) .ctors)
 *(SORT_BY_NAME(.ctors.*))
 *crtend.o(.ctors)
                0x00000000000000c0                . = ALIGN (0x4)
 *(.fini)
 .fini          0x00000000000000c0        0x4 c:/program files/microchip/xc32/v4.60/bin/bin/../../lib/gcc/pic32c/8.3.1/thumb/v6-m/nofp/crti.o
                0x00000000000000c0                _fini
 .fini          0x00000000000000c4        0x8 c:/program files/microchip/xc32/v4.60/bin/bin/../../lib/gcc/pic32c/8.3.1/thumb/v6-m/nofp/crtn.o
                0x00000000000000cc                . = ALIGN (0x4)
                0x00000000000000cc                __fini_array_start = .
 *(.fini_array)
 .fini_array    0x00000000000000cc        0x4 c:/program files/microchip/xc32/v4.60/bin/bin/../../lib/gcc/pic32c/8.3.1/thumb/v6-m/nofp/crtbegin.o
 *(SORT_BY_NAME(.fini_array.*))
                0x00000000000000d0                __fini_array_end = .
 *crtbegin.o(.dtors)
 *(EXCLUDE_FILE(*crtend.o) .dtors)
 *(SORT_BY_NAME(.dtors.*))
 *crtend.o(.dtors)
                0x00000000000000d0                . = ALIGN (0x4)
                0x00000000000000d0                _efixed = .
                [!provide]                        PROVIDE (__exidx_start = .)

.ARM.exidx      0x00000000000000d0       0x10
 *(.ARM.exidx* .gnu.linkonce.armexidx.*)
 .ARM.exidx     0x00000000000000d8        0x8 c:/program files/microchip/xc32/v4.60/bin/bin/../../lib/gcc/pic32c/8.3.1/thumb/v6-m/nofp\libgcc.a(_udivmoddi4.o)
 .ARM.exidx     0x00000000000000d0        0x8 c:/program files/microchip/xc32/v4.60/bin/bin/../../lib/gcc/pic32c/8.3.1/thumb/v6-m/nofp\libgcc.a(_divdi3.o)
                [!provide]                        PROVIDE (__exidx_end = .)
                0x00000000000000e0                . = ALIGN (0x4)
                0x00000000000000e0                _etext = .

.bss            0x0000000020000000        0x0
                0x0000000020000000                . = ALIGN (0x4)
                0x0000000020000000                __bss_start__ = .
                0x0000000020000000                _sbss = .
                0x0000000020000000                _szero = .
 *(COMMON)
                0x0000000020000000                . = ALIGN (0x4)
                0x0000000020000000                __bss_end__ = .
                0x0000000020000000                _ebss = .
                0x0000000020000000                _ezero = .
                0x0000000020000000                . = ALIGN (0x4)
                0x0000000020000000                _end = .
                0x0000000020007fff                _ram_end_ = ((ORIGIN (ram) + LENGTH (ram)) - 0x1)
                0x0000000000000200                _min_heap_size = 0x200
START GROUP
LOAD c:/program files/microchip/xc32/v4.60/bin/bin/../../lib/gcc/pic32c/8.3.1/../../../../pic32c/lib/thumb/v6-m/nofp\libpic32c.a
LOAD c:/program files/microchip/xc32/v4.60/bin/bin/../../lib/gcc/pic32c/8.3.1/../../../../pic32c/lib/thumb/v6-m/nofp\libc-size-musl.a
LOAD c:/program files/microchip/xc32/v4.60/bin/bin/../../lib/gcc/pic32c/8.3.1/../../../../pic32c/lib/thumb/v6-m/nofp\liblmalloc-musl.a
LOAD c:/program files/microchip/xc32/v4.60/bin/bin/../../lib/gcc/pic32c/8.3.1/../../../../pic32c/lib/thumb/v6-m/nofp\libm-fast-emfloat.a
LOAD c:/program files/microchip/xc32/v4.60/bin/bin/../../lib/gcc/pic32c/8.3.1/../../../../pic32c/lib/thumb/v6-m/nofp\libm-musl.a
LOAD c:/program files/microchip/xc32/v4.60/bin/bin/../../lib/gcc/pic32c/8.3.1/../../../../pic32c/lib/thumb/v6-m/nofp\libc-musl.a
LOAD c:/program files/microchip/xc32/v4.60/bin/bin/../../lib/gcc/pic32c/8.3.1/../../../../pic32c/lib/thumb/v6-m/nofp\libm-fast-emfloat.a
LOAD c:/program files/microchip/xc32/v4.60/bin/bin/../../lib/gcc/pic32c/8.3.1/../../../../pic32c/lib/thumb/v6-m/nofp\libm-musl.a
LOAD c:/program files/microchip/xc32/v4.60/bin/bin/../../lib/gcc/pic32c/8.3.1/thumb/v6-m/nofp\libgcc.a
END GROUP
LOAD c:/program files/microchip/xc32/v4.60/bin/bin/../../lib/gcc/pic32c/8.3.1/thumb/v6-m/nofp/crtend.o
LOAD c:/program files/microchip/xc32/v4.60/bin/bin/../../lib/gcc/pic32c/8.3.1/thumb/v6-m/nofp/crtn.o
OUTPUT(dist/SAMD21_IOT_WG_ICM42688/production/samd21_iot_imu.X.production.elf elf32-littlearm)
LOAD data_init
LOAD stack

.ARM.attributes
                0x0000000000000000       0x2a
 .ARM.attributes
                0x0000000000000000       0x1e c:/program files/microchip/xc32/v4.60/bin/bin/../../lib/gcc/pic32c/8.3.1/thumb/v6-m/nofp/crti.o
 .ARM.attributes
                0x000000000000001e       0x2c c:/program files/microchip/xc32/v4.60/bin/bin/../../lib/gcc/pic32c/8.3.1/thumb/v6-m/nofp/crtbegin.o
 .ARM.attributes
                0x000000000000004a       0x2c build/SAMD21_IOT_WG_ICM42688/production/_ext/2048461350/icm42688_sensor.o
 .ARM.attributes
                0x0000000000000076       0x2c build/SAMD21_IOT_WG_ICM42688/production/_ext/1660664302/drv_spi.o
 .ARM.attributes
                0x00000000000000a2       0x2c build/SAMD21_IOT_WG_ICM42688/production/_ext/1164161090/wdrv_winc_gpio.o
 .ARM.attributes
                0x00000000000000ce       0x2c build/SAMD21_IOT_WG_ICM42688/production/_ext/1164161090/wdrv_winc_eint.o
 .ARM.attributes
                0x00000000000000fa       0x2c build/SAMD21_IOT_WG_ICM42688/production/_ext/101005277/wdrv_winc_spi.o
 .ARM.attributes
                0x0000000000000126       0x2c build/SAMD21_IOT_WG_ICM42688/production/_ext/90265895/nm_common.o
 .ARM.attributes
                0x0000000000000152       0x2c build/SAMD21_IOT_WG_ICM42688/production/_ext/121554788/m2m_ssl.o
 .ARM.attributes
                0x000000000000017e       0x2c build/SAMD21_IOT_WG_ICM42688/production/_ext/121554788/m2m_hif.o
 .ARM.attributes
                0x00000000000001aa       0x2c build/SAMD21_IOT_WG_ICM42688/production/_ext/121554788/m2m_wifi.o
 .ARM.attributes
                0x00000000000001d6       0x2c build/SAMD21_IOT_WG_ICM42688/production/_ext/121554788/nmspi.o
 .ARM.attributes
                0x0000000000000202       0x2c build/SAMD21_IOT_WG_ICM42688/production/_ext/121554788/nmdrv.o
 .ARM.attributes
                0x000000000000022e       0x2c build/SAMD21_IOT_WG_ICM42688/production/_ext/121554788/m2m_ota.o
 .ARM.attributes
                0x000000000000025a       0x2c build/SAMD21_IOT_WG_ICM42688/production/_ext/121554788/nmasic.o
 .ARM.attributes
                0x0000000000000286       0x2c build/SAMD21_IOT_WG_ICM42688/production/_ext/121554788/nmbus.o
 .ARM.attributes
                0x00000000000002b2       0x2c build/SAMD21_IOT_WG_ICM42688/production/_ext/548032175/socket.o
 .ARM.attributes
                0x00000000000002de       0x2c build/SAMD21_IOT_WG_ICM42688/production/_ext/548032175/inet_addr.o
 .ARM.attributes
                0x000000000000030a       0x2c build/SAMD21_IOT_WG_ICM42688/production/_ext/548032175/inet_ntop.o
 .ARM.attributes
                0x0000000000000336       0x2c build/SAMD21_IOT_WG_ICM42688/production/_ext/609036575/flexible_flash.o
 .ARM.attributes
                0x0000000000000362       0x2c build/SAMD21_IOT_WG_ICM42688/production/_ext/609036575/spi_flash.o
 .ARM.attributes
                0x000000000000038e       0x2c build/SAMD21_IOT_WG_ICM42688/production/_ext/1784303044/wdrv_winc_osal.o
 .ARM.attributes
                0x00000000000003ba       0x2c build/SAMD21_IOT_WG_ICM42688/production/_ext/907429946/wdrv_winc_sta.o
 .ARM.attributes
                0x00000000000003e6       0x2c build/SAMD21_IOT_WG_ICM42688/production/_ext/907429946/wdrv_winc_socket.o
 .ARM.attributes
                0x0000000000000412       0x2c build/SAMD21_IOT_WG_ICM42688/production/_ext/907429946/wdrv_winc_systime.o
 .ARM.attributes
                0x000000000000043e       0x2c build/SAMD21_IOT_WG_ICM42688/production/_ext/907429946/wdrv_winc_authctx.o
 .ARM.attributes
                0x000000000000046a       0x2c build/SAMD21_IOT_WG_ICM42688/production/_ext/907429946/wdrv_winc_host_file.o
 .ARM.attributes
                0x0000000000000496       0x2c build/SAMD21_IOT_WG_ICM42688/production/_ext/907429946/wdrv_winc.o
 .ARM.attributes
                0x00000000000004c2       0x2c build/SAMD21_IOT_WG_ICM42688/production/_ext/907429946/wdrv_winc_bssctx.o
 .ARM.attributes
                0x00000000000004ee       0x2c build/SAMD21_IOT_WG_ICM42688/production/_ext/1750425231/plib_clock.o
 .ARM.attributes
                0x000000000000051a       0x2c build/SAMD21_IOT_WG_ICM42688/production/_ext/1580516298/plib_dmac.o
 .ARM.attributes
                0x0000000000000546       0x2c build/SAMD21_IOT_WG_ICM42688/production/_ext/503204096/plib_eic.o
 .ARM.attributes
                0x0000000000000572       0x2c build/SAMD21_IOT_WG_ICM42688/production/_ext/1580823105/plib_nvic.o
 .ARM.attributes
                0x000000000000059e       0x2c build/SAMD21_IOT_WG_ICM42688/production/_ext/11470383/plib_nvmctrl.o
 .ARM.attributes
                0x00000000000005ca       0x2c build/SAMD21_IOT_WG_ICM42688/production/_ext/1580876256/plib_port.o
 .ARM.attributes
                0x00000000000005f6       0x2c build/SAMD21_IOT_WG_ICM42688/production/_ext/1014017276/plib_sercom0_spi_master.o
 .ARM.attributes
                0x0000000000000622       0x2c build/SAMD21_IOT_WG_ICM42688/production/_ext/1014017276/plib_sercom2_spi_master.o
 .ARM.attributes
                0x000000000000064e       0x2c build/SAMD21_IOT_WG_ICM42688/production/_ext/177673482/plib_sercom5_usart.o
 .ARM.attributes
                0x000000000000067a       0x2c build/SAMD21_IOT_WG_ICM42688/production/_ext/223004715/plib_systick.o
 .ARM.attributes
                0x00000000000006a6       0x2c build/SAMD21_IOT_WG_ICM42688/production/_ext/399410062/plib_tc3.o
 .ARM.attributes
                0x00000000000006d2       0x2c build/SAMD21_IOT_WG_ICM42688/production/_ext/399410062/plib_tc4.o
 .ARM.attributes
                0x00000000000006fe       0x2c build/SAMD21_IOT_WG_ICM42688/production/_ext/1357625803/xc32_monitor.o
 .ARM.attributes
                0x000000000000072a       0x2c build/SAMD21_IOT_WG_ICM42688/production/_ext/1584719636/sys_dma.o
 .ARM.attributes
                0x0000000000000756       0x2c build/SAMD21_IOT_WG_ICM42688/production/_ext/1318297016/sys_int.o
 .ARM.attributes
                0x0000000000000782       0x2c build/SAMD21_IOT_WG_ICM42688/production/_ext/386530258/sys_time.o
 .ARM.attributes
                0x00000000000007ae       0x2c build/SAMD21_IOT_WG_ICM42688/production/_ext/1832905403/initialization.o
 .ARM.attributes
                0x00000000000007da       0x2c build/SAMD21_IOT_WG_ICM42688/production/_ext/1832905403/interrupts.o
 .ARM.attributes
                0x0000000000000806       0x2c build/SAMD21_IOT_WG_ICM42688/production/_ext/1832905403/exceptions.o
 .ARM.attributes
                0x0000000000000832       0x2c build/SAMD21_IOT_WG_ICM42688/production/_ext/1832905403/startup_xc32.o
 .ARM.attributes
                0x000000000000085e       0x2c build/SAMD21_IOT_WG_ICM42688/production/_ext/1832905403/tasks.o
 .ARM.attributes
                0x000000000000088a       0x2c build/SAMD21_IOT_WG_ICM42688/production/_ext/1341251756/Icm426xxDriver_HL.o
 .ARM.attributes
                0x00000000000008b6       0x2c build/SAMD21_IOT_WG_ICM42688/production/_ext/1341251756/Icm426xxTransport.o
 .ARM.attributes
                0x00000000000008e2       0x2c build/SAMD21_IOT_WG_ICM42688/production/_ext/1360937237/main.o
 .ARM.attributes
                0x000000000000090e       0x2c build/SAMD21_IOT_WG_ICM42688/production/_ext/1360937237/ringbuffer.o
 .ARM.attributes
                0x000000000000093a       0x2c build/SAMD21_IOT_WG_ICM42688/production/_ext/1360937237/app.o
 .ARM.attributes
                0x0000000000000966       0x2c build/SAMD21_IOT_WG_ICM42688/production/_ext/1360937237/winc1500_tcp_client.o
 .ARM.attributes
                0x0000000000000992       0x2c c:/program files/microchip/xc32/v4.60/bin/bin/../../lib/gcc/pic32c/8.3.1/../../../../pic32c/lib/thumb/v6-m/nofp\libpic32c.a(data_init.o)
 .ARM.attributes
                0x00000000000009be       0x2e c:/program files/microchip/xc32/v4.60/bin/bin/../../lib/gcc/pic32c/8.3.1/../../../../pic32c/lib/thumb/v6-m/nofp\libc-size-musl.a(memcpy.o)
 .ARM.attributes
                0x00000000000009ec       0x2e c:/program files/microchip/xc32/v4.60/bin/bin/../../lib/gcc/pic32c/8.3.1/../../../../pic32c/lib/thumb/v6-m/nofp\libc-size-musl.a(memset.o)
 .ARM.attributes
                0x0000000000000a1a       0x2e c:/program files/microchip/xc32/v4.60/bin/bin/../../lib/gcc/pic32c/8.3.1/../../../../pic32c/lib/thumb/v6-m/nofp\libc-size-musl.a(strlen.o)
 .ARM.attributes
                0x0000000000000a48       0x2e c:/program files/microchip/xc32/v4.60/bin/bin/../../lib/gcc/pic32c/8.3.1/../../../../pic32c/lib/thumb/v6-m/nofp\libc-size-musl.a(strchr.o)
 .ARM.attributes
                0x0000000000000a76       0x2e c:/program files/microchip/xc32/v4.60/bin/bin/../../lib/gcc/pic32c/8.3.1/../../../../pic32c/lib/thumb/v6-m/nofp\libc-size-musl.a(strchrnul.o)
 .ARM.attributes
                0x0000000000000aa4       0x2e c:/program files/microchip/xc32/v4.60/bin/bin/../../lib/gcc/pic32c/8.3.1/../../../../pic32c/lib/thumb/v6-m/nofp\libc-size-musl.a(strnlen.o)
 .ARM.attributes
                0x0000000000000ad2       0x2e c:/program files/microchip/xc32/v4.60/bin/bin/../../lib/gcc/pic32c/8.3.1/../../../../pic32c/lib/thumb/v6-m/nofp\libc-size-musl.a(memchr.o)
 .ARM.attributes
                0x0000000000000b00       0x2e c:/program files/microchip/xc32/v4.60/bin/bin/../../lib/gcc/pic32c/8.3.1/../../../../pic32c/lib/thumb/v6-m/nofp\liblmalloc-musl.a(lite_calloc.o)
 .ARM.attributes
                0x0000000000000b2e       0x2e c:/program files/microchip/xc32/v4.60/bin/bin/../../lib/gcc/pic32c/8.3.1/../../../../pic32c/lib/thumb/v6-m/nofp\liblmalloc-musl.a(lite_free.o)
 .ARM.attributes
                0x0000000000000b5c       0x2e c:/program files/microchip/xc32/v4.60/bin/bin/../../lib/gcc/pic32c/8.3.1/../../../../pic32c/lib/thumb/v6-m/nofp\liblmalloc-musl.a(lite_malloc.o)
 .ARM.attributes
                0x0000000000000b8a       0x2e c:/program files/microchip/xc32/v4.60/bin/bin/../../lib/gcc/pic32c/8.3.1/../../../../pic32c/lib/thumb/v6-m/nofp\libc-musl.a(__libc_start_main.o)
 .ARM.attributes
                0x0000000000000bb8       0x2e c:/program files/microchip/xc32/v4.60/bin/bin/../../lib/gcc/pic32c/8.3.1/../../../../pic32c/lib/thumb/v6-m/nofp\libc-musl.a(__errno_location.o)
 .ARM.attributes
                0x0000000000000be6       0x2e c:/program files/microchip/xc32/v4.60/bin/bin/../../lib/gcc/pic32c/8.3.1/../../../../pic32c/lib/thumb/v6-m/nofp\libc-musl.a(libc.o)
 .ARM.attributes
                0x0000000000000c14       0x2e c:/program files/microchip/xc32/v4.60/bin/bin/../../lib/gcc/pic32c/8.3.1/../../../../pic32c/lib/thumb/v6-m/nofp\libc-musl.a(expand_heap.o)
 .ARM.attributes
                0x0000000000000c42       0x2e c:/program files/microchip/xc32/v4.60/bin/bin/../../lib/gcc/pic32c/8.3.1/../../../../pic32c/lib/thumb/v6-m/nofp\libc-musl.a(__sio_printf_cdnsu.o)
 .ARM.attributes
                0x0000000000000c70       0x2e c:/program files/microchip/xc32/v4.60/bin/bin/../../lib/gcc/pic32c/8.3.1/../../../../pic32c/lib/thumb/v6-m/nofp\libc-musl.a(__fmt_d.o)
 .ARM.attributes
                0x0000000000000c9e       0x2e c:/program files/microchip/xc32/v4.60/bin/bin/../../lib/gcc/pic32c/8.3.1/../../../../pic32c/lib/thumb/v6-m/nofp\libc-musl.a(__fmt_s.o)
 .ARM.attributes
                0x0000000000000ccc       0x2e c:/program files/microchip/xc32/v4.60/bin/bin/../../lib/gcc/pic32c/8.3.1/../../../../pic32c/lib/thumb/v6-m/nofp\libc-musl.a(__fmt_u.o)
 .ARM.attributes
                0x0000000000000cfa       0x2e c:/program files/microchip/xc32/v4.60/bin/bin/../../lib/gcc/pic32c/8.3.1/../../../../pic32c/lib/thumb/v6-m/nofp\libc-musl.a(__pop_int.o)
 .ARM.attributes
                0x0000000000000d28       0x2e c:/program files/microchip/xc32/v4.60/bin/bin/../../lib/gcc/pic32c/8.3.1/../../../../pic32c/lib/thumb/v6-m/nofp\libc-musl.a(__pop_ptr.o)
 .ARM.attributes
                0x0000000000000d56       0x2e c:/program files/microchip/xc32/v4.60/bin/bin/../../lib/gcc/pic32c/8.3.1/../../../../pic32c/lib/thumb/v6-m/nofp\libc-musl.a(__printf_core.o)
 .ARM.attributes
                0x0000000000000d84       0x2e c:/program files/microchip/xc32/v4.60/bin/bin/../../lib/gcc/pic32c/8.3.1/../../../../pic32c/lib/thumb/v6-m/nofp\libc-musl.a(stdin.o)
 .ARM.attributes
                0x0000000000000db2       0x2e c:/program files/microchip/xc32/v4.60/bin/bin/../../lib/gcc/pic32c/8.3.1/../../../../pic32c/lib/thumb/v6-m/nofp\libc-musl.a(stdout.o)
 .ARM.attributes
                0x0000000000000de0       0x2e c:/program files/microchip/xc32/v4.60/bin/bin/../../lib/gcc/pic32c/8.3.1/../../../../pic32c/lib/thumb/v6-m/nofp\libc-musl.a(puts.o)
 .ARM.attributes
                0x0000000000000e0e       0x2e c:/program files/microchip/xc32/v4.60/bin/bin/../../lib/gcc/pic32c/8.3.1/../../../../pic32c/lib/thumb/v6-m/nofp\libc-musl.a(setbuf.o)
 .ARM.attributes
                0x0000000000000e3c       0x2e c:/program files/microchip/xc32/v4.60/bin/bin/../../lib/gcc/pic32c/8.3.1/../../../../pic32c/lib/thumb/v6-m/nofp\libc-musl.a(atoi.o)
 .ARM.attributes
                0x0000000000000e6a       0x2e c:/program files/microchip/xc32/v4.60/bin/bin/../../lib/gcc/pic32c/8.3.1/../../../../pic32c/lib/thumb/v6-m/nofp\libc-musl.a(gmtime.o)
 .ARM.attributes
                0x0000000000000e98       0x2e c:/program files/microchip/xc32/v4.60/bin/bin/../../lib/gcc/pic32c/8.3.1/../../../../pic32c/lib/thumb/v6-m/nofp\libc-musl.a(gmtime_r.o)
 .ARM.attributes
                0x0000000000000ec6       0x2e c:/program files/microchip/xc32/v4.60/bin/bin/../../lib/gcc/pic32c/8.3.1/../../../../pic32c/lib/thumb/v6-m/nofp\libc-musl.a(mktime.o)
 .ARM.attributes
                0x0000000000000ef4       0x2e c:/program files/microchip/xc32/v4.60/bin/bin/../../lib/gcc/pic32c/8.3.1/../../../../pic32c/lib/thumb/v6-m/nofp\libc-musl.a(tolower.o)
 .ARM.attributes
                0x0000000000000f22       0x2e c:/program files/microchip/xc32/v4.60/bin/bin/../../lib/gcc/pic32c/8.3.1/../../../../pic32c/lib/thumb/v6-m/nofp\libc-musl.a(__environ.o)
 .ARM.attributes
                0x0000000000000f50       0x2e c:/program files/microchip/xc32/v4.60/bin/bin/../../lib/gcc/pic32c/8.3.1/../../../../pic32c/lib/thumb/v6-m/nofp\libc-musl.a(__int_vfprintf.o)
 .ARM.attributes
                0x0000000000000f7e       0x2e c:/program files/microchip/xc32/v4.60/bin/bin/../../lib/gcc/pic32c/8.3.1/../../../../pic32c/lib/thumb/v6-m/nofp\libc-musl.a(fputs.o)
 .ARM.attributes
                0x0000000000000fac       0x2e c:/program files/microchip/xc32/v4.60/bin/bin/../../lib/gcc/pic32c/8.3.1/../../../../pic32c/lib/thumb/v6-m/nofp\libc-musl.a(__cvt_u.o)
 .ARM.attributes
                0x0000000000000fda       0x2e c:/program files/microchip/xc32/v4.60/bin/bin/../../lib/gcc/pic32c/8.3.1/../../../../pic32c/lib/thumb/v6-m/nofp\libc-musl.a(__pop_float.o)
 .ARM.attributes
                0x0000000000001008       0x2e c:/program files/microchip/xc32/v4.60/bin/bin/../../lib/gcc/pic32c/8.3.1/../../../../pic32c/lib/thumb/v6-m/nofp\libc-musl.a(__stdio_read.o)
 .ARM.attributes
                0x0000000000001036       0x2e c:/program files/microchip/xc32/v4.60/bin/bin/../../lib/gcc/pic32c/8.3.1/../../../../pic32c/lib/thumb/v6-m/nofp\libc-musl.a(__towrite_rw.o)
 .ARM.attributes
                0x0000000000001064       0x2e c:/program files/microchip/xc32/v4.60/bin/bin/../../lib/gcc/pic32c/8.3.1/../../../../pic32c/lib/thumb/v6-m/nofp\libc-musl.a(fwrite.o)
 .ARM.attributes
                0x0000000000001092       0x2e c:/program files/microchip/xc32/v4.60/bin/bin/../../lib/gcc/pic32c/8.3.1/../../../../pic32c/lib/thumb/v6-m/nofp\libc-musl.a(putc.o)
 .ARM.attributes
                0x00000000000010c0       0x2e c:/program files/microchip/xc32/v4.60/bin/bin/../../lib/gcc/pic32c/8.3.1/../../../../pic32c/lib/thumb/v6-m/nofp\libc-musl.a(setvbuf.o)
 .ARM.attributes
                0x00000000000010ee       0x2e c:/program files/microchip/xc32/v4.60/bin/bin/../../lib/gcc/pic32c/8.3.1/../../../../pic32c/lib/thumb/v6-m/nofp\libc-musl.a(__tm_to_secs.o)
 .ARM.attributes
                0x000000000000111c       0x2e c:/program files/microchip/xc32/v4.60/bin/bin/../../lib/gcc/pic32c/8.3.1/../../../../pic32c/lib/thumb/v6-m/nofp\libc-musl.a(__year_to_secs.o)
 .ARM.attributes
                0x000000000000114a       0x2e c:/program files/microchip/xc32/v4.60/bin/bin/../../lib/gcc/pic32c/8.3.1/../../../../pic32c/lib/thumb/v6-m/nofp\libc-musl.a(__secs_to_tm.o)
 .ARM.attributes
                0x0000000000001178       0x2e c:/program files/microchip/xc32/v4.60/bin/bin/../../lib/gcc/pic32c/8.3.1/../../../../pic32c/lib/thumb/v6-m/nofp\libc-musl.a(readv.o)
 .ARM.attributes
                0x00000000000011a6       0x2e c:/program files/microchip/xc32/v4.60/bin/bin/../../lib/gcc/pic32c/8.3.1/../../../../pic32c/lib/thumb/v6-m/nofp\libc-musl.a(__init_stdio.o)
 .ARM.attributes
                0x00000000000011d4       0x2e c:/program files/microchip/xc32/v4.60/bin/bin/../../lib/gcc/pic32c/8.3.1/../../../../pic32c/lib/thumb/v6-m/nofp\libc-musl.a(__out.o)
 .ARM.attributes
                0x0000000000001202       0x2e c:/program files/microchip/xc32/v4.60/bin/bin/../../lib/gcc/pic32c/8.3.1/../../../../pic32c/lib/thumb/v6-m/nofp\libc-musl.a(__putc.o)
 .ARM.attributes
                0x0000000000001230       0x2e c:/program files/microchip/xc32/v4.60/bin/bin/../../lib/gcc/pic32c/8.3.1/../../../../pic32c/lib/thumb/v6-m/nofp\libc-musl.a(__stderr.o)
 .ARM.attributes
                0x000000000000125e       0x2e c:/program files/microchip/xc32/v4.60/bin/bin/../../lib/gcc/pic32c/8.3.1/../../../../pic32c/lib/thumb/v6-m/nofp\libc-musl.a(__stdio_close.o)
 .ARM.attributes
                0x000000000000128c       0x2e c:/program files/microchip/xc32/v4.60/bin/bin/../../lib/gcc/pic32c/8.3.1/../../../../pic32c/lib/thumb/v6-m/nofp\libc-musl.a(__stdio_write.o)
 .ARM.attributes
                0x00000000000012ba       0x2e c:/program files/microchip/xc32/v4.60/bin/bin/../../lib/gcc/pic32c/8.3.1/../../../../pic32c/lib/thumb/v6-m/nofp\libc-musl.a(__stdout.o)
 .ARM.attributes
                0x00000000000012e8       0x2e c:/program files/microchip/xc32/v4.60/bin/bin/../../lib/gcc/pic32c/8.3.1/../../../../pic32c/lib/thumb/v6-m/nofp\libc-musl.a(__towrite.o)
 .ARM.attributes
                0x0000000000001316       0x2e c:/program files/microchip/xc32/v4.60/bin/bin/../../lib/gcc/pic32c/8.3.1/../../../../pic32c/lib/thumb/v6-m/nofp\libc-musl.a(__month_to_secs.o)
 .ARM.attributes
                0x0000000000001344       0x2e c:/program files/microchip/xc32/v4.60/bin/bin/../../lib/gcc/pic32c/8.3.1/../../../../pic32c/lib/thumb/v6-m/nofp\libc-musl.a(writev.o)
 .ARM.attributes
                0x0000000000001372       0x2e c:/program files/microchip/xc32/v4.60/bin/bin/../../lib/gcc/pic32c/8.3.1/../../../../pic32c/lib/thumb/v6-m/nofp\libc-musl.a(__overflow.o)
 .ARM.attributes
                0x00000000000013a0       0x2e c:/program files/microchip/xc32/v4.60/bin/bin/../../lib/gcc/pic32c/8.3.1/../../../../pic32c/lib/thumb/v6-m/nofp\libc-musl.a(__fwrite.o)
 .ARM.attributes
                0x00000000000013ce       0x1e c:/program files/microchip/xc32/v4.60/bin/bin/../../lib/gcc/pic32c/8.3.1/thumb/v6-m/nofp\libgcc.a(_udivsi3.o)
 .ARM.attributes
                0x00000000000013ec       0x1e c:/program files/microchip/xc32/v4.60/bin/bin/../../lib/gcc/pic32c/8.3.1/thumb/v6-m/nofp\libgcc.a(_divsi3.o)
 .ARM.attributes
                0x000000000000140a       0x1e c:/program files/microchip/xc32/v4.60/bin/bin/../../lib/gcc/pic32c/8.3.1/thumb/v6-m/nofp\libgcc.a(_dvmd_tls.o)
 .ARM.attributes
                0x0000000000001428       0x1e c:/program files/microchip/xc32/v4.60/bin/bin/../../lib/gcc/pic32c/8.3.1/thumb/v6-m/nofp\libgcc.a(_aeabi_ldivmod.o)
 .ARM.attributes
                0x0000000000001446       0x1e c:/program files/microchip/xc32/v4.60/bin/bin/../../lib/gcc/pic32c/8.3.1/thumb/v6-m/nofp\libgcc.a(_aeabi_uldivmod.o)
 .ARM.attributes
                0x0000000000001464       0x2c c:/program files/microchip/xc32/v4.60/bin/bin/../../lib/gcc/pic32c/8.3.1/thumb/v6-m/nofp\libgcc.a(_muldi3.o)
 .ARM.attributes
                0x0000000000001490       0x2c c:/program files/microchip/xc32/v4.60/bin/bin/../../lib/gcc/pic32c/8.3.1/thumb/v6-m/nofp\libgcc.a(_udivmoddi4.o)
 .ARM.attributes
                0x00000000000014bc       0x2c c:/program files/microchip/xc32/v4.60/bin/bin/../../lib/gcc/pic32c/8.3.1/thumb/v6-m/nofp\libgcc.a(bpabi.o)
 .ARM.attributes
                0x00000000000014e8       0x1e c:/program files/microchip/xc32/v4.60/bin/bin/../../lib/gcc/pic32c/8.3.1/thumb/v6-m/nofp\libgcc.a(_lshrdi3.o)
 .ARM.attributes
                0x0000000000001506       0x1e c:/program files/microchip/xc32/v4.60/bin/bin/../../lib/gcc/pic32c/8.3.1/thumb/v6-m/nofp\libgcc.a(_ashldi3.o)
 .ARM.attributes
                0x0000000000001524       0x1e c:/program files/microchip/xc32/v4.60/bin/bin/../../lib/gcc/pic32c/8.3.1/thumb/v6-m/nofp\libgcc.a(_clzdi2.o)
 .ARM.attributes
                0x0000000000001542       0x2c c:/program files/microchip/xc32/v4.60/bin/bin/../../lib/gcc/pic32c/8.3.1/thumb/v6-m/nofp\libgcc.a(_divdi3.o)
 .ARM.attributes
                0x000000000000156e       0x1e c:/program files/microchip/xc32/v4.60/bin/bin/../../lib/gcc/pic32c/8.3.1/thumb/v6-m/nofp\libgcc.a(_clzsi2.o)
 .ARM.attributes
                0x000000000000158c       0x2c c:/program files/microchip/xc32/v4.60/bin/bin/../../lib/gcc/pic32c/8.3.1/../../../../pic32c/lib/thumb/v6-m/nofp\libpic32c.a(close.o)
 .ARM.attributes
                0x00000000000015b8       0x2c c:/program files/microchip/xc32/v4.60/bin/bin/../../lib/gcc/pic32c/8.3.1/../../../../pic32c/lib/thumb/v6-m/nofp\libpic32c.a(lseek.o)
 .ARM.attributes
                0x00000000000015e4       0x2c c:/program files/microchip/xc32/v4.60/bin/bin/../../lib/gcc/pic32c/8.3.1/../../../../pic32c/lib/thumb/v6-m/nofp\libpic32c.a(sbrk.o)
 .ARM.attributes
                0x0000000000001610       0x1e c:/program files/microchip/xc32/v4.60/bin/bin/../../lib/gcc/pic32c/8.3.1/thumb/v6-m/nofp/crtn.o
 .ARM.attributes
                0x000000000000162e       0x2c c:/program files/microchip/xc32/v4.60/bin/bin/../../lib/gcc/pic32c/8.3.1/../../../../pic32c/lib/thumb/v6-m/nofp\libpic32c.a(pic32_data_init_clear.o)
 .ARM.attributes
                0x000000000000165a       0x2c c:/program files/microchip/xc32/v4.60/bin/bin/../../lib/gcc/pic32c/8.3.1/../../../../pic32c/lib/thumb/v6-m/nofp\libpic32c.a(pic32_data_init_copy.o)

.comment        0x0000000000000000       0x2b
 .comment       0x0000000000000000       0x2b c:/program files/microchip/xc32/v4.60/bin/bin/../../lib/gcc/pic32c/8.3.1/thumb/v6-m/nofp/crtbegin.o
                                         0x2c (size before relaxing)
 .comment       0x000000000000002b       0x2c build/SAMD21_IOT_WG_ICM42688/production/_ext/2048461350/icm42688_sensor.o
 .comment       0x000000000000002b       0x2c build/SAMD21_IOT_WG_ICM42688/production/_ext/1660664302/drv_spi.o
 .comment       0x000000000000002b       0x2c build/SAMD21_IOT_WG_ICM42688/production/_ext/1164161090/wdrv_winc_gpio.o
 .comment       0x000000000000002b       0x2c build/SAMD21_IOT_WG_ICM42688/production/_ext/1164161090/wdrv_winc_eint.o
 .comment       0x000000000000002b       0x2c build/SAMD21_IOT_WG_ICM42688/production/_ext/101005277/wdrv_winc_spi.o
 .comment       0x000000000000002b       0x2c build/SAMD21_IOT_WG_ICM42688/production/_ext/90265895/nm_common.o
 .comment       0x000000000000002b       0x2c build/SAMD21_IOT_WG_ICM42688/production/_ext/121554788/m2m_ssl.o
 .comment       0x000000000000002b       0x2c build/SAMD21_IOT_WG_ICM42688/production/_ext/121554788/m2m_hif.o
 .comment       0x000000000000002b       0x2c build/SAMD21_IOT_WG_ICM42688/production/_ext/121554788/m2m_wifi.o
 .comment       0x000000000000002b       0x2c build/SAMD21_IOT_WG_ICM42688/production/_ext/121554788/nmspi.o
 .comment       0x000000000000002b       0x2c build/SAMD21_IOT_WG_ICM42688/production/_ext/121554788/nmdrv.o
 .comment       0x000000000000002b       0x2c build/SAMD21_IOT_WG_ICM42688/production/_ext/121554788/m2m_ota.o
 .comment       0x000000000000002b       0x2c build/SAMD21_IOT_WG_ICM42688/production/_ext/121554788/nmasic.o
 .comment       0x000000000000002b       0x2c build/SAMD21_IOT_WG_ICM42688/production/_ext/121554788/nmbus.o
 .comment       0x000000000000002b       0x2c build/SAMD21_IOT_WG_ICM42688/production/_ext/548032175/socket.o
 .comment       0x000000000000002b       0x2c build/SAMD21_IOT_WG_ICM42688/production/_ext/548032175/inet_addr.o
 .comment       0x000000000000002b       0x2c build/SAMD21_IOT_WG_ICM42688/production/_ext/548032175/inet_ntop.o
 .comment       0x000000000000002b       0x2c build/SAMD21_IOT_WG_ICM42688/production/_ext/609036575/flexible_flash.o
 .comment       0x000000000000002b       0x2c build/SAMD21_IOT_WG_ICM42688/production/_ext/609036575/spi_flash.o
 .comment       0x000000000000002b       0x2c build/SAMD21_IOT_WG_ICM42688/production/_ext/1784303044/wdrv_winc_osal.o
 .comment       0x000000000000002b       0x2c build/SAMD21_IOT_WG_ICM42688/production/_ext/907429946/wdrv_winc_sta.o
 .comment       0x000000000000002b       0x2c build/SAMD21_IOT_WG_ICM42688/production/_ext/907429946/wdrv_winc_socket.o
 .comment       0x000000000000002b       0x2c build/SAMD21_IOT_WG_ICM42688/production/_ext/907429946/wdrv_winc_systime.o
 .comment       0x000000000000002b       0x2c build/SAMD21_IOT_WG_ICM42688/production/_ext/907429946/wdrv_winc_authctx.o
 .comment       0x000000000000002b       0x2c build/SAMD21_IOT_WG_ICM42688/production/_ext/907429946/wdrv_winc_host_file.o
 .comment       0x000000000000002b       0x2c build/SAMD21_IOT_WG_ICM42688/production/_ext/907429946/wdrv_winc.o
 .comment       0x000000000000002b       0x2c build/SAMD21_IOT_WG_ICM42688/production/_ext/907429946/wdrv_winc_bssctx.o
 .comment       0x000000000000002b       0x2c build/SAMD21_IOT_WG_ICM42688/production/_ext/1750425231/plib_clock.o
 .comment       0x000000000000002b       0x2c build/SAMD21_IOT_WG_ICM42688/production/_ext/1580516298/plib_dmac.o
 .comment       0x000000000000002b       0x2c build/SAMD21_IOT_WG_ICM42688/production/_ext/503204096/plib_eic.o
 .comment       0x000000000000002b       0x2c build/SAMD21_IOT_WG_ICM42688/production/_ext/1580823105/plib_nvic.o
 .comment       0x000000000000002b       0x2c build/SAMD21_IOT_WG_ICM42688/production/_ext/11470383/plib_nvmctrl.o
 .comment       0x000000000000002b       0x2c build/SAMD21_IOT_WG_ICM42688/production/_ext/1580876256/plib_port.o
 .comment       0x000000000000002b       0x2c build/SAMD21_IOT_WG_ICM42688/production/_ext/1014017276/plib_sercom0_spi_master.o
 .comment       0x000000000000002b       0x2c build/SAMD21_IOT_WG_ICM42688/production/_ext/1014017276/plib_sercom2_spi_master.o
 .comment       0x000000000000002b       0x2c build/SAMD21_IOT_WG_ICM42688/production/_ext/177673482/plib_sercom5_usart.o
 .comment       0x000000000000002b       0x2c build/SAMD21_IOT_WG_ICM42688/production/_ext/223004715/plib_systick.o
 .comment       0x000000000000002b       0x2c build/SAMD21_IOT_WG_ICM42688/production/_ext/399410062/plib_tc3.o
 .comment       0x000000000000002b       0x2c build/SAMD21_IOT_WG_ICM42688/production/_ext/399410062/plib_tc4.o
 .comment       0x000000000000002b       0x2c build/SAMD21_IOT_WG_ICM42688/production/_ext/1357625803/xc32_monitor.o
 .comment       0x000000000000002b       0x2c build/SAMD21_IOT_WG_ICM42688/production/_ext/1584719636/sys_dma.o
 .comment       0x000000000000002b       0x2c build/SAMD21_IOT_WG_ICM42688/production/_ext/1318297016/sys_int.o
 .comment       0x000000000000002b       0x2c build/SAMD21_IOT_WG_ICM42688/production/_ext/386530258/sys_time.o
 .comment       0x000000000000002b       0x2c build/SAMD21_IOT_WG_ICM42688/production/_ext/1832905403/initialization.o
 .comment       0x000000000000002b       0x2c build/SAMD21_IOT_WG_ICM42688/production/_ext/1832905403/interrupts.o
 .comment       0x000000000000002b       0x2c build/SAMD21_IOT_WG_ICM42688/production/_ext/1832905403/exceptions.o
 .comment       0x000000000000002b       0x2c build/SAMD21_IOT_WG_ICM42688/production/_ext/1832905403/startup_xc32.o
 .comment       0x000000000000002b       0x2c build/SAMD21_IOT_WG_ICM42688/production/_ext/1832905403/tasks.o
 .comment       0x000000000000002b       0x2c build/SAMD21_IOT_WG_ICM42688/production/_ext/1341251756/Icm426xxDriver_HL.o
 .comment       0x000000000000002b       0x2c build/SAMD21_IOT_WG_ICM42688/production/_ext/1341251756/Icm426xxTransport.o
 .comment       0x000000000000002b       0x2c build/SAMD21_IOT_WG_ICM42688/production/_ext/1360937237/main.o
 .comment       0x000000000000002b       0x2c build/SAMD21_IOT_WG_ICM42688/production/_ext/1360937237/ringbuffer.o
 .comment       0x000000000000002b       0x2c build/SAMD21_IOT_WG_ICM42688/production/_ext/1360937237/app.o
 .comment       0x000000000000002b       0x2c build/SAMD21_IOT_WG_ICM42688/production/_ext/1360937237/winc1500_tcp_client.o
 .comment       0x000000000000002b       0x2c c:/program files/microchip/xc32/v4.60/bin/bin/../../lib/gcc/pic32c/8.3.1/../../../../pic32c/lib/thumb/v6-m/nofp\libpic32c.a(data_init.o)
 .comment       0x000000000000002b       0x2c c:/program files/microchip/xc32/v4.60/bin/bin/../../lib/gcc/pic32c/8.3.1/../../../../pic32c/lib/thumb/v6-m/nofp\libc-size-musl.a(memcpy.o)
 .comment       0x000000000000002b       0x2c c:/program files/microchip/xc32/v4.60/bin/bin/../../lib/gcc/pic32c/8.3.1/../../../../pic32c/lib/thumb/v6-m/nofp\libc-size-musl.a(memset.o)
 .comment       0x000000000000002b       0x2c c:/program files/microchip/xc32/v4.60/bin/bin/../../lib/gcc/pic32c/8.3.1/../../../../pic32c/lib/thumb/v6-m/nofp\libc-size-musl.a(strlen.o)
 .comment       0x000000000000002b       0x2c c:/program files/microchip/xc32/v4.60/bin/bin/../../lib/gcc/pic32c/8.3.1/../../../../pic32c/lib/thumb/v6-m/nofp\libc-size-musl.a(strchr.o)
 .comment       0x000000000000002b       0x2c c:/program files/microchip/xc32/v4.60/bin/bin/../../lib/gcc/pic32c/8.3.1/../../../../pic32c/lib/thumb/v6-m/nofp\libc-size-musl.a(strchrnul.o)
 .comment       0x000000000000002b       0x2c c:/program files/microchip/xc32/v4.60/bin/bin/../../lib/gcc/pic32c/8.3.1/../../../../pic32c/lib/thumb/v6-m/nofp\libc-size-musl.a(strnlen.o)
 .comment       0x000000000000002b       0x2c c:/program files/microchip/xc32/v4.60/bin/bin/../../lib/gcc/pic32c/8.3.1/../../../../pic32c/lib/thumb/v6-m/nofp\libc-size-musl.a(memchr.o)
 .comment       0x000000000000002b       0x2c c:/program files/microchip/xc32/v4.60/bin/bin/../../lib/gcc/pic32c/8.3.1/../../../../pic32c/lib/thumb/v6-m/nofp\liblmalloc-musl.a(lite_calloc.o)
 .comment       0x000000000000002b       0x2c c:/program files/microchip/xc32/v4.60/bin/bin/../../lib/gcc/pic32c/8.3.1/../../../../pic32c/lib/thumb/v6-m/nofp\liblmalloc-musl.a(lite_free.o)
 .comment       0x000000000000002b       0x2c c:/program files/microchip/xc32/v4.60/bin/bin/../../lib/gcc/pic32c/8.3.1/../../../../pic32c/lib/thumb/v6-m/nofp\liblmalloc-musl.a(lite_malloc.o)
 .comment       0x000000000000002b       0x2c c:/program files/microchip/xc32/v4.60/bin/bin/../../lib/gcc/pic32c/8.3.1/../../../../pic32c/lib/thumb/v6-m/nofp\libc-musl.a(__libc_start_main.o)
 .comment       0x000000000000002b       0x2c c:/program files/microchip/xc32/v4.60/bin/bin/../../lib/gcc/pic32c/8.3.1/../../../../pic32c/lib/thumb/v6-m/nofp\libc-musl.a(__errno_location.o)
 .comment       0x000000000000002b       0x2c c:/program files/microchip/xc32/v4.60/bin/bin/../../lib/gcc/pic32c/8.3.1/../../../../pic32c/lib/thumb/v6-m/nofp\libc-musl.a(libc.o)
 .comment       0x000000000000002b       0x2c c:/program files/microchip/xc32/v4.60/bin/bin/../../lib/gcc/pic32c/8.3.1/../../../../pic32c/lib/thumb/v6-m/nofp\libc-musl.a(expand_heap.o)
 .comment       0x000000000000002b       0x2c c:/program files/microchip/xc32/v4.60/bin/bin/../../lib/gcc/pic32c/8.3.1/../../../../pic32c/lib/thumb/v6-m/nofp\libc-musl.a(__sio_printf_cdnsu.o)
 .comment       0x000000000000002b       0x2c c:/program files/microchip/xc32/v4.60/bin/bin/../../lib/gcc/pic32c/8.3.1/../../../../pic32c/lib/thumb/v6-m/nofp\libc-musl.a(__fmt_d.o)
 .comment       0x000000000000002b       0x2c c:/program files/microchip/xc32/v4.60/bin/bin/../../lib/gcc/pic32c/8.3.1/../../../../pic32c/lib/thumb/v6-m/nofp\libc-musl.a(__fmt_s.o)
 .comment       0x000000000000002b       0x2c c:/program files/microchip/xc32/v4.60/bin/bin/../../lib/gcc/pic32c/8.3.1/../../../../pic32c/lib/thumb/v6-m/nofp\libc-musl.a(__fmt_u.o)
 .comment       0x000000000000002b       0x2c c:/program files/microchip/xc32/v4.60/bin/bin/../../lib/gcc/pic32c/8.3.1/../../../../pic32c/lib/thumb/v6-m/nofp\libc-musl.a(__pop_int.o)
 .comment       0x000000000000002b       0x2c c:/program files/microchip/xc32/v4.60/bin/bin/../../lib/gcc/pic32c/8.3.1/../../../../pic32c/lib/thumb/v6-m/nofp\libc-musl.a(__pop_ptr.o)
 .comment       0x000000000000002b       0x2c c:/program files/microchip/xc32/v4.60/bin/bin/../../lib/gcc/pic32c/8.3.1/../../../../pic32c/lib/thumb/v6-m/nofp\libc-musl.a(__printf_core.o)
 .comment       0x000000000000002b       0x2c c:/program files/microchip/xc32/v4.60/bin/bin/../../lib/gcc/pic32c/8.3.1/../../../../pic32c/lib/thumb/v6-m/nofp\libc-musl.a(stdin.o)
 .comment       0x000000000000002b       0x2c c:/program files/microchip/xc32/v4.60/bin/bin/../../lib/gcc/pic32c/8.3.1/../../../../pic32c/lib/thumb/v6-m/nofp\libc-musl.a(stdout.o)
 .comment       0x000000000000002b       0x2c c:/program files/microchip/xc32/v4.60/bin/bin/../../lib/gcc/pic32c/8.3.1/../../../../pic32c/lib/thumb/v6-m/nofp\libc-musl.a(puts.o)
 .comment       0x000000000000002b       0x2c c:/program files/microchip/xc32/v4.60/bin/bin/../../lib/gcc/pic32c/8.3.1/../../../../pic32c/lib/thumb/v6-m/nofp\libc-musl.a(setbuf.o)
 .comment       0x000000000000002b       0x2c c:/program files/microchip/xc32/v4.60/bin/bin/../../lib/gcc/pic32c/8.3.1/../../../../pic32c/lib/thumb/v6-m/nofp\libc-musl.a(atoi.o)
 .comment       0x000000000000002b       0x2c c:/program files/microchip/xc32/v4.60/bin/bin/../../lib/gcc/pic32c/8.3.1/../../../../pic32c/lib/thumb/v6-m/nofp\libc-musl.a(gmtime.o)
 .comment       0x000000000000002b       0x2c c:/program files/microchip/xc32/v4.60/bin/bin/../../lib/gcc/pic32c/8.3.1/../../../../pic32c/lib/thumb/v6-m/nofp\libc-musl.a(gmtime_r.o)
 .comment       0x000000000000002b       0x2c c:/program files/microchip/xc32/v4.60/bin/bin/../../lib/gcc/pic32c/8.3.1/../../../../pic32c/lib/thumb/v6-m/nofp\libc-musl.a(mktime.o)
 .comment       0x000000000000002b       0x2c c:/program files/microchip/xc32/v4.60/bin/bin/../../lib/gcc/pic32c/8.3.1/../../../../pic32c/lib/thumb/v6-m/nofp\libc-musl.a(tolower.o)
 .comment       0x000000000000002b       0x2c c:/program files/microchip/xc32/v4.60/bin/bin/../../lib/gcc/pic32c/8.3.1/../../../../pic32c/lib/thumb/v6-m/nofp\libc-musl.a(__environ.o)
 .comment       0x000000000000002b       0x2c c:/program files/microchip/xc32/v4.60/bin/bin/../../lib/gcc/pic32c/8.3.1/../../../../pic32c/lib/thumb/v6-m/nofp\libc-musl.a(__int_vfprintf.o)
 .comment       0x000000000000002b       0x2c c:/program files/microchip/xc32/v4.60/bin/bin/../../lib/gcc/pic32c/8.3.1/../../../../pic32c/lib/thumb/v6-m/nofp\libc-musl.a(fputs.o)
 .comment       0x000000000000002b       0x2c c:/program files/microchip/xc32/v4.60/bin/bin/../../lib/gcc/pic32c/8.3.1/../../../../pic32c/lib/thumb/v6-m/nofp\libc-musl.a(__cvt_u.o)
 .comment       0x000000000000002b       0x2c c:/program files/microchip/xc32/v4.60/bin/bin/../../lib/gcc/pic32c/8.3.1/../../../../pic32c/lib/thumb/v6-m/nofp\libc-musl.a(__pop_float.o)
 .comment       0x000000000000002b       0x2c c:/program files/microchip/xc32/v4.60/bin/bin/../../lib/gcc/pic32c/8.3.1/../../../../pic32c/lib/thumb/v6-m/nofp\libc-musl.a(__stdio_read.o)
 .comment       0x000000000000002b       0x2c c:/program files/microchip/xc32/v4.60/bin/bin/../../lib/gcc/pic32c/8.3.1/../../../../pic32c/lib/thumb/v6-m/nofp\libc-musl.a(__towrite_rw.o)
 .comment       0x000000000000002b       0x2c c:/program files/microchip/xc32/v4.60/bin/bin/../../lib/gcc/pic32c/8.3.1/../../../../pic32c/lib/thumb/v6-m/nofp\libc-musl.a(fwrite.o)
 .comment       0x000000000000002b       0x2c c:/program files/microchip/xc32/v4.60/bin/bin/../../lib/gcc/pic32c/8.3.1/../../../../pic32c/lib/thumb/v6-m/nofp\libc-musl.a(putc.o)
 .comment       0x000000000000002b       0x2c c:/program files/microchip/xc32/v4.60/bin/bin/../../lib/gcc/pic32c/8.3.1/../../../../pic32c/lib/thumb/v6-m/nofp\libc-musl.a(setvbuf.o)
 .comment       0x000000000000002b       0x2c c:/program files/microchip/xc32/v4.60/bin/bin/../../lib/gcc/pic32c/8.3.1/../../../../pic32c/lib/thumb/v6-m/nofp\libc-musl.a(__tm_to_secs.o)
 .comment       0x000000000000002b       0x2c c:/program files/microchip/xc32/v4.60/bin/bin/../../lib/gcc/pic32c/8.3.1/../../../../pic32c/lib/thumb/v6-m/nofp\libc-musl.a(__year_to_secs.o)
 .comment       0x000000000000002b       0x2c c:/program files/microchip/xc32/v4.60/bin/bin/../../lib/gcc/pic32c/8.3.1/../../../../pic32c/lib/thumb/v6-m/nofp\libc-musl.a(__secs_to_tm.o)
 .comment       0x000000000000002b       0x2c c:/program files/microchip/xc32/v4.60/bin/bin/../../lib/gcc/pic32c/8.3.1/../../../../pic32c/lib/thumb/v6-m/nofp\libc-musl.a(readv.o)
 .comment       0x000000000000002b       0x2c c:/program files/microchip/xc32/v4.60/bin/bin/../../lib/gcc/pic32c/8.3.1/../../../../pic32c/lib/thumb/v6-m/nofp\libc-musl.a(__init_stdio.o)
 .comment       0x000000000000002b       0x2c c:/program files/microchip/xc32/v4.60/bin/bin/../../lib/gcc/pic32c/8.3.1/../../../../pic32c/lib/thumb/v6-m/nofp\libc-musl.a(__out.o)
 .comment       0x000000000000002b       0x2c c:/program files/microchip/xc32/v4.60/bin/bin/../../lib/gcc/pic32c/8.3.1/../../../../pic32c/lib/thumb/v6-m/nofp\libc-musl.a(__putc.o)
 .comment       0x000000000000002b       0x2c c:/program files/microchip/xc32/v4.60/bin/bin/../../lib/gcc/pic32c/8.3.1/../../../../pic32c/lib/thumb/v6-m/nofp\libc-musl.a(__stderr.o)
 .comment       0x000000000000002b       0x2c c:/program files/microchip/xc32/v4.60/bin/bin/../../lib/gcc/pic32c/8.3.1/../../../../pic32c/lib/thumb/v6-m/nofp\libc-musl.a(__stdio_close.o)
 .comment       0x000000000000002b       0x2c c:/program files/microchip/xc32/v4.60/bin/bin/../../lib/gcc/pic32c/8.3.1/../../../../pic32c/lib/thumb/v6-m/nofp\libc-musl.a(__stdio_write.o)
 .comment       0x000000000000002b       0x2c c:/program files/microchip/xc32/v4.60/bin/bin/../../lib/gcc/pic32c/8.3.1/../../../../pic32c/lib/thumb/v6-m/nofp\libc-musl.a(__stdout.o)
 .comment       0x000000000000002b       0x2c c:/program files/microchip/xc32/v4.60/bin/bin/../../lib/gcc/pic32c/8.3.1/../../../../pic32c/lib/thumb/v6-m/nofp\libc-musl.a(__towrite.o)
 .comment       0x000000000000002b       0x2c c:/program files/microchip/xc32/v4.60/bin/bin/../../lib/gcc/pic32c/8.3.1/../../../../pic32c/lib/thumb/v6-m/nofp\libc-musl.a(__month_to_secs.o)
 .comment       0x000000000000002b       0x2c c:/program files/microchip/xc32/v4.60/bin/bin/../../lib/gcc/pic32c/8.3.1/../../../../pic32c/lib/thumb/v6-m/nofp\libc-musl.a(writev.o)
 .comment       0x000000000000002b       0x2c c:/program files/microchip/xc32/v4.60/bin/bin/../../lib/gcc/pic32c/8.3.1/../../../../pic32c/lib/thumb/v6-m/nofp\libc-musl.a(__overflow.o)
 .comment       0x000000000000002b       0x2c c:/program files/microchip/xc32/v4.60/bin/bin/../../lib/gcc/pic32c/8.3.1/../../../../pic32c/lib/thumb/v6-m/nofp\libc-musl.a(__fwrite.o)
 .comment       0x000000000000002b       0x2c c:/program files/microchip/xc32/v4.60/bin/bin/../../lib/gcc/pic32c/8.3.1/thumb/v6-m/nofp\libgcc.a(_muldi3.o)
 .comment       0x000000000000002b       0x2c c:/program files/microchip/xc32/v4.60/bin/bin/../../lib/gcc/pic32c/8.3.1/thumb/v6-m/nofp\libgcc.a(_udivmoddi4.o)
 .comment       0x000000000000002b       0x2c c:/program files/microchip/xc32/v4.60/bin/bin/../../lib/gcc/pic32c/8.3.1/thumb/v6-m/nofp\libgcc.a(bpabi.o)
 .comment       0x000000000000002b       0x2c c:/program files/microchip/xc32/v4.60/bin/bin/../../lib/gcc/pic32c/8.3.1/thumb/v6-m/nofp\libgcc.a(_divdi3.o)
 .comment       0x000000000000002b       0x2c c:/program files/microchip/xc32/v4.60/bin/bin/../../lib/gcc/pic32c/8.3.1/../../../../pic32c/lib/thumb/v6-m/nofp\libpic32c.a(close.o)
 .comment       0x000000000000002b       0x2c c:/program files/microchip/xc32/v4.60/bin/bin/../../lib/gcc/pic32c/8.3.1/../../../../pic32c/lib/thumb/v6-m/nofp\libpic32c.a(lseek.o)
 .comment       0x000000000000002b       0x2c c:/program files/microchip/xc32/v4.60/bin/bin/../../lib/gcc/pic32c/8.3.1/../../../../pic32c/lib/thumb/v6-m/nofp\libpic32c.a(sbrk.o)
 .comment       0x000000000000002b       0x2c c:/program files/microchip/xc32/v4.60/bin/bin/../../lib/gcc/pic32c/8.3.1/../../../../pic32c/lib/thumb/v6-m/nofp\libpic32c.a(pic32_data_init_clear.o)
 .comment       0x000000000000002b       0x2c c:/program files/microchip/xc32/v4.60/bin/bin/../../lib/gcc/pic32c/8.3.1/../../../../pic32c/lib/thumb/v6-m/nofp\libpic32c.a(pic32_data_init_copy.o)

.debug_info     0x0000000000000000    0x3f379
 .debug_info    0x0000000000000000      0xe24 build/SAMD21_IOT_WG_ICM42688/production/_ext/2048461350/icm42688_sensor.o
 .debug_info    0x0000000000000e24     0x2c77 build/SAMD21_IOT_WG_ICM42688/production/_ext/1660664302/drv_spi.o
 .debug_info    0x0000000000003a9b      0x2ac build/SAMD21_IOT_WG_ICM42688/production/_ext/1164161090/wdrv_winc_gpio.o
 .debug_info    0x0000000000003d47      0x17a build/SAMD21_IOT_WG_ICM42688/production/_ext/1164161090/wdrv_winc_eint.o
 .debug_info    0x0000000000003ec1      0xf98 build/SAMD21_IOT_WG_ICM42688/production/_ext/101005277/wdrv_winc_spi.o
 .debug_info    0x0000000000004e59      0x210 build/SAMD21_IOT_WG_ICM42688/production/_ext/90265895/nm_common.o
 .debug_info    0x0000000000005069      0xdfd build/SAMD21_IOT_WG_ICM42688/production/_ext/121554788/m2m_ssl.o
 .debug_info    0x0000000000005e66     0x1333 build/SAMD21_IOT_WG_ICM42688/production/_ext/121554788/m2m_hif.o
 .debug_info    0x0000000000007199     0x55b0 build/SAMD21_IOT_WG_ICM42688/production/_ext/121554788/m2m_wifi.o
 .debug_info    0x000000000000c749     0x18ce build/SAMD21_IOT_WG_ICM42688/production/_ext/121554788/nmspi.o
 .debug_info    0x000000000000e017      0x904 build/SAMD21_IOT_WG_ICM42688/production/_ext/121554788/nmdrv.o
 .debug_info    0x000000000000e91b     0x144b build/SAMD21_IOT_WG_ICM42688/production/_ext/121554788/m2m_ota.o
 .debug_info    0x000000000000fd66     0x1121 build/SAMD21_IOT_WG_ICM42688/production/_ext/121554788/nmasic.o
 .debug_info    0x0000000000010e87      0x6d7 build/SAMD21_IOT_WG_ICM42688/production/_ext/121554788/nmbus.o
 .debug_info    0x000000000001155e     0x2662 build/SAMD21_IOT_WG_ICM42688/production/_ext/548032175/socket.o
 .debug_info    0x0000000000013bc0      0x14f build/SAMD21_IOT_WG_ICM42688/production/_ext/548032175/inet_addr.o
 .debug_info    0x0000000000013d0f      0x1dd build/SAMD21_IOT_WG_ICM42688/production/_ext/548032175/inet_ntop.o
 .debug_info    0x0000000000013eec      0x1e6 build/SAMD21_IOT_WG_ICM42688/production/_ext/609036575/flexible_flash.o
 .debug_info    0x00000000000140d2     0x12b9 build/SAMD21_IOT_WG_ICM42688/production/_ext/609036575/spi_flash.o
 .debug_info    0x000000000001538b      0x148 build/SAMD21_IOT_WG_ICM42688/production/_ext/1784303044/wdrv_winc_osal.o
 .debug_info    0x00000000000154d3     0x1916 build/SAMD21_IOT_WG_ICM42688/production/_ext/907429946/wdrv_winc_sta.o
 .debug_info    0x0000000000016de9     0x1c03 build/SAMD21_IOT_WG_ICM42688/production/_ext/907429946/wdrv_winc_socket.o
 .debug_info    0x00000000000189ec     0x154a build/SAMD21_IOT_WG_ICM42688/production/_ext/907429946/wdrv_winc_systime.o
 .debug_info    0x0000000000019f36      0xc2e build/SAMD21_IOT_WG_ICM42688/production/_ext/907429946/wdrv_winc_authctx.o
 .debug_info    0x000000000001ab64     0x2649 build/SAMD21_IOT_WG_ICM42688/production/_ext/907429946/wdrv_winc_host_file.o
 .debug_info    0x000000000001d1ad     0x49d4 build/SAMD21_IOT_WG_ICM42688/production/_ext/907429946/wdrv_winc.o
 .debug_info    0x0000000000021b81      0x677 build/SAMD21_IOT_WG_ICM42688/production/_ext/907429946/wdrv_winc_bssctx.o
 .debug_info    0x00000000000221f8      0x5b8 build/SAMD21_IOT_WG_ICM42688/production/_ext/1750425231/plib_clock.o
 .debug_info    0x00000000000227b0      0xc0f build/SAMD21_IOT_WG_ICM42688/production/_ext/1580516298/plib_dmac.o
 .debug_info    0x00000000000233bf      0x34d build/SAMD21_IOT_WG_ICM42688/production/_ext/503204096/plib_eic.o
 .debug_info    0x000000000002370c      0xb78 build/SAMD21_IOT_WG_ICM42688/production/_ext/1580823105/plib_nvic.o
 .debug_info    0x0000000000024284      0x59c build/SAMD21_IOT_WG_ICM42688/production/_ext/11470383/plib_nvmctrl.o
 .debug_info    0x0000000000024820      0x6a0 build/SAMD21_IOT_WG_ICM42688/production/_ext/1580876256/plib_port.o
 .debug_info    0x0000000000024ec0      0xe88 build/SAMD21_IOT_WG_ICM42688/production/_ext/1014017276/plib_sercom0_spi_master.o
 .debug_info    0x0000000000025d48      0xf98 build/SAMD21_IOT_WG_ICM42688/production/_ext/1014017276/plib_sercom2_spi_master.o
 .debug_info    0x0000000000026ce0      0xf59 build/SAMD21_IOT_WG_ICM42688/production/_ext/177673482/plib_sercom5_usart.o
 .debug_info    0x0000000000027c39      0x336 build/SAMD21_IOT_WG_ICM42688/production/_ext/223004715/plib_systick.o
 .debug_info    0x0000000000027f6f      0x770 build/SAMD21_IOT_WG_ICM42688/production/_ext/399410062/plib_tc3.o
 .debug_info    0x00000000000286df      0x799 build/SAMD21_IOT_WG_ICM42688/production/_ext/399410062/plib_tc4.o
 .debug_info    0x0000000000028e78      0x1e4 build/SAMD21_IOT_WG_ICM42688/production/_ext/1357625803/xc32_monitor.o
 .debug_info    0x000000000002905c      0x2e6 build/SAMD21_IOT_WG_ICM42688/production/_ext/1584719636/sys_dma.o
 .debug_info    0x0000000000029342      0x556 build/SAMD21_IOT_WG_ICM42688/production/_ext/1318297016/sys_int.o
 .debug_info    0x0000000000029898     0x2299 build/SAMD21_IOT_WG_ICM42688/production/_ext/386530258/sys_time.o
 .debug_info    0x000000000002bb31     0x1a6a build/SAMD21_IOT_WG_ICM42688/production/_ext/1832905403/initialization.o
 .debug_info    0x000000000002d59b      0x3e1 build/SAMD21_IOT_WG_ICM42688/production/_ext/1832905403/interrupts.o
 .debug_info    0x000000000002d97c       0xb6 build/SAMD21_IOT_WG_ICM42688/production/_ext/1832905403/exceptions.o
 .debug_info    0x000000000002da32      0x205 build/SAMD21_IOT_WG_ICM42688/production/_ext/1832905403/startup_xc32.o
 .debug_info    0x000000000002dc37      0x13c build/SAMD21_IOT_WG_ICM42688/production/_ext/1832905403/tasks.o
 .debug_info    0x000000000002dd73     0x529a build/SAMD21_IOT_WG_ICM42688/production/_ext/1341251756/Icm426xxDriver_HL.o
 .debug_info    0x000000000003300d      0x6c6 build/SAMD21_IOT_WG_ICM42688/production/_ext/1341251756/Icm426xxTransport.o
 .debug_info    0x00000000000336d3     0x1acb build/SAMD21_IOT_WG_ICM42688/production/_ext/1360937237/main.o
 .debug_info    0x000000000003519e      0x878 build/SAMD21_IOT_WG_ICM42688/production/_ext/1360937237/ringbuffer.o
 .debug_info    0x0000000000035a16      0x3e9 build/SAMD21_IOT_WG_ICM42688/production/_ext/1360937237/app.o
 .debug_info    0x0000000000035dff      0xf10 build/SAMD21_IOT_WG_ICM42688/production/_ext/1360937237/winc1500_tcp_client.o
 .debug_info    0x0000000000036d0f       0x68 c:/program files/microchip/xc32/v4.60/bin/bin/../../lib/gcc/pic32c/8.3.1/../../../../pic32c/lib/thumb/v6-m/nofp\libpic32c.a(data_init.o)
 .debug_info    0x0000000000036d77       0xed c:/program files/microchip/xc32/v4.60/bin/bin/../../lib/gcc/pic32c/8.3.1/../../../../pic32c/lib/thumb/v6-m/nofp\libc-size-musl.a(memcpy.o)
 .debug_info    0x0000000000036e64       0xbb c:/program files/microchip/xc32/v4.60/bin/bin/../../lib/gcc/pic32c/8.3.1/../../../../pic32c/lib/thumb/v6-m/nofp\libc-size-musl.a(memset.o)
 .debug_info    0x0000000000036f1f       0xa4 c:/program files/microchip/xc32/v4.60/bin/bin/../../lib/gcc/pic32c/8.3.1/../../../../pic32c/lib/thumb/v6-m/nofp\libc-size-musl.a(strlen.o)
 .debug_info    0x0000000000036fc3       0xd2 c:/program files/microchip/xc32/v4.60/bin/bin/../../lib/gcc/pic32c/8.3.1/../../../../pic32c/lib/thumb/v6-m/nofp\libc-size-musl.a(strchr.o)
 .debug_info    0x0000000000037095      0x133 c:/program files/microchip/xc32/v4.60/bin/bin/../../lib/gcc/pic32c/8.3.1/../../../../pic32c/lib/thumb/v6-m/nofp\libc-size-musl.a(strchrnul.o)
 .debug_info    0x00000000000371c8       0xd5 c:/program files/microchip/xc32/v4.60/bin/bin/../../lib/gcc/pic32c/8.3.1/../../../../pic32c/lib/thumb/v6-m/nofp\libc-size-musl.a(strnlen.o)
 .debug_info    0x000000000003729d       0xe5 c:/program files/microchip/xc32/v4.60/bin/bin/../../lib/gcc/pic32c/8.3.1/../../../../pic32c/lib/thumb/v6-m/nofp\libc-size-musl.a(memchr.o)
 .debug_info    0x0000000000037382      0x133 c:/program files/microchip/xc32/v4.60/bin/bin/../../lib/gcc/pic32c/8.3.1/../../../../pic32c/lib/thumb/v6-m/nofp\liblmalloc-musl.a(lite_calloc.o)
 .debug_info    0x00000000000374b5      0x272 c:/program files/microchip/xc32/v4.60/bin/bin/../../lib/gcc/pic32c/8.3.1/../../../../pic32c/lib/thumb/v6-m/nofp\liblmalloc-musl.a(lite_free.o)
 .debug_info    0x0000000000037727      0x1bd c:/program files/microchip/xc32/v4.60/bin/bin/../../lib/gcc/pic32c/8.3.1/../../../../pic32c/lib/thumb/v6-m/nofp\liblmalloc-musl.a(lite_malloc.o)
 .debug_info    0x00000000000378e4      0x2fb c:/program files/microchip/xc32/v4.60/bin/bin/../../lib/gcc/pic32c/8.3.1/../../../../pic32c/lib/thumb/v6-m/nofp\libc-musl.a(__libc_start_main.o)
 .debug_info    0x0000000000037bdf       0x5b c:/program files/microchip/xc32/v4.60/bin/bin/../../lib/gcc/pic32c/8.3.1/../../../../pic32c/lib/thumb/v6-m/nofp\libc-musl.a(__errno_location.o)
 .debug_info    0x0000000000037c3a      0x276 c:/program files/microchip/xc32/v4.60/bin/bin/../../lib/gcc/pic32c/8.3.1/../../../../pic32c/lib/thumb/v6-m/nofp\libc-musl.a(libc.o)
 .debug_info    0x0000000000037eb0      0x10e c:/program files/microchip/xc32/v4.60/bin/bin/../../lib/gcc/pic32c/8.3.1/../../../../pic32c/lib/thumb/v6-m/nofp\libc-musl.a(expand_heap.o)
 .debug_info    0x0000000000037fbe      0x1e8 c:/program files/microchip/xc32/v4.60/bin/bin/../../lib/gcc/pic32c/8.3.1/../../../../pic32c/lib/thumb/v6-m/nofp\libc-musl.a(__sio_printf_cdnsu.o)
 .debug_info    0x00000000000381a6      0x330 c:/program files/microchip/xc32/v4.60/bin/bin/../../lib/gcc/pic32c/8.3.1/../../../../pic32c/lib/thumb/v6-m/nofp\libc-musl.a(__fmt_d.o)
 .debug_info    0x00000000000384d6      0x2e9 c:/program files/microchip/xc32/v4.60/bin/bin/../../lib/gcc/pic32c/8.3.1/../../../../pic32c/lib/thumb/v6-m/nofp\libc-musl.a(__fmt_s.o)
 .debug_info    0x00000000000387bf      0x301 c:/program files/microchip/xc32/v4.60/bin/bin/../../lib/gcc/pic32c/8.3.1/../../../../pic32c/lib/thumb/v6-m/nofp\libc-musl.a(__fmt_u.o)
 .debug_info    0x0000000000038ac0      0x183 c:/program files/microchip/xc32/v4.60/bin/bin/../../lib/gcc/pic32c/8.3.1/../../../../pic32c/lib/thumb/v6-m/nofp\libc-musl.a(__pop_int.o)
 .debug_info    0x0000000000038c43      0x18d c:/program files/microchip/xc32/v4.60/bin/bin/../../lib/gcc/pic32c/8.3.1/../../../../pic32c/lib/thumb/v6-m/nofp\libc-musl.a(__pop_ptr.o)
 .debug_info    0x0000000000038dd0      0xa6f c:/program files/microchip/xc32/v4.60/bin/bin/../../lib/gcc/pic32c/8.3.1/../../../../pic32c/lib/thumb/v6-m/nofp\libc-musl.a(__printf_core.o)
 .debug_info    0x000000000003983f      0x404 c:/program files/microchip/xc32/v4.60/bin/bin/../../lib/gcc/pic32c/8.3.1/../../../../pic32c/lib/thumb/v6-m/nofp\libc-musl.a(stdin.o)
 .debug_info    0x0000000000039c43      0x1e9 c:/program files/microchip/xc32/v4.60/bin/bin/../../lib/gcc/pic32c/8.3.1/../../../../pic32c/lib/thumb/v6-m/nofp\libc-musl.a(stdout.o)
 .debug_info    0x0000000000039e2c      0x3ac c:/program files/microchip/xc32/v4.60/bin/bin/../../lib/gcc/pic32c/8.3.1/../../../../pic32c/lib/thumb/v6-m/nofp\libc-musl.a(puts.o)
 .debug_info    0x000000000003a1d8       0xe6 c:/program files/microchip/xc32/v4.60/bin/bin/../../lib/gcc/pic32c/8.3.1/../../../../pic32c/lib/thumb/v6-m/nofp\libc-musl.a(setbuf.o)
 .debug_info    0x000000000003a2be       0xf4 c:/program files/microchip/xc32/v4.60/bin/bin/../../lib/gcc/pic32c/8.3.1/../../../../pic32c/lib/thumb/v6-m/nofp\libc-musl.a(atoi.o)
 .debug_info    0x000000000003a3b2      0x199 c:/program files/microchip/xc32/v4.60/bin/bin/../../lib/gcc/pic32c/8.3.1/../../../../pic32c/lib/thumb/v6-m/nofp\libc-musl.a(gmtime.o)
 .debug_info    0x000000000003a54b      0x1a6 c:/program files/microchip/xc32/v4.60/bin/bin/../../lib/gcc/pic32c/8.3.1/../../../../pic32c/lib/thumb/v6-m/nofp\libc-musl.a(gmtime_r.o)
 .debug_info    0x000000000003a6f1      0x205 c:/program files/microchip/xc32/v4.60/bin/bin/../../lib/gcc/pic32c/8.3.1/../../../../pic32c/lib/thumb/v6-m/nofp\libc-musl.a(mktime.o)
 .debug_info    0x000000000003a8f6      0x131 c:/program files/microchip/xc32/v4.60/bin/bin/../../lib/gcc/pic32c/8.3.1/../../../../pic32c/lib/thumb/v6-m/nofp\libc-musl.a(tolower.o)
 .debug_info    0x000000000003aa27       0x97 c:/program files/microchip/xc32/v4.60/bin/bin/../../lib/gcc/pic32c/8.3.1/../../../../pic32c/lib/thumb/v6-m/nofp\libc-musl.a(__environ.o)
 .debug_info    0x000000000003aabe      0x1ff c:/program files/microchip/xc32/v4.60/bin/bin/../../lib/gcc/pic32c/8.3.1/../../../../pic32c/lib/thumb/v6-m/nofp\libc-musl.a(__int_vfprintf.o)
 .debug_info    0x000000000003acbd      0x3b6 c:/program files/microchip/xc32/v4.60/bin/bin/../../lib/gcc/pic32c/8.3.1/../../../../pic32c/lib/thumb/v6-m/nofp\libc-musl.a(fputs.o)
 .debug_info    0x000000000003b073      0x1cf c:/program files/microchip/xc32/v4.60/bin/bin/../../lib/gcc/pic32c/8.3.1/../../../../pic32c/lib/thumb/v6-m/nofp\libc-musl.a(__cvt_u.o)
 .debug_info    0x000000000003b242      0x162 c:/program files/microchip/xc32/v4.60/bin/bin/../../lib/gcc/pic32c/8.3.1/../../../../pic32c/lib/thumb/v6-m/nofp\libc-musl.a(__pop_float.o)
 .debug_info    0x000000000003b3a4      0x3ef c:/program files/microchip/xc32/v4.60/bin/bin/../../lib/gcc/pic32c/8.3.1/../../../../pic32c/lib/thumb/v6-m/nofp\libc-musl.a(__stdio_read.o)
 .debug_info    0x000000000003b793      0x331 c:/program files/microchip/xc32/v4.60/bin/bin/../../lib/gcc/pic32c/8.3.1/../../../../pic32c/lib/thumb/v6-m/nofp\libc-musl.a(__towrite_rw.o)
 .debug_info    0x000000000003bac4      0x257 c:/program files/microchip/xc32/v4.60/bin/bin/../../lib/gcc/pic32c/8.3.1/../../../../pic32c/lib/thumb/v6-m/nofp\libc-musl.a(fwrite.o)
 .debug_info    0x000000000003bd1b      0x224 c:/program files/microchip/xc32/v4.60/bin/bin/../../lib/gcc/pic32c/8.3.1/../../../../pic32c/lib/thumb/v6-m/nofp\libc-musl.a(putc.o)
 .debug_info    0x000000000003bf3f      0x2bd c:/program files/microchip/xc32/v4.60/bin/bin/../../lib/gcc/pic32c/8.3.1/../../../../pic32c/lib/thumb/v6-m/nofp\libc-musl.a(setvbuf.o)
 .debug_info    0x000000000003c1fc      0x201 c:/program files/microchip/xc32/v4.60/bin/bin/../../lib/gcc/pic32c/8.3.1/../../../../pic32c/lib/thumb/v6-m/nofp\libc-musl.a(__tm_to_secs.o)
 .debug_info    0x000000000003c3fd      0x109 c:/program files/microchip/xc32/v4.60/bin/bin/../../lib/gcc/pic32c/8.3.1/../../../../pic32c/lib/thumb/v6-m/nofp\libc-musl.a(__year_to_secs.o)
 .debug_info    0x000000000003c506      0x295 c:/program files/microchip/xc32/v4.60/bin/bin/../../lib/gcc/pic32c/8.3.1/../../../../pic32c/lib/thumb/v6-m/nofp\libc-musl.a(__secs_to_tm.o)
 .debug_info    0x000000000003c79b      0x146 c:/program files/microchip/xc32/v4.60/bin/bin/../../lib/gcc/pic32c/8.3.1/../../../../pic32c/lib/thumb/v6-m/nofp\libc-musl.a(readv.o)
 .debug_info    0x000000000003c8e1       0xc3 c:/program files/microchip/xc32/v4.60/bin/bin/../../lib/gcc/pic32c/8.3.1/../../../../pic32c/lib/thumb/v6-m/nofp\libc-musl.a(__init_stdio.o)
 .debug_info    0x000000000003c9a4      0x2ba c:/program files/microchip/xc32/v4.60/bin/bin/../../lib/gcc/pic32c/8.3.1/../../../../pic32c/lib/thumb/v6-m/nofp\libc-musl.a(__out.o)
 .debug_info    0x000000000003cc5e      0x28d c:/program files/microchip/xc32/v4.60/bin/bin/../../lib/gcc/pic32c/8.3.1/../../../../pic32c/lib/thumb/v6-m/nofp\libc-musl.a(__putc.o)
 .debug_info    0x000000000003ceeb      0x3a9 c:/program files/microchip/xc32/v4.60/bin/bin/../../lib/gcc/pic32c/8.3.1/../../../../pic32c/lib/thumb/v6-m/nofp\libc-musl.a(__stderr.o)
 .debug_info    0x000000000003d294      0x3fd c:/program files/microchip/xc32/v4.60/bin/bin/../../lib/gcc/pic32c/8.3.1/../../../../pic32c/lib/thumb/v6-m/nofp\libc-musl.a(__stdio_close.o)
 .debug_info    0x000000000003d691      0x43e c:/program files/microchip/xc32/v4.60/bin/bin/../../lib/gcc/pic32c/8.3.1/../../../../pic32c/lib/thumb/v6-m/nofp\libc-musl.a(__stdio_write.o)
 .debug_info    0x000000000003dacf      0x3a9 c:/program files/microchip/xc32/v4.60/bin/bin/../../lib/gcc/pic32c/8.3.1/../../../../pic32c/lib/thumb/v6-m/nofp\libc-musl.a(__stdout.o)
 .debug_info    0x000000000003de78      0x275 c:/program files/microchip/xc32/v4.60/bin/bin/../../lib/gcc/pic32c/8.3.1/../../../../pic32c/lib/thumb/v6-m/nofp\libc-musl.a(__towrite.o)
 .debug_info    0x000000000003e0ed       0xbe c:/program files/microchip/xc32/v4.60/bin/bin/../../lib/gcc/pic32c/8.3.1/../../../../pic32c/lib/thumb/v6-m/nofp\libc-musl.a(__month_to_secs.o)
 .debug_info    0x000000000003e1ab      0x146 c:/program files/microchip/xc32/v4.60/bin/bin/../../lib/gcc/pic32c/8.3.1/../../../../pic32c/lib/thumb/v6-m/nofp\libc-musl.a(writev.o)
 .debug_info    0x000000000003e2f1      0x388 c:/program files/microchip/xc32/v4.60/bin/bin/../../lib/gcc/pic32c/8.3.1/../../../../pic32c/lib/thumb/v6-m/nofp\libc-musl.a(__overflow.o)
 .debug_info    0x000000000003e679      0x2b7 c:/program files/microchip/xc32/v4.60/bin/bin/../../lib/gcc/pic32c/8.3.1/../../../../pic32c/lib/thumb/v6-m/nofp\libc-musl.a(__fwrite.o)
 .debug_info    0x000000000003e930       0x26 c:/program files/microchip/xc32/v4.60/bin/bin/../../lib/gcc/pic32c/8.3.1/thumb/v6-m/nofp\libgcc.a(_udivsi3.o)
 .debug_info    0x000000000003e956       0x26 c:/program files/microchip/xc32/v4.60/bin/bin/../../lib/gcc/pic32c/8.3.1/thumb/v6-m/nofp\libgcc.a(_divsi3.o)
 .debug_info    0x000000000003e97c       0x26 c:/program files/microchip/xc32/v4.60/bin/bin/../../lib/gcc/pic32c/8.3.1/thumb/v6-m/nofp\libgcc.a(_dvmd_tls.o)
 .debug_info    0x000000000003e9a2       0x26 c:/program files/microchip/xc32/v4.60/bin/bin/../../lib/gcc/pic32c/8.3.1/thumb/v6-m/nofp\libgcc.a(_aeabi_ldivmod.o)
 .debug_info    0x000000000003e9c8       0x26 c:/program files/microchip/xc32/v4.60/bin/bin/../../lib/gcc/pic32c/8.3.1/thumb/v6-m/nofp\libgcc.a(_aeabi_uldivmod.o)
 .debug_info    0x000000000003e9ee      0x243 c:/program files/microchip/xc32/v4.60/bin/bin/../../lib/gcc/pic32c/8.3.1/thumb/v6-m/nofp\libgcc.a(_muldi3.o)
 .debug_info    0x000000000003ec31      0x193 c:/program files/microchip/xc32/v4.60/bin/bin/../../lib/gcc/pic32c/8.3.1/thumb/v6-m/nofp\libgcc.a(_udivmoddi4.o)
 .debug_info    0x000000000003edc4       0xd5 c:/program files/microchip/xc32/v4.60/bin/bin/../../lib/gcc/pic32c/8.3.1/thumb/v6-m/nofp\libgcc.a(bpabi.o)
 .debug_info    0x000000000003ee99       0x26 c:/program files/microchip/xc32/v4.60/bin/bin/../../lib/gcc/pic32c/8.3.1/thumb/v6-m/nofp\libgcc.a(_lshrdi3.o)
 .debug_info    0x000000000003eebf       0x26 c:/program files/microchip/xc32/v4.60/bin/bin/../../lib/gcc/pic32c/8.3.1/thumb/v6-m/nofp\libgcc.a(_ashldi3.o)
 .debug_info    0x000000000003eee5       0x26 c:/program files/microchip/xc32/v4.60/bin/bin/../../lib/gcc/pic32c/8.3.1/thumb/v6-m/nofp\libgcc.a(_clzdi2.o)
 .debug_info    0x000000000003ef0b      0x2e1 c:/program files/microchip/xc32/v4.60/bin/bin/../../lib/gcc/pic32c/8.3.1/thumb/v6-m/nofp\libgcc.a(_divdi3.o)
 .debug_info    0x000000000003f1ec       0x26 c:/program files/microchip/xc32/v4.60/bin/bin/../../lib/gcc/pic32c/8.3.1/thumb/v6-m/nofp\libgcc.a(_clzsi2.o)
 .debug_info    0x000000000003f212       0x3f c:/program files/microchip/xc32/v4.60/bin/bin/../../lib/gcc/pic32c/8.3.1/../../../../pic32c/lib/thumb/v6-m/nofp\libpic32c.a(close.o)
 .debug_info    0x000000000003f251       0x3f c:/program files/microchip/xc32/v4.60/bin/bin/../../lib/gcc/pic32c/8.3.1/../../../../pic32c/lib/thumb/v6-m/nofp\libpic32c.a(lseek.o)
 .debug_info    0x000000000003f290       0x6a c:/program files/microchip/xc32/v4.60/bin/bin/../../lib/gcc/pic32c/8.3.1/../../../../pic32c/lib/thumb/v6-m/nofp\libpic32c.a(sbrk.o)
 .debug_info    0x000000000003f2fa       0x3f c:/program files/microchip/xc32/v4.60/bin/bin/../../lib/gcc/pic32c/8.3.1/../../../../pic32c/lib/thumb/v6-m/nofp\libpic32c.a(pic32_data_init_clear.o)
 .debug_info    0x000000000003f339       0x40 c:/program files/microchip/xc32/v4.60/bin/bin/../../lib/gcc/pic32c/8.3.1/../../../../pic32c/lib/thumb/v6-m/nofp\libpic32c.a(pic32_data_init_copy.o)

.debug_abbrev   0x0000000000000000     0xc3eb
 .debug_abbrev  0x0000000000000000      0x2a3 build/SAMD21_IOT_WG_ICM42688/production/_ext/2048461350/icm42688_sensor.o
 .debug_abbrev  0x00000000000002a3      0x50e build/SAMD21_IOT_WG_ICM42688/production/_ext/1660664302/drv_spi.o
 .debug_abbrev  0x00000000000007b1       0xb1 build/SAMD21_IOT_WG_ICM42688/production/_ext/1164161090/wdrv_winc_gpio.o
 .debug_abbrev  0x0000000000000862       0xa1 build/SAMD21_IOT_WG_ICM42688/production/_ext/1164161090/wdrv_winc_eint.o
 .debug_abbrev  0x0000000000000903      0x2cc build/SAMD21_IOT_WG_ICM42688/production/_ext/101005277/wdrv_winc_spi.o
 .debug_abbrev  0x0000000000000bcf       0xf9 build/SAMD21_IOT_WG_ICM42688/production/_ext/90265895/nm_common.o
 .debug_abbrev  0x0000000000000cc8      0x323 build/SAMD21_IOT_WG_ICM42688/production/_ext/121554788/m2m_ssl.o
 .debug_abbrev  0x0000000000000feb      0x522 build/SAMD21_IOT_WG_ICM42688/production/_ext/121554788/m2m_hif.o
 .debug_abbrev  0x000000000000150d      0x49b build/SAMD21_IOT_WG_ICM42688/production/_ext/121554788/m2m_wifi.o
 .debug_abbrev  0x00000000000019a8      0x400 build/SAMD21_IOT_WG_ICM42688/production/_ext/121554788/nmspi.o
 .debug_abbrev  0x0000000000001da8      0x268 build/SAMD21_IOT_WG_ICM42688/production/_ext/121554788/nmdrv.o
 .debug_abbrev  0x0000000000002010      0x2bd build/SAMD21_IOT_WG_ICM42688/production/_ext/121554788/m2m_ota.o
 .debug_abbrev  0x00000000000022cd      0x2ab build/SAMD21_IOT_WG_ICM42688/production/_ext/121554788/nmasic.o
 .debug_abbrev  0x0000000000002578      0x23d build/SAMD21_IOT_WG_ICM42688/production/_ext/121554788/nmbus.o
 .debug_abbrev  0x00000000000027b5      0x43a build/SAMD21_IOT_WG_ICM42688/production/_ext/548032175/socket.o
 .debug_abbrev  0x0000000000002bef       0x9c build/SAMD21_IOT_WG_ICM42688/production/_ext/548032175/inet_addr.o
 .debug_abbrev  0x0000000000002c8b       0xd9 build/SAMD21_IOT_WG_ICM42688/production/_ext/548032175/inet_ntop.o
 .debug_abbrev  0x0000000000002d64       0xfd build/SAMD21_IOT_WG_ICM42688/production/_ext/609036575/flexible_flash.o
 .debug_abbrev  0x0000000000002e61      0x2fa build/SAMD21_IOT_WG_ICM42688/production/_ext/609036575/spi_flash.o
 .debug_abbrev  0x000000000000315b       0xdd build/SAMD21_IOT_WG_ICM42688/production/_ext/1784303044/wdrv_winc_osal.o
 .debug_abbrev  0x0000000000003238      0x32f build/SAMD21_IOT_WG_ICM42688/production/_ext/907429946/wdrv_winc_sta.o
 .debug_abbrev  0x0000000000003567      0x386 build/SAMD21_IOT_WG_ICM42688/production/_ext/907429946/wdrv_winc_socket.o
 .debug_abbrev  0x00000000000038ed      0x28e build/SAMD21_IOT_WG_ICM42688/production/_ext/907429946/wdrv_winc_systime.o
 .debug_abbrev  0x0000000000003b7b      0x275 build/SAMD21_IOT_WG_ICM42688/production/_ext/907429946/wdrv_winc_authctx.o
 .debug_abbrev  0x0000000000003df0      0x3d2 build/SAMD21_IOT_WG_ICM42688/production/_ext/907429946/wdrv_winc_host_file.o
 .debug_abbrev  0x00000000000041c2      0x513 build/SAMD21_IOT_WG_ICM42688/production/_ext/907429946/wdrv_winc.o
 .debug_abbrev  0x00000000000046d5      0x24f build/SAMD21_IOT_WG_ICM42688/production/_ext/907429946/wdrv_winc_bssctx.o
 .debug_abbrev  0x0000000000004924      0x14a build/SAMD21_IOT_WG_ICM42688/production/_ext/1750425231/plib_clock.o
 .debug_abbrev  0x0000000000004a6e      0x2ff build/SAMD21_IOT_WG_ICM42688/production/_ext/1580516298/plib_dmac.o
 .debug_abbrev  0x0000000000004d6d      0x19b build/SAMD21_IOT_WG_ICM42688/production/_ext/503204096/plib_eic.o
 .debug_abbrev  0x0000000000004f08      0x307 build/SAMD21_IOT_WG_ICM42688/production/_ext/1580823105/plib_nvic.o
 .debug_abbrev  0x000000000000520f      0x1a4 build/SAMD21_IOT_WG_ICM42688/production/_ext/11470383/plib_nvmctrl.o
 .debug_abbrev  0x00000000000053b3      0x1f9 build/SAMD21_IOT_WG_ICM42688/production/_ext/1580876256/plib_port.o
 .debug_abbrev  0x00000000000055ac      0x25a build/SAMD21_IOT_WG_ICM42688/production/_ext/1014017276/plib_sercom0_spi_master.o
 .debug_abbrev  0x0000000000005806      0x2fe build/SAMD21_IOT_WG_ICM42688/production/_ext/1014017276/plib_sercom2_spi_master.o
 .debug_abbrev  0x0000000000005b04      0x2fa build/SAMD21_IOT_WG_ICM42688/production/_ext/177673482/plib_sercom5_usart.o
 .debug_abbrev  0x0000000000005dfe      0x10e build/SAMD21_IOT_WG_ICM42688/production/_ext/223004715/plib_systick.o
 .debug_abbrev  0x0000000000005f0c      0x1bc build/SAMD21_IOT_WG_ICM42688/production/_ext/399410062/plib_tc3.o
 .debug_abbrev  0x00000000000060c8      0x1bc build/SAMD21_IOT_WG_ICM42688/production/_ext/399410062/plib_tc4.o
 .debug_abbrev  0x0000000000006284       0xe3 build/SAMD21_IOT_WG_ICM42688/production/_ext/1357625803/xc32_monitor.o
 .debug_abbrev  0x0000000000006367       0xfb build/SAMD21_IOT_WG_ICM42688/production/_ext/1584719636/sys_dma.o
 .debug_abbrev  0x0000000000006462      0x260 build/SAMD21_IOT_WG_ICM42688/production/_ext/1318297016/sys_int.o
 .debug_abbrev  0x00000000000066c2      0x565 build/SAMD21_IOT_WG_ICM42688/production/_ext/386530258/sys_time.o
 .debug_abbrev  0x0000000000006c27      0x294 build/SAMD21_IOT_WG_ICM42688/production/_ext/1832905403/initialization.o
 .debug_abbrev  0x0000000000006ebb       0xe3 build/SAMD21_IOT_WG_ICM42688/production/_ext/1832905403/interrupts.o
 .debug_abbrev  0x0000000000006f9e       0x47 build/SAMD21_IOT_WG_ICM42688/production/_ext/1832905403/exceptions.o
 .debug_abbrev  0x0000000000006fe5      0x118 build/SAMD21_IOT_WG_ICM42688/production/_ext/1832905403/startup_xc32.o
 .debug_abbrev  0x00000000000070fd       0xbb build/SAMD21_IOT_WG_ICM42688/production/_ext/1832905403/tasks.o
 .debug_abbrev  0x00000000000071b8      0x47c build/SAMD21_IOT_WG_ICM42688/production/_ext/1341251756/Icm426xxDriver_HL.o
 .debug_abbrev  0x0000000000007634      0x23d build/SAMD21_IOT_WG_ICM42688/production/_ext/1341251756/Icm426xxTransport.o
 .debug_abbrev  0x0000000000007871      0x422 build/SAMD21_IOT_WG_ICM42688/production/_ext/1360937237/main.o
 .debug_abbrev  0x0000000000007c93      0x213 build/SAMD21_IOT_WG_ICM42688/production/_ext/1360937237/ringbuffer.o
 .debug_abbrev  0x0000000000007ea6      0x159 build/SAMD21_IOT_WG_ICM42688/production/_ext/1360937237/app.o
 .debug_abbrev  0x0000000000007fff      0x36a build/SAMD21_IOT_WG_ICM42688/production/_ext/1360937237/winc1500_tcp_client.o
 .debug_abbrev  0x0000000000008369       0x44 c:/program files/microchip/xc32/v4.60/bin/bin/../../lib/gcc/pic32c/8.3.1/../../../../pic32c/lib/thumb/v6-m/nofp\libpic32c.a(data_init.o)
 .debug_abbrev  0x00000000000083ad       0xbb c:/program files/microchip/xc32/v4.60/bin/bin/../../lib/gcc/pic32c/8.3.1/../../../../pic32c/lib/thumb/v6-m/nofp\libc-size-musl.a(memcpy.o)
 .debug_abbrev  0x0000000000008468       0xa2 c:/program files/microchip/xc32/v4.60/bin/bin/../../lib/gcc/pic32c/8.3.1/../../../../pic32c/lib/thumb/v6-m/nofp\libc-size-musl.a(memset.o)
 .debug_abbrev  0x000000000000850a       0x91 c:/program files/microchip/xc32/v4.60/bin/bin/../../lib/gcc/pic32c/8.3.1/../../../../pic32c/lib/thumb/v6-m/nofp\libc-size-musl.a(strlen.o)
 .debug_abbrev  0x000000000000859b       0xad c:/program files/microchip/xc32/v4.60/bin/bin/../../lib/gcc/pic32c/8.3.1/../../../../pic32c/lib/thumb/v6-m/nofp\libc-size-musl.a(strchr.o)
 .debug_abbrev  0x0000000000008648       0xbc c:/program files/microchip/xc32/v4.60/bin/bin/../../lib/gcc/pic32c/8.3.1/../../../../pic32c/lib/thumb/v6-m/nofp\libc-size-musl.a(strchrnul.o)
 .debug_abbrev  0x0000000000008704       0xb1 c:/program files/microchip/xc32/v4.60/bin/bin/../../lib/gcc/pic32c/8.3.1/../../../../pic32c/lib/thumb/v6-m/nofp\libc-size-musl.a(strnlen.o)
 .debug_abbrev  0x00000000000087b5       0xb1 c:/program files/microchip/xc32/v4.60/bin/bin/../../lib/gcc/pic32c/8.3.1/../../../../pic32c/lib/thumb/v6-m/nofp\libc-size-musl.a(memchr.o)
 .debug_abbrev  0x0000000000008866       0xc0 c:/program files/microchip/xc32/v4.60/bin/bin/../../lib/gcc/pic32c/8.3.1/../../../../pic32c/lib/thumb/v6-m/nofp\liblmalloc-musl.a(lite_calloc.o)
 .debug_abbrev  0x0000000000008926      0x18b c:/program files/microchip/xc32/v4.60/bin/bin/../../lib/gcc/pic32c/8.3.1/../../../../pic32c/lib/thumb/v6-m/nofp\liblmalloc-musl.a(lite_free.o)
 .debug_abbrev  0x0000000000008ab1      0x117 c:/program files/microchip/xc32/v4.60/bin/bin/../../lib/gcc/pic32c/8.3.1/../../../../pic32c/lib/thumb/v6-m/nofp\liblmalloc-musl.a(lite_malloc.o)
 .debug_abbrev  0x0000000000008bc8      0x133 c:/program files/microchip/xc32/v4.60/bin/bin/../../lib/gcc/pic32c/8.3.1/../../../../pic32c/lib/thumb/v6-m/nofp\libc-musl.a(__libc_start_main.o)
 .debug_abbrev  0x0000000000008cfb       0x39 c:/program files/microchip/xc32/v4.60/bin/bin/../../lib/gcc/pic32c/8.3.1/../../../../pic32c/lib/thumb/v6-m/nofp\libc-musl.a(__errno_location.o)
 .debug_abbrev  0x0000000000008d34       0xd4 c:/program files/microchip/xc32/v4.60/bin/bin/../../lib/gcc/pic32c/8.3.1/../../../../pic32c/lib/thumb/v6-m/nofp\libc-musl.a(libc.o)
 .debug_abbrev  0x0000000000008e08       0xc4 c:/program files/microchip/xc32/v4.60/bin/bin/../../lib/gcc/pic32c/8.3.1/../../../../pic32c/lib/thumb/v6-m/nofp\libc-musl.a(expand_heap.o)
 .debug_abbrev  0x0000000000008ecc      0x142 c:/program files/microchip/xc32/v4.60/bin/bin/../../lib/gcc/pic32c/8.3.1/../../../../pic32c/lib/thumb/v6-m/nofp\libc-musl.a(__sio_printf_cdnsu.o)
 .debug_abbrev  0x000000000000900e      0x161 c:/program files/microchip/xc32/v4.60/bin/bin/../../lib/gcc/pic32c/8.3.1/../../../../pic32c/lib/thumb/v6-m/nofp\libc-musl.a(__fmt_d.o)
 .debug_abbrev  0x000000000000916f      0x15e c:/program files/microchip/xc32/v4.60/bin/bin/../../lib/gcc/pic32c/8.3.1/../../../../pic32c/lib/thumb/v6-m/nofp\libc-musl.a(__fmt_s.o)
 .debug_abbrev  0x00000000000092cd      0x161 c:/program files/microchip/xc32/v4.60/bin/bin/../../lib/gcc/pic32c/8.3.1/../../../../pic32c/lib/thumb/v6-m/nofp\libc-musl.a(__fmt_u.o)
 .debug_abbrev  0x000000000000942e       0xdc c:/program files/microchip/xc32/v4.60/bin/bin/../../lib/gcc/pic32c/8.3.1/../../../../pic32c/lib/thumb/v6-m/nofp\libc-musl.a(__pop_int.o)
 .debug_abbrev  0x000000000000950a       0xdc c:/program files/microchip/xc32/v4.60/bin/bin/../../lib/gcc/pic32c/8.3.1/../../../../pic32c/lib/thumb/v6-m/nofp\libc-musl.a(__pop_ptr.o)
 .debug_abbrev  0x00000000000095e6      0x317 c:/program files/microchip/xc32/v4.60/bin/bin/../../lib/gcc/pic32c/8.3.1/../../../../pic32c/lib/thumb/v6-m/nofp\libc-musl.a(__printf_core.o)
 .debug_abbrev  0x00000000000098fd      0x1b3 c:/program files/microchip/xc32/v4.60/bin/bin/../../lib/gcc/pic32c/8.3.1/../../../../pic32c/lib/thumb/v6-m/nofp\libc-musl.a(stdin.o)
 .debug_abbrev  0x0000000000009ab0      0x145 c:/program files/microchip/xc32/v4.60/bin/bin/../../lib/gcc/pic32c/8.3.1/../../../../pic32c/lib/thumb/v6-m/nofp\libc-musl.a(stdout.o)
 .debug_abbrev  0x0000000000009bf5      0x159 c:/program files/microchip/xc32/v4.60/bin/bin/../../lib/gcc/pic32c/8.3.1/../../../../pic32c/lib/thumb/v6-m/nofp\libc-musl.a(puts.o)
 .debug_abbrev  0x0000000000009d4e       0xa8 c:/program files/microchip/xc32/v4.60/bin/bin/../../lib/gcc/pic32c/8.3.1/../../../../pic32c/lib/thumb/v6-m/nofp\libc-musl.a(setbuf.o)
 .debug_abbrev  0x0000000000009df6       0xc6 c:/program files/microchip/xc32/v4.60/bin/bin/../../lib/gcc/pic32c/8.3.1/../../../../pic32c/lib/thumb/v6-m/nofp\libc-musl.a(atoi.o)
 .debug_abbrev  0x0000000000009ebc       0xdb c:/program files/microchip/xc32/v4.60/bin/bin/../../lib/gcc/pic32c/8.3.1/../../../../pic32c/lib/thumb/v6-m/nofp\libc-musl.a(gmtime.o)
 .debug_abbrev  0x0000000000009f97       0xdd c:/program files/microchip/xc32/v4.60/bin/bin/../../lib/gcc/pic32c/8.3.1/../../../../pic32c/lib/thumb/v6-m/nofp\libc-musl.a(gmtime_r.o)
 .debug_abbrev  0x000000000000a074      0x130 c:/program files/microchip/xc32/v4.60/bin/bin/../../lib/gcc/pic32c/8.3.1/../../../../pic32c/lib/thumb/v6-m/nofp\libc-musl.a(mktime.o)
 .debug_abbrev  0x000000000000a1a4       0xf4 c:/program files/microchip/xc32/v4.60/bin/bin/../../lib/gcc/pic32c/8.3.1/../../../../pic32c/lib/thumb/v6-m/nofp\libc-musl.a(tolower.o)
 .debug_abbrev  0x000000000000a298       0x62 c:/program files/microchip/xc32/v4.60/bin/bin/../../lib/gcc/pic32c/8.3.1/../../../../pic32c/lib/thumb/v6-m/nofp\libc-musl.a(__environ.o)
 .debug_abbrev  0x000000000000a2fa      0x132 c:/program files/microchip/xc32/v4.60/bin/bin/../../lib/gcc/pic32c/8.3.1/../../../../pic32c/lib/thumb/v6-m/nofp\libc-musl.a(__int_vfprintf.o)
 .debug_abbrev  0x000000000000a42c      0x146 c:/program files/microchip/xc32/v4.60/bin/bin/../../lib/gcc/pic32c/8.3.1/../../../../pic32c/lib/thumb/v6-m/nofp\libc-musl.a(fputs.o)
 .debug_abbrev  0x000000000000a572       0xf3 c:/program files/microchip/xc32/v4.60/bin/bin/../../lib/gcc/pic32c/8.3.1/../../../../pic32c/lib/thumb/v6-m/nofp\libc-musl.a(__cvt_u.o)
 .debug_abbrev  0x000000000000a665       0xdc c:/program files/microchip/xc32/v4.60/bin/bin/../../lib/gcc/pic32c/8.3.1/../../../../pic32c/lib/thumb/v6-m/nofp\libc-musl.a(__pop_float.o)
 .debug_abbrev  0x000000000000a741      0x16c c:/program files/microchip/xc32/v4.60/bin/bin/../../lib/gcc/pic32c/8.3.1/../../../../pic32c/lib/thumb/v6-m/nofp\libc-musl.a(__stdio_read.o)
 .debug_abbrev  0x000000000000a8ad       0xf8 c:/program files/microchip/xc32/v4.60/bin/bin/../../lib/gcc/pic32c/8.3.1/../../../../pic32c/lib/thumb/v6-m/nofp\libc-musl.a(__towrite_rw.o)
 .debug_abbrev  0x000000000000a9a5      0x13c c:/program files/microchip/xc32/v4.60/bin/bin/../../lib/gcc/pic32c/8.3.1/../../../../pic32c/lib/thumb/v6-m/nofp\libc-musl.a(fwrite.o)
 .debug_abbrev  0x000000000000aae1      0x122 c:/program files/microchip/xc32/v4.60/bin/bin/../../lib/gcc/pic32c/8.3.1/../../../../pic32c/lib/thumb/v6-m/nofp\libc-musl.a(putc.o)
 .debug_abbrev  0x000000000000ac03      0x135 c:/program files/microchip/xc32/v4.60/bin/bin/../../lib/gcc/pic32c/8.3.1/../../../../pic32c/lib/thumb/v6-m/nofp\libc-musl.a(setvbuf.o)
 .debug_abbrev  0x000000000000ad38      0x10c c:/program files/microchip/xc32/v4.60/bin/bin/../../lib/gcc/pic32c/8.3.1/../../../../pic32c/lib/thumb/v6-m/nofp\libc-musl.a(__tm_to_secs.o)
 .debug_abbrev  0x000000000000ae44       0x96 c:/program files/microchip/xc32/v4.60/bin/bin/../../lib/gcc/pic32c/8.3.1/../../../../pic32c/lib/thumb/v6-m/nofp\libc-musl.a(__year_to_secs.o)
 .debug_abbrev  0x000000000000aeda       0xc7 c:/program files/microchip/xc32/v4.60/bin/bin/../../lib/gcc/pic32c/8.3.1/../../../../pic32c/lib/thumb/v6-m/nofp\libc-musl.a(__secs_to_tm.o)
 .debug_abbrev  0x000000000000afa1       0xf7 c:/program files/microchip/xc32/v4.60/bin/bin/../../lib/gcc/pic32c/8.3.1/../../../../pic32c/lib/thumb/v6-m/nofp\libc-musl.a(readv.o)
 .debug_abbrev  0x000000000000b098       0x65 c:/program files/microchip/xc32/v4.60/bin/bin/../../lib/gcc/pic32c/8.3.1/../../../../pic32c/lib/thumb/v6-m/nofp\libc-musl.a(__init_stdio.o)
 .debug_abbrev  0x000000000000b0fd      0x177 c:/program files/microchip/xc32/v4.60/bin/bin/../../lib/gcc/pic32c/8.3.1/../../../../pic32c/lib/thumb/v6-m/nofp\libc-musl.a(__out.o)
 .debug_abbrev  0x000000000000b274      0x109 c:/program files/microchip/xc32/v4.60/bin/bin/../../lib/gcc/pic32c/8.3.1/../../../../pic32c/lib/thumb/v6-m/nofp\libc-musl.a(__putc.o)
 .debug_abbrev  0x000000000000b37d      0x17e c:/program files/microchip/xc32/v4.60/bin/bin/../../lib/gcc/pic32c/8.3.1/../../../../pic32c/lib/thumb/v6-m/nofp\libc-musl.a(__stderr.o)
 .debug_abbrev  0x000000000000b4fb      0x14f c:/program files/microchip/xc32/v4.60/bin/bin/../../lib/gcc/pic32c/8.3.1/../../../../pic32c/lib/thumb/v6-m/nofp\libc-musl.a(__stdio_close.o)
 .debug_abbrev  0x000000000000b64a      0x1bd c:/program files/microchip/xc32/v4.60/bin/bin/../../lib/gcc/pic32c/8.3.1/../../../../pic32c/lib/thumb/v6-m/nofp\libc-musl.a(__stdio_write.o)
 .debug_abbrev  0x000000000000b807      0x17e c:/program files/microchip/xc32/v4.60/bin/bin/../../lib/gcc/pic32c/8.3.1/../../../../pic32c/lib/thumb/v6-m/nofp\libc-musl.a(__stdout.o)
 .debug_abbrev  0x000000000000b985      0x114 c:/program files/microchip/xc32/v4.60/bin/bin/../../lib/gcc/pic32c/8.3.1/../../../../pic32c/lib/thumb/v6-m/nofp\libc-musl.a(__towrite.o)
 .debug_abbrev  0x000000000000ba99       0xad c:/program files/microchip/xc32/v4.60/bin/bin/../../lib/gcc/pic32c/8.3.1/../../../../pic32c/lib/thumb/v6-m/nofp\libc-musl.a(__month_to_secs.o)
 .debug_abbrev  0x000000000000bb46       0xf7 c:/program files/microchip/xc32/v4.60/bin/bin/../../lib/gcc/pic32c/8.3.1/../../../../pic32c/lib/thumb/v6-m/nofp\libc-musl.a(writev.o)
 .debug_abbrev  0x000000000000bc3d      0x141 c:/program files/microchip/xc32/v4.60/bin/bin/../../lib/gcc/pic32c/8.3.1/../../../../pic32c/lib/thumb/v6-m/nofp\libc-musl.a(__overflow.o)
 .debug_abbrev  0x000000000000bd7e      0x121 c:/program files/microchip/xc32/v4.60/bin/bin/../../lib/gcc/pic32c/8.3.1/../../../../pic32c/lib/thumb/v6-m/nofp\libc-musl.a(__fwrite.o)
 .debug_abbrev  0x000000000000be9f       0x14 c:/program files/microchip/xc32/v4.60/bin/bin/../../lib/gcc/pic32c/8.3.1/thumb/v6-m/nofp\libgcc.a(_udivsi3.o)
 .debug_abbrev  0x000000000000beb3       0x14 c:/program files/microchip/xc32/v4.60/bin/bin/../../lib/gcc/pic32c/8.3.1/thumb/v6-m/nofp\libgcc.a(_divsi3.o)
 .debug_abbrev  0x000000000000bec7       0x14 c:/program files/microchip/xc32/v4.60/bin/bin/../../lib/gcc/pic32c/8.3.1/thumb/v6-m/nofp\libgcc.a(_dvmd_tls.o)
 .debug_abbrev  0x000000000000bedb       0x14 c:/program files/microchip/xc32/v4.60/bin/bin/../../lib/gcc/pic32c/8.3.1/thumb/v6-m/nofp\libgcc.a(_aeabi_ldivmod.o)
 .debug_abbrev  0x000000000000beef       0x14 c:/program files/microchip/xc32/v4.60/bin/bin/../../lib/gcc/pic32c/8.3.1/thumb/v6-m/nofp\libgcc.a(_aeabi_uldivmod.o)
 .debug_abbrev  0x000000000000bf03      0x10b c:/program files/microchip/xc32/v4.60/bin/bin/../../lib/gcc/pic32c/8.3.1/thumb/v6-m/nofp\libgcc.a(_muldi3.o)
 .debug_abbrev  0x000000000000c00e       0x99 c:/program files/microchip/xc32/v4.60/bin/bin/../../lib/gcc/pic32c/8.3.1/thumb/v6-m/nofp\libgcc.a(_udivmoddi4.o)
 .debug_abbrev  0x000000000000c0a7       0xaa c:/program files/microchip/xc32/v4.60/bin/bin/../../lib/gcc/pic32c/8.3.1/thumb/v6-m/nofp\libgcc.a(bpabi.o)
 .debug_abbrev  0x000000000000c151       0x14 c:/program files/microchip/xc32/v4.60/bin/bin/../../lib/gcc/pic32c/8.3.1/thumb/v6-m/nofp\libgcc.a(_lshrdi3.o)
 .debug_abbrev  0x000000000000c165       0x14 c:/program files/microchip/xc32/v4.60/bin/bin/../../lib/gcc/pic32c/8.3.1/thumb/v6-m/nofp\libgcc.a(_ashldi3.o)
 .debug_abbrev  0x000000000000c179       0x14 c:/program files/microchip/xc32/v4.60/bin/bin/../../lib/gcc/pic32c/8.3.1/thumb/v6-m/nofp\libgcc.a(_clzdi2.o)
 .debug_abbrev  0x000000000000c18d      0x14e c:/program files/microchip/xc32/v4.60/bin/bin/../../lib/gcc/pic32c/8.3.1/thumb/v6-m/nofp\libgcc.a(_divdi3.o)
 .debug_abbrev  0x000000000000c2db       0x14 c:/program files/microchip/xc32/v4.60/bin/bin/../../lib/gcc/pic32c/8.3.1/thumb/v6-m/nofp\libgcc.a(_clzsi2.o)
 .debug_abbrev  0x000000000000c2ef       0x2e c:/program files/microchip/xc32/v4.60/bin/bin/../../lib/gcc/pic32c/8.3.1/../../../../pic32c/lib/thumb/v6-m/nofp\libpic32c.a(close.o)
 .debug_abbrev  0x000000000000c31d       0x2e c:/program files/microchip/xc32/v4.60/bin/bin/../../lib/gcc/pic32c/8.3.1/../../../../pic32c/lib/thumb/v6-m/nofp\libpic32c.a(lseek.o)
 .debug_abbrev  0x000000000000c34b       0x44 c:/program files/microchip/xc32/v4.60/bin/bin/../../lib/gcc/pic32c/8.3.1/../../../../pic32c/lib/thumb/v6-m/nofp\libpic32c.a(sbrk.o)
 .debug_abbrev  0x000000000000c38f       0x2e c:/program files/microchip/xc32/v4.60/bin/bin/../../lib/gcc/pic32c/8.3.1/../../../../pic32c/lib/thumb/v6-m/nofp\libpic32c.a(pic32_data_init_clear.o)
 .debug_abbrev  0x000000000000c3bd       0x2e c:/program files/microchip/xc32/v4.60/bin/bin/../../lib/gcc/pic32c/8.3.1/../../../../pic32c/lib/thumb/v6-m/nofp\libpic32c.a(pic32_data_init_copy.o)

.debug_loc      0x0000000000000000    0x27fac
 .debug_loc     0x0000000000000000      0x44d build/SAMD21_IOT_WG_ICM42688/production/_ext/2048461350/icm42688_sensor.o
 .debug_loc     0x000000000000044d     0x257f build/SAMD21_IOT_WG_ICM42688/production/_ext/1660664302/drv_spi.o
 .debug_loc     0x00000000000029cc       0xbc build/SAMD21_IOT_WG_ICM42688/production/_ext/1164161090/wdrv_winc_eint.o
 .debug_loc     0x0000000000002a88      0x733 build/SAMD21_IOT_WG_ICM42688/production/_ext/101005277/wdrv_winc_spi.o
 .debug_loc     0x00000000000031bb       0xa8 build/SAMD21_IOT_WG_ICM42688/production/_ext/90265895/nm_common.o
 .debug_loc     0x0000000000003263      0xbd4 build/SAMD21_IOT_WG_ICM42688/production/_ext/121554788/m2m_ssl.o
 .debug_loc     0x0000000000003e37      0xc5c build/SAMD21_IOT_WG_ICM42688/production/_ext/121554788/m2m_hif.o
 .debug_loc     0x0000000000004a93     0x3dba build/SAMD21_IOT_WG_ICM42688/production/_ext/121554788/m2m_wifi.o
 .debug_loc     0x000000000000884d     0x1a6c build/SAMD21_IOT_WG_ICM42688/production/_ext/121554788/nmspi.o
 .debug_loc     0x000000000000a2b9      0x7f5 build/SAMD21_IOT_WG_ICM42688/production/_ext/121554788/nmdrv.o
 .debug_loc     0x000000000000aaae      0xf00 build/SAMD21_IOT_WG_ICM42688/production/_ext/121554788/m2m_ota.o
 .debug_loc     0x000000000000b9ae      0xd2c build/SAMD21_IOT_WG_ICM42688/production/_ext/121554788/nmasic.o
 .debug_loc     0x000000000000c6da      0x5fa build/SAMD21_IOT_WG_ICM42688/production/_ext/121554788/nmbus.o
 .debug_loc     0x000000000000ccd4     0x222c build/SAMD21_IOT_WG_ICM42688/production/_ext/548032175/socket.o
 .debug_loc     0x000000000000ef00      0x1da build/SAMD21_IOT_WG_ICM42688/production/_ext/548032175/inet_addr.o
 .debug_loc     0x000000000000f0da      0x2cb build/SAMD21_IOT_WG_ICM42688/production/_ext/548032175/inet_ntop.o
 .debug_loc     0x000000000000f3a5      0x27a build/SAMD21_IOT_WG_ICM42688/production/_ext/609036575/flexible_flash.o
 .debug_loc     0x000000000000f61f      0xfb3 build/SAMD21_IOT_WG_ICM42688/production/_ext/609036575/spi_flash.o
 .debug_loc     0x00000000000105d2       0x51 build/SAMD21_IOT_WG_ICM42688/production/_ext/1784303044/wdrv_winc_osal.o
 .debug_loc     0x0000000000010623      0x8a6 build/SAMD21_IOT_WG_ICM42688/production/_ext/907429946/wdrv_winc_sta.o
 .debug_loc     0x0000000000010ec9     0x1540 build/SAMD21_IOT_WG_ICM42688/production/_ext/907429946/wdrv_winc_socket.o
 .debug_loc     0x0000000000012409      0x558 build/SAMD21_IOT_WG_ICM42688/production/_ext/907429946/wdrv_winc_systime.o
 .debug_loc     0x0000000000012961      0xd6b build/SAMD21_IOT_WG_ICM42688/production/_ext/907429946/wdrv_winc_authctx.o
 .debug_loc     0x00000000000136cc     0x18d5 build/SAMD21_IOT_WG_ICM42688/production/_ext/907429946/wdrv_winc_host_file.o
 .debug_loc     0x0000000000014fa1     0x2840 build/SAMD21_IOT_WG_ICM42688/production/_ext/907429946/wdrv_winc.o
 .debug_loc     0x00000000000177e1      0x597 build/SAMD21_IOT_WG_ICM42688/production/_ext/907429946/wdrv_winc_bssctx.o
 .debug_loc     0x0000000000017d78       0x4c build/SAMD21_IOT_WG_ICM42688/production/_ext/1750425231/plib_clock.o
 .debug_loc     0x0000000000017dc4      0xb06 build/SAMD21_IOT_WG_ICM42688/production/_ext/1580516298/plib_dmac.o
 .debug_loc     0x00000000000188ca       0xc1 build/SAMD21_IOT_WG_ICM42688/production/_ext/503204096/plib_eic.o
 .debug_loc     0x000000000001898b      0x405 build/SAMD21_IOT_WG_ICM42688/production/_ext/1580823105/plib_nvic.o
 .debug_loc     0x0000000000018d90      0x403 build/SAMD21_IOT_WG_ICM42688/production/_ext/11470383/plib_nvmctrl.o
 .debug_loc     0x0000000000019193      0x27b build/SAMD21_IOT_WG_ICM42688/production/_ext/1580876256/plib_port.o
 .debug_loc     0x000000000001940e      0x76c build/SAMD21_IOT_WG_ICM42688/production/_ext/1014017276/plib_sercom0_spi_master.o
 .debug_loc     0x0000000000019b7a      0x80d build/SAMD21_IOT_WG_ICM42688/production/_ext/1014017276/plib_sercom2_spi_master.o
 .debug_loc     0x000000000001a387      0x653 build/SAMD21_IOT_WG_ICM42688/production/_ext/177673482/plib_sercom5_usart.o
 .debug_loc     0x000000000001a9da      0x2d3 build/SAMD21_IOT_WG_ICM42688/production/_ext/223004715/plib_systick.o
 .debug_loc     0x000000000001acad       0x6f build/SAMD21_IOT_WG_ICM42688/production/_ext/399410062/plib_tc3.o
 .debug_loc     0x000000000001ad1c       0x6f build/SAMD21_IOT_WG_ICM42688/production/_ext/399410062/plib_tc4.o
 .debug_loc     0x000000000001ad8b      0x1af build/SAMD21_IOT_WG_ICM42688/production/_ext/1357625803/xc32_monitor.o
 .debug_loc     0x000000000001af3a      0x16d build/SAMD21_IOT_WG_ICM42688/production/_ext/1584719636/sys_dma.o
 .debug_loc     0x000000000001b0a7      0x17d build/SAMD21_IOT_WG_ICM42688/production/_ext/1318297016/sys_int.o
 .debug_loc     0x000000000001b224     0x2830 build/SAMD21_IOT_WG_ICM42688/production/_ext/386530258/sys_time.o
 .debug_loc     0x000000000001da54       0x45 build/SAMD21_IOT_WG_ICM42688/production/_ext/1832905403/initialization.o
 .debug_loc     0x000000000001da99       0x20 build/SAMD21_IOT_WG_ICM42688/production/_ext/1832905403/startup_xc32.o
 .debug_loc     0x000000000001dab9       0x20 build/SAMD21_IOT_WG_ICM42688/production/_ext/1832905403/tasks.o
 .debug_loc     0x000000000001dad9     0x4496 build/SAMD21_IOT_WG_ICM42688/production/_ext/1341251756/Icm426xxDriver_HL.o
 .debug_loc     0x0000000000021f6f      0x6df build/SAMD21_IOT_WG_ICM42688/production/_ext/1341251756/Icm426xxTransport.o
 .debug_loc     0x000000000002264e      0x3fe build/SAMD21_IOT_WG_ICM42688/production/_ext/1360937237/main.o
 .debug_loc     0x0000000000022a4c      0x909 build/SAMD21_IOT_WG_ICM42688/production/_ext/1360937237/ringbuffer.o
 .debug_loc     0x0000000000023355       0x20 build/SAMD21_IOT_WG_ICM42688/production/_ext/1360937237/app.o
 .debug_loc     0x0000000000023375      0x4ee build/SAMD21_IOT_WG_ICM42688/production/_ext/1360937237/winc1500_tcp_client.o
 .debug_loc     0x0000000000023863       0x14 c:/program files/microchip/xc32/v4.60/bin/bin/../../lib/gcc/pic32c/8.3.1/../../../../pic32c/lib/thumb/v6-m/nofp\libpic32c.a(data_init.o)
 .debug_loc     0x0000000000023877      0x12d c:/program files/microchip/xc32/v4.60/bin/bin/../../lib/gcc/pic32c/8.3.1/../../../../pic32c/lib/thumb/v6-m/nofp\libc-size-musl.a(memcpy.o)
 .debug_loc     0x00000000000239a4       0xcd c:/program files/microchip/xc32/v4.60/bin/bin/../../lib/gcc/pic32c/8.3.1/../../../../pic32c/lib/thumb/v6-m/nofp\libc-size-musl.a(memset.o)
 .debug_loc     0x0000000000023a71       0x81 c:/program files/microchip/xc32/v4.60/bin/bin/../../lib/gcc/pic32c/8.3.1/../../../../pic32c/lib/thumb/v6-m/nofp\libc-size-musl.a(strlen.o)
 .debug_loc     0x0000000000023af2       0x8c c:/program files/microchip/xc32/v4.60/bin/bin/../../lib/gcc/pic32c/8.3.1/../../../../pic32c/lib/thumb/v6-m/nofp\libc-size-musl.a(strchr.o)
 .debug_loc     0x0000000000023b7e       0xd5 c:/program files/microchip/xc32/v4.60/bin/bin/../../lib/gcc/pic32c/8.3.1/../../../../pic32c/lib/thumb/v6-m/nofp\libc-size-musl.a(strchrnul.o)
 .debug_loc     0x0000000000023c53       0xa6 c:/program files/microchip/xc32/v4.60/bin/bin/../../lib/gcc/pic32c/8.3.1/../../../../pic32c/lib/thumb/v6-m/nofp\libc-size-musl.a(strnlen.o)
 .debug_loc     0x0000000000023cf9       0xaa c:/program files/microchip/xc32/v4.60/bin/bin/../../lib/gcc/pic32c/8.3.1/../../../../pic32c/lib/thumb/v6-m/nofp\libc-size-musl.a(memchr.o)
 .debug_loc     0x0000000000023da3       0x99 c:/program files/microchip/xc32/v4.60/bin/bin/../../lib/gcc/pic32c/8.3.1/../../../../pic32c/lib/thumb/v6-m/nofp\liblmalloc-musl.a(lite_calloc.o)
 .debug_loc     0x0000000000023e3c      0x343 c:/program files/microchip/xc32/v4.60/bin/bin/../../lib/gcc/pic32c/8.3.1/../../../../pic32c/lib/thumb/v6-m/nofp\liblmalloc-musl.a(lite_free.o)
 .debug_loc     0x000000000002417f       0xe2 c:/program files/microchip/xc32/v4.60/bin/bin/../../lib/gcc/pic32c/8.3.1/../../../../pic32c/lib/thumb/v6-m/nofp\liblmalloc-musl.a(lite_malloc.o)
 .debug_loc     0x0000000000024261       0x5e c:/program files/microchip/xc32/v4.60/bin/bin/../../lib/gcc/pic32c/8.3.1/../../../../pic32c/lib/thumb/v6-m/nofp\libc-musl.a(__libc_start_main.o)
 .debug_loc     0x00000000000242bf       0x7c c:/program files/microchip/xc32/v4.60/bin/bin/../../lib/gcc/pic32c/8.3.1/../../../../pic32c/lib/thumb/v6-m/nofp\libc-musl.a(expand_heap.o)
 .debug_loc     0x000000000002433b       0x61 c:/program files/microchip/xc32/v4.60/bin/bin/../../lib/gcc/pic32c/8.3.1/../../../../pic32c/lib/thumb/v6-m/nofp\libc-musl.a(__sio_printf_cdnsu.o)
 .debug_loc     0x000000000002439c      0x2a6 c:/program files/microchip/xc32/v4.60/bin/bin/../../lib/gcc/pic32c/8.3.1/../../../../pic32c/lib/thumb/v6-m/nofp\libc-musl.a(__fmt_d.o)
 .debug_loc     0x0000000000024642      0x144 c:/program files/microchip/xc32/v4.60/bin/bin/../../lib/gcc/pic32c/8.3.1/../../../../pic32c/lib/thumb/v6-m/nofp\libc-musl.a(__fmt_s.o)
 .debug_loc     0x0000000000024786      0x12d c:/program files/microchip/xc32/v4.60/bin/bin/../../lib/gcc/pic32c/8.3.1/../../../../pic32c/lib/thumb/v6-m/nofp\libc-musl.a(__fmt_u.o)
 .debug_loc     0x00000000000248b3      0x34c c:/program files/microchip/xc32/v4.60/bin/bin/../../lib/gcc/pic32c/8.3.1/../../../../pic32c/lib/thumb/v6-m/nofp\libc-musl.a(__pop_int.o)
 .debug_loc     0x0000000000024bff      0x1fe c:/program files/microchip/xc32/v4.60/bin/bin/../../lib/gcc/pic32c/8.3.1/../../../../pic32c/lib/thumb/v6-m/nofp\libc-musl.a(__pop_ptr.o)
 .debug_loc     0x0000000000024dfd      0x6d9 c:/program files/microchip/xc32/v4.60/bin/bin/../../lib/gcc/pic32c/8.3.1/../../../../pic32c/lib/thumb/v6-m/nofp\libc-musl.a(__printf_core.o)
 .debug_loc     0x00000000000254d6       0x45 c:/program files/microchip/xc32/v4.60/bin/bin/../../lib/gcc/pic32c/8.3.1/../../../../pic32c/lib/thumb/v6-m/nofp\libc-musl.a(stdin.o)
 .debug_loc     0x000000000002551b       0x40 c:/program files/microchip/xc32/v4.60/bin/bin/../../lib/gcc/pic32c/8.3.1/../../../../pic32c/lib/thumb/v6-m/nofp\libc-musl.a(stdout.o)
 .debug_loc     0x000000000002555b       0x6a c:/program files/microchip/xc32/v4.60/bin/bin/../../lib/gcc/pic32c/8.3.1/../../../../pic32c/lib/thumb/v6-m/nofp\libc-musl.a(puts.o)
 .debug_loc     0x00000000000255c5       0x6a c:/program files/microchip/xc32/v4.60/bin/bin/../../lib/gcc/pic32c/8.3.1/../../../../pic32c/lib/thumb/v6-m/nofp\libc-musl.a(setbuf.o)
 .debug_loc     0x000000000002562f       0xdc c:/program files/microchip/xc32/v4.60/bin/bin/../../lib/gcc/pic32c/8.3.1/../../../../pic32c/lib/thumb/v6-m/nofp\libc-musl.a(atoi.o)
 .debug_loc     0x000000000002570b       0x45 c:/program files/microchip/xc32/v4.60/bin/bin/../../lib/gcc/pic32c/8.3.1/../../../../pic32c/lib/thumb/v6-m/nofp\libc-musl.a(gmtime.o)
 .debug_loc     0x0000000000025750       0x91 c:/program files/microchip/xc32/v4.60/bin/bin/../../lib/gcc/pic32c/8.3.1/../../../../pic32c/lib/thumb/v6-m/nofp\libc-musl.a(gmtime_r.o)
 .debug_loc     0x00000000000257e1       0x86 c:/program files/microchip/xc32/v4.60/bin/bin/../../lib/gcc/pic32c/8.3.1/../../../../pic32c/lib/thumb/v6-m/nofp\libc-musl.a(mktime.o)
 .debug_loc     0x0000000000025867       0x8f c:/program files/microchip/xc32/v4.60/bin/bin/../../lib/gcc/pic32c/8.3.1/../../../../pic32c/lib/thumb/v6-m/nofp\libc-musl.a(tolower.o)
 .debug_loc     0x00000000000258f6       0xb0 c:/program files/microchip/xc32/v4.60/bin/bin/../../lib/gcc/pic32c/8.3.1/../../../../pic32c/lib/thumb/v6-m/nofp\libc-musl.a(__int_vfprintf.o)
 .debug_loc     0x00000000000259a6       0xb3 c:/program files/microchip/xc32/v4.60/bin/bin/../../lib/gcc/pic32c/8.3.1/../../../../pic32c/lib/thumb/v6-m/nofp\libc-musl.a(fputs.o)
 .debug_loc     0x0000000000025a59      0x1d3 c:/program files/microchip/xc32/v4.60/bin/bin/../../lib/gcc/pic32c/8.3.1/../../../../pic32c/lib/thumb/v6-m/nofp\libc-musl.a(__cvt_u.o)
 .debug_loc     0x0000000000025c2c       0x6f c:/program files/microchip/xc32/v4.60/bin/bin/../../lib/gcc/pic32c/8.3.1/../../../../pic32c/lib/thumb/v6-m/nofp\libc-musl.a(__pop_float.o)
 .debug_loc     0x0000000000025c9b      0x107 c:/program files/microchip/xc32/v4.60/bin/bin/../../lib/gcc/pic32c/8.3.1/../../../../pic32c/lib/thumb/v6-m/nofp\libc-musl.a(__stdio_read.o)
 .debug_loc     0x0000000000025da2       0x42 c:/program files/microchip/xc32/v4.60/bin/bin/../../lib/gcc/pic32c/8.3.1/../../../../pic32c/lib/thumb/v6-m/nofp\libc-musl.a(__towrite_rw.o)
 .debug_loc     0x0000000000025de4      0x1c5 c:/program files/microchip/xc32/v4.60/bin/bin/../../lib/gcc/pic32c/8.3.1/../../../../pic32c/lib/thumb/v6-m/nofp\libc-musl.a(fwrite.o)
 .debug_loc     0x0000000000025fa9      0x13b c:/program files/microchip/xc32/v4.60/bin/bin/../../lib/gcc/pic32c/8.3.1/../../../../pic32c/lib/thumb/v6-m/nofp\libc-musl.a(putc.o)
 .debug_loc     0x00000000000260e4      0x115 c:/program files/microchip/xc32/v4.60/bin/bin/../../lib/gcc/pic32c/8.3.1/../../../../pic32c/lib/thumb/v6-m/nofp\libc-musl.a(setvbuf.o)
 .debug_loc     0x00000000000261f9      0x111 c:/program files/microchip/xc32/v4.60/bin/bin/../../lib/gcc/pic32c/8.3.1/../../../../pic32c/lib/thumb/v6-m/nofp\libc-musl.a(__tm_to_secs.o)
 .debug_loc     0x000000000002630a      0x258 c:/program files/microchip/xc32/v4.60/bin/bin/../../lib/gcc/pic32c/8.3.1/../../../../pic32c/lib/thumb/v6-m/nofp\libc-musl.a(__year_to_secs.o)
 .debug_loc     0x0000000000026562      0x2f7 c:/program files/microchip/xc32/v4.60/bin/bin/../../lib/gcc/pic32c/8.3.1/../../../../pic32c/lib/thumb/v6-m/nofp\libc-musl.a(__secs_to_tm.o)
 .debug_loc     0x0000000000026859      0x130 c:/program files/microchip/xc32/v4.60/bin/bin/../../lib/gcc/pic32c/8.3.1/../../../../pic32c/lib/thumb/v6-m/nofp\libc-musl.a(readv.o)
 .debug_loc     0x0000000000026989       0x20 c:/program files/microchip/xc32/v4.60/bin/bin/../../lib/gcc/pic32c/8.3.1/../../../../pic32c/lib/thumb/v6-m/nofp\libc-musl.a(__init_stdio.o)
 .debug_loc     0x00000000000269a9      0x1e6 c:/program files/microchip/xc32/v4.60/bin/bin/../../lib/gcc/pic32c/8.3.1/../../../../pic32c/lib/thumb/v6-m/nofp\libc-musl.a(__out.o)
 .debug_loc     0x0000000000026b8f       0xbe c:/program files/microchip/xc32/v4.60/bin/bin/../../lib/gcc/pic32c/8.3.1/../../../../pic32c/lib/thumb/v6-m/nofp\libc-musl.a(__putc.o)
 .debug_loc     0x0000000000026c4d       0x45 c:/program files/microchip/xc32/v4.60/bin/bin/../../lib/gcc/pic32c/8.3.1/../../../../pic32c/lib/thumb/v6-m/nofp\libc-musl.a(__stderr.o)
 .debug_loc     0x0000000000026c92      0x1d8 c:/program files/microchip/xc32/v4.60/bin/bin/../../lib/gcc/pic32c/8.3.1/../../../../pic32c/lib/thumb/v6-m/nofp\libc-musl.a(__stdio_close.o)
 .debug_loc     0x0000000000026e6a      0x364 c:/program files/microchip/xc32/v4.60/bin/bin/../../lib/gcc/pic32c/8.3.1/../../../../pic32c/lib/thumb/v6-m/nofp\libc-musl.a(__stdio_write.o)
 .debug_loc     0x00000000000271ce       0x45 c:/program files/microchip/xc32/v4.60/bin/bin/../../lib/gcc/pic32c/8.3.1/../../../../pic32c/lib/thumb/v6-m/nofp\libc-musl.a(__stdout.o)
 .debug_loc     0x0000000000027213       0x8c c:/program files/microchip/xc32/v4.60/bin/bin/../../lib/gcc/pic32c/8.3.1/../../../../pic32c/lib/thumb/v6-m/nofp\libc-musl.a(__towrite.o)
 .debug_loc     0x000000000002729f       0x3a c:/program files/microchip/xc32/v4.60/bin/bin/../../lib/gcc/pic32c/8.3.1/../../../../pic32c/lib/thumb/v6-m/nofp\libc-musl.a(__month_to_secs.o)
 .debug_loc     0x00000000000272d9      0x130 c:/program files/microchip/xc32/v4.60/bin/bin/../../lib/gcc/pic32c/8.3.1/../../../../pic32c/lib/thumb/v6-m/nofp\libc-musl.a(writev.o)
 .debug_loc     0x0000000000027409       0xbb c:/program files/microchip/xc32/v4.60/bin/bin/../../lib/gcc/pic32c/8.3.1/../../../../pic32c/lib/thumb/v6-m/nofp\libc-musl.a(__overflow.o)
 .debug_loc     0x00000000000274c4      0x106 c:/program files/microchip/xc32/v4.60/bin/bin/../../lib/gcc/pic32c/8.3.1/../../../../pic32c/lib/thumb/v6-m/nofp\libc-musl.a(__fwrite.o)
 .debug_loc     0x00000000000275ca      0x176 c:/program files/microchip/xc32/v4.60/bin/bin/../../lib/gcc/pic32c/8.3.1/thumb/v6-m/nofp\libgcc.a(_muldi3.o)
 .debug_loc     0x0000000000027740      0x2e4 c:/program files/microchip/xc32/v4.60/bin/bin/../../lib/gcc/pic32c/8.3.1/thumb/v6-m/nofp\libgcc.a(_udivmoddi4.o)
 .debug_loc     0x0000000000027a24       0x9c c:/program files/microchip/xc32/v4.60/bin/bin/../../lib/gcc/pic32c/8.3.1/thumb/v6-m/nofp\libgcc.a(bpabi.o)
 .debug_loc     0x0000000000027ac0      0x4b0 c:/program files/microchip/xc32/v4.60/bin/bin/../../lib/gcc/pic32c/8.3.1/thumb/v6-m/nofp\libgcc.a(_divdi3.o)
 .debug_loc     0x0000000000027f70       0x28 c:/program files/microchip/xc32/v4.60/bin/bin/../../lib/gcc/pic32c/8.3.1/../../../../pic32c/lib/thumb/v6-m/nofp\libpic32c.a(sbrk.o)
 .debug_loc     0x0000000000027f98       0x14 c:/program files/microchip/xc32/v4.60/bin/bin/../../lib/gcc/pic32c/8.3.1/../../../../pic32c/lib/thumb/v6-m/nofp\libpic32c.a(pic32_data_init_copy.o)

.debug_aranges  0x0000000000000000     0x1110
 .debug_aranges
                0x0000000000000000       0x20 build/SAMD21_IOT_WG_ICM42688/production/_ext/2048461350/icm42688_sensor.o
 .debug_aranges
                0x0000000000000020       0x20 build/SAMD21_IOT_WG_ICM42688/production/_ext/1660664302/drv_spi.o
 .debug_aranges
                0x0000000000000040       0x20 build/SAMD21_IOT_WG_ICM42688/production/_ext/1164161090/wdrv_winc_gpio.o
 .debug_aranges
                0x0000000000000060       0x20 build/SAMD21_IOT_WG_ICM42688/production/_ext/1164161090/wdrv_winc_eint.o
 .debug_aranges
                0x0000000000000080       0x20 build/SAMD21_IOT_WG_ICM42688/production/_ext/101005277/wdrv_winc_spi.o
 .debug_aranges
                0x00000000000000a0       0x20 build/SAMD21_IOT_WG_ICM42688/production/_ext/90265895/nm_common.o
 .debug_aranges
                0x00000000000000c0       0x20 build/SAMD21_IOT_WG_ICM42688/production/_ext/121554788/m2m_ssl.o
 .debug_aranges
                0x00000000000000e0       0x20 build/SAMD21_IOT_WG_ICM42688/production/_ext/121554788/m2m_hif.o
 .debug_aranges
                0x0000000000000100       0x20 build/SAMD21_IOT_WG_ICM42688/production/_ext/121554788/m2m_wifi.o
 .debug_aranges
                0x0000000000000120       0x20 build/SAMD21_IOT_WG_ICM42688/production/_ext/121554788/nmspi.o
 .debug_aranges
                0x0000000000000140       0x20 build/SAMD21_IOT_WG_ICM42688/production/_ext/121554788/nmdrv.o
 .debug_aranges
                0x0000000000000160       0x20 build/SAMD21_IOT_WG_ICM42688/production/_ext/121554788/m2m_ota.o
 .debug_aranges
                0x0000000000000180       0x20 build/SAMD21_IOT_WG_ICM42688/production/_ext/121554788/nmasic.o
 .debug_aranges
                0x00000000000001a0       0x20 build/SAMD21_IOT_WG_ICM42688/production/_ext/121554788/nmbus.o
 .debug_aranges
                0x00000000000001c0       0x20 build/SAMD21_IOT_WG_ICM42688/production/_ext/548032175/socket.o
 .debug_aranges
                0x00000000000001e0       0x20 build/SAMD21_IOT_WG_ICM42688/production/_ext/548032175/inet_addr.o
 .debug_aranges
                0x0000000000000200       0x20 build/SAMD21_IOT_WG_ICM42688/production/_ext/548032175/inet_ntop.o
 .debug_aranges
                0x0000000000000220       0x20 build/SAMD21_IOT_WG_ICM42688/production/_ext/609036575/flexible_flash.o
 .debug_aranges
                0x0000000000000240       0x20 build/SAMD21_IOT_WG_ICM42688/production/_ext/609036575/spi_flash.o
 .debug_aranges
                0x0000000000000260       0x20 build/SAMD21_IOT_WG_ICM42688/production/_ext/1784303044/wdrv_winc_osal.o
 .debug_aranges
                0x0000000000000280       0x20 build/SAMD21_IOT_WG_ICM42688/production/_ext/907429946/wdrv_winc_sta.o
 .debug_aranges
                0x00000000000002a0       0x20 build/SAMD21_IOT_WG_ICM42688/production/_ext/907429946/wdrv_winc_socket.o
 .debug_aranges
                0x00000000000002c0       0x20 build/SAMD21_IOT_WG_ICM42688/production/_ext/907429946/wdrv_winc_systime.o
 .debug_aranges
                0x00000000000002e0       0x20 build/SAMD21_IOT_WG_ICM42688/production/_ext/907429946/wdrv_winc_authctx.o
 .debug_aranges
                0x0000000000000300       0x20 build/SAMD21_IOT_WG_ICM42688/production/_ext/907429946/wdrv_winc_host_file.o
 .debug_aranges
                0x0000000000000320       0x20 build/SAMD21_IOT_WG_ICM42688/production/_ext/907429946/wdrv_winc.o
 .debug_aranges
                0x0000000000000340       0x20 build/SAMD21_IOT_WG_ICM42688/production/_ext/907429946/wdrv_winc_bssctx.o
 .debug_aranges
                0x0000000000000360       0x20 build/SAMD21_IOT_WG_ICM42688/production/_ext/1750425231/plib_clock.o
 .debug_aranges
                0x0000000000000380       0x20 build/SAMD21_IOT_WG_ICM42688/production/_ext/1580516298/plib_dmac.o
 .debug_aranges
                0x00000000000003a0       0x20 build/SAMD21_IOT_WG_ICM42688/production/_ext/503204096/plib_eic.o
 .debug_aranges
                0x00000000000003c0       0x20 build/SAMD21_IOT_WG_ICM42688/production/_ext/1580823105/plib_nvic.o
 .debug_aranges
                0x00000000000003e0       0x20 build/SAMD21_IOT_WG_ICM42688/production/_ext/11470383/plib_nvmctrl.o
 .debug_aranges
                0x0000000000000400       0x20 build/SAMD21_IOT_WG_ICM42688/production/_ext/1580876256/plib_port.o
 .debug_aranges
                0x0000000000000420       0x20 build/SAMD21_IOT_WG_ICM42688/production/_ext/1014017276/plib_sercom0_spi_master.o
 .debug_aranges
                0x0000000000000440       0x20 build/SAMD21_IOT_WG_ICM42688/production/_ext/1014017276/plib_sercom2_spi_master.o
 .debug_aranges
                0x0000000000000460       0x20 build/SAMD21_IOT_WG_ICM42688/production/_ext/177673482/plib_sercom5_usart.o
 .debug_aranges
                0x0000000000000480       0x20 build/SAMD21_IOT_WG_ICM42688/production/_ext/223004715/plib_systick.o
 .debug_aranges
                0x00000000000004a0       0x20 build/SAMD21_IOT_WG_ICM42688/production/_ext/399410062/plib_tc3.o
 .debug_aranges
                0x00000000000004c0       0x20 build/SAMD21_IOT_WG_ICM42688/production/_ext/399410062/plib_tc4.o
 .debug_aranges
                0x00000000000004e0       0x20 build/SAMD21_IOT_WG_ICM42688/production/_ext/1357625803/xc32_monitor.o
 .debug_aranges
                0x0000000000000500       0x20 build/SAMD21_IOT_WG_ICM42688/production/_ext/1584719636/sys_dma.o
 .debug_aranges
                0x0000000000000520       0x20 build/SAMD21_IOT_WG_ICM42688/production/_ext/1318297016/sys_int.o
 .debug_aranges
                0x0000000000000540       0x20 build/SAMD21_IOT_WG_ICM42688/production/_ext/386530258/sys_time.o
 .debug_aranges
                0x0000000000000560       0x20 build/SAMD21_IOT_WG_ICM42688/production/_ext/1832905403/initialization.o
 .debug_aranges
                0x0000000000000580       0x20 build/SAMD21_IOT_WG_ICM42688/production/_ext/1832905403/interrupts.o
 .debug_aranges
                0x00000000000005a0       0x20 build/SAMD21_IOT_WG_ICM42688/production/_ext/1832905403/exceptions.o
 .debug_aranges
                0x00000000000005c0       0x28 build/SAMD21_IOT_WG_ICM42688/production/_ext/1832905403/startup_xc32.o
 .debug_aranges
                0x00000000000005e8       0x20 build/SAMD21_IOT_WG_ICM42688/production/_ext/1832905403/tasks.o
 .debug_aranges
                0x0000000000000608       0x20 build/SAMD21_IOT_WG_ICM42688/production/_ext/1341251756/Icm426xxDriver_HL.o
 .debug_aranges
                0x0000000000000628       0x20 build/SAMD21_IOT_WG_ICM42688/production/_ext/1341251756/Icm426xxTransport.o
 .debug_aranges
                0x0000000000000648       0x20 build/SAMD21_IOT_WG_ICM42688/production/_ext/1360937237/main.o
 .debug_aranges
                0x0000000000000668       0x20 build/SAMD21_IOT_WG_ICM42688/production/_ext/1360937237/ringbuffer.o
 .debug_aranges
                0x0000000000000688       0x20 build/SAMD21_IOT_WG_ICM42688/production/_ext/1360937237/app.o
 .debug_aranges
                0x00000000000006a8       0x20 build/SAMD21_IOT_WG_ICM42688/production/_ext/1360937237/winc1500_tcp_client.o
 .debug_aranges
                0x00000000000006c8       0x30 c:/program files/microchip/xc32/v4.60/bin/bin/../../lib/gcc/pic32c/8.3.1/../../../../pic32c/lib/thumb/v6-m/nofp\libpic32c.a(data_init.o)
 .debug_aranges
                0x00000000000006f8       0x20 c:/program files/microchip/xc32/v4.60/bin/bin/../../lib/gcc/pic32c/8.3.1/../../../../pic32c/lib/thumb/v6-m/nofp\libc-size-musl.a(memcpy.o)
 .debug_aranges
                0x0000000000000718       0x20 c:/program files/microchip/xc32/v4.60/bin/bin/../../lib/gcc/pic32c/8.3.1/../../../../pic32c/lib/thumb/v6-m/nofp\libc-size-musl.a(memset.o)
 .debug_aranges
                0x0000000000000738       0x20 c:/program files/microchip/xc32/v4.60/bin/bin/../../lib/gcc/pic32c/8.3.1/../../../../pic32c/lib/thumb/v6-m/nofp\libc-size-musl.a(strlen.o)
 .debug_aranges
                0x0000000000000758       0x20 c:/program files/microchip/xc32/v4.60/bin/bin/../../lib/gcc/pic32c/8.3.1/../../../../pic32c/lib/thumb/v6-m/nofp\libc-size-musl.a(strchr.o)
 .debug_aranges
                0x0000000000000778       0x20 c:/program files/microchip/xc32/v4.60/bin/bin/../../lib/gcc/pic32c/8.3.1/../../../../pic32c/lib/thumb/v6-m/nofp\libc-size-musl.a(strchrnul.o)
 .debug_aranges
                0x0000000000000798       0x20 c:/program files/microchip/xc32/v4.60/bin/bin/../../lib/gcc/pic32c/8.3.1/../../../../pic32c/lib/thumb/v6-m/nofp\libc-size-musl.a(strnlen.o)
 .debug_aranges
                0x00000000000007b8       0x20 c:/program files/microchip/xc32/v4.60/bin/bin/../../lib/gcc/pic32c/8.3.1/../../../../pic32c/lib/thumb/v6-m/nofp\libc-size-musl.a(memchr.o)
 .debug_aranges
                0x00000000000007d8       0x20 c:/program files/microchip/xc32/v4.60/bin/bin/../../lib/gcc/pic32c/8.3.1/../../../../pic32c/lib/thumb/v6-m/nofp\liblmalloc-musl.a(lite_calloc.o)
 .debug_aranges
                0x00000000000007f8       0x30 c:/program files/microchip/xc32/v4.60/bin/bin/../../lib/gcc/pic32c/8.3.1/../../../../pic32c/lib/thumb/v6-m/nofp\liblmalloc-musl.a(lite_free.o)
 .debug_aranges
                0x0000000000000828       0x20 c:/program files/microchip/xc32/v4.60/bin/bin/../../lib/gcc/pic32c/8.3.1/../../../../pic32c/lib/thumb/v6-m/nofp\liblmalloc-musl.a(lite_malloc.o)
 .debug_aranges
                0x0000000000000848       0x28 c:/program files/microchip/xc32/v4.60/bin/bin/../../lib/gcc/pic32c/8.3.1/../../../../pic32c/lib/thumb/v6-m/nofp\libc-musl.a(__libc_start_main.o)
 .debug_aranges
                0x0000000000000870       0x18 c:/program files/microchip/xc32/v4.60/bin/bin/../../lib/gcc/pic32c/8.3.1/../../../../pic32c/lib/thumb/v6-m/nofp\libc-musl.a(__errno_location.o)
 .debug_aranges
                0x0000000000000888       0x18 c:/program files/microchip/xc32/v4.60/bin/bin/../../lib/gcc/pic32c/8.3.1/../../../../pic32c/lib/thumb/v6-m/nofp\libc-musl.a(libc.o)
 .debug_aranges
                0x00000000000008a0       0x20 c:/program files/microchip/xc32/v4.60/bin/bin/../../lib/gcc/pic32c/8.3.1/../../../../pic32c/lib/thumb/v6-m/nofp\libc-musl.a(expand_heap.o)
 .debug_aranges
                0x00000000000008c0       0x28 c:/program files/microchip/xc32/v4.60/bin/bin/../../lib/gcc/pic32c/8.3.1/../../../../pic32c/lib/thumb/v6-m/nofp\libc-musl.a(__sio_printf_cdnsu.o)
 .debug_aranges
                0x00000000000008e8       0x20 c:/program files/microchip/xc32/v4.60/bin/bin/../../lib/gcc/pic32c/8.3.1/../../../../pic32c/lib/thumb/v6-m/nofp\libc-musl.a(__fmt_d.o)
 .debug_aranges
                0x0000000000000908       0x20 c:/program files/microchip/xc32/v4.60/bin/bin/../../lib/gcc/pic32c/8.3.1/../../../../pic32c/lib/thumb/v6-m/nofp\libc-musl.a(__fmt_s.o)
 .debug_aranges
                0x0000000000000928       0x20 c:/program files/microchip/xc32/v4.60/bin/bin/../../lib/gcc/pic32c/8.3.1/../../../../pic32c/lib/thumb/v6-m/nofp\libc-musl.a(__fmt_u.o)
 .debug_aranges
                0x0000000000000948       0x20 c:/program files/microchip/xc32/v4.60/bin/bin/../../lib/gcc/pic32c/8.3.1/../../../../pic32c/lib/thumb/v6-m/nofp\libc-musl.a(__pop_int.o)
 .debug_aranges
                0x0000000000000968       0x20 c:/program files/microchip/xc32/v4.60/bin/bin/../../lib/gcc/pic32c/8.3.1/../../../../pic32c/lib/thumb/v6-m/nofp\libc-musl.a(__pop_ptr.o)
 .debug_aranges
                0x0000000000000988       0x50 c:/program files/microchip/xc32/v4.60/bin/bin/../../lib/gcc/pic32c/8.3.1/../../../../pic32c/lib/thumb/v6-m/nofp\libc-musl.a(__printf_core.o)
 .debug_aranges
                0x00000000000009d8       0x28 c:/program files/microchip/xc32/v4.60/bin/bin/../../lib/gcc/pic32c/8.3.1/../../../../pic32c/lib/thumb/v6-m/nofp\libc-musl.a(stdin.o)
 .debug_aranges
                0x0000000000000a00       0x30 c:/program files/microchip/xc32/v4.60/bin/bin/../../lib/gcc/pic32c/8.3.1/../../../../pic32c/lib/thumb/v6-m/nofp\libc-musl.a(stdout.o)
 .debug_aranges
                0x0000000000000a30       0x20 c:/program files/microchip/xc32/v4.60/bin/bin/../../lib/gcc/pic32c/8.3.1/../../../../pic32c/lib/thumb/v6-m/nofp\libc-musl.a(puts.o)
 .debug_aranges
                0x0000000000000a50       0x20 c:/program files/microchip/xc32/v4.60/bin/bin/../../lib/gcc/pic32c/8.3.1/../../../../pic32c/lib/thumb/v6-m/nofp\libc-musl.a(setbuf.o)
 .debug_aranges
                0x0000000000000a70       0x20 c:/program files/microchip/xc32/v4.60/bin/bin/../../lib/gcc/pic32c/8.3.1/../../../../pic32c/lib/thumb/v6-m/nofp\libc-musl.a(atoi.o)
 .debug_aranges
                0x0000000000000a90       0x20 c:/program files/microchip/xc32/v4.60/bin/bin/../../lib/gcc/pic32c/8.3.1/../../../../pic32c/lib/thumb/v6-m/nofp\libc-musl.a(gmtime.o)
 .debug_aranges
                0x0000000000000ab0       0x20 c:/program files/microchip/xc32/v4.60/bin/bin/../../lib/gcc/pic32c/8.3.1/../../../../pic32c/lib/thumb/v6-m/nofp\libc-musl.a(gmtime_r.o)
 .debug_aranges
                0x0000000000000ad0       0x20 c:/program files/microchip/xc32/v4.60/bin/bin/../../lib/gcc/pic32c/8.3.1/../../../../pic32c/lib/thumb/v6-m/nofp\libc-musl.a(mktime.o)
 .debug_aranges
                0x0000000000000af0       0x28 c:/program files/microchip/xc32/v4.60/bin/bin/../../lib/gcc/pic32c/8.3.1/../../../../pic32c/lib/thumb/v6-m/nofp\libc-musl.a(tolower.o)
 .debug_aranges
                0x0000000000000b18       0x18 c:/program files/microchip/xc32/v4.60/bin/bin/../../lib/gcc/pic32c/8.3.1/../../../../pic32c/lib/thumb/v6-m/nofp\libc-musl.a(__environ.o)
 .debug_aranges
                0x0000000000000b30       0x20 c:/program files/microchip/xc32/v4.60/bin/bin/../../lib/gcc/pic32c/8.3.1/../../../../pic32c/lib/thumb/v6-m/nofp\libc-musl.a(__int_vfprintf.o)
 .debug_aranges
                0x0000000000000b50       0x20 c:/program files/microchip/xc32/v4.60/bin/bin/../../lib/gcc/pic32c/8.3.1/../../../../pic32c/lib/thumb/v6-m/nofp\libc-musl.a(fputs.o)
 .debug_aranges
                0x0000000000000b70       0x20 c:/program files/microchip/xc32/v4.60/bin/bin/../../lib/gcc/pic32c/8.3.1/../../../../pic32c/lib/thumb/v6-m/nofp\libc-musl.a(__cvt_u.o)
 .debug_aranges
                0x0000000000000b90       0x20 c:/program files/microchip/xc32/v4.60/bin/bin/../../lib/gcc/pic32c/8.3.1/../../../../pic32c/lib/thumb/v6-m/nofp\libc-musl.a(__pop_float.o)
 .debug_aranges
                0x0000000000000bb0       0x20 c:/program files/microchip/xc32/v4.60/bin/bin/../../lib/gcc/pic32c/8.3.1/../../../../pic32c/lib/thumb/v6-m/nofp\libc-musl.a(__stdio_read.o)
 .debug_aranges
                0x0000000000000bd0       0x20 c:/program files/microchip/xc32/v4.60/bin/bin/../../lib/gcc/pic32c/8.3.1/../../../../pic32c/lib/thumb/v6-m/nofp\libc-musl.a(__towrite_rw.o)
 .debug_aranges
                0x0000000000000bf0       0x28 c:/program files/microchip/xc32/v4.60/bin/bin/../../lib/gcc/pic32c/8.3.1/../../../../pic32c/lib/thumb/v6-m/nofp\libc-musl.a(fwrite.o)
 .debug_aranges
                0x0000000000000c18       0x30 c:/program files/microchip/xc32/v4.60/bin/bin/../../lib/gcc/pic32c/8.3.1/../../../../pic32c/lib/thumb/v6-m/nofp\libc-musl.a(putc.o)
 .debug_aranges
                0x0000000000000c48       0x28 c:/program files/microchip/xc32/v4.60/bin/bin/../../lib/gcc/pic32c/8.3.1/../../../../pic32c/lib/thumb/v6-m/nofp\libc-musl.a(setvbuf.o)
 .debug_aranges
                0x0000000000000c70       0x20 c:/program files/microchip/xc32/v4.60/bin/bin/../../lib/gcc/pic32c/8.3.1/../../../../pic32c/lib/thumb/v6-m/nofp\libc-musl.a(__tm_to_secs.o)
 .debug_aranges
                0x0000000000000c90       0x20 c:/program files/microchip/xc32/v4.60/bin/bin/../../lib/gcc/pic32c/8.3.1/../../../../pic32c/lib/thumb/v6-m/nofp\libc-musl.a(__year_to_secs.o)
 .debug_aranges
                0x0000000000000cb0       0x20 c:/program files/microchip/xc32/v4.60/bin/bin/../../lib/gcc/pic32c/8.3.1/../../../../pic32c/lib/thumb/v6-m/nofp\libc-musl.a(__secs_to_tm.o)
 .debug_aranges
                0x0000000000000cd0       0x20 c:/program files/microchip/xc32/v4.60/bin/bin/../../lib/gcc/pic32c/8.3.1/../../../../pic32c/lib/thumb/v6-m/nofp\libc-musl.a(readv.o)
 .debug_aranges
                0x0000000000000cf0       0x28 c:/program files/microchip/xc32/v4.60/bin/bin/../../lib/gcc/pic32c/8.3.1/../../../../pic32c/lib/thumb/v6-m/nofp\libc-musl.a(__init_stdio.o)
 .debug_aranges
                0x0000000000000d18       0x28 c:/program files/microchip/xc32/v4.60/bin/bin/../../lib/gcc/pic32c/8.3.1/../../../../pic32c/lib/thumb/v6-m/nofp\libc-musl.a(__out.o)
 .debug_aranges
                0x0000000000000d40       0x20 c:/program files/microchip/xc32/v4.60/bin/bin/../../lib/gcc/pic32c/8.3.1/../../../../pic32c/lib/thumb/v6-m/nofp\libc-musl.a(__putc.o)
 .debug_aranges
                0x0000000000000d60       0x30 c:/program files/microchip/xc32/v4.60/bin/bin/../../lib/gcc/pic32c/8.3.1/../../../../pic32c/lib/thumb/v6-m/nofp\libc-musl.a(__stderr.o)
 .debug_aranges
                0x0000000000000d90       0x28 c:/program files/microchip/xc32/v4.60/bin/bin/../../lib/gcc/pic32c/8.3.1/../../../../pic32c/lib/thumb/v6-m/nofp\libc-musl.a(__stdio_close.o)
 .debug_aranges
                0x0000000000000db8       0x28 c:/program files/microchip/xc32/v4.60/bin/bin/../../lib/gcc/pic32c/8.3.1/../../../../pic32c/lib/thumb/v6-m/nofp\libc-musl.a(__stdio_write.o)
 .debug_aranges
                0x0000000000000de0       0x30 c:/program files/microchip/xc32/v4.60/bin/bin/../../lib/gcc/pic32c/8.3.1/../../../../pic32c/lib/thumb/v6-m/nofp\libc-musl.a(__stdout.o)
 .debug_aranges
                0x0000000000000e10       0x28 c:/program files/microchip/xc32/v4.60/bin/bin/../../lib/gcc/pic32c/8.3.1/../../../../pic32c/lib/thumb/v6-m/nofp\libc-musl.a(__towrite.o)
 .debug_aranges
                0x0000000000000e38       0x20 c:/program files/microchip/xc32/v4.60/bin/bin/../../lib/gcc/pic32c/8.3.1/../../../../pic32c/lib/thumb/v6-m/nofp\libc-musl.a(__month_to_secs.o)
 .debug_aranges
                0x0000000000000e58       0x20 c:/program files/microchip/xc32/v4.60/bin/bin/../../lib/gcc/pic32c/8.3.1/../../../../pic32c/lib/thumb/v6-m/nofp\libc-musl.a(writev.o)
 .debug_aranges
                0x0000000000000e78       0x20 c:/program files/microchip/xc32/v4.60/bin/bin/../../lib/gcc/pic32c/8.3.1/../../../../pic32c/lib/thumb/v6-m/nofp\libc-musl.a(__overflow.o)
 .debug_aranges
                0x0000000000000e98       0x28 c:/program files/microchip/xc32/v4.60/bin/bin/../../lib/gcc/pic32c/8.3.1/../../../../pic32c/lib/thumb/v6-m/nofp\libc-musl.a(__fwrite.o)
 .debug_aranges
                0x0000000000000ec0       0x20 c:/program files/microchip/xc32/v4.60/bin/bin/../../lib/gcc/pic32c/8.3.1/thumb/v6-m/nofp\libgcc.a(_udivsi3.o)
 .debug_aranges
                0x0000000000000ee0       0x20 c:/program files/microchip/xc32/v4.60/bin/bin/../../lib/gcc/pic32c/8.3.1/thumb/v6-m/nofp\libgcc.a(_divsi3.o)
 .debug_aranges
                0x0000000000000f00       0x20 c:/program files/microchip/xc32/v4.60/bin/bin/../../lib/gcc/pic32c/8.3.1/thumb/v6-m/nofp\libgcc.a(_dvmd_tls.o)
 .debug_aranges
                0x0000000000000f20       0x20 c:/program files/microchip/xc32/v4.60/bin/bin/../../lib/gcc/pic32c/8.3.1/thumb/v6-m/nofp\libgcc.a(_aeabi_ldivmod.o)
 .debug_aranges
                0x0000000000000f40       0x20 c:/program files/microchip/xc32/v4.60/bin/bin/../../lib/gcc/pic32c/8.3.1/thumb/v6-m/nofp\libgcc.a(_aeabi_uldivmod.o)
 .debug_aranges
                0x0000000000000f60       0x20 c:/program files/microchip/xc32/v4.60/bin/bin/../../lib/gcc/pic32c/8.3.1/thumb/v6-m/nofp\libgcc.a(_muldi3.o)
 .debug_aranges
                0x0000000000000f80       0x20 c:/program files/microchip/xc32/v4.60/bin/bin/../../lib/gcc/pic32c/8.3.1/thumb/v6-m/nofp\libgcc.a(_udivmoddi4.o)
 .debug_aranges
                0x0000000000000fa0       0x20 c:/program files/microchip/xc32/v4.60/bin/bin/../../lib/gcc/pic32c/8.3.1/thumb/v6-m/nofp\libgcc.a(bpabi.o)
 .debug_aranges
                0x0000000000000fc0       0x20 c:/program files/microchip/xc32/v4.60/bin/bin/../../lib/gcc/pic32c/8.3.1/thumb/v6-m/nofp\libgcc.a(_lshrdi3.o)
 .debug_aranges
                0x0000000000000fe0       0x20 c:/program files/microchip/xc32/v4.60/bin/bin/../../lib/gcc/pic32c/8.3.1/thumb/v6-m/nofp\libgcc.a(_ashldi3.o)
 .debug_aranges
                0x0000000000001000       0x20 c:/program files/microchip/xc32/v4.60/bin/bin/../../lib/gcc/pic32c/8.3.1/thumb/v6-m/nofp\libgcc.a(_clzdi2.o)
 .debug_aranges
                0x0000000000001020       0x20 c:/program files/microchip/xc32/v4.60/bin/bin/../../lib/gcc/pic32c/8.3.1/thumb/v6-m/nofp\libgcc.a(_divdi3.o)
 .debug_aranges
                0x0000000000001040       0x20 c:/program files/microchip/xc32/v4.60/bin/bin/../../lib/gcc/pic32c/8.3.1/thumb/v6-m/nofp\libgcc.a(_clzsi2.o)
 .debug_aranges
                0x0000000000001060       0x20 c:/program files/microchip/xc32/v4.60/bin/bin/../../lib/gcc/pic32c/8.3.1/../../../../pic32c/lib/thumb/v6-m/nofp\libpic32c.a(close.o)
 .debug_aranges
                0x0000000000001080       0x20 c:/program files/microchip/xc32/v4.60/bin/bin/../../lib/gcc/pic32c/8.3.1/../../../../pic32c/lib/thumb/v6-m/nofp\libpic32c.a(lseek.o)
 .debug_aranges
                0x00000000000010a0       0x30 c:/program files/microchip/xc32/v4.60/bin/bin/../../lib/gcc/pic32c/8.3.1/../../../../pic32c/lib/thumb/v6-m/nofp\libpic32c.a(sbrk.o)
 .debug_aranges
                0x00000000000010d0       0x20 c:/program files/microchip/xc32/v4.60/bin/bin/../../lib/gcc/pic32c/8.3.1/../../../../pic32c/lib/thumb/v6-m/nofp\libpic32c.a(pic32_data_init_clear.o)
 .debug_aranges
                0x00000000000010f0       0x20 c:/program files/microchip/xc32/v4.60/bin/bin/../../lib/gcc/pic32c/8.3.1/../../../../pic32c/lib/thumb/v6-m/nofp\libpic32c.a(pic32_data_init_copy.o)

.debug_ranges   0x0000000000000000     0x22f8
 .debug_ranges  0x0000000000000000       0x18 build/SAMD21_IOT_WG_ICM42688/production/_ext/2048461350/icm42688_sensor.o
 .debug_ranges  0x0000000000000018      0x3c8 build/SAMD21_IOT_WG_ICM42688/production/_ext/1660664302/drv_spi.o
 .debug_ranges  0x00000000000003e0       0xd8 build/SAMD21_IOT_WG_ICM42688/production/_ext/101005277/wdrv_winc_spi.o
 .debug_ranges  0x00000000000004b8       0x50 build/SAMD21_IOT_WG_ICM42688/production/_ext/121554788/m2m_ssl.o
 .debug_ranges  0x0000000000000508      0x118 build/SAMD21_IOT_WG_ICM42688/production/_ext/121554788/m2m_hif.o
 .debug_ranges  0x0000000000000620      0x160 build/SAMD21_IOT_WG_ICM42688/production/_ext/121554788/m2m_wifi.o
 .debug_ranges  0x0000000000000780      0x398 build/SAMD21_IOT_WG_ICM42688/production/_ext/121554788/nmspi.o
 .debug_ranges  0x0000000000000b18       0x48 build/SAMD21_IOT_WG_ICM42688/production/_ext/121554788/nmasic.o
 .debug_ranges  0x0000000000000b60       0x18 build/SAMD21_IOT_WG_ICM42688/production/_ext/121554788/nmbus.o
 .debug_ranges  0x0000000000000b78      0x160 build/SAMD21_IOT_WG_ICM42688/production/_ext/548032175/socket.o
 .debug_ranges  0x0000000000000cd8       0x20 build/SAMD21_IOT_WG_ICM42688/production/_ext/609036575/flexible_flash.o
 .debug_ranges  0x0000000000000cf8       0x58 build/SAMD21_IOT_WG_ICM42688/production/_ext/609036575/spi_flash.o
 .debug_ranges  0x0000000000000d50       0x58 build/SAMD21_IOT_WG_ICM42688/production/_ext/907429946/wdrv_winc_sta.o
 .debug_ranges  0x0000000000000da8       0xb8 build/SAMD21_IOT_WG_ICM42688/production/_ext/907429946/wdrv_winc_socket.o
 .debug_ranges  0x0000000000000e60       0x80 build/SAMD21_IOT_WG_ICM42688/production/_ext/907429946/wdrv_winc_authctx.o
 .debug_ranges  0x0000000000000ee0       0xf0 build/SAMD21_IOT_WG_ICM42688/production/_ext/907429946/wdrv_winc_host_file.o
 .debug_ranges  0x0000000000000fd0      0x1d8 build/SAMD21_IOT_WG_ICM42688/production/_ext/907429946/wdrv_winc.o
 .debug_ranges  0x00000000000011a8       0x38 build/SAMD21_IOT_WG_ICM42688/production/_ext/1750425231/plib_clock.o
 .debug_ranges  0x00000000000011e0       0x40 build/SAMD21_IOT_WG_ICM42688/production/_ext/1580516298/plib_dmac.o
 .debug_ranges  0x0000000000001220      0x128 build/SAMD21_IOT_WG_ICM42688/production/_ext/1580823105/plib_nvic.o
 .debug_ranges  0x0000000000001348       0x18 build/SAMD21_IOT_WG_ICM42688/production/_ext/1580876256/plib_port.o
 .debug_ranges  0x0000000000001360       0x30 build/SAMD21_IOT_WG_ICM42688/production/_ext/1014017276/plib_sercom0_spi_master.o
 .debug_ranges  0x0000000000001390       0x40 build/SAMD21_IOT_WG_ICM42688/production/_ext/1014017276/plib_sercom2_spi_master.o
 .debug_ranges  0x00000000000013d0       0x18 build/SAMD21_IOT_WG_ICM42688/production/_ext/177673482/plib_sercom5_usart.o
 .debug_ranges  0x00000000000013e8       0x30 build/SAMD21_IOT_WG_ICM42688/production/_ext/1318297016/sys_int.o
 .debug_ranges  0x0000000000001418      0x340 build/SAMD21_IOT_WG_ICM42688/production/_ext/386530258/sys_time.o
 .debug_ranges  0x0000000000001758       0x18 build/SAMD21_IOT_WG_ICM42688/production/_ext/1832905403/initialization.o
 .debug_ranges  0x0000000000001770       0x18 build/SAMD21_IOT_WG_ICM42688/production/_ext/1832905403/startup_xc32.o
 .debug_ranges  0x0000000000001788      0x3c8 build/SAMD21_IOT_WG_ICM42688/production/_ext/1341251756/Icm426xxDriver_HL.o
 .debug_ranges  0x0000000000001b50       0xc8 build/SAMD21_IOT_WG_ICM42688/production/_ext/1341251756/Icm426xxTransport.o
 .debug_ranges  0x0000000000001c18       0x48 build/SAMD21_IOT_WG_ICM42688/production/_ext/1360937237/main.o
 .debug_ranges  0x0000000000001c60       0xe0 build/SAMD21_IOT_WG_ICM42688/production/_ext/1360937237/ringbuffer.o
 .debug_ranges  0x0000000000001d40       0x48 build/SAMD21_IOT_WG_ICM42688/production/_ext/1360937237/winc1500_tcp_client.o
 .debug_ranges  0x0000000000001d88       0x20 c:/program files/microchip/xc32/v4.60/bin/bin/../../lib/gcc/pic32c/8.3.1/../../../../pic32c/lib/thumb/v6-m/nofp\libpic32c.a(data_init.o)
 .debug_ranges  0x0000000000001da8       0x10 c:/program files/microchip/xc32/v4.60/bin/bin/../../lib/gcc/pic32c/8.3.1/../../../../pic32c/lib/thumb/v6-m/nofp\libc-size-musl.a(memcpy.o)
 .debug_ranges  0x0000000000001db8       0x10 c:/program files/microchip/xc32/v4.60/bin/bin/../../lib/gcc/pic32c/8.3.1/../../../../pic32c/lib/thumb/v6-m/nofp\libc-size-musl.a(memset.o)
 .debug_ranges  0x0000000000001dc8       0x10 c:/program files/microchip/xc32/v4.60/bin/bin/../../lib/gcc/pic32c/8.3.1/../../../../pic32c/lib/thumb/v6-m/nofp\libc-size-musl.a(strlen.o)
 .debug_ranges  0x0000000000001dd8       0x10 c:/program files/microchip/xc32/v4.60/bin/bin/../../lib/gcc/pic32c/8.3.1/../../../../pic32c/lib/thumb/v6-m/nofp\libc-size-musl.a(strchr.o)
 .debug_ranges  0x0000000000001de8       0x10 c:/program files/microchip/xc32/v4.60/bin/bin/../../lib/gcc/pic32c/8.3.1/../../../../pic32c/lib/thumb/v6-m/nofp\libc-size-musl.a(strchrnul.o)
 .debug_ranges  0x0000000000001df8       0x10 c:/program files/microchip/xc32/v4.60/bin/bin/../../lib/gcc/pic32c/8.3.1/../../../../pic32c/lib/thumb/v6-m/nofp\libc-size-musl.a(strnlen.o)
 .debug_ranges  0x0000000000001e08       0x10 c:/program files/microchip/xc32/v4.60/bin/bin/../../lib/gcc/pic32c/8.3.1/../../../../pic32c/lib/thumb/v6-m/nofp\libc-size-musl.a(memchr.o)
 .debug_ranges  0x0000000000001e18       0x10 c:/program files/microchip/xc32/v4.60/bin/bin/../../lib/gcc/pic32c/8.3.1/../../../../pic32c/lib/thumb/v6-m/nofp\liblmalloc-musl.a(lite_calloc.o)
 .debug_ranges  0x0000000000001e28       0x38 c:/program files/microchip/xc32/v4.60/bin/bin/../../lib/gcc/pic32c/8.3.1/../../../../pic32c/lib/thumb/v6-m/nofp\liblmalloc-musl.a(lite_free.o)
 .debug_ranges  0x0000000000001e60       0x10 c:/program files/microchip/xc32/v4.60/bin/bin/../../lib/gcc/pic32c/8.3.1/../../../../pic32c/lib/thumb/v6-m/nofp\liblmalloc-musl.a(lite_malloc.o)
 .debug_ranges  0x0000000000001e70       0x30 c:/program files/microchip/xc32/v4.60/bin/bin/../../lib/gcc/pic32c/8.3.1/../../../../pic32c/lib/thumb/v6-m/nofp\libc-musl.a(__libc_start_main.o)
 .debug_ranges  0x0000000000001ea0       0x10 c:/program files/microchip/xc32/v4.60/bin/bin/../../lib/gcc/pic32c/8.3.1/../../../../pic32c/lib/thumb/v6-m/nofp\libc-musl.a(expand_heap.o)
 .debug_ranges  0x0000000000001eb0       0x18 c:/program files/microchip/xc32/v4.60/bin/bin/../../lib/gcc/pic32c/8.3.1/../../../../pic32c/lib/thumb/v6-m/nofp\libc-musl.a(__sio_printf_cdnsu.o)
 .debug_ranges  0x0000000000001ec8       0x10 c:/program files/microchip/xc32/v4.60/bin/bin/../../lib/gcc/pic32c/8.3.1/../../../../pic32c/lib/thumb/v6-m/nofp\libc-musl.a(__fmt_d.o)
 .debug_ranges  0x0000000000001ed8       0x10 c:/program files/microchip/xc32/v4.60/bin/bin/../../lib/gcc/pic32c/8.3.1/../../../../pic32c/lib/thumb/v6-m/nofp\libc-musl.a(__fmt_s.o)
 .debug_ranges  0x0000000000001ee8       0x10 c:/program files/microchip/xc32/v4.60/bin/bin/../../lib/gcc/pic32c/8.3.1/../../../../pic32c/lib/thumb/v6-m/nofp\libc-musl.a(__fmt_u.o)
 .debug_ranges  0x0000000000001ef8       0x10 c:/program files/microchip/xc32/v4.60/bin/bin/../../lib/gcc/pic32c/8.3.1/../../../../pic32c/lib/thumb/v6-m/nofp\libc-musl.a(__pop_int.o)
 .debug_ranges  0x0000000000001f08       0x10 c:/program files/microchip/xc32/v4.60/bin/bin/../../lib/gcc/pic32c/8.3.1/../../../../pic32c/lib/thumb/v6-m/nofp\libc-musl.a(__pop_ptr.o)
 .debug_ranges  0x0000000000001f18       0x58 c:/program files/microchip/xc32/v4.60/bin/bin/../../lib/gcc/pic32c/8.3.1/../../../../pic32c/lib/thumb/v6-m/nofp\libc-musl.a(__printf_core.o)
 .debug_ranges  0x0000000000001f70       0x18 c:/program files/microchip/xc32/v4.60/bin/bin/../../lib/gcc/pic32c/8.3.1/../../../../pic32c/lib/thumb/v6-m/nofp\libc-musl.a(stdin.o)
 .debug_ranges  0x0000000000001f88       0x20 c:/program files/microchip/xc32/v4.60/bin/bin/../../lib/gcc/pic32c/8.3.1/../../../../pic32c/lib/thumb/v6-m/nofp\libc-musl.a(stdout.o)
 .debug_ranges  0x0000000000001fa8       0x10 c:/program files/microchip/xc32/v4.60/bin/bin/../../lib/gcc/pic32c/8.3.1/../../../../pic32c/lib/thumb/v6-m/nofp\libc-musl.a(puts.o)
 .debug_ranges  0x0000000000001fb8       0x10 c:/program files/microchip/xc32/v4.60/bin/bin/../../lib/gcc/pic32c/8.3.1/../../../../pic32c/lib/thumb/v6-m/nofp\libc-musl.a(setbuf.o)
 .debug_ranges  0x0000000000001fc8       0x10 c:/program files/microchip/xc32/v4.60/bin/bin/../../lib/gcc/pic32c/8.3.1/../../../../pic32c/lib/thumb/v6-m/nofp\libc-musl.a(atoi.o)
 .debug_ranges  0x0000000000001fd8       0x10 c:/program files/microchip/xc32/v4.60/bin/bin/../../lib/gcc/pic32c/8.3.1/../../../../pic32c/lib/thumb/v6-m/nofp\libc-musl.a(gmtime.o)
 .debug_ranges  0x0000000000001fe8       0x10 c:/program files/microchip/xc32/v4.60/bin/bin/../../lib/gcc/pic32c/8.3.1/../../../../pic32c/lib/thumb/v6-m/nofp\libc-musl.a(gmtime_r.o)
 .debug_ranges  0x0000000000001ff8       0x10 c:/program files/microchip/xc32/v4.60/bin/bin/../../lib/gcc/pic32c/8.3.1/../../../../pic32c/lib/thumb/v6-m/nofp\libc-musl.a(mktime.o)
 .debug_ranges  0x0000000000002008       0x18 c:/program files/microchip/xc32/v4.60/bin/bin/../../lib/gcc/pic32c/8.3.1/../../../../pic32c/lib/thumb/v6-m/nofp\libc-musl.a(tolower.o)
 .debug_ranges  0x0000000000002020       0x10 c:/program files/microchip/xc32/v4.60/bin/bin/../../lib/gcc/pic32c/8.3.1/../../../../pic32c/lib/thumb/v6-m/nofp\libc-musl.a(__int_vfprintf.o)
 .debug_ranges  0x0000000000002030       0x10 c:/program files/microchip/xc32/v4.60/bin/bin/../../lib/gcc/pic32c/8.3.1/../../../../pic32c/lib/thumb/v6-m/nofp\libc-musl.a(fputs.o)
 .debug_ranges  0x0000000000002040       0x10 c:/program files/microchip/xc32/v4.60/bin/bin/../../lib/gcc/pic32c/8.3.1/../../../../pic32c/lib/thumb/v6-m/nofp\libc-musl.a(__cvt_u.o)
 .debug_ranges  0x0000000000002050       0x10 c:/program files/microchip/xc32/v4.60/bin/bin/../../lib/gcc/pic32c/8.3.1/../../../../pic32c/lib/thumb/v6-m/nofp\libc-musl.a(__pop_float.o)
 .debug_ranges  0x0000000000002060       0x10 c:/program files/microchip/xc32/v4.60/bin/bin/../../lib/gcc/pic32c/8.3.1/../../../../pic32c/lib/thumb/v6-m/nofp\libc-musl.a(__stdio_read.o)
 .debug_ranges  0x0000000000002070       0x10 c:/program files/microchip/xc32/v4.60/bin/bin/../../lib/gcc/pic32c/8.3.1/../../../../pic32c/lib/thumb/v6-m/nofp\libc-musl.a(__towrite_rw.o)
 .debug_ranges  0x0000000000002080       0x18 c:/program files/microchip/xc32/v4.60/bin/bin/../../lib/gcc/pic32c/8.3.1/../../../../pic32c/lib/thumb/v6-m/nofp\libc-musl.a(fwrite.o)
 .debug_ranges  0x0000000000002098       0x20 c:/program files/microchip/xc32/v4.60/bin/bin/../../lib/gcc/pic32c/8.3.1/../../../../pic32c/lib/thumb/v6-m/nofp\libc-musl.a(putc.o)
 .debug_ranges  0x00000000000020b8       0x18 c:/program files/microchip/xc32/v4.60/bin/bin/../../lib/gcc/pic32c/8.3.1/../../../../pic32c/lib/thumb/v6-m/nofp\libc-musl.a(setvbuf.o)
 .debug_ranges  0x00000000000020d0       0x10 c:/program files/microchip/xc32/v4.60/bin/bin/../../lib/gcc/pic32c/8.3.1/../../../../pic32c/lib/thumb/v6-m/nofp\libc-musl.a(__tm_to_secs.o)
 .debug_ranges  0x00000000000020e0       0x28 c:/program files/microchip/xc32/v4.60/bin/bin/../../lib/gcc/pic32c/8.3.1/../../../../pic32c/lib/thumb/v6-m/nofp\libc-musl.a(__year_to_secs.o)
 .debug_ranges  0x0000000000002108       0x10 c:/program files/microchip/xc32/v4.60/bin/bin/../../lib/gcc/pic32c/8.3.1/../../../../pic32c/lib/thumb/v6-m/nofp\libc-musl.a(__secs_to_tm.o)
 .debug_ranges  0x0000000000002118       0x10 c:/program files/microchip/xc32/v4.60/bin/bin/../../lib/gcc/pic32c/8.3.1/../../../../pic32c/lib/thumb/v6-m/nofp\libc-musl.a(readv.o)
 .debug_ranges  0x0000000000002128       0x18 c:/program files/microchip/xc32/v4.60/bin/bin/../../lib/gcc/pic32c/8.3.1/../../../../pic32c/lib/thumb/v6-m/nofp\libc-musl.a(__init_stdio.o)
 .debug_ranges  0x0000000000002140       0x18 c:/program files/microchip/xc32/v4.60/bin/bin/../../lib/gcc/pic32c/8.3.1/../../../../pic32c/lib/thumb/v6-m/nofp\libc-musl.a(__out.o)
 .debug_ranges  0x0000000000002158       0x10 c:/program files/microchip/xc32/v4.60/bin/bin/../../lib/gcc/pic32c/8.3.1/../../../../pic32c/lib/thumb/v6-m/nofp\libc-musl.a(__putc.o)
 .debug_ranges  0x0000000000002168       0x20 c:/program files/microchip/xc32/v4.60/bin/bin/../../lib/gcc/pic32c/8.3.1/../../../../pic32c/lib/thumb/v6-m/nofp\libc-musl.a(__stderr.o)
 .debug_ranges  0x0000000000002188       0x18 c:/program files/microchip/xc32/v4.60/bin/bin/../../lib/gcc/pic32c/8.3.1/../../../../pic32c/lib/thumb/v6-m/nofp\libc-musl.a(__stdio_close.o)
 .debug_ranges  0x00000000000021a0       0x30 c:/program files/microchip/xc32/v4.60/bin/bin/../../lib/gcc/pic32c/8.3.1/../../../../pic32c/lib/thumb/v6-m/nofp\libc-musl.a(__stdio_write.o)
 .debug_ranges  0x00000000000021d0       0x20 c:/program files/microchip/xc32/v4.60/bin/bin/../../lib/gcc/pic32c/8.3.1/../../../../pic32c/lib/thumb/v6-m/nofp\libc-musl.a(__stdout.o)
 .debug_ranges  0x00000000000021f0       0x18 c:/program files/microchip/xc32/v4.60/bin/bin/../../lib/gcc/pic32c/8.3.1/../../../../pic32c/lib/thumb/v6-m/nofp\libc-musl.a(__towrite.o)
 .debug_ranges  0x0000000000002208       0x10 c:/program files/microchip/xc32/v4.60/bin/bin/../../lib/gcc/pic32c/8.3.1/../../../../pic32c/lib/thumb/v6-m/nofp\libc-musl.a(__month_to_secs.o)
 .debug_ranges  0x0000000000002218       0x10 c:/program files/microchip/xc32/v4.60/bin/bin/../../lib/gcc/pic32c/8.3.1/../../../../pic32c/lib/thumb/v6-m/nofp\libc-musl.a(writev.o)
 .debug_ranges  0x0000000000002228       0x10 c:/program files/microchip/xc32/v4.60/bin/bin/../../lib/gcc/pic32c/8.3.1/../../../../pic32c/lib/thumb/v6-m/nofp\libc-musl.a(__overflow.o)
 .debug_ranges  0x0000000000002238       0x18 c:/program files/microchip/xc32/v4.60/bin/bin/../../lib/gcc/pic32c/8.3.1/../../../../pic32c/lib/thumb/v6-m/nofp\libc-musl.a(__fwrite.o)
 .debug_ranges  0x0000000000002250       0x28 c:/program files/microchip/xc32/v4.60/bin/bin/../../lib/gcc/pic32c/8.3.1/thumb/v6-m/nofp\libgcc.a(_muldi3.o)
 .debug_ranges  0x0000000000002278       0x20 c:/program files/microchip/xc32/v4.60/bin/bin/../../lib/gcc/pic32c/8.3.1/thumb/v6-m/nofp\libgcc.a(_divdi3.o)
 .debug_ranges  0x0000000000002298       0x10 c:/program files/microchip/xc32/v4.60/bin/bin/../../lib/gcc/pic32c/8.3.1/../../../../pic32c/lib/thumb/v6-m/nofp\libpic32c.a(close.o)
 .debug_ranges  0x00000000000022a8       0x10 c:/program files/microchip/xc32/v4.60/bin/bin/../../lib/gcc/pic32c/8.3.1/../../../../pic32c/lib/thumb/v6-m/nofp\libpic32c.a(lseek.o)
 .debug_ranges  0x00000000000022b8       0x20 c:/program files/microchip/xc32/v4.60/bin/bin/../../lib/gcc/pic32c/8.3.1/../../../../pic32c/lib/thumb/v6-m/nofp\libpic32c.a(sbrk.o)
 .debug_ranges  0x00000000000022d8       0x10 c:/program files/microchip/xc32/v4.60/bin/bin/../../lib/gcc/pic32c/8.3.1/../../../../pic32c/lib/thumb/v6-m/nofp\libpic32c.a(pic32_data_init_clear.o)
 .debug_ranges  0x00000000000022e8       0x10 c:/program files/microchip/xc32/v4.60/bin/bin/../../lib/gcc/pic32c/8.3.1/../../../../pic32c/lib/thumb/v6-m/nofp\libpic32c.a(pic32_data_init_copy.o)

.debug_line     0x0000000000000000    0x1f265
 .debug_line    0x0000000000000000      0x49f build/SAMD21_IOT_WG_ICM42688/production/_ext/2048461350/icm42688_sensor.o
 .debug_line    0x000000000000049f     0x17b5 build/SAMD21_IOT_WG_ICM42688/production/_ext/1660664302/drv_spi.o
 .debug_line    0x0000000000001c54      0x11d build/SAMD21_IOT_WG_ICM42688/production/_ext/1164161090/wdrv_winc_gpio.o
 .debug_line    0x0000000000001d71      0x175 build/SAMD21_IOT_WG_ICM42688/production/_ext/1164161090/wdrv_winc_eint.o
 .debug_line    0x0000000000001ee6      0x6ef build/SAMD21_IOT_WG_ICM42688/production/_ext/101005277/wdrv_winc_spi.o
 .debug_line    0x00000000000025d5      0x1af build/SAMD21_IOT_WG_ICM42688/production/_ext/90265895/nm_common.o
 .debug_line    0x0000000000002784      0x73f build/SAMD21_IOT_WG_ICM42688/production/_ext/121554788/m2m_ssl.o
 .debug_line    0x0000000000002ec3      0xc4c build/SAMD21_IOT_WG_ICM42688/production/_ext/121554788/m2m_hif.o
 .debug_line    0x0000000000003b0f     0x1b6a build/SAMD21_IOT_WG_ICM42688/production/_ext/121554788/m2m_wifi.o
 .debug_line    0x0000000000005679      0xf0d build/SAMD21_IOT_WG_ICM42688/production/_ext/121554788/nmspi.o
 .debug_line    0x0000000000006586      0x547 build/SAMD21_IOT_WG_ICM42688/production/_ext/121554788/nmdrv.o
 .debug_line    0x0000000000006acd      0x7d7 build/SAMD21_IOT_WG_ICM42688/production/_ext/121554788/m2m_ota.o
 .debug_line    0x00000000000072a4      0xac4 build/SAMD21_IOT_WG_ICM42688/production/_ext/121554788/nmasic.o
 .debug_line    0x0000000000007d68      0x333 build/SAMD21_IOT_WG_ICM42688/production/_ext/121554788/nmbus.o
 .debug_line    0x000000000000809b     0x10ad build/SAMD21_IOT_WG_ICM42688/production/_ext/548032175/socket.o
 .debug_line    0x0000000000009148      0x1df build/SAMD21_IOT_WG_ICM42688/production/_ext/548032175/inet_addr.o
 .debug_line    0x0000000000009327      0x1fb build/SAMD21_IOT_WG_ICM42688/production/_ext/548032175/inet_ntop.o
 .debug_line    0x0000000000009522      0x1cd build/SAMD21_IOT_WG_ICM42688/production/_ext/609036575/flexible_flash.o
 .debug_line    0x00000000000096ef      0x882 build/SAMD21_IOT_WG_ICM42688/production/_ext/609036575/spi_flash.o
 .debug_line    0x0000000000009f71      0x130 build/SAMD21_IOT_WG_ICM42688/production/_ext/1784303044/wdrv_winc_osal.o
 .debug_line    0x000000000000a0a1      0x8f2 build/SAMD21_IOT_WG_ICM42688/production/_ext/907429946/wdrv_winc_sta.o
 .debug_line    0x000000000000a993      0xa5a build/SAMD21_IOT_WG_ICM42688/production/_ext/907429946/wdrv_winc_socket.o
 .debug_line    0x000000000000b3ed      0x5ac build/SAMD21_IOT_WG_ICM42688/production/_ext/907429946/wdrv_winc_systime.o
 .debug_line    0x000000000000b999      0x5e3 build/SAMD21_IOT_WG_ICM42688/production/_ext/907429946/wdrv_winc_authctx.o
 .debug_line    0x000000000000bf7c      0xdbb build/SAMD21_IOT_WG_ICM42688/production/_ext/907429946/wdrv_winc_host_file.o
 .debug_line    0x000000000000cd37     0x19f2 build/SAMD21_IOT_WG_ICM42688/production/_ext/907429946/wdrv_winc.o
 .debug_line    0x000000000000e729      0x32c build/SAMD21_IOT_WG_ICM42688/production/_ext/907429946/wdrv_winc_bssctx.o
 .debug_line    0x000000000000ea55      0x239 build/SAMD21_IOT_WG_ICM42688/production/_ext/1750425231/plib_clock.o
 .debug_line    0x000000000000ec8e      0x7d4 build/SAMD21_IOT_WG_ICM42688/production/_ext/1580516298/plib_dmac.o
 .debug_line    0x000000000000f462      0x293 build/SAMD21_IOT_WG_ICM42688/production/_ext/503204096/plib_eic.o
 .debug_line    0x000000000000f6f5      0x5ee build/SAMD21_IOT_WG_ICM42688/production/_ext/1580823105/plib_nvic.o
 .debug_line    0x000000000000fce3      0x337 build/SAMD21_IOT_WG_ICM42688/production/_ext/11470383/plib_nvmctrl.o
 .debug_line    0x000000000001001a      0x395 build/SAMD21_IOT_WG_ICM42688/production/_ext/1580876256/plib_port.o
 .debug_line    0x00000000000103af      0x50c build/SAMD21_IOT_WG_ICM42688/production/_ext/1014017276/plib_sercom0_spi_master.o
 .debug_line    0x00000000000108bb      0x823 build/SAMD21_IOT_WG_ICM42688/production/_ext/1014017276/plib_sercom2_spi_master.o
 .debug_line    0x00000000000110de      0x564 build/SAMD21_IOT_WG_ICM42688/production/_ext/177673482/plib_sercom5_usart.o
 .debug_line    0x0000000000011642      0x2d8 build/SAMD21_IOT_WG_ICM42688/production/_ext/223004715/plib_systick.o
 .debug_line    0x000000000001191a      0x289 build/SAMD21_IOT_WG_ICM42688/production/_ext/399410062/plib_tc3.o
 .debug_line    0x0000000000011ba3      0x2a1 build/SAMD21_IOT_WG_ICM42688/production/_ext/399410062/plib_tc4.o
 .debug_line    0x0000000000011e44      0x16b build/SAMD21_IOT_WG_ICM42688/production/_ext/1357625803/xc32_monitor.o
 .debug_line    0x0000000000011faf      0x16a build/SAMD21_IOT_WG_ICM42688/production/_ext/1584719636/sys_dma.o
 .debug_line    0x0000000000012119      0x2cc build/SAMD21_IOT_WG_ICM42688/production/_ext/1318297016/sys_int.o
 .debug_line    0x00000000000123e5     0x14b3 build/SAMD21_IOT_WG_ICM42688/production/_ext/386530258/sys_time.o
 .debug_line    0x0000000000013898      0x7cc build/SAMD21_IOT_WG_ICM42688/production/_ext/1832905403/initialization.o
 .debug_line    0x0000000000014064      0x108 build/SAMD21_IOT_WG_ICM42688/production/_ext/1832905403/interrupts.o
 .debug_line    0x000000000001416c       0x6f build/SAMD21_IOT_WG_ICM42688/production/_ext/1832905403/exceptions.o
 .debug_line    0x00000000000141db      0x168 build/SAMD21_IOT_WG_ICM42688/production/_ext/1832905403/startup_xc32.o
 .debug_line    0x0000000000014343      0x176 build/SAMD21_IOT_WG_ICM42688/production/_ext/1832905403/tasks.o
 .debug_line    0x00000000000144b9     0x2865 build/SAMD21_IOT_WG_ICM42688/production/_ext/1341251756/Icm426xxDriver_HL.o
 .debug_line    0x0000000000016d1e      0x2f1 build/SAMD21_IOT_WG_ICM42688/production/_ext/1341251756/Icm426xxTransport.o
 .debug_line    0x000000000001700f      0x5fd build/SAMD21_IOT_WG_ICM42688/production/_ext/1360937237/main.o
 .debug_line    0x000000000001760c      0x4eb build/SAMD21_IOT_WG_ICM42688/production/_ext/1360937237/ringbuffer.o
 .debug_line    0x0000000000017af7      0x267 build/SAMD21_IOT_WG_ICM42688/production/_ext/1360937237/app.o
 .debug_line    0x0000000000017d5e      0x4fd build/SAMD21_IOT_WG_ICM42688/production/_ext/1360937237/winc1500_tcp_client.o
 .debug_line    0x000000000001825b       0xa5 c:/program files/microchip/xc32/v4.60/bin/bin/../../lib/gcc/pic32c/8.3.1/../../../../pic32c/lib/thumb/v6-m/nofp\libpic32c.a(data_init.o)
 .debug_line    0x0000000000018300       0xee c:/program files/microchip/xc32/v4.60/bin/bin/../../lib/gcc/pic32c/8.3.1/../../../../pic32c/lib/thumb/v6-m/nofp\libc-size-musl.a(memcpy.o)
 .debug_line    0x00000000000183ee       0xe3 c:/program files/microchip/xc32/v4.60/bin/bin/../../lib/gcc/pic32c/8.3.1/../../../../pic32c/lib/thumb/v6-m/nofp\libc-size-musl.a(memset.o)
 .debug_line    0x00000000000184d1       0xee c:/program files/microchip/xc32/v4.60/bin/bin/../../lib/gcc/pic32c/8.3.1/../../../../pic32c/lib/thumb/v6-m/nofp\libc-size-musl.a(strlen.o)
 .debug_line    0x00000000000185bf       0xb2 c:/program files/microchip/xc32/v4.60/bin/bin/../../lib/gcc/pic32c/8.3.1/../../../../pic32c/lib/thumb/v6-m/nofp\libc-size-musl.a(strchr.o)
 .debug_line    0x0000000000018671      0x19c c:/program files/microchip/xc32/v4.60/bin/bin/../../lib/gcc/pic32c/8.3.1/../../../../pic32c/lib/thumb/v6-m/nofp\libc-size-musl.a(strchrnul.o)
 .debug_line    0x000000000001880d      0x14d c:/program files/microchip/xc32/v4.60/bin/bin/../../lib/gcc/pic32c/8.3.1/../../../../pic32c/lib/thumb/v6-m/nofp\libc-size-musl.a(strnlen.o)
 .debug_line    0x000000000001895a       0xfd c:/program files/microchip/xc32/v4.60/bin/bin/../../lib/gcc/pic32c/8.3.1/../../../../pic32c/lib/thumb/v6-m/nofp\libc-size-musl.a(memchr.o)
 .debug_line    0x0000000000018a57      0x15a c:/program files/microchip/xc32/v4.60/bin/bin/../../lib/gcc/pic32c/8.3.1/../../../../pic32c/lib/thumb/v6-m/nofp\liblmalloc-musl.a(lite_calloc.o)
 .debug_line    0x0000000000018bb1      0x266 c:/program files/microchip/xc32/v4.60/bin/bin/../../lib/gcc/pic32c/8.3.1/../../../../pic32c/lib/thumb/v6-m/nofp\liblmalloc-musl.a(lite_free.o)
 .debug_line    0x0000000000018e17      0x1d3 c:/program files/microchip/xc32/v4.60/bin/bin/../../lib/gcc/pic32c/8.3.1/../../../../pic32c/lib/thumb/v6-m/nofp\liblmalloc-musl.a(lite_malloc.o)
 .debug_line    0x0000000000018fea      0x1bc c:/program files/microchip/xc32/v4.60/bin/bin/../../lib/gcc/pic32c/8.3.1/../../../../pic32c/lib/thumb/v6-m/nofp\libc-musl.a(__libc_start_main.o)
 .debug_line    0x00000000000191a6       0x9a c:/program files/microchip/xc32/v4.60/bin/bin/../../lib/gcc/pic32c/8.3.1/../../../../pic32c/lib/thumb/v6-m/nofp\libc-musl.a(__errno_location.o)
 .debug_line    0x0000000000019240       0xb5 c:/program files/microchip/xc32/v4.60/bin/bin/../../lib/gcc/pic32c/8.3.1/../../../../pic32c/lib/thumb/v6-m/nofp\libc-musl.a(libc.o)
 .debug_line    0x00000000000192f5       0xec c:/program files/microchip/xc32/v4.60/bin/bin/../../lib/gcc/pic32c/8.3.1/../../../../pic32c/lib/thumb/v6-m/nofp\libc-musl.a(expand_heap.o)
 .debug_line    0x00000000000193e1      0x1bc c:/program files/microchip/xc32/v4.60/bin/bin/../../lib/gcc/pic32c/8.3.1/../../../../pic32c/lib/thumb/v6-m/nofp\libc-musl.a(__sio_printf_cdnsu.o)
 .debug_line    0x000000000001959d      0x20b c:/program files/microchip/xc32/v4.60/bin/bin/../../lib/gcc/pic32c/8.3.1/../../../../pic32c/lib/thumb/v6-m/nofp\libc-musl.a(__fmt_d.o)
 .debug_line    0x00000000000197a8      0x204 c:/program files/microchip/xc32/v4.60/bin/bin/../../lib/gcc/pic32c/8.3.1/../../../../pic32c/lib/thumb/v6-m/nofp\libc-musl.a(__fmt_s.o)
 .debug_line    0x00000000000199ac      0x187 c:/program files/microchip/xc32/v4.60/bin/bin/../../lib/gcc/pic32c/8.3.1/../../../../pic32c/lib/thumb/v6-m/nofp\libc-musl.a(__fmt_u.o)
 .debug_line    0x0000000000019b33      0x211 c:/program files/microchip/xc32/v4.60/bin/bin/../../lib/gcc/pic32c/8.3.1/../../../../pic32c/lib/thumb/v6-m/nofp\libc-musl.a(__pop_int.o)
 .debug_line    0x0000000000019d44      0x1c8 c:/program files/microchip/xc32/v4.60/bin/bin/../../lib/gcc/pic32c/8.3.1/../../../../pic32c/lib/thumb/v6-m/nofp\libc-musl.a(__pop_ptr.o)
 .debug_line    0x0000000000019f0c      0x6c7 c:/program files/microchip/xc32/v4.60/bin/bin/../../lib/gcc/pic32c/8.3.1/../../../../pic32c/lib/thumb/v6-m/nofp\libc-musl.a(__printf_core.o)
 .debug_line    0x000000000001a5d3      0x1cf c:/program files/microchip/xc32/v4.60/bin/bin/../../lib/gcc/pic32c/8.3.1/../../../../pic32c/lib/thumb/v6-m/nofp\libc-musl.a(stdin.o)
 .debug_line    0x000000000001a7a2      0x191 c:/program files/microchip/xc32/v4.60/bin/bin/../../lib/gcc/pic32c/8.3.1/../../../../pic32c/lib/thumb/v6-m/nofp\libc-musl.a(stdout.o)
 .debug_line    0x000000000001a933      0x1c6 c:/program files/microchip/xc32/v4.60/bin/bin/../../lib/gcc/pic32c/8.3.1/../../../../pic32c/lib/thumb/v6-m/nofp\libc-musl.a(puts.o)
 .debug_line    0x000000000001aaf9      0x133 c:/program files/microchip/xc32/v4.60/bin/bin/../../lib/gcc/pic32c/8.3.1/../../../../pic32c/lib/thumb/v6-m/nofp\libc-musl.a(setbuf.o)
 .debug_line    0x000000000001ac2c      0x173 c:/program files/microchip/xc32/v4.60/bin/bin/../../lib/gcc/pic32c/8.3.1/../../../../pic32c/lib/thumb/v6-m/nofp\libc-musl.a(atoi.o)
 .debug_line    0x000000000001ad9f      0x130 c:/program files/microchip/xc32/v4.60/bin/bin/../../lib/gcc/pic32c/8.3.1/../../../../pic32c/lib/thumb/v6-m/nofp\libc-musl.a(gmtime.o)
 .debug_line    0x000000000001aecf      0x25c c:/program files/microchip/xc32/v4.60/bin/bin/../../lib/gcc/pic32c/8.3.1/../../../../pic32c/lib/thumb/v6-m/nofp\libc-musl.a(gmtime_r.o)
 .debug_line    0x000000000001b12b      0x285 c:/program files/microchip/xc32/v4.60/bin/bin/../../lib/gcc/pic32c/8.3.1/../../../../pic32c/lib/thumb/v6-m/nofp\libc-musl.a(mktime.o)
 .debug_line    0x000000000001b3b0      0x15c c:/program files/microchip/xc32/v4.60/bin/bin/../../lib/gcc/pic32c/8.3.1/../../../../pic32c/lib/thumb/v6-m/nofp\libc-musl.a(tolower.o)
 .debug_line    0x000000000001b50c       0xfb c:/program files/microchip/xc32/v4.60/bin/bin/../../lib/gcc/pic32c/8.3.1/../../../../pic32c/lib/thumb/v6-m/nofp\libc-musl.a(__environ.o)
 .debug_line    0x000000000001b607      0x172 c:/program files/microchip/xc32/v4.60/bin/bin/../../lib/gcc/pic32c/8.3.1/../../../../pic32c/lib/thumb/v6-m/nofp\libc-musl.a(__int_vfprintf.o)
 .debug_line    0x000000000001b779      0x236 c:/program files/microchip/xc32/v4.60/bin/bin/../../lib/gcc/pic32c/8.3.1/../../../../pic32c/lib/thumb/v6-m/nofp\libc-musl.a(fputs.o)
 .debug_line    0x000000000001b9af      0x1d7 c:/program files/microchip/xc32/v4.60/bin/bin/../../lib/gcc/pic32c/8.3.1/../../../../pic32c/lib/thumb/v6-m/nofp\libc-musl.a(__cvt_u.o)
 .debug_line    0x000000000001bb86      0x166 c:/program files/microchip/xc32/v4.60/bin/bin/../../lib/gcc/pic32c/8.3.1/../../../../pic32c/lib/thumb/v6-m/nofp\libc-musl.a(__pop_float.o)
 .debug_line    0x000000000001bcec      0x240 c:/program files/microchip/xc32/v4.60/bin/bin/../../lib/gcc/pic32c/8.3.1/../../../../pic32c/lib/thumb/v6-m/nofp\libc-musl.a(__stdio_read.o)
 .debug_line    0x000000000001bf2c      0x1eb c:/program files/microchip/xc32/v4.60/bin/bin/../../lib/gcc/pic32c/8.3.1/../../../../pic32c/lib/thumb/v6-m/nofp\libc-musl.a(__towrite_rw.o)
 .debug_line    0x000000000001c117      0x1f5 c:/program files/microchip/xc32/v4.60/bin/bin/../../lib/gcc/pic32c/8.3.1/../../../../pic32c/lib/thumb/v6-m/nofp\libc-musl.a(fwrite.o)
 .debug_line    0x000000000001c30c      0x1a3 c:/program files/microchip/xc32/v4.60/bin/bin/../../lib/gcc/pic32c/8.3.1/../../../../pic32c/lib/thumb/v6-m/nofp\libc-musl.a(putc.o)
 .debug_line    0x000000000001c4af      0x223 c:/program files/microchip/xc32/v4.60/bin/bin/../../lib/gcc/pic32c/8.3.1/../../../../pic32c/lib/thumb/v6-m/nofp\libc-musl.a(setvbuf.o)
 .debug_line    0x000000000001c6d2      0x1da c:/program files/microchip/xc32/v4.60/bin/bin/../../lib/gcc/pic32c/8.3.1/../../../../pic32c/lib/thumb/v6-m/nofp\libc-musl.a(__tm_to_secs.o)
 .debug_line    0x000000000001c8ac      0x20b c:/program files/microchip/xc32/v4.60/bin/bin/../../lib/gcc/pic32c/8.3.1/../../../../pic32c/lib/thumb/v6-m/nofp\libc-musl.a(__year_to_secs.o)
 .debug_line    0x000000000001cab7      0x322 c:/program files/microchip/xc32/v4.60/bin/bin/../../lib/gcc/pic32c/8.3.1/../../../../pic32c/lib/thumb/v6-m/nofp\libc-musl.a(__secs_to_tm.o)
 .debug_line    0x000000000001cdd9      0x15c c:/program files/microchip/xc32/v4.60/bin/bin/../../lib/gcc/pic32c/8.3.1/../../../../pic32c/lib/thumb/v6-m/nofp\libc-musl.a(readv.o)
 .debug_line    0x000000000001cf35       0xd0 c:/program files/microchip/xc32/v4.60/bin/bin/../../lib/gcc/pic32c/8.3.1/../../../../pic32c/lib/thumb/v6-m/nofp\libc-musl.a(__init_stdio.o)
 .debug_line    0x000000000001d005      0x28f c:/program files/microchip/xc32/v4.60/bin/bin/../../lib/gcc/pic32c/8.3.1/../../../../pic32c/lib/thumb/v6-m/nofp\libc-musl.a(__out.o)
 .debug_line    0x000000000001d294      0x15b c:/program files/microchip/xc32/v4.60/bin/bin/../../lib/gcc/pic32c/8.3.1/../../../../pic32c/lib/thumb/v6-m/nofp\libc-musl.a(__putc.o)
 .debug_line    0x000000000001d3ef      0x1da c:/program files/microchip/xc32/v4.60/bin/bin/../../lib/gcc/pic32c/8.3.1/../../../../pic32c/lib/thumb/v6-m/nofp\libc-musl.a(__stderr.o)
 .debug_line    0x000000000001d5c9      0x2de c:/program files/microchip/xc32/v4.60/bin/bin/../../lib/gcc/pic32c/8.3.1/../../../../pic32c/lib/thumb/v6-m/nofp\libc-musl.a(__stdio_close.o)
 .debug_line    0x000000000001d8a7      0x339 c:/program files/microchip/xc32/v4.60/bin/bin/../../lib/gcc/pic32c/8.3.1/../../../../pic32c/lib/thumb/v6-m/nofp\libc-musl.a(__stdio_write.o)
 .debug_line    0x000000000001dbe0      0x1da c:/program files/microchip/xc32/v4.60/bin/bin/../../lib/gcc/pic32c/8.3.1/../../../../pic32c/lib/thumb/v6-m/nofp\libc-musl.a(__stdout.o)
 .debug_line    0x000000000001ddba      0x180 c:/program files/microchip/xc32/v4.60/bin/bin/../../lib/gcc/pic32c/8.3.1/../../../../pic32c/lib/thumb/v6-m/nofp\libc-musl.a(__towrite.o)
 .debug_line    0x000000000001df3a       0xc6 c:/program files/microchip/xc32/v4.60/bin/bin/../../lib/gcc/pic32c/8.3.1/../../../../pic32c/lib/thumb/v6-m/nofp\libc-musl.a(__month_to_secs.o)
 .debug_line    0x000000000001e000      0x15d c:/program files/microchip/xc32/v4.60/bin/bin/../../lib/gcc/pic32c/8.3.1/../../../../pic32c/lib/thumb/v6-m/nofp\libc-musl.a(writev.o)
 .debug_line    0x000000000001e15d      0x1fb c:/program files/microchip/xc32/v4.60/bin/bin/../../lib/gcc/pic32c/8.3.1/../../../../pic32c/lib/thumb/v6-m/nofp\libc-musl.a(__overflow.o)
 .debug_line    0x000000000001e358      0x1e4 c:/program files/microchip/xc32/v4.60/bin/bin/../../lib/gcc/pic32c/8.3.1/../../../../pic32c/lib/thumb/v6-m/nofp\libc-musl.a(__fwrite.o)
 .debug_line    0x000000000001e53c       0xa8 c:/program files/microchip/xc32/v4.60/bin/bin/../../lib/gcc/pic32c/8.3.1/thumb/v6-m/nofp\libgcc.a(_udivsi3.o)
 .debug_line    0x000000000001e5e4       0xb6 c:/program files/microchip/xc32/v4.60/bin/bin/../../lib/gcc/pic32c/8.3.1/thumb/v6-m/nofp\libgcc.a(_divsi3.o)
 .debug_line    0x000000000001e69a       0x91 c:/program files/microchip/xc32/v4.60/bin/bin/../../lib/gcc/pic32c/8.3.1/thumb/v6-m/nofp\libgcc.a(_dvmd_tls.o)
 .debug_line    0x000000000001e72b       0x9c c:/program files/microchip/xc32/v4.60/bin/bin/../../lib/gcc/pic32c/8.3.1/thumb/v6-m/nofp\libgcc.a(_aeabi_ldivmod.o)
 .debug_line    0x000000000001e7c7       0x9c c:/program files/microchip/xc32/v4.60/bin/bin/../../lib/gcc/pic32c/8.3.1/thumb/v6-m/nofp\libgcc.a(_aeabi_uldivmod.o)
 .debug_line    0x000000000001e863       0xe7 c:/program files/microchip/xc32/v4.60/bin/bin/../../lib/gcc/pic32c/8.3.1/thumb/v6-m/nofp\libgcc.a(_muldi3.o)
 .debug_line    0x000000000001e94a      0x188 c:/program files/microchip/xc32/v4.60/bin/bin/../../lib/gcc/pic32c/8.3.1/thumb/v6-m/nofp\libgcc.a(_udivmoddi4.o)
 .debug_line    0x000000000001ead2       0xb9 c:/program files/microchip/xc32/v4.60/bin/bin/../../lib/gcc/pic32c/8.3.1/thumb/v6-m/nofp\libgcc.a(bpabi.o)
 .debug_line    0x000000000001eb8b       0x9c c:/program files/microchip/xc32/v4.60/bin/bin/../../lib/gcc/pic32c/8.3.1/thumb/v6-m/nofp\libgcc.a(_lshrdi3.o)
 .debug_line    0x000000000001ec27       0x9c c:/program files/microchip/xc32/v4.60/bin/bin/../../lib/gcc/pic32c/8.3.1/thumb/v6-m/nofp\libgcc.a(_ashldi3.o)
 .debug_line    0x000000000001ecc3       0x9b c:/program files/microchip/xc32/v4.60/bin/bin/../../lib/gcc/pic32c/8.3.1/thumb/v6-m/nofp\libgcc.a(_clzdi2.o)
 .debug_line    0x000000000001ed5e      0x1d9 c:/program files/microchip/xc32/v4.60/bin/bin/../../lib/gcc/pic32c/8.3.1/thumb/v6-m/nofp\libgcc.a(_divdi3.o)
 .debug_line    0x000000000001ef37       0xa5 c:/program files/microchip/xc32/v4.60/bin/bin/../../lib/gcc/pic32c/8.3.1/thumb/v6-m/nofp\libgcc.a(_clzsi2.o)
 .debug_line    0x000000000001efdc       0x5c c:/program files/microchip/xc32/v4.60/bin/bin/../../lib/gcc/pic32c/8.3.1/../../../../pic32c/lib/thumb/v6-m/nofp\libpic32c.a(close.o)
 .debug_line    0x000000000001f038       0x59 c:/program files/microchip/xc32/v4.60/bin/bin/../../lib/gcc/pic32c/8.3.1/../../../../pic32c/lib/thumb/v6-m/nofp\libpic32c.a(lseek.o)
 .debug_line    0x000000000001f091       0xdd c:/program files/microchip/xc32/v4.60/bin/bin/../../lib/gcc/pic32c/8.3.1/../../../../pic32c/lib/thumb/v6-m/nofp\libpic32c.a(sbrk.o)
 .debug_line    0x000000000001f16e       0x6f c:/program files/microchip/xc32/v4.60/bin/bin/../../lib/gcc/pic32c/8.3.1/../../../../pic32c/lib/thumb/v6-m/nofp\libpic32c.a(pic32_data_init_clear.o)
 .debug_line    0x000000000001f1dd       0x88 c:/program files/microchip/xc32/v4.60/bin/bin/../../lib/gcc/pic32c/8.3.1/../../../../pic32c/lib/thumb/v6-m/nofp\libpic32c.a(pic32_data_init_copy.o)

.debug_str      0x0000000000000000    0x3349d
 .debug_str     0x0000000000000000     0x110a build/SAMD21_IOT_WG_ICM42688/production/_ext/2048461350/icm42688_sensor.o
 .debug_str     0x000000000000110a     0x1e26 build/SAMD21_IOT_WG_ICM42688/production/_ext/1660664302/drv_spi.o
 .debug_str     0x0000000000002f30      0x425 build/SAMD21_IOT_WG_ICM42688/production/_ext/1164161090/wdrv_winc_gpio.o
 .debug_str     0x0000000000003355      0x363 build/SAMD21_IOT_WG_ICM42688/production/_ext/1164161090/wdrv_winc_eint.o
 .debug_str     0x00000000000036b8      0xfa3 build/SAMD21_IOT_WG_ICM42688/production/_ext/101005277/wdrv_winc_spi.o
 .debug_str     0x000000000000465b      0x373 build/SAMD21_IOT_WG_ICM42688/production/_ext/90265895/nm_common.o
 .debug_str     0x00000000000049ce      0x9f4 build/SAMD21_IOT_WG_ICM42688/production/_ext/121554788/m2m_ssl.o
 .debug_str     0x00000000000053c2      0x901 build/SAMD21_IOT_WG_ICM42688/production/_ext/121554788/m2m_hif.o
 .debug_str     0x0000000000005cc3     0x3021 build/SAMD21_IOT_WG_ICM42688/production/_ext/121554788/m2m_wifi.o
 .debug_str     0x0000000000008ce4      0x7b1 build/SAMD21_IOT_WG_ICM42688/production/_ext/121554788/nmspi.o
 .debug_str     0x0000000000009495      0x630 build/SAMD21_IOT_WG_ICM42688/production/_ext/121554788/nmdrv.o
 .debug_str     0x0000000000009ac5     0x108e build/SAMD21_IOT_WG_ICM42688/production/_ext/121554788/m2m_ota.o
 .debug_str     0x000000000000ab53      0x625 build/SAMD21_IOT_WG_ICM42688/production/_ext/121554788/nmasic.o
 .debug_str     0x000000000000b178      0x554 build/SAMD21_IOT_WG_ICM42688/production/_ext/121554788/nmbus.o
 .debug_str     0x000000000000b6cc     0x107b build/SAMD21_IOT_WG_ICM42688/production/_ext/548032175/socket.o
 .debug_str     0x000000000000c747      0x2f7 build/SAMD21_IOT_WG_ICM42688/production/_ext/548032175/inet_addr.o
 .debug_str     0x000000000000ca3e      0x309 build/SAMD21_IOT_WG_ICM42688/production/_ext/548032175/inet_ntop.o
 .debug_str     0x000000000000cd47      0x383 build/SAMD21_IOT_WG_ICM42688/production/_ext/609036575/flexible_flash.o
 .debug_str     0x000000000000d0ca      0x547 build/SAMD21_IOT_WG_ICM42688/production/_ext/609036575/spi_flash.o
 .debug_str     0x000000000000d611      0x34c build/SAMD21_IOT_WG_ICM42688/production/_ext/1784303044/wdrv_winc_osal.o
 .debug_str     0x000000000000d95d     0x1bd1 build/SAMD21_IOT_WG_ICM42688/production/_ext/907429946/wdrv_winc_sta.o
 .debug_str     0x000000000000f52e     0x1b00 build/SAMD21_IOT_WG_ICM42688/production/_ext/907429946/wdrv_winc_socket.o
 .debug_str     0x000000000001102e     0x18cc build/SAMD21_IOT_WG_ICM42688/production/_ext/907429946/wdrv_winc_systime.o
 .debug_str     0x00000000000128fa      0xbcb build/SAMD21_IOT_WG_ICM42688/production/_ext/907429946/wdrv_winc_authctx.o
 .debug_str     0x00000000000134c5     0x1a56 build/SAMD21_IOT_WG_ICM42688/production/_ext/907429946/wdrv_winc_host_file.o
 .debug_str     0x0000000000014f1b     0x393e build/SAMD21_IOT_WG_ICM42688/production/_ext/907429946/wdrv_winc.o
 .debug_str     0x0000000000018859      0x7fc build/SAMD21_IOT_WG_ICM42688/production/_ext/907429946/wdrv_winc_bssctx.o
 .debug_str     0x0000000000019055      0x5d2 build/SAMD21_IOT_WG_ICM42688/production/_ext/1750425231/plib_clock.o
 .debug_str     0x0000000000019627      0x8fc build/SAMD21_IOT_WG_ICM42688/production/_ext/1580516298/plib_dmac.o
 .debug_str     0x0000000000019f23      0x44d build/SAMD21_IOT_WG_ICM42688/production/_ext/503204096/plib_eic.o
 .debug_str     0x000000000001a370      0x5fe build/SAMD21_IOT_WG_ICM42688/production/_ext/1580823105/plib_nvic.o
 .debug_str     0x000000000001a96e      0x539 build/SAMD21_IOT_WG_ICM42688/production/_ext/11470383/plib_nvmctrl.o
 .debug_str     0x000000000001aea7      0x7a5 build/SAMD21_IOT_WG_ICM42688/production/_ext/1580876256/plib_port.o
 .debug_str     0x000000000001b64c      0x71e build/SAMD21_IOT_WG_ICM42688/production/_ext/1014017276/plib_sercom0_spi_master.o
 .debug_str     0x000000000001bd6a      0x81f build/SAMD21_IOT_WG_ICM42688/production/_ext/1014017276/plib_sercom2_spi_master.o
 .debug_str     0x000000000001c589      0x8b5 build/SAMD21_IOT_WG_ICM42688/production/_ext/177673482/plib_sercom5_usart.o
 .debug_str     0x000000000001ce3e      0x42c build/SAMD21_IOT_WG_ICM42688/production/_ext/223004715/plib_systick.o
 .debug_str     0x000000000001d26a      0x5ab build/SAMD21_IOT_WG_ICM42688/production/_ext/399410062/plib_tc3.o
 .debug_str     0x000000000001d815      0x5cc build/SAMD21_IOT_WG_ICM42688/production/_ext/399410062/plib_tc4.o
 .debug_str     0x000000000001dde1      0x317 build/SAMD21_IOT_WG_ICM42688/production/_ext/1357625803/xc32_monitor.o
 .debug_str     0x000000000001e0f8      0x62d build/SAMD21_IOT_WG_ICM42688/production/_ext/1584719636/sys_dma.o
 .debug_str     0x000000000001e725      0x5ac build/SAMD21_IOT_WG_ICM42688/production/_ext/1318297016/sys_int.o
 .debug_str     0x000000000001ecd1      0xebb build/SAMD21_IOT_WG_ICM42688/production/_ext/386530258/sys_time.o
 .debug_str     0x000000000001fb8c     0x1808 build/SAMD21_IOT_WG_ICM42688/production/_ext/1832905403/initialization.o
 .debug_str     0x0000000000021394      0x67a build/SAMD21_IOT_WG_ICM42688/production/_ext/1832905403/interrupts.o
 .debug_str     0x0000000000021a0e      0x2dc build/SAMD21_IOT_WG_ICM42688/production/_ext/1832905403/exceptions.o
 .debug_str     0x0000000000021cea      0x348 build/SAMD21_IOT_WG_ICM42688/production/_ext/1832905403/startup_xc32.o
 .debug_str     0x0000000000022032      0x31d build/SAMD21_IOT_WG_ICM42688/production/_ext/1832905403/tasks.o
 .debug_str     0x000000000002234f     0x25eb build/SAMD21_IOT_WG_ICM42688/production/_ext/1341251756/Icm426xxDriver_HL.o
 .debug_str     0x000000000002493a      0x583 build/SAMD21_IOT_WG_ICM42688/production/_ext/1341251756/Icm426xxTransport.o
 .debug_str     0x0000000000024ebd      0xe14 build/SAMD21_IOT_WG_ICM42688/production/_ext/1360937237/main.o
 .debug_str     0x0000000000025cd1      0x449 build/SAMD21_IOT_WG_ICM42688/production/_ext/1360937237/ringbuffer.o
 .debug_str     0x000000000002611a      0x7df build/SAMD21_IOT_WG_ICM42688/production/_ext/1360937237/app.o
 .debug_str     0x00000000000268f9     0x12c4 build/SAMD21_IOT_WG_ICM42688/production/_ext/1360937237/winc1500_tcp_client.o
 .debug_str     0x0000000000027bbd      0x1fc c:/program files/microchip/xc32/v4.60/bin/bin/../../lib/gcc/pic32c/8.3.1/../../../../pic32c/lib/thumb/v6-m/nofp\libpic32c.a(data_init.o)
 .debug_str     0x0000000000027db9      0x225 c:/program files/microchip/xc32/v4.60/bin/bin/../../lib/gcc/pic32c/8.3.1/../../../../pic32c/lib/thumb/v6-m/nofp\libc-size-musl.a(memcpy.o)
 .debug_str     0x0000000000027fde      0x211 c:/program files/microchip/xc32/v4.60/bin/bin/../../lib/gcc/pic32c/8.3.1/../../../../pic32c/lib/thumb/v6-m/nofp\libc-size-musl.a(memset.o)
 .debug_str     0x00000000000281ef      0x217 c:/program files/microchip/xc32/v4.60/bin/bin/../../lib/gcc/pic32c/8.3.1/../../../../pic32c/lib/thumb/v6-m/nofp\libc-size-musl.a(strlen.o)
 .debug_str     0x0000000000028406      0x20b c:/program files/microchip/xc32/v4.60/bin/bin/../../lib/gcc/pic32c/8.3.1/../../../../pic32c/lib/thumb/v6-m/nofp\libc-size-musl.a(strchr.o)
 .debug_str     0x0000000000028611      0x296 c:/program files/microchip/xc32/v4.60/bin/bin/../../lib/gcc/pic32c/8.3.1/../../../../pic32c/lib/thumb/v6-m/nofp\libc-size-musl.a(strchrnul.o)
 .debug_str     0x00000000000288a7      0x20f c:/program files/microchip/xc32/v4.60/bin/bin/../../lib/gcc/pic32c/8.3.1/../../../../pic32c/lib/thumb/v6-m/nofp\libc-size-musl.a(strnlen.o)
 .debug_str     0x0000000000028ab6      0x22a c:/program files/microchip/xc32/v4.60/bin/bin/../../lib/gcc/pic32c/8.3.1/../../../../pic32c/lib/thumb/v6-m/nofp\libc-size-musl.a(memchr.o)
 .debug_str     0x0000000000028ce0      0x2ba c:/program files/microchip/xc32/v4.60/bin/bin/../../lib/gcc/pic32c/8.3.1/../../../../pic32c/lib/thumb/v6-m/nofp\liblmalloc-musl.a(lite_calloc.o)
 .debug_str     0x0000000000028f9a      0x301 c:/program files/microchip/xc32/v4.60/bin/bin/../../lib/gcc/pic32c/8.3.1/../../../../pic32c/lib/thumb/v6-m/nofp\liblmalloc-musl.a(lite_free.o)
 .debug_str     0x000000000002929b      0x2ff c:/program files/microchip/xc32/v4.60/bin/bin/../../lib/gcc/pic32c/8.3.1/../../../../pic32c/lib/thumb/v6-m/nofp\liblmalloc-musl.a(lite_malloc.o)
 .debug_str     0x000000000002959a      0x3ca c:/program files/microchip/xc32/v4.60/bin/bin/../../lib/gcc/pic32c/8.3.1/../../../../pic32c/lib/thumb/v6-m/nofp\libc-musl.a(__libc_start_main.o)
 .debug_str     0x0000000000029964      0x229 c:/program files/microchip/xc32/v4.60/bin/bin/../../lib/gcc/pic32c/8.3.1/../../../../pic32c/lib/thumb/v6-m/nofp\libc-musl.a(__errno_location.o)
 .debug_str     0x0000000000029b8d      0x335 c:/program files/microchip/xc32/v4.60/bin/bin/../../lib/gcc/pic32c/8.3.1/../../../../pic32c/lib/thumb/v6-m/nofp\libc-musl.a(libc.o)
 .debug_str     0x0000000000029ec2      0x2a5 c:/program files/microchip/xc32/v4.60/bin/bin/../../lib/gcc/pic32c/8.3.1/../../../../pic32c/lib/thumb/v6-m/nofp\libc-musl.a(expand_heap.o)
 .debug_str     0x000000000002a167      0x324 c:/program files/microchip/xc32/v4.60/bin/bin/../../lib/gcc/pic32c/8.3.1/../../../../pic32c/lib/thumb/v6-m/nofp\libc-musl.a(__sio_printf_cdnsu.o)
 .debug_str     0x000000000002a48b      0x2f5 c:/program files/microchip/xc32/v4.60/bin/bin/../../lib/gcc/pic32c/8.3.1/../../../../pic32c/lib/thumb/v6-m/nofp\libc-musl.a(__fmt_d.o)
 .debug_str     0x000000000002a780      0x2f9 c:/program files/microchip/xc32/v4.60/bin/bin/../../lib/gcc/pic32c/8.3.1/../../../../pic32c/lib/thumb/v6-m/nofp\libc-musl.a(__fmt_s.o)
 .debug_str     0x000000000002aa79      0x2f5 c:/program files/microchip/xc32/v4.60/bin/bin/../../lib/gcc/pic32c/8.3.1/../../../../pic32c/lib/thumb/v6-m/nofp\libc-musl.a(__fmt_u.o)
 .debug_str     0x000000000002ad6e      0x2cb c:/program files/microchip/xc32/v4.60/bin/bin/../../lib/gcc/pic32c/8.3.1/../../../../pic32c/lib/thumb/v6-m/nofp\libc-musl.a(__pop_int.o)
 .debug_str     0x000000000002b039      0x2cd c:/program files/microchip/xc32/v4.60/bin/bin/../../lib/gcc/pic32c/8.3.1/../../../../pic32c/lib/thumb/v6-m/nofp\libc-musl.a(__pop_ptr.o)
 .debug_str     0x000000000002b306      0x3e7 c:/program files/microchip/xc32/v4.60/bin/bin/../../lib/gcc/pic32c/8.3.1/../../../../pic32c/lib/thumb/v6-m/nofp\libc-musl.a(__printf_core.o)
 .debug_str     0x000000000002b6ed      0x374 c:/program files/microchip/xc32/v4.60/bin/bin/../../lib/gcc/pic32c/8.3.1/../../../../pic32c/lib/thumb/v6-m/nofp\libc-musl.a(stdin.o)
 .debug_str     0x000000000002ba61      0x308 c:/program files/microchip/xc32/v4.60/bin/bin/../../lib/gcc/pic32c/8.3.1/../../../../pic32c/lib/thumb/v6-m/nofp\libc-musl.a(stdout.o)
 .debug_str     0x000000000002bd69      0x344 c:/program files/microchip/xc32/v4.60/bin/bin/../../lib/gcc/pic32c/8.3.1/../../../../pic32c/lib/thumb/v6-m/nofp\libc-musl.a(puts.o)
 .debug_str     0x000000000002c0ad      0x21d c:/program files/microchip/xc32/v4.60/bin/bin/../../lib/gcc/pic32c/8.3.1/../../../../pic32c/lib/thumb/v6-m/nofp\libc-musl.a(setbuf.o)
 .debug_str     0x000000000002c2ca      0x21c c:/program files/microchip/xc32/v4.60/bin/bin/../../lib/gcc/pic32c/8.3.1/../../../../pic32c/lib/thumb/v6-m/nofp\libc-musl.a(atoi.o)
 .debug_str     0x000000000002c4e6      0x286 c:/program files/microchip/xc32/v4.60/bin/bin/../../lib/gcc/pic32c/8.3.1/../../../../pic32c/lib/thumb/v6-m/nofp\libc-musl.a(gmtime.o)
 .debug_str     0x000000000002c76c      0x2ad c:/program files/microchip/xc32/v4.60/bin/bin/../../lib/gcc/pic32c/8.3.1/../../../../pic32c/lib/thumb/v6-m/nofp\libc-musl.a(gmtime_r.o)
 .debug_str     0x000000000002ca19      0x2d2 c:/program files/microchip/xc32/v4.60/bin/bin/../../lib/gcc/pic32c/8.3.1/../../../../pic32c/lib/thumb/v6-m/nofp\libc-musl.a(mktime.o)
 .debug_str     0x000000000002cceb      0x249 c:/program files/microchip/xc32/v4.60/bin/bin/../../lib/gcc/pic32c/8.3.1/../../../../pic32c/lib/thumb/v6-m/nofp\libc-musl.a(tolower.o)
 .debug_str     0x000000000002cf34      0x235 c:/program files/microchip/xc32/v4.60/bin/bin/../../lib/gcc/pic32c/8.3.1/../../../../pic32c/lib/thumb/v6-m/nofp\libc-musl.a(__environ.o)
 .debug_str     0x000000000002d169      0x2e9 c:/program files/microchip/xc32/v4.60/bin/bin/../../lib/gcc/pic32c/8.3.1/../../../../pic32c/lib/thumb/v6-m/nofp\libc-musl.a(__int_vfprintf.o)
 .debug_str     0x000000000002d452      0x338 c:/program files/microchip/xc32/v4.60/bin/bin/../../lib/gcc/pic32c/8.3.1/../../../../pic32c/lib/thumb/v6-m/nofp\libc-musl.a(fputs.o)
 .debug_str     0x000000000002d78a      0x2b1 c:/program files/microchip/xc32/v4.60/bin/bin/../../lib/gcc/pic32c/8.3.1/../../../../pic32c/lib/thumb/v6-m/nofp\libc-musl.a(__cvt_u.o)
 .debug_str     0x000000000002da3b      0x2c0 c:/program files/microchip/xc32/v4.60/bin/bin/../../lib/gcc/pic32c/8.3.1/../../../../pic32c/lib/thumb/v6-m/nofp\libc-musl.a(__pop_float.o)
 .debug_str     0x000000000002dcfb      0x362 c:/program files/microchip/xc32/v4.60/bin/bin/../../lib/gcc/pic32c/8.3.1/../../../../pic32c/lib/thumb/v6-m/nofp\libc-musl.a(__stdio_read.o)
 .debug_str     0x000000000002e05d      0x33d c:/program files/microchip/xc32/v4.60/bin/bin/../../lib/gcc/pic32c/8.3.1/../../../../pic32c/lib/thumb/v6-m/nofp\libc-musl.a(__towrite_rw.o)
 .debug_str     0x000000000002e39a      0x2d3 c:/program files/microchip/xc32/v4.60/bin/bin/../../lib/gcc/pic32c/8.3.1/../../../../pic32c/lib/thumb/v6-m/nofp\libc-musl.a(fwrite.o)
 .debug_str     0x000000000002e66d      0x2ea c:/program files/microchip/xc32/v4.60/bin/bin/../../lib/gcc/pic32c/8.3.1/../../../../pic32c/lib/thumb/v6-m/nofp\libc-musl.a(putc.o)
 .debug_str     0x000000000002e957      0x312 c:/program files/microchip/xc32/v4.60/bin/bin/../../lib/gcc/pic32c/8.3.1/../../../../pic32c/lib/thumb/v6-m/nofp\libc-musl.a(setvbuf.o)
 .debug_str     0x000000000002ec69      0x2c0 c:/program files/microchip/xc32/v4.60/bin/bin/../../lib/gcc/pic32c/8.3.1/../../../../pic32c/lib/thumb/v6-m/nofp\libc-musl.a(__tm_to_secs.o)
 .debug_str     0x000000000002ef29      0x23d c:/program files/microchip/xc32/v4.60/bin/bin/../../lib/gcc/pic32c/8.3.1/../../../../pic32c/lib/thumb/v6-m/nofp\libc-musl.a(__year_to_secs.o)
 .debug_str     0x000000000002f166      0x313 c:/program files/microchip/xc32/v4.60/bin/bin/../../lib/gcc/pic32c/8.3.1/../../../../pic32c/lib/thumb/v6-m/nofp\libc-musl.a(__secs_to_tm.o)
 .debug_str     0x000000000002f479      0x24c c:/program files/microchip/xc32/v4.60/bin/bin/../../lib/gcc/pic32c/8.3.1/../../../../pic32c/lib/thumb/v6-m/nofp\libc-musl.a(readv.o)
 .debug_str     0x000000000002f6c5      0x29a c:/program files/microchip/xc32/v4.60/bin/bin/../../lib/gcc/pic32c/8.3.1/../../../../pic32c/lib/thumb/v6-m/nofp\libc-musl.a(__init_stdio.o)
 .debug_str     0x000000000002f95f      0x2da c:/program files/microchip/xc32/v4.60/bin/bin/../../lib/gcc/pic32c/8.3.1/../../../../pic32c/lib/thumb/v6-m/nofp\libc-musl.a(__out.o)
 .debug_str     0x000000000002fc39      0x2f8 c:/program files/microchip/xc32/v4.60/bin/bin/../../lib/gcc/pic32c/8.3.1/../../../../pic32c/lib/thumb/v6-m/nofp\libc-musl.a(__putc.o)
 .debug_str     0x000000000002ff31      0x36d c:/program files/microchip/xc32/v4.60/bin/bin/../../lib/gcc/pic32c/8.3.1/../../../../pic32c/lib/thumb/v6-m/nofp\libc-musl.a(__stderr.o)
 .debug_str     0x000000000003029e      0x35d c:/program files/microchip/xc32/v4.60/bin/bin/../../lib/gcc/pic32c/8.3.1/../../../../pic32c/lib/thumb/v6-m/nofp\libc-musl.a(__stdio_close.o)
 .debug_str     0x00000000000305fb      0x346 c:/program files/microchip/xc32/v4.60/bin/bin/../../lib/gcc/pic32c/8.3.1/../../../../pic32c/lib/thumb/v6-m/nofp\libc-musl.a(__stdio_write.o)
 .debug_str     0x0000000000030941      0x36d c:/program files/microchip/xc32/v4.60/bin/bin/../../lib/gcc/pic32c/8.3.1/../../../../pic32c/lib/thumb/v6-m/nofp\libc-musl.a(__stdout.o)
 .debug_str     0x0000000000030cae      0x2e9 c:/program files/microchip/xc32/v4.60/bin/bin/../../lib/gcc/pic32c/8.3.1/../../../../pic32c/lib/thumb/v6-m/nofp\libc-musl.a(__towrite.o)
 .debug_str     0x0000000000030f97      0x22d c:/program files/microchip/xc32/v4.60/bin/bin/../../lib/gcc/pic32c/8.3.1/../../../../pic32c/lib/thumb/v6-m/nofp\libc-musl.a(__month_to_secs.o)
 .debug_str     0x00000000000311c4      0x24f c:/program files/microchip/xc32/v4.60/bin/bin/../../lib/gcc/pic32c/8.3.1/../../../../pic32c/lib/thumb/v6-m/nofp\libc-musl.a(writev.o)
 .debug_str     0x0000000000031413      0x33e c:/program files/microchip/xc32/v4.60/bin/bin/../../lib/gcc/pic32c/8.3.1/../../../../pic32c/lib/thumb/v6-m/nofp\libc-musl.a(__overflow.o)
 .debug_str     0x0000000000031751      0x302 c:/program files/microchip/xc32/v4.60/bin/bin/../../lib/gcc/pic32c/8.3.1/../../../../pic32c/lib/thumb/v6-m/nofp\libc-musl.a(__fwrite.o)
 .debug_str     0x0000000000031a53       0xd6 c:/program files/microchip/xc32/v4.60/bin/bin/../../lib/gcc/pic32c/8.3.1/thumb/v6-m/nofp\libgcc.a(_udivsi3.o)
 .debug_str     0x0000000000031b29       0xd6 c:/program files/microchip/xc32/v4.60/bin/bin/../../lib/gcc/pic32c/8.3.1/thumb/v6-m/nofp\libgcc.a(_divsi3.o)
 .debug_str     0x0000000000031bff       0xd6 c:/program files/microchip/xc32/v4.60/bin/bin/../../lib/gcc/pic32c/8.3.1/thumb/v6-m/nofp\libgcc.a(_dvmd_tls.o)
 .debug_str     0x0000000000031cd5       0xd6 c:/program files/microchip/xc32/v4.60/bin/bin/../../lib/gcc/pic32c/8.3.1/thumb/v6-m/nofp\libgcc.a(_aeabi_ldivmod.o)
 .debug_str     0x0000000000031dab       0xd6 c:/program files/microchip/xc32/v4.60/bin/bin/../../lib/gcc/pic32c/8.3.1/thumb/v6-m/nofp\libgcc.a(_aeabi_uldivmod.o)
 .debug_str     0x0000000000031e81      0x2af c:/program files/microchip/xc32/v4.60/bin/bin/../../lib/gcc/pic32c/8.3.1/thumb/v6-m/nofp\libgcc.a(_muldi3.o)
 .debug_str     0x0000000000032130      0x27c c:/program files/microchip/xc32/v4.60/bin/bin/../../lib/gcc/pic32c/8.3.1/thumb/v6-m/nofp\libgcc.a(_udivmoddi4.o)
 .debug_str     0x00000000000323ac      0x1f2 c:/program files/microchip/xc32/v4.60/bin/bin/../../lib/gcc/pic32c/8.3.1/thumb/v6-m/nofp\libgcc.a(bpabi.o)
 .debug_str     0x000000000003259e       0xd6 c:/program files/microchip/xc32/v4.60/bin/bin/../../lib/gcc/pic32c/8.3.1/thumb/v6-m/nofp\libgcc.a(_lshrdi3.o)
 .debug_str     0x0000000000032674       0xd6 c:/program files/microchip/xc32/v4.60/bin/bin/../../lib/gcc/pic32c/8.3.1/thumb/v6-m/nofp\libgcc.a(_ashldi3.o)
 .debug_str     0x000000000003274a       0xd6 c:/program files/microchip/xc32/v4.60/bin/bin/../../lib/gcc/pic32c/8.3.1/thumb/v6-m/nofp\libgcc.a(_clzdi2.o)
 .debug_str     0x0000000000032820      0x2a9 c:/program files/microchip/xc32/v4.60/bin/bin/../../lib/gcc/pic32c/8.3.1/thumb/v6-m/nofp\libgcc.a(_divdi3.o)
 .debug_str     0x0000000000032ac9       0xd6 c:/program files/microchip/xc32/v4.60/bin/bin/../../lib/gcc/pic32c/8.3.1/thumb/v6-m/nofp\libgcc.a(_clzsi2.o)
 .debug_str     0x0000000000032b9f      0x1bd c:/program files/microchip/xc32/v4.60/bin/bin/../../lib/gcc/pic32c/8.3.1/../../../../pic32c/lib/thumb/v6-m/nofp\libpic32c.a(close.o)
 .debug_str     0x0000000000032d5c      0x1bd c:/program files/microchip/xc32/v4.60/bin/bin/../../lib/gcc/pic32c/8.3.1/../../../../pic32c/lib/thumb/v6-m/nofp\libpic32c.a(lseek.o)
 .debug_str     0x0000000000032f19      0x1dc c:/program files/microchip/xc32/v4.60/bin/bin/../../lib/gcc/pic32c/8.3.1/../../../../pic32c/lib/thumb/v6-m/nofp\libpic32c.a(sbrk.o)
 .debug_str     0x00000000000330f5      0x1d5 c:/program files/microchip/xc32/v4.60/bin/bin/../../lib/gcc/pic32c/8.3.1/../../../../pic32c/lib/thumb/v6-m/nofp\libpic32c.a(pic32_data_init_clear.o)
 .debug_str     0x00000000000332ca      0x1d3 c:/program files/microchip/xc32/v4.60/bin/bin/../../lib/gcc/pic32c/8.3.1/../../../../pic32c/lib/thumb/v6-m/nofp\libpic32c.a(pic32_data_init_copy.o)

.debug_frame    0x0000000000000000     0x4b98
 .debug_frame   0x0000000000000000       0xf4 build/SAMD21_IOT_WG_ICM42688/production/_ext/2048461350/icm42688_sensor.o
 .debug_frame   0x00000000000000f4      0x254 build/SAMD21_IOT_WG_ICM42688/production/_ext/1660664302/drv_spi.o
 .debug_frame   0x0000000000000348       0x50 build/SAMD21_IOT_WG_ICM42688/production/_ext/1164161090/wdrv_winc_gpio.o
 .debug_frame   0x0000000000000398       0x40 build/SAMD21_IOT_WG_ICM42688/production/_ext/1164161090/wdrv_winc_eint.o
 .debug_frame   0x00000000000003d8       0xa0 build/SAMD21_IOT_WG_ICM42688/production/_ext/101005277/wdrv_winc_spi.o
 .debug_frame   0x0000000000000478       0x40 build/SAMD21_IOT_WG_ICM42688/production/_ext/90265895/nm_common.o
 .debug_frame   0x00000000000004b8      0x144 build/SAMD21_IOT_WG_ICM42688/production/_ext/121554788/m2m_ssl.o
 .debug_frame   0x00000000000005fc      0x160 build/SAMD21_IOT_WG_ICM42688/production/_ext/121554788/m2m_hif.o
 .debug_frame   0x000000000000075c      0x800 build/SAMD21_IOT_WG_ICM42688/production/_ext/121554788/m2m_wifi.o
 .debug_frame   0x0000000000000f5c      0x1e0 build/SAMD21_IOT_WG_ICM42688/production/_ext/121554788/nmspi.o
 .debug_frame   0x000000000000113c       0xe8 build/SAMD21_IOT_WG_ICM42688/production/_ext/121554788/nmdrv.o
 .debug_frame   0x0000000000001224      0x1d4 build/SAMD21_IOT_WG_ICM42688/production/_ext/121554788/m2m_ota.o
 .debug_frame   0x00000000000013f8      0x268 build/SAMD21_IOT_WG_ICM42688/production/_ext/121554788/nmasic.o
 .debug_frame   0x0000000000001660       0xf8 build/SAMD21_IOT_WG_ICM42688/production/_ext/121554788/nmbus.o
 .debug_frame   0x0000000000001758      0x2f0 build/SAMD21_IOT_WG_ICM42688/production/_ext/548032175/socket.o
 .debug_frame   0x0000000000001a48       0x30 build/SAMD21_IOT_WG_ICM42688/production/_ext/548032175/inet_addr.o
 .debug_frame   0x0000000000001a78       0x3c build/SAMD21_IOT_WG_ICM42688/production/_ext/548032175/inet_ntop.o
 .debug_frame   0x0000000000001ab4       0x3c build/SAMD21_IOT_WG_ICM42688/production/_ext/609036575/flexible_flash.o
 .debug_frame   0x0000000000001af0      0x134 build/SAMD21_IOT_WG_ICM42688/production/_ext/609036575/spi_flash.o
 .debug_frame   0x0000000000001c24       0x28 build/SAMD21_IOT_WG_ICM42688/production/_ext/1784303044/wdrv_winc_osal.o
 .debug_frame   0x0000000000001c4c       0xa8 build/SAMD21_IOT_WG_ICM42688/production/_ext/907429946/wdrv_winc_sta.o
 .debug_frame   0x0000000000001cf4      0x1dc build/SAMD21_IOT_WG_ICM42688/production/_ext/907429946/wdrv_winc_socket.o
 .debug_frame   0x0000000000001ed0       0xb0 build/SAMD21_IOT_WG_ICM42688/production/_ext/907429946/wdrv_winc_systime.o
 .debug_frame   0x0000000000001f80       0xc4 build/SAMD21_IOT_WG_ICM42688/production/_ext/907429946/wdrv_winc_authctx.o
 .debug_frame   0x0000000000002044       0xd4 build/SAMD21_IOT_WG_ICM42688/production/_ext/907429946/wdrv_winc_host_file.o
 .debug_frame   0x0000000000002118      0x2dc build/SAMD21_IOT_WG_ICM42688/production/_ext/907429946/wdrv_winc.o
 .debug_frame   0x00000000000023f4       0xb8 build/SAMD21_IOT_WG_ICM42688/production/_ext/907429946/wdrv_winc_bssctx.o
 .debug_frame   0x00000000000024ac       0x20 build/SAMD21_IOT_WG_ICM42688/production/_ext/1750425231/plib_clock.o
 .debug_frame   0x00000000000024cc      0x18c build/SAMD21_IOT_WG_ICM42688/production/_ext/1580516298/plib_dmac.o
 .debug_frame   0x0000000000002658       0x80 build/SAMD21_IOT_WG_ICM42688/production/_ext/503204096/plib_eic.o
 .debug_frame   0x00000000000026d8       0x84 build/SAMD21_IOT_WG_ICM42688/production/_ext/1580823105/plib_nvic.o
 .debug_frame   0x000000000000275c      0x108 build/SAMD21_IOT_WG_ICM42688/production/_ext/11470383/plib_nvmctrl.o
 .debug_frame   0x0000000000002864       0xe4 build/SAMD21_IOT_WG_ICM42688/production/_ext/1580876256/plib_port.o
 .debug_frame   0x0000000000002948       0xbc build/SAMD21_IOT_WG_ICM42688/production/_ext/1014017276/plib_sercom0_spi_master.o
 .debug_frame   0x0000000000002a04       0xdc build/SAMD21_IOT_WG_ICM42688/production/_ext/1014017276/plib_sercom2_spi_master.o
 .debug_frame   0x0000000000002ae0      0x160 build/SAMD21_IOT_WG_ICM42688/production/_ext/177673482/plib_sercom5_usart.o
 .debug_frame   0x0000000000002c40       0xd8 build/SAMD21_IOT_WG_ICM42688/production/_ext/223004715/plib_systick.o
 .debug_frame   0x0000000000002d18       0xc8 build/SAMD21_IOT_WG_ICM42688/production/_ext/399410062/plib_tc3.o
 .debug_frame   0x0000000000002de0       0xd8 build/SAMD21_IOT_WG_ICM42688/production/_ext/399410062/plib_tc4.o
 .debug_frame   0x0000000000002eb8       0x44 build/SAMD21_IOT_WG_ICM42688/production/_ext/1357625803/xc32_monitor.o
 .debug_frame   0x0000000000002efc       0x48 build/SAMD21_IOT_WG_ICM42688/production/_ext/1584719636/sys_dma.o
 .debug_frame   0x0000000000002f44       0x84 build/SAMD21_IOT_WG_ICM42688/production/_ext/1318297016/sys_int.o
 .debug_frame   0x0000000000002fc8      0x3ac build/SAMD21_IOT_WG_ICM42688/production/_ext/386530258/sys_time.o
 .debug_frame   0x0000000000003374       0x2c build/SAMD21_IOT_WG_ICM42688/production/_ext/1832905403/initialization.o
 .debug_frame   0x00000000000033a0       0x20 build/SAMD21_IOT_WG_ICM42688/production/_ext/1832905403/interrupts.o
 .debug_frame   0x00000000000033c0       0x30 build/SAMD21_IOT_WG_ICM42688/production/_ext/1832905403/exceptions.o
 .debug_frame   0x00000000000033f0       0x38 build/SAMD21_IOT_WG_ICM42688/production/_ext/1832905403/startup_xc32.o
 .debug_frame   0x0000000000003428       0x28 build/SAMD21_IOT_WG_ICM42688/production/_ext/1832905403/tasks.o
 .debug_frame   0x0000000000003450      0x624 build/SAMD21_IOT_WG_ICM42688/production/_ext/1341251756/Icm426xxDriver_HL.o
 .debug_frame   0x0000000000003a74       0x78 build/SAMD21_IOT_WG_ICM42688/production/_ext/1341251756/Icm426xxTransport.o
 .debug_frame   0x0000000000003aec      0x140 build/SAMD21_IOT_WG_ICM42688/production/_ext/1360937237/main.o
 .debug_frame   0x0000000000003c2c      0x110 build/SAMD21_IOT_WG_ICM42688/production/_ext/1360937237/ringbuffer.o
 .debug_frame   0x0000000000003d3c       0x38 build/SAMD21_IOT_WG_ICM42688/production/_ext/1360937237/app.o
 .debug_frame   0x0000000000003d74       0xbc build/SAMD21_IOT_WG_ICM42688/production/_ext/1360937237/winc1500_tcp_client.o
 .debug_frame   0x0000000000003e30       0x48 c:/program files/microchip/xc32/v4.60/bin/bin/../../lib/gcc/pic32c/8.3.1/../../../../pic32c/lib/thumb/v6-m/nofp\libpic32c.a(data_init.o)
 .debug_frame   0x0000000000003e78       0x28 c:/program files/microchip/xc32/v4.60/bin/bin/../../lib/gcc/pic32c/8.3.1/../../../../pic32c/lib/thumb/v6-m/nofp\libc-size-musl.a(memcpy.o)
 .debug_frame   0x0000000000003ea0       0x20 c:/program files/microchip/xc32/v4.60/bin/bin/../../lib/gcc/pic32c/8.3.1/../../../../pic32c/lib/thumb/v6-m/nofp\libc-size-musl.a(memset.o)
 .debug_frame   0x0000000000003ec0       0x20 c:/program files/microchip/xc32/v4.60/bin/bin/../../lib/gcc/pic32c/8.3.1/../../../../pic32c/lib/thumb/v6-m/nofp\libc-size-musl.a(strlen.o)
 .debug_frame   0x0000000000003ee0       0x28 c:/program files/microchip/xc32/v4.60/bin/bin/../../lib/gcc/pic32c/8.3.1/../../../../pic32c/lib/thumb/v6-m/nofp\libc-size-musl.a(strchr.o)
 .debug_frame   0x0000000000003f08       0x2c c:/program files/microchip/xc32/v4.60/bin/bin/../../lib/gcc/pic32c/8.3.1/../../../../pic32c/lib/thumb/v6-m/nofp\libc-size-musl.a(strchrnul.o)
 .debug_frame   0x0000000000003f34       0x2c c:/program files/microchip/xc32/v4.60/bin/bin/../../lib/gcc/pic32c/8.3.1/../../../../pic32c/lib/thumb/v6-m/nofp\libc-size-musl.a(strnlen.o)
 .debug_frame   0x0000000000003f60       0x20 c:/program files/microchip/xc32/v4.60/bin/bin/../../lib/gcc/pic32c/8.3.1/../../../../pic32c/lib/thumb/v6-m/nofp\libc-size-musl.a(memchr.o)
 .debug_frame   0x0000000000003f80       0x2c c:/program files/microchip/xc32/v4.60/bin/bin/../../lib/gcc/pic32c/8.3.1/../../../../pic32c/lib/thumb/v6-m/nofp\liblmalloc-musl.a(lite_calloc.o)
 .debug_frame   0x0000000000003fac       0x64 c:/program files/microchip/xc32/v4.60/bin/bin/../../lib/gcc/pic32c/8.3.1/../../../../pic32c/lib/thumb/v6-m/nofp\liblmalloc-musl.a(lite_free.o)
 .debug_frame   0x0000000000004010       0x30 c:/program files/microchip/xc32/v4.60/bin/bin/../../lib/gcc/pic32c/8.3.1/../../../../pic32c/lib/thumb/v6-m/nofp\liblmalloc-musl.a(lite_malloc.o)
 .debug_frame   0x0000000000004040       0x38 c:/program files/microchip/xc32/v4.60/bin/bin/../../lib/gcc/pic32c/8.3.1/../../../../pic32c/lib/thumb/v6-m/nofp\libc-musl.a(__libc_start_main.o)
 .debug_frame   0x0000000000004078       0x28 c:/program files/microchip/xc32/v4.60/bin/bin/../../lib/gcc/pic32c/8.3.1/../../../../pic32c/lib/thumb/v6-m/nofp\libc-musl.a(expand_heap.o)
 .debug_frame   0x00000000000040a0       0x48 c:/program files/microchip/xc32/v4.60/bin/bin/../../lib/gcc/pic32c/8.3.1/../../../../pic32c/lib/thumb/v6-m/nofp\libc-musl.a(__sio_printf_cdnsu.o)
 .debug_frame   0x00000000000040e8       0x30 c:/program files/microchip/xc32/v4.60/bin/bin/../../lib/gcc/pic32c/8.3.1/../../../../pic32c/lib/thumb/v6-m/nofp\libc-musl.a(__fmt_d.o)
 .debug_frame   0x0000000000004118       0x30 c:/program files/microchip/xc32/v4.60/bin/bin/../../lib/gcc/pic32c/8.3.1/../../../../pic32c/lib/thumb/v6-m/nofp\libc-musl.a(__fmt_s.o)
 .debug_frame   0x0000000000004148       0x30 c:/program files/microchip/xc32/v4.60/bin/bin/../../lib/gcc/pic32c/8.3.1/../../../../pic32c/lib/thumb/v6-m/nofp\libc-musl.a(__fmt_u.o)
 .debug_frame   0x0000000000004178       0x28 c:/program files/microchip/xc32/v4.60/bin/bin/../../lib/gcc/pic32c/8.3.1/../../../../pic32c/lib/thumb/v6-m/nofp\libc-musl.a(__pop_int.o)
 .debug_frame   0x00000000000041a0       0x28 c:/program files/microchip/xc32/v4.60/bin/bin/../../lib/gcc/pic32c/8.3.1/../../../../pic32c/lib/thumb/v6-m/nofp\libc-musl.a(__pop_ptr.o)
 .debug_frame   0x00000000000041c8       0xc0 c:/program files/microchip/xc32/v4.60/bin/bin/../../lib/gcc/pic32c/8.3.1/../../../../pic32c/lib/thumb/v6-m/nofp\libc-musl.a(__printf_core.o)
 .debug_frame   0x0000000000004288       0x38 c:/program files/microchip/xc32/v4.60/bin/bin/../../lib/gcc/pic32c/8.3.1/../../../../pic32c/lib/thumb/v6-m/nofp\libc-musl.a(stdin.o)
 .debug_frame   0x00000000000042c0       0x50 c:/program files/microchip/xc32/v4.60/bin/bin/../../lib/gcc/pic32c/8.3.1/../../../../pic32c/lib/thumb/v6-m/nofp\libc-musl.a(stdout.o)
 .debug_frame   0x0000000000004310       0x28 c:/program files/microchip/xc32/v4.60/bin/bin/../../lib/gcc/pic32c/8.3.1/../../../../pic32c/lib/thumb/v6-m/nofp\libc-musl.a(puts.o)
 .debug_frame   0x0000000000004338       0x28 c:/program files/microchip/xc32/v4.60/bin/bin/../../lib/gcc/pic32c/8.3.1/../../../../pic32c/lib/thumb/v6-m/nofp\libc-musl.a(setbuf.o)
 .debug_frame   0x0000000000004360       0x28 c:/program files/microchip/xc32/v4.60/bin/bin/../../lib/gcc/pic32c/8.3.1/../../../../pic32c/lib/thumb/v6-m/nofp\libc-musl.a(atoi.o)
 .debug_frame   0x0000000000004388       0x28 c:/program files/microchip/xc32/v4.60/bin/bin/../../lib/gcc/pic32c/8.3.1/../../../../pic32c/lib/thumb/v6-m/nofp\libc-musl.a(gmtime.o)
 .debug_frame   0x00000000000043b0       0x2c c:/program files/microchip/xc32/v4.60/bin/bin/../../lib/gcc/pic32c/8.3.1/../../../../pic32c/lib/thumb/v6-m/nofp\libc-musl.a(gmtime_r.o)
 .debug_frame   0x00000000000043dc       0x2c c:/program files/microchip/xc32/v4.60/bin/bin/../../lib/gcc/pic32c/8.3.1/../../../../pic32c/lib/thumb/v6-m/nofp\libc-musl.a(mktime.o)
 .debug_frame   0x0000000000004408       0x38 c:/program files/microchip/xc32/v4.60/bin/bin/../../lib/gcc/pic32c/8.3.1/../../../../pic32c/lib/thumb/v6-m/nofp\libc-musl.a(tolower.o)
 .debug_frame   0x0000000000004440       0x2c c:/program files/microchip/xc32/v4.60/bin/bin/../../lib/gcc/pic32c/8.3.1/../../../../pic32c/lib/thumb/v6-m/nofp\libc-musl.a(__int_vfprintf.o)
 .debug_frame   0x000000000000446c       0x2c c:/program files/microchip/xc32/v4.60/bin/bin/../../lib/gcc/pic32c/8.3.1/../../../../pic32c/lib/thumb/v6-m/nofp\libc-musl.a(fputs.o)
 .debug_frame   0x0000000000004498       0x34 c:/program files/microchip/xc32/v4.60/bin/bin/../../lib/gcc/pic32c/8.3.1/../../../../pic32c/lib/thumb/v6-m/nofp\libc-musl.a(__cvt_u.o)
 .debug_frame   0x00000000000044cc       0x20 c:/program files/microchip/xc32/v4.60/bin/bin/../../lib/gcc/pic32c/8.3.1/../../../../pic32c/lib/thumb/v6-m/nofp\libc-musl.a(__pop_float.o)
 .debug_frame   0x00000000000044ec       0x34 c:/program files/microchip/xc32/v4.60/bin/bin/../../lib/gcc/pic32c/8.3.1/../../../../pic32c/lib/thumb/v6-m/nofp\libc-musl.a(__stdio_read.o)
 .debug_frame   0x0000000000004520       0x20 c:/program files/microchip/xc32/v4.60/bin/bin/../../lib/gcc/pic32c/8.3.1/../../../../pic32c/lib/thumb/v6-m/nofp\libc-musl.a(__towrite_rw.o)
 .debug_frame   0x0000000000004540       0x44 c:/program files/microchip/xc32/v4.60/bin/bin/../../lib/gcc/pic32c/8.3.1/../../../../pic32c/lib/thumb/v6-m/nofp\libc-musl.a(fwrite.o)
 .debug_frame   0x0000000000004584       0x5c c:/program files/microchip/xc32/v4.60/bin/bin/../../lib/gcc/pic32c/8.3.1/../../../../pic32c/lib/thumb/v6-m/nofp\libc-musl.a(putc.o)
 .debug_frame   0x00000000000045e0       0x44 c:/program files/microchip/xc32/v4.60/bin/bin/../../lib/gcc/pic32c/8.3.1/../../../../pic32c/lib/thumb/v6-m/nofp\libc-musl.a(setvbuf.o)
 .debug_frame   0x0000000000004624       0x30 c:/program files/microchip/xc32/v4.60/bin/bin/../../lib/gcc/pic32c/8.3.1/../../../../pic32c/lib/thumb/v6-m/nofp\libc-musl.a(__tm_to_secs.o)
 .debug_frame   0x0000000000004654       0x34 c:/program files/microchip/xc32/v4.60/bin/bin/../../lib/gcc/pic32c/8.3.1/../../../../pic32c/lib/thumb/v6-m/nofp\libc-musl.a(__year_to_secs.o)
 .debug_frame   0x0000000000004688       0x30 c:/program files/microchip/xc32/v4.60/bin/bin/../../lib/gcc/pic32c/8.3.1/../../../../pic32c/lib/thumb/v6-m/nofp\libc-musl.a(__secs_to_tm.o)
 .debug_frame   0x00000000000046b8       0x34 c:/program files/microchip/xc32/v4.60/bin/bin/../../lib/gcc/pic32c/8.3.1/../../../../pic32c/lib/thumb/v6-m/nofp\libc-musl.a(readv.o)
 .debug_frame   0x00000000000046ec       0x38 c:/program files/microchip/xc32/v4.60/bin/bin/../../lib/gcc/pic32c/8.3.1/../../../../pic32c/lib/thumb/v6-m/nofp\libc-musl.a(__init_stdio.o)
 .debug_frame   0x0000000000004724       0x44 c:/program files/microchip/xc32/v4.60/bin/bin/../../lib/gcc/pic32c/8.3.1/../../../../pic32c/lib/thumb/v6-m/nofp\libc-musl.a(__out.o)
 .debug_frame   0x0000000000004768       0x28 c:/program files/microchip/xc32/v4.60/bin/bin/../../lib/gcc/pic32c/8.3.1/../../../../pic32c/lib/thumb/v6-m/nofp\libc-musl.a(__putc.o)
 .debug_frame   0x0000000000004790       0x48 c:/program files/microchip/xc32/v4.60/bin/bin/../../lib/gcc/pic32c/8.3.1/../../../../pic32c/lib/thumb/v6-m/nofp\libc-musl.a(__stderr.o)
 .debug_frame   0x00000000000047d8       0x48 c:/program files/microchip/xc32/v4.60/bin/bin/../../lib/gcc/pic32c/8.3.1/../../../../pic32c/lib/thumb/v6-m/nofp\libc-musl.a(__stdio_close.o)
 .debug_frame   0x0000000000004820       0x50 c:/program files/microchip/xc32/v4.60/bin/bin/../../lib/gcc/pic32c/8.3.1/../../../../pic32c/lib/thumb/v6-m/nofp\libc-musl.a(__stdio_write.o)
 .debug_frame   0x0000000000004870       0x48 c:/program files/microchip/xc32/v4.60/bin/bin/../../lib/gcc/pic32c/8.3.1/../../../../pic32c/lib/thumb/v6-m/nofp\libc-musl.a(__stdout.o)
 .debug_frame   0x00000000000048b8       0x38 c:/program files/microchip/xc32/v4.60/bin/bin/../../lib/gcc/pic32c/8.3.1/../../../../pic32c/lib/thumb/v6-m/nofp\libc-musl.a(__towrite.o)
 .debug_frame   0x00000000000048f0       0x20 c:/program files/microchip/xc32/v4.60/bin/bin/../../lib/gcc/pic32c/8.3.1/../../../../pic32c/lib/thumb/v6-m/nofp\libc-musl.a(__month_to_secs.o)
 .debug_frame   0x0000000000004910       0x34 c:/program files/microchip/xc32/v4.60/bin/bin/../../lib/gcc/pic32c/8.3.1/../../../../pic32c/lib/thumb/v6-m/nofp\libc-musl.a(writev.o)
 .debug_frame   0x0000000000004944       0x30 c:/program files/microchip/xc32/v4.60/bin/bin/../../lib/gcc/pic32c/8.3.1/../../../../pic32c/lib/thumb/v6-m/nofp\libc-musl.a(__overflow.o)
 .debug_frame   0x0000000000004974       0x40 c:/program files/microchip/xc32/v4.60/bin/bin/../../lib/gcc/pic32c/8.3.1/../../../../pic32c/lib/thumb/v6-m/nofp\libc-musl.a(__fwrite.o)
 .debug_frame   0x00000000000049b4       0x20 c:/program files/microchip/xc32/v4.60/bin/bin/../../lib/gcc/pic32c/8.3.1/thumb/v6-m/nofp\libgcc.a(_udivsi3.o)
 .debug_frame   0x00000000000049d4       0x20 c:/program files/microchip/xc32/v4.60/bin/bin/../../lib/gcc/pic32c/8.3.1/thumb/v6-m/nofp\libgcc.a(_divsi3.o)
 .debug_frame   0x00000000000049f4       0x34 c:/program files/microchip/xc32/v4.60/bin/bin/../../lib/gcc/pic32c/8.3.1/thumb/v6-m/nofp\libgcc.a(_muldi3.o)
 .debug_frame   0x0000000000004a28       0x30 c:/program files/microchip/xc32/v4.60/bin/bin/../../lib/gcc/pic32c/8.3.1/thumb/v6-m/nofp\libgcc.a(_udivmoddi4.o)
 .debug_frame   0x0000000000004a58       0x34 c:/program files/microchip/xc32/v4.60/bin/bin/../../lib/gcc/pic32c/8.3.1/thumb/v6-m/nofp\libgcc.a(bpabi.o)
 .debug_frame   0x0000000000004a8c       0x30 c:/program files/microchip/xc32/v4.60/bin/bin/../../lib/gcc/pic32c/8.3.1/thumb/v6-m/nofp\libgcc.a(_divdi3.o)
 .debug_frame   0x0000000000004abc       0x20 c:/program files/microchip/xc32/v4.60/bin/bin/../../lib/gcc/pic32c/8.3.1/../../../../pic32c/lib/thumb/v6-m/nofp\libpic32c.a(close.o)
 .debug_frame   0x0000000000004adc       0x20 c:/program files/microchip/xc32/v4.60/bin/bin/../../lib/gcc/pic32c/8.3.1/../../../../pic32c/lib/thumb/v6-m/nofp\libpic32c.a(lseek.o)
 .debug_frame   0x0000000000004afc       0x54 c:/program files/microchip/xc32/v4.60/bin/bin/../../lib/gcc/pic32c/8.3.1/../../../../pic32c/lib/thumb/v6-m/nofp\libpic32c.a(sbrk.o)
 .debug_frame   0x0000000000004b50       0x20 c:/program files/microchip/xc32/v4.60/bin/bin/../../lib/gcc/pic32c/8.3.1/../../../../pic32c/lib/thumb/v6-m/nofp\libpic32c.a(pic32_data_init_clear.o)
 .debug_frame   0x0000000000004b70       0x28 c:/program files/microchip/xc32/v4.60/bin/bin/../../lib/gcc/pic32c/8.3.1/../../../../pic32c/lib/thumb/v6-m/nofp\libpic32c.a(pic32_data_init_copy.o)

.note.GNU-stack
                0x0000000000000000        0x0
 .note.GNU-stack
                0x0000000000000000        0x0 c:/program files/microchip/xc32/v4.60/bin/bin/../../lib/gcc/pic32c/8.3.1/../../../../pic32c/lib/thumb/v6-m/nofp\libc-size-musl.a(memcpy.o)
 .note.GNU-stack
                0x0000000000000000        0x0 c:/program files/microchip/xc32/v4.60/bin/bin/../../lib/gcc/pic32c/8.3.1/../../../../pic32c/lib/thumb/v6-m/nofp\libc-size-musl.a(memset.o)
 .note.GNU-stack
                0x0000000000000000        0x0 c:/program files/microchip/xc32/v4.60/bin/bin/../../lib/gcc/pic32c/8.3.1/../../../../pic32c/lib/thumb/v6-m/nofp\libc-size-musl.a(strlen.o)
 .note.GNU-stack
                0x0000000000000000        0x0 c:/program files/microchip/xc32/v4.60/bin/bin/../../lib/gcc/pic32c/8.3.1/../../../../pic32c/lib/thumb/v6-m/nofp\libc-size-musl.a(strchr.o)
 .note.GNU-stack
                0x0000000000000000        0x0 c:/program files/microchip/xc32/v4.60/bin/bin/../../lib/gcc/pic32c/8.3.1/../../../../pic32c/lib/thumb/v6-m/nofp\libc-size-musl.a(strchrnul.o)
 .note.GNU-stack
                0x0000000000000000        0x0 c:/program files/microchip/xc32/v4.60/bin/bin/../../lib/gcc/pic32c/8.3.1/../../../../pic32c/lib/thumb/v6-m/nofp\libc-size-musl.a(strnlen.o)
 .note.GNU-stack
                0x0000000000000000        0x0 c:/program files/microchip/xc32/v4.60/bin/bin/../../lib/gcc/pic32c/8.3.1/../../../../pic32c/lib/thumb/v6-m/nofp\libc-size-musl.a(memchr.o)
 .note.GNU-stack
                0x0000000000000000        0x0 c:/program files/microchip/xc32/v4.60/bin/bin/../../lib/gcc/pic32c/8.3.1/../../../../pic32c/lib/thumb/v6-m/nofp\liblmalloc-musl.a(lite_calloc.o)
 .note.GNU-stack
                0x0000000000000000        0x0 c:/program files/microchip/xc32/v4.60/bin/bin/../../lib/gcc/pic32c/8.3.1/../../../../pic32c/lib/thumb/v6-m/nofp\liblmalloc-musl.a(lite_free.o)
 .note.GNU-stack
                0x0000000000000000        0x0 c:/program files/microchip/xc32/v4.60/bin/bin/../../lib/gcc/pic32c/8.3.1/../../../../pic32c/lib/thumb/v6-m/nofp\liblmalloc-musl.a(lite_malloc.o)
 .note.GNU-stack
                0x0000000000000000        0x0 c:/program files/microchip/xc32/v4.60/bin/bin/../../lib/gcc/pic32c/8.3.1/../../../../pic32c/lib/thumb/v6-m/nofp\libc-musl.a(__libc_start_main.o)
 .note.GNU-stack
                0x0000000000000000        0x0 c:/program files/microchip/xc32/v4.60/bin/bin/../../lib/gcc/pic32c/8.3.1/../../../../pic32c/lib/thumb/v6-m/nofp\libc-musl.a(__errno_location.o)
 .note.GNU-stack
                0x0000000000000000        0x0 c:/program files/microchip/xc32/v4.60/bin/bin/../../lib/gcc/pic32c/8.3.1/../../../../pic32c/lib/thumb/v6-m/nofp\libc-musl.a(libc.o)
 .note.GNU-stack
                0x0000000000000000        0x0 c:/program files/microchip/xc32/v4.60/bin/bin/../../lib/gcc/pic32c/8.3.1/../../../../pic32c/lib/thumb/v6-m/nofp\libc-musl.a(expand_heap.o)
 .note.GNU-stack
                0x0000000000000000        0x0 c:/program files/microchip/xc32/v4.60/bin/bin/../../lib/gcc/pic32c/8.3.1/../../../../pic32c/lib/thumb/v6-m/nofp\libc-musl.a(__sio_printf_cdnsu.o)
 .note.GNU-stack
                0x0000000000000000        0x0 c:/program files/microchip/xc32/v4.60/bin/bin/../../lib/gcc/pic32c/8.3.1/../../../../pic32c/lib/thumb/v6-m/nofp\libc-musl.a(__fmt_d.o)
 .note.GNU-stack
                0x0000000000000000        0x0 c:/program files/microchip/xc32/v4.60/bin/bin/../../lib/gcc/pic32c/8.3.1/../../../../pic32c/lib/thumb/v6-m/nofp\libc-musl.a(__fmt_s.o)
 .note.GNU-stack
                0x0000000000000000        0x0 c:/program files/microchip/xc32/v4.60/bin/bin/../../lib/gcc/pic32c/8.3.1/../../../../pic32c/lib/thumb/v6-m/nofp\libc-musl.a(__fmt_u.o)
 .note.GNU-stack
                0x0000000000000000        0x0 c:/program files/microchip/xc32/v4.60/bin/bin/../../lib/gcc/pic32c/8.3.1/../../../../pic32c/lib/thumb/v6-m/nofp\libc-musl.a(__pop_int.o)
 .note.GNU-stack
                0x0000000000000000        0x0 c:/program files/microchip/xc32/v4.60/bin/bin/../../lib/gcc/pic32c/8.3.1/../../../../pic32c/lib/thumb/v6-m/nofp\libc-musl.a(__pop_ptr.o)
 .note.GNU-stack
                0x0000000000000000        0x0 c:/program files/microchip/xc32/v4.60/bin/bin/../../lib/gcc/pic32c/8.3.1/../../../../pic32c/lib/thumb/v6-m/nofp\libc-musl.a(__printf_core.o)
 .note.GNU-stack
                0x0000000000000000        0x0 c:/program files/microchip/xc32/v4.60/bin/bin/../../lib/gcc/pic32c/8.3.1/../../../../pic32c/lib/thumb/v6-m/nofp\libc-musl.a(stdin.o)
 .note.GNU-stack
                0x0000000000000000        0x0 c:/program files/microchip/xc32/v4.60/bin/bin/../../lib/gcc/pic32c/8.3.1/../../../../pic32c/lib/thumb/v6-m/nofp\libc-musl.a(stdout.o)
 .note.GNU-stack
                0x0000000000000000        0x0 c:/program files/microchip/xc32/v4.60/bin/bin/../../lib/gcc/pic32c/8.3.1/../../../../pic32c/lib/thumb/v6-m/nofp\libc-musl.a(puts.o)
 .note.GNU-stack
                0x0000000000000000        0x0 c:/program files/microchip/xc32/v4.60/bin/bin/../../lib/gcc/pic32c/8.3.1/../../../../pic32c/lib/thumb/v6-m/nofp\libc-musl.a(setbuf.o)
 .note.GNU-stack
                0x0000000000000000        0x0 c:/program files/microchip/xc32/v4.60/bin/bin/../../lib/gcc/pic32c/8.3.1/../../../../pic32c/lib/thumb/v6-m/nofp\libc-musl.a(atoi.o)
 .note.GNU-stack
                0x0000000000000000        0x0 c:/program files/microchip/xc32/v4.60/bin/bin/../../lib/gcc/pic32c/8.3.1/../../../../pic32c/lib/thumb/v6-m/nofp\libc-musl.a(gmtime.o)
 .note.GNU-stack
                0x0000000000000000        0x0 c:/program files/microchip/xc32/v4.60/bin/bin/../../lib/gcc/pic32c/8.3.1/../../../../pic32c/lib/thumb/v6-m/nofp\libc-musl.a(gmtime_r.o)
 .note.GNU-stack
                0x0000000000000000        0x0 c:/program files/microchip/xc32/v4.60/bin/bin/../../lib/gcc/pic32c/8.3.1/../../../../pic32c/lib/thumb/v6-m/nofp\libc-musl.a(mktime.o)
 .note.GNU-stack
                0x0000000000000000        0x0 c:/program files/microchip/xc32/v4.60/bin/bin/../../lib/gcc/pic32c/8.3.1/../../../../pic32c/lib/thumb/v6-m/nofp\libc-musl.a(tolower.o)
 .note.GNU-stack
                0x0000000000000000        0x0 c:/program files/microchip/xc32/v4.60/bin/bin/../../lib/gcc/pic32c/8.3.1/../../../../pic32c/lib/thumb/v6-m/nofp\libc-musl.a(__environ.o)
 .note.GNU-stack
                0x0000000000000000        0x0 c:/program files/microchip/xc32/v4.60/bin/bin/../../lib/gcc/pic32c/8.3.1/../../../../pic32c/lib/thumb/v6-m/nofp\libc-musl.a(__int_vfprintf.o)
 .note.GNU-stack
                0x0000000000000000        0x0 c:/program files/microchip/xc32/v4.60/bin/bin/../../lib/gcc/pic32c/8.3.1/../../../../pic32c/lib/thumb/v6-m/nofp\libc-musl.a(fputs.o)
 .note.GNU-stack
                0x0000000000000000        0x0 c:/program files/microchip/xc32/v4.60/bin/bin/../../lib/gcc/pic32c/8.3.1/../../../../pic32c/lib/thumb/v6-m/nofp\libc-musl.a(__cvt_u.o)
 .note.GNU-stack
                0x0000000000000000        0x0 c:/program files/microchip/xc32/v4.60/bin/bin/../../lib/gcc/pic32c/8.3.1/../../../../pic32c/lib/thumb/v6-m/nofp\libc-musl.a(__pop_float.o)
 .note.GNU-stack
                0x0000000000000000        0x0 c:/program files/microchip/xc32/v4.60/bin/bin/../../lib/gcc/pic32c/8.3.1/../../../../pic32c/lib/thumb/v6-m/nofp\libc-musl.a(__stdio_read.o)
 .note.GNU-stack
                0x0000000000000000        0x0 c:/program files/microchip/xc32/v4.60/bin/bin/../../lib/gcc/pic32c/8.3.1/../../../../pic32c/lib/thumb/v6-m/nofp\libc-musl.a(__towrite_rw.o)
 .note.GNU-stack
                0x0000000000000000        0x0 c:/program files/microchip/xc32/v4.60/bin/bin/../../lib/gcc/pic32c/8.3.1/../../../../pic32c/lib/thumb/v6-m/nofp\libc-musl.a(fwrite.o)
 .note.GNU-stack
                0x0000000000000000        0x0 c:/program files/microchip/xc32/v4.60/bin/bin/../../lib/gcc/pic32c/8.3.1/../../../../pic32c/lib/thumb/v6-m/nofp\libc-musl.a(putc.o)
 .note.GNU-stack
                0x0000000000000000        0x0 c:/program files/microchip/xc32/v4.60/bin/bin/../../lib/gcc/pic32c/8.3.1/../../../../pic32c/lib/thumb/v6-m/nofp\libc-musl.a(setvbuf.o)
 .note.GNU-stack
                0x0000000000000000        0x0 c:/program files/microchip/xc32/v4.60/bin/bin/../../lib/gcc/pic32c/8.3.1/../../../../pic32c/lib/thumb/v6-m/nofp\libc-musl.a(__tm_to_secs.o)
 .note.GNU-stack
                0x0000000000000000        0x0 c:/program files/microchip/xc32/v4.60/bin/bin/../../lib/gcc/pic32c/8.3.1/../../../../pic32c/lib/thumb/v6-m/nofp\libc-musl.a(__year_to_secs.o)
 .note.GNU-stack
                0x0000000000000000        0x0 c:/program files/microchip/xc32/v4.60/bin/bin/../../lib/gcc/pic32c/8.3.1/../../../../pic32c/lib/thumb/v6-m/nofp\libc-musl.a(__secs_to_tm.o)
 .note.GNU-stack
                0x0000000000000000        0x0 c:/program files/microchip/xc32/v4.60/bin/bin/../../lib/gcc/pic32c/8.3.1/../../../../pic32c/lib/thumb/v6-m/nofp\libc-musl.a(readv.o)
 .note.GNU-stack
                0x0000000000000000        0x0 c:/program files/microchip/xc32/v4.60/bin/bin/../../lib/gcc/pic32c/8.3.1/../../../../pic32c/lib/thumb/v6-m/nofp\libc-musl.a(__init_stdio.o)
 .note.GNU-stack
                0x0000000000000000        0x0 c:/program files/microchip/xc32/v4.60/bin/bin/../../lib/gcc/pic32c/8.3.1/../../../../pic32c/lib/thumb/v6-m/nofp\libc-musl.a(__out.o)
 .note.GNU-stack
                0x0000000000000000        0x0 c:/program files/microchip/xc32/v4.60/bin/bin/../../lib/gcc/pic32c/8.3.1/../../../../pic32c/lib/thumb/v6-m/nofp\libc-musl.a(__putc.o)
 .note.GNU-stack
                0x0000000000000000        0x0 c:/program files/microchip/xc32/v4.60/bin/bin/../../lib/gcc/pic32c/8.3.1/../../../../pic32c/lib/thumb/v6-m/nofp\libc-musl.a(__stderr.o)
 .note.GNU-stack
                0x0000000000000000        0x0 c:/program files/microchip/xc32/v4.60/bin/bin/../../lib/gcc/pic32c/8.3.1/../../../../pic32c/lib/thumb/v6-m/nofp\libc-musl.a(__stdio_close.o)
 .note.GNU-stack
                0x0000000000000000        0x0 c:/program files/microchip/xc32/v4.60/bin/bin/../../lib/gcc/pic32c/8.3.1/../../../../pic32c/lib/thumb/v6-m/nofp\libc-musl.a(__stdio_write.o)
 .note.GNU-stack
                0x0000000000000000        0x0 c:/program files/microchip/xc32/v4.60/bin/bin/../../lib/gcc/pic32c/8.3.1/../../../../pic32c/lib/thumb/v6-m/nofp\libc-musl.a(__stdout.o)
 .note.GNU-stack
                0x0000000000000000        0x0 c:/program files/microchip/xc32/v4.60/bin/bin/../../lib/gcc/pic32c/8.3.1/../../../../pic32c/lib/thumb/v6-m/nofp\libc-musl.a(__towrite.o)
 .note.GNU-stack
                0x0000000000000000        0x0 c:/program files/microchip/xc32/v4.60/bin/bin/../../lib/gcc/pic32c/8.3.1/../../../../pic32c/lib/thumb/v6-m/nofp\libc-musl.a(__month_to_secs.o)
 .note.GNU-stack
                0x0000000000000000        0x0 c:/program files/microchip/xc32/v4.60/bin/bin/../../lib/gcc/pic32c/8.3.1/../../../../pic32c/lib/thumb/v6-m/nofp\libc-musl.a(writev.o)
 .note.GNU-stack
                0x0000000000000000        0x0 c:/program files/microchip/xc32/v4.60/bin/bin/../../lib/gcc/pic32c/8.3.1/../../../../pic32c/lib/thumb/v6-m/nofp\libc-musl.a(__overflow.o)
 .note.GNU-stack
                0x0000000000000000        0x0 c:/program files/microchip/xc32/v4.60/bin/bin/../../lib/gcc/pic32c/8.3.1/../../../../pic32c/lib/thumb/v6-m/nofp\libc-musl.a(__fwrite.o)

__xc_reference_data
                0x0000000000000000       0xdc
 __xc_reference_data
                0x0000000000000000        0x8 c:/program files/microchip/xc32/v4.60/bin/bin/../../lib/gcc/pic32c/8.3.1/../../../../pic32c/lib/thumb/v6-m/nofp\libc-musl.a(stdin.o)
                0x0000000000000000                __stdin_needs_rw
 __xc_reference_data
                0x0000000000000008        0x8 c:/program files/microchip/xc32/v4.60/bin/bin/../../lib/gcc/pic32c/8.3.1/../../../../pic32c/lib/thumb/v6-m/nofp\libc-musl.a(stdout.o)
                0x0000000000000008                __stdout_needs_init
 __xc_reference_data
                0x0000000000000010       0x14 c:/program files/microchip/xc32/v4.60/bin/bin/../../lib/gcc/pic32c/8.3.1/../../../../pic32c/lib/thumb/v6-m/nofp\libc-musl.a(__io_init_needed.o)
                0x0000000000000010                __io_init_needed
                0x000000000000001c                __io_init_needs_file
 __xc_reference_data
                0x0000000000000024       0x20 c:/program files/microchip/xc32/v4.60/bin/bin/../../lib/gcc/pic32c/8.3.1/../../../../pic32c/lib/thumb/v6-m/nofp\libc-musl.a(__io_rw_needed.o)
                0x0000000000000024                __io_rw_needed
 __xc_reference_data
                0x0000000000000044        0xc c:/program files/microchip/xc32/v4.60/bin/bin/../../lib/gcc/pic32c/8.3.1/../../../../pic32c/lib/thumb/v6-m/nofp\libc-musl.a(putc.o)
                0x0000000000000044                __putc_needs_out
 __xc_reference_data
                0x0000000000000050        0x8 c:/program files/microchip/xc32/v4.60/bin/bin/../../lib/gcc/pic32c/8.3.1/../../../../pic32c/lib/thumb/v6-m/nofp\libc-musl.a(setvbuf.o)
                0x0000000000000050                __setvbuf_needs_buf
 __xc_reference_data
                0x0000000000000058       0x34 c:/program files/microchip/xc32/v4.60/bin/bin/../../lib/gcc/pic32c/8.3.1/../../../../pic32c/lib/thumb/v6-m/nofp\libc-musl.a(__io_buf_needed.o)
                0x0000000000000058                __io_buf_needed
 __xc_reference_data
                0x000000000000008c        0xc c:/program files/microchip/xc32/v4.60/bin/bin/../../lib/gcc/pic32c/8.3.1/../../../../pic32c/lib/thumb/v6-m/nofp\libc-musl.a(__io_file_needed.o)
                0x000000000000008c                __io_file_needed
 __xc_reference_data
                0x0000000000000098       0x2c c:/program files/microchip/xc32/v4.60/bin/bin/../../lib/gcc/pic32c/8.3.1/../../../../pic32c/lib/thumb/v6-m/nofp\libc-musl.a(__io_std_needed.o)
                0x0000000000000098                __io_std_needed
 __xc_reference_data
                0x00000000000000c4        0x8 c:/program files/microchip/xc32/v4.60/bin/bin/../../lib/gcc/pic32c/8.3.1/../../../../pic32c/lib/thumb/v6-m/nofp\libc-musl.a(__stderr.o)
                0x00000000000000c4                __stderr_needs_file
 __xc_reference_data
                0x00000000000000cc        0x8 c:/program files/microchip/xc32/v4.60/bin/bin/../../lib/gcc/pic32c/8.3.1/../../../../pic32c/lib/thumb/v6-m/nofp\libc-musl.a(__stdout.o)
                0x00000000000000cc                __stdout_needs_file
 __xc_reference_data
                0x00000000000000d4        0x8 c:/program files/microchip/xc32/v4.60/bin/bin/../../lib/gcc/pic32c/8.3.1/../../../../pic32c/lib/thumb/v6-m/nofp\libc-musl.a(__fwrite.o)
                0x00000000000000d4                __fwrite_needs_std

.stack          0x0000000020001da0      0x100
 .stack         0x0000000020001da0      0x100 stack

.bss%1          0x0000000020000000      0xf60
 .bss           0x0000000020000000      0xf60 build/SAMD21_IOT_WG_ICM42688/production/_ext/1360937237/main.o

.bss%2          0x0000000020000f60      0x408
 .bss           0x0000000020000f60      0x408 c:/program files/microchip/xc32/v4.60/bin/bin/../../lib/gcc/pic32c/8.3.1/../../../../pic32c/lib/thumb/v6-m/nofp\libc-musl.a(stdin.o)

.bss%3          0x0000000020001368      0x114
 .bss           0x0000000020001368      0x114 build/SAMD21_IOT_WG_ICM42688/production/_ext/907429946/wdrv_winc.o
                0x0000000020001378                pfWINCDebugPrintCb

.bss%4          0x0000000020001480       0xe0
 .bss           0x0000000020001480       0xe0 build/SAMD21_IOT_WG_ICM42688/production/_ext/386530258/sys_time.o

.bss%5          0x0000000020001560       0xcd
 .bss           0x0000000020001560       0xcd build/SAMD21_IOT_WG_ICM42688/production/_ext/548032175/socket.o
                0x0000000020001560                gpfAppSocketCb
                0x0000000020001564                gu16SessionID
                0x0000000020001568                gpfAppResolveCb
                0x0000000020001574                gbSocketInit
                0x0000000020001578                gu16BufferSize
                0x000000002000157a                gu8OpCode
                0x000000002000157c                gastrSockets
                0x000000002000162c                gsockerrno

.bss%6          0x0000000020001630       0xc4
 .bss           0x0000000020001630       0xc4 build/SAMD21_IOT_WG_ICM42688/production/_ext/1832905403/initialization.o
                0x0000000020001630                sysObj

.bss%7          0x00000000200016f4       0xc0
 .bss           0x00000000200016f4       0xc0 build/SAMD21_IOT_WG_ICM42688/production/_ext/503204096/plib_eic.o

.bss%8          0x00000000200017b4       0x78
 .bss           0x00000000200017b4       0x78 build/SAMD21_IOT_WG_ICM42688/production/_ext/1660664302/drv_spi.o

.bss%9          0x000000002000182c       0x68
 .bss           0x000000002000182c       0x68 build/SAMD21_IOT_WG_ICM42688/production/_ext/121554788/m2m_ota.o

.bss%10         0x0000000020001898       0x60
 .bss           0x0000000020001898       0x60 build/SAMD21_IOT_WG_ICM42688/production/_ext/1580516298/plib_dmac.o

.bss%11         0x00000000200018f8       0x50
 .bss           0x00000000200018f8       0x50 c:/program files/microchip/xc32/v4.60/bin/bin/../../lib/gcc/pic32c/8.3.1/../../../../pic32c/lib/thumb/v6-m/nofp\libc-musl.a(libc.o)
                0x00000000200018f8                __progname_full
                0x00000000200018f8                program_invocation_name
                0x00000000200018fc                program_invocation_short_name
                0x00000000200018fc                __progname
                0x0000000020001900                __sysinfo
                0x0000000020001904                __hwcap
                0x0000000020001908                __libc

.bss%12         0x0000000020001948       0x2d
 .bss           0x0000000020001948       0x2d build/SAMD21_IOT_WG_ICM42688/production/_ext/1014017276/plib_sercom2_spi_master.o

.bss%13         0x0000000020001978       0x2c
 .bss           0x0000000020001978       0x2c c:/program files/microchip/xc32/v4.60/bin/bin/../../lib/gcc/pic32c/8.3.1/../../../../pic32c/lib/thumb/v6-m/nofp\libc-musl.a(gmtime.o)

.bss%14         0x00000000200019a4       0x29
 .bss           0x00000000200019a4       0x29 build/SAMD21_IOT_WG_ICM42688/production/_ext/121554788/m2m_hif.o
                0x00000000200019a4                gstrHifCxt

.bss%15         0x00000000200019d0       0x28
 .bss           0x00000000200019d0       0x28 build/SAMD21_IOT_WG_ICM42688/production/_ext/121554788/m2m_wifi.o

.bss%16         0x00000000200019f8       0x1d
 .bss           0x00000000200019f8       0x1d build/SAMD21_IOT_WG_ICM42688/production/_ext/101005277/wdrv_winc_spi.o

.bss%17         0x0000000020001a18       0x1c
 .bss           0x0000000020001a18       0x1c c:/program files/microchip/xc32/v4.60/bin/bin/../../lib/gcc/pic32c/8.3.1/thumb/v6-m/nofp/crtbegin.o

.bss%18         0x0000000020001a34       0x12
 .bss           0x0000000020001a34       0x12 build/SAMD21_IOT_WG_ICM42688/production/_ext/1360937237/winc1500_tcp_client.o
                0x0000000020001a34                state

.bss%19         0x0000000020001a48        0xc
 .bss           0x0000000020001a48        0xc c:/program files/microchip/xc32/v4.60/bin/bin/../../lib/gcc/pic32c/8.3.1/../../../../pic32c/lib/thumb/v6-m/nofp\libpic32c.a(sbrk.o)
                0x0000000020001a4c                _maxbrk
                0x0000000020001a50                _minbrk

.bss%20         0x0000000020001a54        0x8
 .bss           0x0000000020001a54        0x8 build/SAMD21_IOT_WG_ICM42688/production/_ext/121554788/m2m_ssl.o

.bss%21         0x0000000020001a5c        0x8
 .bss           0x0000000020001a5c        0x8 build/SAMD21_IOT_WG_ICM42688/production/_ext/399410062/plib_tc3.o

.bss%22         0x0000000020001a64        0x8
 .bss           0x0000000020001a64        0x8 build/SAMD21_IOT_WG_ICM42688/production/_ext/399410062/plib_tc4.o

.bss%23         0x0000000020001a6c        0x8
 .bss           0x0000000020001a6c        0x8 build/SAMD21_IOT_WG_ICM42688/production/_ext/1360937237/app.o
                0x0000000020001a6c                appData

.bss%24         0x0000000020001a74        0x8
 .bss           0x0000000020001a74        0x8 c:/program files/microchip/xc32/v4.60/bin/bin/../../lib/gcc/pic32c/8.3.1/../../../../pic32c/lib/thumb/v6-m/nofp\libc-musl.a(stdout.o)
                0x0000000020001a78                __stdout_used

.bss%25         0x000000002000147c        0x4
 .bss           0x000000002000147c        0x4 build/SAMD21_IOT_WG_ICM42688/production/_ext/2048461350/icm42688_sensor.o

.bss%26         0x0000000020001894        0x4
 .bss           0x0000000020001894        0x4 build/SAMD21_IOT_WG_ICM42688/production/_ext/121554788/nmasic.o

.bss%27         0x0000000020001a7c        0x4
 .bss           0x0000000020001a7c        0x4 build/SAMD21_IOT_WG_ICM42688/production/_ext/609036575/spi_flash.o

.bss%28         0x0000000020001a80        0x4
 .bss           0x0000000020001a80        0x4 c:/program files/microchip/xc32/v4.60/bin/bin/../../lib/gcc/pic32c/8.3.1/../../../../pic32c/lib/thumb/v6-m/nofp\libpic32c.a(data_init.o)

.bss%29         0x0000000020001a84        0x4
 .bss           0x0000000020001a84        0x4 c:/program files/microchip/xc32/v4.60/bin/bin/../../lib/gcc/pic32c/8.3.1/../../../../pic32c/lib/thumb/v6-m/nofp\liblmalloc-musl.a(lite_free.o)
                0x0000000020001a84                __freelist

.bss%30         0x0000000020001a88        0x4
 .bss           0x0000000020001a88        0x4 c:/program files/microchip/xc32/v4.60/bin/bin/../../lib/gcc/pic32c/8.3.1/../../../../pic32c/lib/thumb/v6-m/nofp\libc-musl.a(__errno_location.o)
                0x0000000020001a88                __errno_val

.bss%31         0x0000000020001a8c        0x4
 .bss           0x0000000020001a8c        0x4 c:/program files/microchip/xc32/v4.60/bin/bin/../../lib/gcc/pic32c/8.3.1/../../../../pic32c/lib/thumb/v6-m/nofp\libc-musl.a(__environ.o)
                0x0000000020001a8c                __environ
                0x0000000020001a8c                environ
                0x0000000020001a8c                ___environ
                0x0000000020001a8c                _environ

.bss%32         0x0000000020001a46        0x2
 .bss           0x0000000020001a46        0x2 build/SAMD21_IOT_WG_ICM42688/production/_ext/121554788/nmspi.o

.data%33        0x0000000020001a90       0x6c
 .data          0x0000000020001a90       0x6c c:/program files/microchip/xc32/v4.60/bin/bin/../../lib/gcc/pic32c/8.3.1/../../../../pic32c/lib/thumb/v6-m/nofp\libc-musl.a(stdin.o)
                0x0000000020001a90                __stdin_used
                0x0000000020001a94                _stdin

.data%34        0x0000000020001afc       0x60
 .data          0x0000000020001afc       0x60 c:/program files/microchip/xc32/v4.60/bin/bin/../../lib/gcc/pic32c/8.3.1/../../../../pic32c/lib/thumb/v6-m/nofp\libc-musl.a(__stdout.o)

.data%35        0x0000000020001b5c       0x20
 .data          0x0000000020001b5c       0x20 c:/program files/microchip/xc32/v4.60/bin/bin/../../lib/gcc/pic32c/8.3.1/../../../../pic32c/lib/thumb/v6-m/nofp\libc-musl.a(stdout.o)
                0x0000000020001b78                _stdout

.data%36        0x0000000020001b7c        0x4
 .data          0x0000000020001b7c        0x4 build/SAMD21_IOT_WG_ICM42688/production/_ext/121554788/m2m_wifi.o

.data%37        0x0000000020001b80        0x4
 .data          0x0000000020001b80        0x4 c:/program files/microchip/xc32/v4.60/bin/bin/../../lib/gcc/pic32c/8.3.1/../../../../pic32c/lib/thumb/v6-m/nofp\liblmalloc-musl.a(lite_malloc.o)

.data%38        0x0000000020001b84        0x2
 .data          0x0000000020001b84        0x2 build/SAMD21_IOT_WG_ICM42688/production/_ext/121554788/nmbus.o
                0x0000000020001b84                egstrNmBusCapabilities

.data%39        0x000000002000162e        0x2
 .data          0x000000002000162e        0x2 build/SAMD21_IOT_WG_ICM42688/production/_ext/386530258/sys_time.o

.data%40        0x000000002000162d        0x1
 .data          0x000000002000162d        0x1 build/SAMD21_IOT_WG_ICM42688/production/_ext/121554788/m2m_ssl.o

.data%41        0x0000000020001975        0x1
 .data          0x0000000020001975        0x1 build/SAMD21_IOT_WG_ICM42688/production/_ext/121554788/m2m_ota.o

.eh_frame%z1    0x0000000000000000        0x0
 .eh_frame      0x0000000000000000        0x0 c:/program files/microchip/xc32/v4.60/bin/bin/../../lib/gcc/pic32c/8.3.1/thumb/v6-m/nofp/crtbegin.o

.text%42        0x00000000000000e0     0x2250
 .text          0x00000000000000e0     0x2250 build/SAMD21_IOT_WG_ICM42688/production/_ext/1341251756/Icm426xxDriver_HL.o
                0x0000000000000138                inv_icm426xx_set_reg_bank
                0x0000000000000150                inv_icm426xx_device_reset
                0x00000000000002d0                inv_icm426xx_get_who_am_i
                0x00000000000002e0                inv_icm426xx_force_clock_source
                0x000000000000031c                inv_icm426xx_enable_accel_low_power_mode
                0x0000000000000538                inv_icm426xx_enable_accel_low_noise_mode
                0x00000000000006b0                inv_icm426xx_enable_gyro_low_noise_mode
                0x0000000000000898                inv_icm426xx_enable_fsync
                0x00000000000008cc                inv_icm426xx_disable_fsync
                0x00000000000008fc                inv_icm426xx_configure_timestamp_resolution
                0x0000000000000930                inv_icm426xx_get_config_ibi
                0x00000000000009d8                inv_icm426xx_get_config_int1
                0x0000000000000a9c                inv_icm426xx_get_config_int2
                0x0000000000000b60                inv_icm426xx_set_config_ibi
                0x0000000000000c58                inv_icm426xx_set_config_int1
                0x0000000000000d90                inv_icm426xx_set_config_int2
                0x0000000000000ec8                inv_icm426xx_get_data_from_registers
                0x0000000000000ffc                inv_icm426xx_convert_odr_bitfield_to_us
                0x0000000000001018                inv_icm426xx_set_accel_frequency
                0x0000000000001088                inv_icm426xx_set_gyro_frequency
                0x00000000000010bc                inv_icm426xx_set_accel_fsr
                0x00000000000010f0                inv_icm426xx_set_gyro_fsr
                0x0000000000001124                inv_icm426xx_get_accel_fsr
                0x0000000000001164                inv_icm426xx_get_gyro_fsr
                0x00000000000011a4                inv_icm426xx_set_accel_lp_avg
                0x00000000000011f0                inv_icm426xx_set_accel_ln_bw
                0x000000000000123c                inv_icm426xx_set_gyro_ln_bw
                0x0000000000001288                inv_icm426xx_reset_fifo
                0x0000000000001318                inv_icm426xx_disable_accel
                0x00000000000013c8                inv_icm426xx_disable_gyro
                0x00000000000014fc                inv_icm426xx_get_data_from_fifo
                0x00000000000019c0                inv_icm426xx_enable_timestamp_to_register
                0x0000000000001a14                inv_icm426xx_disable_timestamp_to_register
                0x0000000000001a60                inv_icm426xx_get_current_timestamp
                0x0000000000001ad4                inv_icm426xx_enable_clkin_rtc
                0x0000000000001b98                inv_icm426xx_get_clkin_rtc_status
                0x0000000000001bb4                inv_icm426xx_enable_high_resolution_fifo
                0x0000000000001bc4                inv_icm426xx_disable_high_resolution_fifo
                0x0000000000001bd4                inv_icm426xx_configure_fifo
                0x0000000000001d14                inv_icm426xx_init
                0x0000000000002160                inv_icm426xx_configure_fifo_wm
                0x0000000000002258                inv_icm426xx_get_fifo_timestamp_resolution_us_q24
                0x00000000000022e4                inv_icm426xx_get_reg_timestamp_resolution_us_q24
                0x0000000000002328                inv_icm426xx_get_version

.text%43        0x0000000000002330     0x14a8
 .text          0x0000000000002330     0x14a8 build/SAMD21_IOT_WG_ICM42688/production/_ext/121554788/m2m_wifi.o
                0x0000000000002728                m2m_wifi_download_mode
                0x0000000000002744                m2m_wifi_send_crl
                0x0000000000002764                m2m_wifi_init_hold
                0x000000000000277c                m2m_wifi_init_start
                0x00000000000027f8                m2m_wifi_init
                0x0000000000002818                m2m_wifi_deinit
                0x0000000000002834                m2m_wifi_handle_events
                0x000000000000283c                m2m_wifi_delete_sc
                0x0000000000002868                m2m_wifi_default_connect
                0x0000000000002884                m2m_wifi_connect_open
                0x00000000000028b4                m2m_wifi_connect_wep
                0x00000000000028bc                m2m_wifi_connect_psk
                0x00000000000029dc                m2m_wifi_1x_set_option
                0x0000000000002ac8                m2m_wifi_1x_get_option
                0x0000000000002b70                m2m_wifi_connect_1x_mschap2
                0x0000000000002c94                m2m_wifi_connect_1x_tls
                0x0000000000002e34                m2m_wifi_connect_sc
                0x0000000000002f0c                m2m_wifi_connect
                0x0000000000002f24                m2m_wifi_disconnect
                0x0000000000002f40                m2m_wifi_set_mac_address
                0x0000000000002f68                m2m_wifi_set_static_ip
                0x0000000000002f84                m2m_wifi_enable_dhcp
                0x0000000000002fa4                m2m_wifi_set_lsn_int
                0x0000000000002fc0                m2m_wifi_set_cust_InfoElement
                0x0000000000002fec                m2m_wifi_set_scan_options
                0x0000000000003030                m2m_wifi_set_stop_scan_on_first
                0x000000000000305c                m2m_wifi_set_scan_region
                0x000000000000307c                m2m_wifi_request_scan
                0x00000000000030c4                m2m_wifi_request_scan_passive
                0x0000000000003110                m2m_wifi_request_scan_ssid_list
                0x0000000000003188                m2m_wifi_wps
                0x00000000000031c0                m2m_wifi_wps_disable
                0x00000000000031dc                m2m_wifi_req_client_ctrl
                0x00000000000031e0                m2m_wifi_req_server_init
                0x00000000000031e4                m2m_wifi_p2p
                0x0000000000003218                m2m_wifi_p2p_disconnect
                0x0000000000003234                m2m_wifi_enable_ap_ext
                0x0000000000003260                m2m_wifi_enable_ap
                0x0000000000003298                m2m_wifi_set_gains
                0x00000000000032c0                m2m_wifi_disable_ap
                0x00000000000032dc                m2m_wifi_req_curr_rssi
                0x00000000000032f8                m2m_wifi_send_ethernet_pkt
                0x0000000000003328                m2m_wifi_get_otp_mac_address
                0x000000000000334c                m2m_wifi_get_mac_address
                0x000000000000336c                m2m_wifi_req_scan_result
                0x000000000000338c                m2m_wifi_get_num_ap_found
                0x0000000000003398                m2m_wifi_get_sleep_mode
                0x00000000000033a0                m2m_wifi_set_sleep_mode
                0x00000000000033cc                m2m_wifi_request_sleep
                0x00000000000033f8                m2m_wifi_set_device_name
                0x0000000000003428                m2m_wifi_configure_sntp
                0x0000000000003464                m2m_wifi_get_chipId
                0x000000000000346c                m2m_wifi_get_firmware_version
                0x000000000000348c                m2m_wifi_start_provision_mode_ext
                0x00000000000034f8                m2m_wifi_start_provision_mode
                0x0000000000003538                m2m_wifi_stop_provision_mode
                0x0000000000003554                m2m_wifi_get_connection_info
                0x0000000000003570                m2m_wifi_set_system_time
                0x0000000000003590                m2m_wifi_get_system_time
                0x00000000000035ac                m2m_wifi_enable_sntp
                0x00000000000035cc                m2m_wifi_set_power_profile
                0x00000000000035ec                m2m_wifi_set_tx_power
                0x000000000000360c                m2m_wifi_set_gain_table_idx
                0x000000000000362c                m2m_wifi_enable_firmware_logs
                0x000000000000364c                m2m_wifi_set_battery_voltage
                0x000000000000366c                m2m_wifi_prng_get_random_bytes
                0x00000000000036a4                m2m_wifi_conf_auto_rate
                0x00000000000036c0                m2m_wifi_enable_mac_mcast
                0x00000000000036f4                m2m_wifi_set_receive_buffer
                0x000000000000370c                m2m_wifi_reinit_hold
                0x0000000000003734                m2m_wifi_reinit
                0x000000000000374c                m2m_wifi_reinit_start
                0x0000000000003754                m2m_wifi_get_state
                0x0000000000003760                m2m_wifi_enable_roaming
                0x0000000000003790                m2m_wifi_disable_roaming
                0x00000000000037b0                m2m_wifi_enable_XO_during_sleep

.text%44        0x00000000000037d8      0xd84
 .text          0x00000000000037d8      0xd84 build/SAMD21_IOT_WG_ICM42688/production/_ext/907429946/wdrv_winc.o
                0x0000000000003eac                WDRV_WINC_Initialize
                0x0000000000003ef8                WDRV_WINC_Deinitialize
                0x0000000000003f44                WDRV_WINC_Reinitialize
                0x0000000000003f48                WDRV_WINC_Status
                0x0000000000003f64                WDRV_WINC_StatusExt
                0x0000000000003f88                WDRV_WINC_Tasks
                0x0000000000004184                WDRV_WINC_DebugRegisterCallback
                0x0000000000004190                WDRV_WINC_Open
                0x000000000000428c                WDRV_WINC_Close
                0x00000000000042ac                WDRV_WINC_MulticastMACFilterAdd
                0x00000000000042d0                WDRV_WINC_MulticastMACFilterRemove
                0x00000000000042f4                WDRV_WINC_EthernetAddressGet
                0x000000000000431c                WDRV_WINC_OperatingModeGet
                0x0000000000004340                WDRV_WINC_UserHandleSet
                0x0000000000004360                WDRV_WINC_UserHandleGet
                0x000000000000437c                WDRV_WINC_InfoDriverVersionGet
                0x00000000000043b0                WDRV_WINC_InfoDeviceFirmwareVersionGet
                0x0000000000004424                WDRV_WINC_InfoDeviceIDGet
                0x0000000000004440                WDRV_WINC_InfoDeviceMACAddressGet
                0x000000000000448c                WDRV_WINC_InfoDeviceNameSet
                0x00000000000044c0                WDRV_WINC_GainTableIndexSet
                0x00000000000044e4                WDRV_WINC_AutoRateSelectTransmitRate
                0x0000000000004544                WDRV_WINC_ISR

.text%45        0x000000000000455c      0xca0
 .text          0x000000000000455c      0xca0 build/SAMD21_IOT_WG_ICM42688/production/_ext/1660664302/drv_spi.o
                0x0000000000004bb8                DRV_SPI_Initialize
                0x0000000000004c50                DRV_SPI_Status
                0x0000000000004c64                DRV_SPI_Open
                0x0000000000004d20                DRV_SPI_Close
                0x0000000000004e1c                DRV_SPI_TransferEventHandlerSet
                0x0000000000004e9c                DRV_SPI_TransferSetup
                0x0000000000004ed4                DRV_SPI_WriteReadTransferAdd
                0x000000000000510c                DRV_SPI_WriteTransferAdd
                0x0000000000005120                DRV_SPI_ReadTransferAdd
                0x0000000000005138                DRV_SPI_TransferStatusGet
                0x0000000000005170                DRV_SPI_Lock

.text%46        0x00000000000051fc      0xbe8
 .text          0x00000000000051fc      0xbe8 build/SAMD21_IOT_WG_ICM42688/production/_ext/548032175/socket.o
                0x0000000000005638                socketInit
                0x000000000000566c                socketDeinit
                0x0000000000005694                registerSocketCallback
                0x00000000000056a0                registerSocketEventCallback
                0x00000000000056ac                registerSocketResolveCallback
                0x00000000000056b8                socket
                0x00000000000057b8                bind
                0x0000000000005824                listen
                0x000000000000586c                accept
                0x0000000000005894                connect
                0x0000000000005904                secure
                0x0000000000005970                send
                0x00000000000059e8                sendto
                0x0000000000005a60                recv
                0x0000000000005aec                shutdown
                0x0000000000005b50                recvfrom
                0x0000000000005bd8                gethostbyname
                0x0000000000005c08                setsockopt
                0x0000000000005c78                getsockopt
                0x0000000000005c80                m2m_ping_req
                0x0000000000005cc4                set_alpn_list
                0x0000000000005d64                get_alpn_index
                0x0000000000005d8c                sslEnableCertExpirationCheck
                0x0000000000005dac                IsSocketReady
                0x0000000000005db8                get_error_detail

.text%47        0x0000000000005de4      0xb50
 .text          0x0000000000005de4      0xb50 build/SAMD21_IOT_WG_ICM42688/production/_ext/386530258/sys_time.o
                0x0000000000006140                SYS_TIME_Initialize
                0x00000000000061ec                SYS_TIME_Deinitialize
                0x0000000000006218                SYS_TIME_Status
                0x0000000000006230                SYS_TIME_FrequencyGet
                0x000000000000623c                SYS_TIME_Counter64Get
                0x000000000000627c                SYS_TIME_CounterGet
                0x0000000000006284                SYS_TIME_CounterSet
                0x00000000000062a0                SYS_TIME_CountToUS
                0x00000000000062dc                SYS_TIME_CountToMS
                0x00000000000062fc                SYS_TIME_USToCount
                0x0000000000006320                SYS_TIME_MSToCount
                0x0000000000006340                SYS_TIME_TimerCreate
                0x0000000000006360                SYS_TIME_TimerReload
                0x0000000000006450                SYS_TIME_TimerDestroy
                0x00000000000065b0                SYS_TIME_TimerStart
                0x000000000000664c                SYS_TIME_TimerStop
                0x00000000000066bc                SYS_TIME_TimerCounterGet
                0x0000000000006774                SYS_TIME_TimerPeriodHasExpired
                0x00000000000067d4                SYS_TIME_DelayUS
                0x0000000000006824                SYS_TIME_DelayMS
                0x0000000000006874                SYS_TIME_DelayIsComplete
                0x000000000000688c                SYS_TIME_CallbackRegisterUS
                0x00000000000068e0                SYS_TIME_CallbackRegisterMS

.text%48        0x0000000000006934      0x704
 .text          0x0000000000006934      0x704 build/SAMD21_IOT_WG_ICM42688/production/_ext/121554788/nmasic.o
                0x0000000000006934                chip_apply_conf
                0x0000000000006964                chip_idle
                0x000000000000698c                enable_interrupts
                0x00000000000069e0                cpu_start
                0x0000000000006a88                nmi_get_chipid
                0x0000000000006b4c                nmi_get_rfrevid
                0x0000000000006b6c                restore_pmu_settings_after_global_reset
                0x0000000000006b94                nmi_update_pll
                0x0000000000006bbc                nmi_set_sys_clk_src_to_xo
                0x0000000000006bdc                chip_sleep
                0x0000000000006c3c                chip_wake
                0x0000000000006c98                cpu_halt
                0x0000000000006d00                chip_reset
                0x0000000000006d18                wait_for_bootrom
                0x0000000000006e10                wait_for_firmware_start
                0x0000000000006e7c                chip_deinit
                0x0000000000006eac                set_gpio_dir
                0x0000000000006ee0                set_gpio_val
                0x0000000000006f14                get_gpio_val
                0x0000000000006f3c                pullup_ctrl
                0x0000000000006f6c                nmi_get_otp_mac_address
                0x0000000000006fe4                nmi_get_mac_address

.text%49        0x0000000000007038      0x680
 .text          0x0000000000007038      0x680 build/SAMD21_IOT_WG_ICM42688/production/_ext/121554788/nmspi.o
                0x0000000000007374                nm_spi_reset
                0x00000000000073ac                nm_spi_lock_init
                0x00000000000073b8                nm_spi_init
                0x0000000000007470                nm_spi_deinit
                0x0000000000007480                nm_spi_read_reg
                0x00000000000074a8                nm_spi_read_reg_with_ret
                0x00000000000074c8                nm_spi_write_reg
                0x00000000000074e8                nm_spi_read_block
                0x000000000000758c                nm_spi_write_block

.text%50        0x00000000000076b8      0x67c
 .text          0x00000000000076b8      0x67c build/SAMD21_IOT_WG_ICM42688/production/_ext/609036575/spi_flash.o
                0x0000000000007990                spi_flash_enable
                0x0000000000007a70                spi_flash_read
                0x0000000000007b00                spi_flash_write
                0x0000000000007b80                spi_flash_erase
                0x0000000000007c88                spi_flash_get_size

.text%51        0x0000000000007d34      0x530
 .text          0x0000000000007d34      0x530 build/SAMD21_IOT_WG_ICM42688/production/_ext/121554788/m2m_hif.o
                0x0000000000007d94                hif_chip_wake
                0x0000000000007dac                hif_set_sleep_mode
                0x0000000000007db8                hif_get_sleep_mode
                0x0000000000007dc4                hif_chip_sleep_sc
                0x0000000000007ddc                hif_chip_sleep
                0x0000000000007e08                hif_init
                0x0000000000007e34                hif_deinit
                0x0000000000007e5c                hif_send
                0x000000000000807c                hif_handle_isr
                0x00000000000081bc                hif_receive
                0x0000000000008210                hif_register_cb

.text%52        0x0000000000008264      0x500
 .text          0x0000000000008264      0x500 build/SAMD21_IOT_WG_ICM42688/production/_ext/121554788/m2m_ota.o
                0x000000000000836c                m2m_ota_host_file_get_id
                0x0000000000008378                m2m_ota_init
                0x00000000000083ac                m2m_ota_notif_set_url
                0x00000000000083d0                m2m_ota_notif_check_for_update
                0x00000000000083ec                m2m_ota_notif_sched
                0x0000000000008408                m2m_ota_start_update
                0x00000000000084a8                m2m_ota_rollback
                0x00000000000084c4                m2m_ota_abort
                0x00000000000084e0                m2m_ota_switch_firmware
                0x00000000000084fc                m2m_ota_get_firmware_version
                0x000000000000851c                m2m_ota_host_file_get
                0x000000000000857c                m2m_ota_host_file_read_hif
                0x00000000000085c8                m2m_ota_host_file_read_spi
                0x0000000000008658                m2m_ota_host_file_erase
                0x0000000000008698                m2m_ota_set_ssl_option
                0x0000000000008700                m2m_ota_get_ssl_option

.text%53        0x0000000000008764      0x48c
 .text          0x0000000000008764      0x48c build/SAMD21_IOT_WG_ICM42688/production/_ext/121554788/m2m_ssl.o
                0x0000000000008884                m2m_ssl_init
                0x00000000000088ac                m2m_ssl_handshake_rsp
                0x00000000000088c8                m2m_ssl_send_certs_to_winc
                0x00000000000089d0                m2m_ssl_retrieve_next_for_verifying
                0x0000000000008b44                m2m_ssl_retrieve_cert
                0x0000000000008b68                m2m_ssl_retrieve_hash
                0x0000000000008bac                m2m_ssl_stop_retrieving
                0x0000000000008bbc                m2m_ssl_stop_processing_certs
                0x0000000000008bc4                m2m_ssl_ecc_process_done
                0x0000000000008bd0                m2m_ssl_set_active_ciphersuites

.text%54        0x0000000000008bf0      0x414
 .text          0x0000000000008bf0      0x414 build/SAMD21_IOT_WG_ICM42688/production/_ext/907429946/wdrv_winc_socket.o
                0x0000000000008c18                WDRV_WINC_IPAddressSet
                0x0000000000008c4c                WDRV_WINC_IPAddressGet
                0x0000000000008c70                WDRV_WINC_IPDNSServerAddressSet
                0x0000000000008ca0                WDRV_WINC_IPDefaultGatewaySet
                0x0000000000008cd0                WDRV_WINC_IPUseDHCPSet
                0x0000000000008d04                WDRV_WINC_IPUseDHCPGet
                0x0000000000008d28                WDRV_WINC_IPDHCPServerConfigure
                0x0000000000008d54                WDRV_WINC_IPLinkActive
                0x0000000000008d70                WDRV_WINC_ICMPEchoRequest
                0x0000000000008db4                WDRV_WINC_OTAUpdateFromURL
                0x0000000000008dfc                WDRV_WINC_OTAUpdateAbort
                0x0000000000008e30                WDRV_WINC_OTASSLServerAuthModeSet
                0x0000000000008e78                WDRV_WINC_OTASSLServerAuthModeIsEnabled
                0x0000000000008ec0                WDRV_WINC_OTASSLSNISet
                0x0000000000008f2c                WDRV_WINC_OTASSLSNIIsEnabled
                0x0000000000008f74                WDRV_WINC_RollbackActiveFirmwareImage
                0x0000000000008fa8                WDRV_WINC_SwitchActiveFirmwareImage
                0x0000000000008fdc                WDRV_WINC_SocketRegisterEventCallback
                0x0000000000008ff0                WDRV_WINC_SocketRegisterResolverCallback

.text%55        0x0000000000009004      0x400
 .text          0x0000000000009004      0x400 build/SAMD21_IOT_WG_ICM42688/production/_ext/1580516298/plib_dmac.o
                0x0000000000009004                DMAC_Initialize
                0x0000000000009078                DMAC_ChannelTransfer
                0x000000000000913c                DMAC_ChannelIsBusy
                0x000000000000916c                DMAC_ChannelTransferStatusGet
                0x0000000000009198                DMAC_ChannelDisable
                0x00000000000091d0                DMAC_ChannelGetTransferredCount
                0x00000000000091e8                DMAC_ChannelSuspend
                0x0000000000009210                DMAC_ChannelResume
                0x0000000000009238                DMAC_ChannelCallbackRegister
                0x0000000000009248                DMAC_ChannelSettingsGet
                0x000000000000925c                DMAC_ChannelSettingsSet
                0x0000000000009298                DMAC_CRCDisable
                0x00000000000092ac                DMAC_ChannelCRCSetup
                0x00000000000092f0                DMAC_CRCRead
                0x00000000000092fc                DMAC_CRCCalculate
                0x0000000000009390                DMAC_InterruptHandler

.text%56        0x0000000000009404      0x3d8
 .text          0x0000000000009404      0x3d8 build/SAMD21_IOT_WG_ICM42688/production/_ext/1014017276/plib_sercom2_spi_master.o
                0x0000000000009404                SERCOM2_SPI_Initialize
                0x000000000000943c                SERCOM2_SPI_TransferSetup
                0x00000000000094dc                SERCOM2_SPI_CallbackRegister
                0x00000000000094e8                SERCOM2_SPI_IsBusy
                0x0000000000009510                SERCOM2_SPI_IsTransmitterBusy
                0x0000000000009524                SERCOM2_SPI_WriteRead
                0x0000000000009684                SERCOM2_SPI_Write
                0x0000000000009690                SERCOM2_SPI_Read
                0x00000000000096a0                SERCOM2_SPI_InterruptHandler

.text%57        0x00000000000097dc      0x3d4
 .text          0x00000000000097dc      0x3d4 build/SAMD21_IOT_WG_ICM42688/production/_ext/907429946/wdrv_winc_host_file.o
                0x00000000000097dc                WDRV_WINC_HostFileDownload
                0x0000000000009884                WDRV_WINC_HostFileRead
                0x0000000000009978                WDRV_WINC_HostFileErase
                0x0000000000009a18                WDRV_WINC_HostFileFindByID
                0x0000000000009b1c                WDRV_WINC_HostFileGetSize
                0x0000000000009b60                WDRV_WINC_HostFileUpdateReadBuffer

.text%58        0x0000000000009bb0      0x3a4
 .text          0x0000000000009bb0      0x3a4 build/SAMD21_IOT_WG_ICM42688/production/_ext/1360937237/main.o
                0x0000000000009be8                SNSR_ISR_HANDLER
                0x0000000000009c40                Null_Handler
                0x0000000000009c44                SERCOM5_Handler
                0x0000000000009c80                UART_Write
                0x0000000000009c94                SERCOM1_Handler
                0x0000000000009c98                UART_Read
                0x0000000000009cb0                read_timer_ms
                0x0000000000009cbc                read_timer_us
                0x0000000000009cdc                sleep_ms
                0x0000000000009cfc                sleep_us
                0x0000000000009d1c                main

.text%59        0x0000000000009f54      0x384
 .text          0x0000000000009f54      0x384 build/SAMD21_IOT_WG_ICM42688/production/_ext/907429946/wdrv_winc_sta.o
                0x0000000000009fbc                WDRV_WINC_BSSConnect
                0x000000000000a200                WDRV_WINC_BSSReconnect
                0x000000000000a24c                WDRV_WINC_BSSDisconnect
                0x000000000000a290                WDRV_WINC_BSSRoamingConfigure

.text.__printf_core%60
                0x000000000000a2d8      0x33c
 .text.__printf_core
                0x000000000000a2d8      0x33c c:/program files/microchip/xc32/v4.60/bin/bin/../../lib/gcc/pic32c/8.3.1/../../../../pic32c/lib/thumb/v6-m/nofp\libc-musl.a(__printf_core.o)
                0x000000000000a2d8                __printf_core

.text%61        0x000000000000a614      0x310
 .text          0x000000000000a614      0x310 build/SAMD21_IOT_WG_ICM42688/production/_ext/177673482/plib_sercom5_usart.o
                0x000000000000a634                SERCOM5_USART_Initialize
                0x000000000000a668                SERCOM5_USART_FrequencyGet
                0x000000000000a670                SERCOM5_USART_SerialSetup
                0x000000000000a774                SERCOM5_USART_ErrorGet
                0x000000000000a794                SERCOM5_USART_Enable
                0x000000000000a7b0                SERCOM5_USART_Disable
                0x000000000000a7cc                SERCOM5_USART_TransmitterEnable
                0x000000000000a7e4                SERCOM5_USART_TransmitterDisable
                0x000000000000a800                SERCOM5_USART_Write
                0x000000000000a840                SERCOM5_USART_TransmitterIsReady
                0x000000000000a850                SERCOM5_USART_WriteByte
                0x000000000000a864                SERCOM5_USART_TransmitComplete
                0x000000000000a874                SERCOM5_USART_ReceiverEnable
                0x000000000000a88c                SERCOM5_USART_ReceiverDisable
                0x000000000000a8a8                SERCOM5_USART_Read
                0x000000000000a908                SERCOM5_USART_ReceiverIsReady
                0x000000000000a918                SERCOM5_USART_ReadByte

.text%62        0x000000000000a924      0x2f8
 .text          0x000000000000a924      0x2f8 build/SAMD21_IOT_WG_ICM42688/production/_ext/121554788/nmdrv.o
                0x000000000000a924                nm_get_firmware_info
                0x000000000000a9d4                nm_get_firmware_full_info
                0x000000000000aa84                nm_get_ota_firmware_info
                0x000000000000ab40                nm_drv_init_download_mode
                0x000000000000ab74                nm_drv_init_hold
                0x000000000000ab8c                nm_drv_init_start
                0x000000000000abd8                nm_drv_init
                0x000000000000abf0                nm_drv_deinit

.dinit%63       0x000000000000ac1c      0x2e0
 .dinit         0x000000000000ac1c      0x2e0 data_init

.text%64        0x000000000000aefc      0x2ac
 .text          0x000000000000aefc      0x2ac build/SAMD21_IOT_WG_ICM42688/production/_ext/907429946/wdrv_winc_authctx.o
                0x000000000000aefc                WDRV_WINC_AuthCtxIsValid
                0x000000000000af20                WDRV_WINC_AuthCtxSetDefaults
                0x000000000000af34                WDRV_WINC_AuthCtxSetOneTimeUse
                0x000000000000af44                WDRV_WINC_AuthCtxSetOpen
                0x000000000000af54                WDRV_WINC_AuthCtxSetWPA
                0x000000000000af8c                WDRV_WINC_AuthCtxSetWPAEnterpriseMSCHAPv2
                0x000000000000b030                WDRV_WINC_AuthCtxSetWPAEnterpriseTLS

.text%65        0x000000000000b1a8      0x280
 .text          0x000000000000b1a8      0x280 build/SAMD21_IOT_WG_ICM42688/production/_ext/1014017276/plib_sercom0_spi_master.o
                0x000000000000b308                SERCOM0_SPI_Initialize
                0x000000000000b330                SERCOM0_SPI_TransferSetup
                0x000000000000b3c4                SERCOM0_SPI_IsTransmitterBusy
                0x000000000000b3d8                SERCOM0_SPI_WriteRead
                0x000000000000b3f8                SERCOM0_SPI_Write
                0x000000000000b410                SERCOM0_SPI_Read

.text%66        0x000000000000b428      0x238
 .text          0x000000000000b428      0x238 build/SAMD21_IOT_WG_ICM42688/production/_ext/1360937237/winc1500_tcp_client.o
                0x000000000000b504                TCP_Client_Initialize
                0x000000000000b53c                TCP_Client_Tasks
                0x000000000000b63c                get_TCP_client_state
                0x000000000000b648                tx_wifi_new_sensordata

.text%67        0x000000000000b660      0x228
 .text          0x000000000000b660      0x228 build/SAMD21_IOT_WG_ICM42688/production/_ext/2048461350/icm42688_sensor.o
                0x000000000000b660                icm42688_sensor_event_cb
                0x000000000000b744                inv_icm426xx_get_time_us
                0x000000000000b74c                inv_icm426xx_sleep_us
                0x000000000000b754                icm42688_sensor_init
                0x000000000000b7fc                icm42688_sensor_set_config
                0x000000000000b868                icm42688_sensor_read

.text%68        0x000000000000b888      0x1fc
 .text          0x000000000000b888      0x1fc build/SAMD21_IOT_WG_ICM42688/production/_ext/1360937237/ringbuffer.o
                0x000000000000b888                ringbuffer_init
                0x000000000000b8c0                ringbuffer_reset
                0x000000000000b8c8                ringbuffer_read
                0x000000000000b94c                ringbuffer_write
                0x000000000000b9d4                ringbuffer_get_read_items
                0x000000000000b9e0                ringbuffer_get_write_items
                0x000000000000b9f0                ringbuffer_get_read_buffer
                0x000000000000ba18                ringbuffer_get_write_buffer
                0x000000000000ba40                ringbuffer_advance_read_index
                0x000000000000ba60                ringbuffer_advance_write_index

.text.__secs_to_tm%69
                0x000000000000ba84      0x1dc
 .text.__secs_to_tm
                0x000000000000ba84      0x1dc c:/program files/microchip/xc32/v4.60/bin/bin/../../lib/gcc/pic32c/8.3.1/../../../../pic32c/lib/thumb/v6-m/nofp\libc-musl.a(__secs_to_tm.o)
                0x000000000000ba84                __secs_to_tm

.text%70        0x000000000000bc60      0x1bc
 .text          0x000000000000bc60      0x1bc build/SAMD21_IOT_WG_ICM42688/production/_ext/1341251756/Icm426xxTransport.o
                0x000000000000bc60                inv_icm426xx_init_transport
                0x000000000000bcd0                inv_icm426xx_read_reg
                0x000000000000bd58                inv_icm426xx_write_reg

.text%71        0x000000000000be1c      0x190
 .text          0x000000000000be1c      0x190 build/SAMD21_IOT_WG_ICM42688/production/_ext/907429946/wdrv_winc_bssctx.o
                0x000000000000be58                WDRV_WINC_BSSCtxIsValid
                0x000000000000be74                WDRV_WINC_BSSCtxSetDefaults
                0x000000000000bea4                WDRV_WINC_BSSCtxSetSSID
                0x000000000000bef8                WDRV_WINC_BSSCtxSetBSSID
                0x000000000000bf4c                WDRV_WINC_BSSCtxSetChannel
                0x000000000000bf78                WDRV_WINC_BSSCtxSetSSIDVisibility

.text%72        0x000000000000bfac      0x188
 .text          0x000000000000bfac      0x188 build/SAMD21_IOT_WG_ICM42688/production/_ext/101005277/wdrv_winc_spi.o
                0x000000000000bfd4                WDRV_WINC_SPISend
                0x000000000000c018                WDRV_WINC_SPIReceive
                0x000000000000c06c                WDRV_WINC_SPIOpen
                0x000000000000c0dc                WDRV_WINC_SPIInitialize
                0x000000000000c0fc                WDRV_WINC_SPIDeinitialize

.text%73        0x000000000000c134      0x17c
 .text          0x000000000000c134      0x17c build/SAMD21_IOT_WG_ICM42688/production/_ext/907429946/wdrv_winc_systime.o
                0x000000000000c134                WDRV_WINC_LocalTimeToUTC
                0x000000000000c19c                WDRV_WINC_UTCToLocalTime
                0x000000000000c1dc                WDRV_WINC_SystemTimeSNTPClientEnable
                0x000000000000c234                WDRV_WINC_SystemTimeSNTPClientDisable
                0x000000000000c258                WDRV_WINC_SystemTimeSetCurrent
                0x000000000000c284                WDRV_WINC_SystemTimeGetCurrent

.text%74        0x000000000000c2b0      0x170
 .text          0x000000000000c2b0      0x170 build/SAMD21_IOT_WG_ICM42688/production/_ext/1580876256/plib_port.o
                0x000000000000c2b0                PORT_Initialize
                0x000000000000c370                PORT_GroupRead
                0x000000000000c374                PORT_GroupWrite
                0x000000000000c380                PORT_GroupLatchRead
                0x000000000000c384                PORT_GroupSet
                0x000000000000c388                PORT_GroupClear
                0x000000000000c38c                PORT_GroupToggle
                0x000000000000c390                PORT_GroupInputEnable
                0x000000000000c3b4                PORT_GroupOutputEnable
                0x000000000000c3b8                PORT_PinPeripheralFunctionConfig
                0x000000000000c400                PORT_PinGPIOConfig

.text%75        0x000000000000c420      0x15c
 .text          0x000000000000c420      0x15c build/SAMD21_IOT_WG_ICM42688/production/_ext/11470383/plib_nvmctrl.o
                0x000000000000c420                NVMCTRL_Initialize
                0x000000000000c42c                NVMCTRL_CacheInvalidate
                0x000000000000c43c                NVMCTRL_Read
                0x000000000000c44c                NVMCTRL_PageBufferWrite
                0x000000000000c460                NVMCTRL_PageBufferCommit
                0x000000000000c478                NVMCTRL_PageWrite
                0x000000000000c4a0                NVMCTRL_RowErase
                0x000000000000c4b8                NVMCTRL_USER_ROW_PageWrite
                0x000000000000c4f0                NVMCTRL_USER_ROW_RowErase
                0x000000000000c51c                NVMCTRL_ErrorGet
                0x000000000000c534                NVMCTRL_IsBusy
                0x000000000000c544                NVMCTRL_RegionLock
                0x000000000000c558                NVMCTRL_RegionUnlock
                0x000000000000c56c                NVMCTRL_SecurityBitSet

.rodata.str1.4%76
                0x000000000000c57c      0x138
 .rodata.str1.4
                0x000000000000c57c      0x138 build/SAMD21_IOT_WG_ICM42688/production/_ext/1360937237/main.o

.rodata%77      0x000000000000c6b4      0x134
 .rodata        0x000000000000c6b4      0x134 build/SAMD21_IOT_WG_ICM42688/production/_ext/121554788/nmspi.o

.text%78        0x000000000000c7e8      0x130
 .text          0x000000000000c7e8      0x130 build/SAMD21_IOT_WG_ICM42688/production/_ext/399410062/plib_tc4.o
                0x000000000000c7e8                TC4_TimerInitialize
                0x000000000000c824                TC4_TimerStart
                0x000000000000c83c                TC4_TimerStop
                0x000000000000c854                TC4_TimerFrequencyGet
                0x000000000000c85c                TC4_TimerCommandSet
                0x000000000000c874                TC4_Timer16bitCounterGet
                0x000000000000c890                TC4_Timer16bitCounterSet
                0x000000000000c8a4                TC4_Timer16bitPeriodSet
                0x000000000000c8b8                TC4_Timer16bitPeriodGet
                0x000000000000c8d4                TC4_Timer16bitCompareSet
                0x000000000000c8e8                TC4_TimerCallbackRegister
                0x000000000000c8f4                TC4_TimerInterruptHandler

.text%79        0x000000000000c918      0x130
 .text          0x000000000000c918      0x130 c:/program files/microchip/xc32/v4.60/bin/bin/../../lib/gcc/pic32c/8.3.1/thumb/v6-m/nofp\libgcc.a(_divdi3.o)
                0x000000000000c918                __divdi3

.text%80        0x000000000000ca48      0x128
 .text          0x000000000000ca48      0x128 build/SAMD21_IOT_WG_ICM42688/production/_ext/1580823105/plib_nvic.o
                0x000000000000ca48                NVIC_Initialize
                0x000000000000cadc                NVIC_INT_Enable
                0x000000000000cae4                NVIC_INT_Disable
                0x000000000000caf8                NVIC_INT_Restore
                0x000000000000cb0c                NVIC_INT_SourceDisable
                0x000000000000cb54                NVIC_INT_SourceRestore

.text%81        0x000000000000cb70      0x120
 .text          0x000000000000cb70      0x120 build/SAMD21_IOT_WG_ICM42688/production/_ext/399410062/plib_tc3.o
                0x000000000000cb70                TC3_TimerInitialize
                0x000000000000cbb0                TC3_TimerStart
                0x000000000000cbc8                TC3_TimerStop
                0x000000000000cbe0                TC3_TimerFrequencyGet
                0x000000000000cbe8                TC3_TimerCommandSet
                0x000000000000cc00                TC3_Timer16bitCounterGet
                0x000000000000cc1c                TC3_Timer16bitCounterSet
                0x000000000000cc30                TC3_Timer16bitPeriodSet
                0x000000000000cc44                TC3_Timer16bitPeriodGet
                0x000000000000cc60                TC3_TimerCallbackRegister
                0x000000000000cc6c                TC3_TimerInterruptHandler

.text%82        0x000000000000cc90      0x11c
 .text          0x000000000000cc90      0x11c build/SAMD21_IOT_WG_ICM42688/production/_ext/223004715/plib_systick.o
                0x000000000000cc90                SYSTICK_TimerInitialize
                0x000000000000ccac                SYSTICK_TimerRestart
                0x000000000000ccc8                SYSTICK_TimerStart
                0x000000000000ccdc                SYSTICK_TimerStop
                0x000000000000ccec                SYSTICK_TimerPeriodSet
                0x000000000000ccf8                SYSTICK_TimerPeriodGet
                0x000000000000cd04                SYSTICK_TimerCounterGet
                0x000000000000cd10                SYSTICK_TimerFrequencyGet
                0x000000000000cd18                SYSTICK_DelayMs
                0x000000000000cd5c                SYSTICK_DelayUs
                0x000000000000cd9c                SYSTICK_TimerPeriodHasExpired

.text%83        0x000000000000cdac      0x114
 .text          0x000000000000cdac      0x114 build/SAMD21_IOT_WG_ICM42688/production/_ext/503204096/plib_eic.o
                0x000000000000cdac                EIC_Initialize
                0x000000000000ce38                EIC_InterruptEnable
                0x000000000000ce48                EIC_InterruptDisable
                0x000000000000ce58                EIC_CallbackRegister
                0x000000000000ce74                EIC_InterruptHandler

.text.__year_to_secs%84
                0x000000000000cec0      0x100
 .text.__year_to_secs
                0x000000000000cec0      0x100 c:/program files/microchip/xc32/v4.60/bin/bin/../../lib/gcc/pic32c/8.3.1/../../../../pic32c/lib/thumb/v6-m/nofp\libc-musl.a(__year_to_secs.o)
                0x000000000000cec0                __year_to_secs

.rodata%85      0x000000000000cfc0       0xf0
 .rodata        0x000000000000cfc0       0xf0 build/SAMD21_IOT_WG_ICM42688/production/_ext/907429946/wdrv_winc.o

.rodata.str1.4%86
                0x000000000000d0b0       0xec
 .rodata.str1.4
                0x000000000000d0b0       0xec build/SAMD21_IOT_WG_ICM42688/production/_ext/1360937237/winc1500_tcp_client.o

.text%87        0x000000000000d19c       0xe8
 .text          0x000000000000d19c       0xe8 build/SAMD21_IOT_WG_ICM42688/production/_ext/121554788/nmbus.o
                0x000000000000d19c                nm_bus_iface_init
                0x000000000000d1ac                nm_bus_iface_deinit
                0x000000000000d1b0                nm_bus_reset
                0x000000000000d1b8                nm_bus_iface_reconfigure
                0x000000000000d1bc                nm_read_reg
                0x000000000000d1c4                nm_read_reg_with_ret
                0x000000000000d1cc                nm_write_reg
                0x000000000000d1d4                nm_read_block
                0x000000000000d22c                nm_write_block

.text%88        0x000000000000d284       0xe2
 .text          0x000000000000d284       0xe2 c:/program files/microchip/xc32/v4.60/bin/bin/../../lib/gcc/pic32c/8.3.1/thumb/v6-m/nofp\libgcc.a(_udivmoddi4.o)
                0x000000000000d284                __udivmoddi4

.text%89        0x000000000000d368       0xcc
 .text          0x000000000000d368       0xcc build/SAMD21_IOT_WG_ICM42688/production/_ext/1750425231/plib_clock.o
                0x000000000000d368                CLOCK_Initialize

.rodata%90      0x000000000000d434       0xcc
 .rodata        0x000000000000d434       0xcc build/SAMD21_IOT_WG_ICM42688/production/_ext/1832905403/initialization.o

.text%91        0x000000000000d500       0xc0
 .text          0x000000000000d500       0xc0 build/SAMD21_IOT_WG_ICM42688/production/_ext/548032175/inet_ntop.o
                0x000000000000d500                inet_ntop

.text.__pop_int%92
                0x000000000000d5c0       0xbe
 .text.__pop_int
                0x000000000000d5c0       0xbe c:/program files/microchip/xc32/v4.60/bin/bin/../../lib/gcc/pic32c/8.3.1/../../../../pic32c/lib/thumb/v6-m/nofp\libc-musl.a(__pop_int.o)
                0x000000000000d5c0                __pop_int_needed
                0x000000000000d5c0                __pop_int

.text.__fmt_d%93
                0x000000000000d67e       0xb2
 .text.__fmt_d  0x000000000000d67e       0xb2 c:/program files/microchip/xc32/v4.60/bin/bin/../../lib/gcc/pic32c/8.3.1/../../../../pic32c/lib/thumb/v6-m/nofp\libc-musl.a(__fmt_d.o)
                0x000000000000d67e                __fmt_d
                0x000000000000d67e                __fmt_d_needed

.text%94        0x000000000000d730       0xa8
 .text          0x000000000000d730       0xa8 c:/program files/microchip/xc32/v4.60/bin/bin/../../lib/gcc/pic32c/8.3.1/thumb/v6-m/nofp\libgcc.a(_divsi3.o)
                0x000000000000d730                __divsi3
                0x000000000000d730                __aeabi_idiv
                0x000000000000d7c4                __aeabi_idivmod

.text.__tm_to_secs%95
                0x000000000000d7d8       0xa0
 .text.__tm_to_secs
                0x000000000000d7d8       0xa0 c:/program files/microchip/xc32/v4.60/bin/bin/../../lib/gcc/pic32c/8.3.1/../../../../pic32c/lib/thumb/v6-m/nofp\libc-musl.a(__tm_to_secs.o)
                0x000000000000d7d8                __tm_to_secs

.text%96        0x000000000000d878       0x94
 .text          0x000000000000d878       0x94 build/SAMD21_IOT_WG_ICM42688/production/_ext/548032175/inet_addr.o
                0x000000000000d878                inet_addr

.text%97        0x000000000000d90c       0x94
 .text          0x000000000000d90c       0x94 build/SAMD21_IOT_WG_ICM42688/production/_ext/609036575/flexible_flash.o
                0x000000000000d90c                spi_flexible_flash_find_section

.text%98        0x000000000000d9a0       0x90
 .text          0x000000000000d9a0       0x90 build/SAMD21_IOT_WG_ICM42688/production/_ext/1832905403/initialization.o
                0x000000000000d9a0                SYS_Initialize

.text%99        0x000000000000da30       0x8c
 .text          0x000000000000da30       0x8c c:/program files/microchip/xc32/v4.60/bin/bin/../../lib/gcc/pic32c/8.3.1/thumb/v6-m/nofp\libgcc.a(_udivsi3.o)
                0x000000000000da30                __aeabi_uidiv
                0x000000000000da30                __udivsi3
                0x000000000000daa8                __aeabi_uidivmod

.text.__write_buffered%100
                0x000000000000dabc       0x82
 .text.__write_buffered
                0x000000000000dabc       0x82 c:/program files/microchip/xc32/v4.60/bin/bin/../../lib/gcc/pic32c/8.3.1/../../../../pic32c/lib/thumb/v6-m/nofp\libc-musl.a(__stdio_write.o)
                0x000000000000dabc                __do_write

.text.__simple_search_fl%101
                0x000000000000db40       0x80
 .text.__simple_search_fl
                0x000000000000db40       0x80 c:/program files/microchip/xc32/v4.60/bin/bin/../../lib/gcc/pic32c/8.3.1/../../../../pic32c/lib/thumb/v6-m/nofp\liblmalloc-musl.a(lite_free.o)
                0x000000000000db40                __simple_search_fl

.text.__stdio_write_buffered%102
                0x000000000000dbc0       0x7c
 .text.__stdio_write_buffered
                0x000000000000dbc0       0x7c c:/program files/microchip/xc32/v4.60/bin/bin/../../lib/gcc/pic32c/8.3.1/../../../../pic32c/lib/thumb/v6-m/nofp\libc-musl.a(__stdio_write.o)
                0x000000000000dbc0                __stdio_write_buffered

.text.__pad%103
                0x000000000000dc3c       0x7a
 .text.__pad    0x000000000000dc3c       0x7a c:/program files/microchip/xc32/v4.60/bin/bin/../../lib/gcc/pic32c/8.3.1/../../../../pic32c/lib/thumb/v6-m/nofp\libc-musl.a(__printf_core.o)
                0x000000000000dc3c                __pad

.text.__cvt_u%104
                0x000000000000dcb6       0x76
 .text.__cvt_u  0x000000000000dcb6       0x76 c:/program files/microchip/xc32/v4.60/bin/bin/../../lib/gcc/pic32c/8.3.1/../../../../pic32c/lib/thumb/v6-m/nofp\libc-musl.a(__cvt_u.o)
                0x000000000000dcb6                __cvt_u

.text%105       0x000000000000dd2c       0x6c
 .text          0x000000000000dd2c       0x6c build/SAMD21_IOT_WG_ICM42688/production/_ext/1318297016/sys_int.o
                0x000000000000dd2c                SYS_INT_Enable
                0x000000000000dd34                SYS_INT_Disable
                0x000000000000dd3c                SYS_INT_Restore
                0x000000000000dd44                SYS_INT_SourceDisable
                0x000000000000dd7c                SYS_INT_SourceRestore

.text.__pop_ptr%106
                0x000000000000dd98       0x68
 .text.__pop_ptr
                0x000000000000dd98       0x68 c:/program files/microchip/xc32/v4.60/bin/bin/../../lib/gcc/pic32c/8.3.1/../../../../pic32c/lib/thumb/v6-m/nofp\libc-musl.a(__pop_ptr.o)
                0x000000000000dd98                __pop_ptr
                0x000000000000dd98                __pop_ptr_needed

.text.__simple_malloc%107
                0x000000000000de00       0x64
 .text.__simple_malloc
                0x000000000000de00       0x64 c:/program files/microchip/xc32/v4.60/bin/bin/../../lib/gcc/pic32c/8.3.1/../../../../pic32c/lib/thumb/v6-m/nofp\liblmalloc-musl.a(lite_malloc.o)
                0x000000000000de00                __malloc0
                0x000000000000de00                __simple_malloc
                0x000000000000de00                malloc

.text.__stdio_read%108
                0x000000000000de64       0x64
 .text.__stdio_read
                0x000000000000de64       0x64 c:/program files/microchip/xc32/v4.60/bin/bin/../../lib/gcc/pic32c/8.3.1/../../../../pic32c/lib/thumb/v6-m/nofp\libc-musl.a(__stdio_read.o)
                0x000000000000de64                __stdio_read

.text.__strchrnul%109
                0x000000000000dec8       0x60
 .text.__strchrnul
                0x000000000000dec8       0x60 c:/program files/microchip/xc32/v4.60/bin/bin/../../lib/gcc/pic32c/8.3.1/../../../../pic32c/lib/thumb/v6-m/nofp\libc-size-musl.a(strchrnul.o)
                0x000000000000dec8                strchrnul
                0x000000000000dec8                __strchrnul

.text.__libc_start_init%110
                0x000000000000df28       0x5c
 .text.__libc_start_init
                0x000000000000df28       0x5c c:/program files/microchip/xc32/v4.60/bin/bin/../../lib/gcc/pic32c/8.3.1/../../../../pic32c/lib/thumb/v6-m/nofp\libc-musl.a(__libc_start_main.o)
                0x000000000000df28                __libc_init_array

.text.__stdio_close_rw%111
                0x000000000000df84       0x5c
 .text.__stdio_close_rw
                0x000000000000df84       0x5c c:/program files/microchip/xc32/v4.60/bin/bin/../../lib/gcc/pic32c/8.3.1/../../../../pic32c/lib/thumb/v6-m/nofp\libc-musl.a(__stdio_close.o)
                0x000000000000df84                __stdio_close_rw

.text%112       0x000000000000dfe0       0x58
 .text          0x000000000000dfe0       0x58 build/SAMD21_IOT_WG_ICM42688/production/_ext/1360937237/app.o
                0x000000000000dfe0                APP_Initialize
                0x000000000000dfec                APP_Tasks

.text.__fmt_u%113
                0x000000000000e038       0x56
 .text.__fmt_u  0x000000000000e038       0x56 c:/program files/microchip/xc32/v4.60/bin/bin/../../lib/gcc/pic32c/8.3.1/../../../../pic32c/lib/thumb/v6-m/nofp\libc-musl.a(__fmt_u.o)
                0x000000000000e038                __fmt_u_needed
                0x000000000000e038                __fmt_u

.text.__fmt_s%114
                0x000000000000e090       0x50
 .text.__fmt_s  0x000000000000e090       0x50 c:/program files/microchip/xc32/v4.60/bin/bin/../../lib/gcc/pic32c/8.3.1/../../../../pic32c/lib/thumb/v6-m/nofp\libc-musl.a(__fmt_s.o)
                0x000000000000e090                __fmt_s
                0x000000000000e090                __fmt_0_needed
                0x000000000000e090                __fmt_s_needed

.text.setvbuf%115
                0x000000000000e0e0       0x50
 .text.setvbuf  0x000000000000e0e0       0x50 c:/program files/microchip/xc32/v4.60/bin/bin/../../lib/gcc/pic32c/8.3.1/../../../../pic32c/lib/thumb/v6-m/nofp\libc-musl.a(setvbuf.o)
                0x000000000000e0e0                setvbuf

.text._sbrk%116
                0x000000000000e130       0x50
 .text._sbrk    0x000000000000e130       0x50 c:/program files/microchip/xc32/v4.60/bin/bin/../../lib/gcc/pic32c/8.3.1/../../../../pic32c/lib/thumb/v6-m/nofp\libpic32c.a(sbrk.o)
                0x000000000000e130                _sbrk

.text.__overflow%117
                0x000000000000e180       0x4e
 .text.__overflow
                0x000000000000e180       0x4e c:/program files/microchip/xc32/v4.60/bin/bin/../../lib/gcc/pic32c/8.3.1/../../../../pic32c/lib/thumb/v6-m/nofp\libc-musl.a(__overflow.o)
                0x000000000000e180                __overflow

.rodata%118     0x000000000000e1d0       0x4c
 .rodata        0x000000000000e1d0       0x4c build/SAMD21_IOT_WG_ICM42688/production/_ext/1341251756/Icm426xxDriver_HL.o

.text%119       0x000000000000e21c       0x48
 .text          0x000000000000e21c       0x48 c:/program files/microchip/xc32/v4.60/bin/bin/../../lib/gcc/pic32c/8.3.1/thumb/v6-m/nofp/crtbegin.o

.text%120       0x000000000000e264       0x48
 .text          0x000000000000e264       0x48 build/SAMD21_IOT_WG_ICM42688/production/_ext/1357625803/xc32_monitor.o
                0x000000000000e264                read
                0x000000000000e284                write

.text.Reset_Handler%121
                0x000000000000e2ac       0x48
 .text.Reset_Handler
                0x000000000000e2ac       0x48 build/SAMD21_IOT_WG_ICM42688/production/_ext/1832905403/startup_xc32.o
                0x000000000000e2ac                Reset_Handler

.text.mktime%122
                0x000000000000e2f4       0x48
 .text.mktime   0x000000000000e2f4       0x48 c:/program files/microchip/xc32/v4.60/bin/bin/../../lib/gcc/pic32c/8.3.1/../../../../pic32c/lib/thumb/v6-m/nofp\libc-musl.a(mktime.o)
                0x000000000000e2f4                mktime

.text%123       0x000000000000e33c       0x48
 .text          0x000000000000e33c       0x48 c:/program files/microchip/xc32/v4.60/bin/bin/../../lib/gcc/pic32c/8.3.1/thumb/v6-m/nofp\libgcc.a(_aeabi_ldivmod.o)
                0x000000000000e33c                __aeabi_ldivmod

.text%124       0x000000000000e384       0x44
 .text          0x000000000000e384       0x44 build/SAMD21_IOT_WG_ICM42688/production/_ext/1584719636/sys_dma.o
                0x000000000000e384                SYS_DMA_AddressingModeSetup
                0x000000000000e3a8                SYS_DMA_DataWidthSetup

.text%125       0x000000000000e3c8       0x44
 .text          0x000000000000e3c8       0x44 c:/program files/microchip/xc32/v4.60/bin/bin/../../lib/gcc/pic32c/8.3.1/thumb/v6-m/nofp\libgcc.a(_muldi3.o)
                0x000000000000e3c8                __muldi3
                0x000000000000e3c8                __aeabi_lmul

.text%126       0x000000000000e40c       0x40
 .text          0x000000000000e40c       0x40 build/SAMD21_IOT_WG_ICM42688/production/_ext/1164161090/wdrv_winc_gpio.o
                0x000000000000e40c                WDRV_WINC_GPIOResetAssert
                0x000000000000e41c                WDRV_WINC_GPIOResetDeassert
                0x000000000000e42c                WDRV_WINC_GPIOChipEnableAssert
                0x000000000000e43c                WDRV_WINC_GPIOChipEnableDeassert

.rodata%127     0x000000000000e44c       0x40
 .rodata        0x000000000000e44c       0x40 build/SAMD21_IOT_WG_ICM42688/production/_ext/1341251756/Icm426xxTransport.o

.text.__simple_free%128
                0x000000000000e48c       0x40
 .text.__simple_free
                0x000000000000e48c       0x40 c:/program files/microchip/xc32/v4.60/bin/bin/../../lib/gcc/pic32c/8.3.1/../../../../pic32c/lib/thumb/v6-m/nofp\liblmalloc-musl.a(lite_free.o)
                0x000000000000e48c                __simple_free
                0x000000000000e48c                free
                0x000000000000e48c                __free0

.text.atoi%129  0x000000000000e4cc       0x40
 .text.atoi     0x000000000000e4cc       0x40 c:/program files/microchip/xc32/v4.60/bin/bin/../../lib/gcc/pic32c/8.3.1/../../../../pic32c/lib/thumb/v6-m/nofp\libc-musl.a(atoi.o)
                0x000000000000e4cc                atoi

.text%130       0x000000000000e50c       0x40
 .text          0x000000000000e50c       0x40 c:/program files/microchip/xc32/v4.60/bin/bin/../../lib/gcc/pic32c/8.3.1/thumb/v6-m/nofp\libgcc.a(_aeabi_uldivmod.o)
                0x000000000000e50c                __aeabi_uldivmod

.text.__out%131
                0x000000000000e54c       0x3c
 .text.__out    0x000000000000e54c       0x3c c:/program files/microchip/xc32/v4.60/bin/bin/../../lib/gcc/pic32c/8.3.1/../../../../pic32c/lib/thumb/v6-m/nofp\libc-musl.a(__out.o)
                0x000000000000e54c                __out
                0x000000000000e54c                __out_needed

.text.__putc%132
                0x000000000000e588       0x3c
 .text.__putc   0x000000000000e588       0x3c c:/program files/microchip/xc32/v4.60/bin/bin/../../lib/gcc/pic32c/8.3.1/../../../../pic32c/lib/thumb/v6-m/nofp\libc-musl.a(__putc.o)
                0x000000000000e588                __putc_needed
                0x000000000000e588                __putc

.text%133       0x000000000000e5c4       0x3c
 .text          0x000000000000e5c4       0x3c c:/program files/microchip/xc32/v4.60/bin/bin/../../lib/gcc/pic32c/8.3.1/thumb/v6-m/nofp\libgcc.a(_clzsi2.o)
                0x000000000000e5c4                __clzsi2

.text.__pic32c_data_initialization%134
                0x000000000000e600       0x38
 .text.__pic32c_data_initialization
                0x000000000000e600       0x38 c:/program files/microchip/xc32/v4.60/bin/bin/../../lib/gcc/pic32c/8.3.1/../../../../pic32c/lib/thumb/v6-m/nofp\libpic32c.a(data_init.o)
                0x000000000000e600                __pic32c_data_initialization

.text.__putc_unbuffered%135
                0x000000000000e638       0x36
 .text.__putc_unbuffered
                0x000000000000e638       0x36 c:/program files/microchip/xc32/v4.60/bin/bin/../../lib/gcc/pic32c/8.3.1/../../../../pic32c/lib/thumb/v6-m/nofp\libc-musl.a(putc.o)
                0x000000000000e638                __putc_unbuffered

.text.__fmt_state%136
                0x000000000000e670       0x34
 .text.__fmt_state
                0x000000000000e670       0x34 c:/program files/microchip/xc32/v4.60/bin/bin/../../lib/gcc/pic32c/8.3.1/../../../../pic32c/lib/thumb/v6-m/nofp\libc-musl.a(__printf_core.o)
                0x000000000000e670                __fmt_state

.text.__gmtime_r%137
                0x000000000000e6a4       0x34
 .text.__gmtime_r
                0x000000000000e6a4       0x34 c:/program files/microchip/xc32/v4.60/bin/bin/../../lib/gcc/pic32c/8.3.1/../../../../pic32c/lib/thumb/v6-m/nofp\libc-musl.a(gmtime_r.o)
                0x000000000000e6a4                __gmtime_r
                0x000000000000e6a4                gmtime_r

.text%138       0x000000000000e6d8       0x34
 .text          0x000000000000e6d8       0x34 c:/program files/microchip/xc32/v4.60/bin/bin/../../lib/gcc/pic32c/8.3.1/thumb/v6-m/nofp\libgcc.a(bpabi.o)
                0x000000000000e6d8                __gnu_ldivmod_helper

.text._sbrk_init%139
                0x000000000000e70c       0x34
 .text._sbrk_init
                0x000000000000e70c       0x34 c:/program files/microchip/xc32/v4.60/bin/bin/../../lib/gcc/pic32c/8.3.1/../../../../pic32c/lib/thumb/v6-m/nofp\libpic32c.a(sbrk.o)

.text%140       0x000000000000e740       0x30
 .text          0x000000000000e740       0x30 build/SAMD21_IOT_WG_ICM42688/production/_ext/90265895/nm_common.o
                0x000000000000e740                nm_sleep
                0x000000000000e748                nm_reset

.rodata%141     0x000000000000e770       0x30
 .rodata        0x000000000000e770       0x30 c:/program files/microchip/xc32/v4.60/bin/bin/../../lib/gcc/pic32c/8.3.1/../../../../pic32c/lib/thumb/v6-m/nofp\libc-musl.a(__month_to_secs.o)

.text.fwrite%142
                0x000000000000e7a0       0x2e
 .text.fwrite   0x000000000000e7a0       0x2e c:/program files/microchip/xc32/v4.60/bin/bin/../../lib/gcc/pic32c/8.3.1/../../../../pic32c/lib/thumb/v6-m/nofp\libc-musl.a(fwrite.o)
                0x000000000000e7a0                fwrite
                0x000000000000e7a0                fwrite_unlocked

.text.__pop_float%143
                0x000000000000e7ce       0x2a
 .text.__pop_float
                0x000000000000e7ce       0x2a c:/program files/microchip/xc32/v4.60/bin/bin/../../lib/gcc/pic32c/8.3.1/../../../../pic32c/lib/thumb/v6-m/nofp\libc-musl.a(__pop_float.o)
                0x000000000000e7ce                __pop_float_needed
                0x000000000000e7ce                __pop_float

.text.__towrite_rw%144
                0x000000000000e7f8       0x2a
 .text.__towrite_rw
                0x000000000000e7f8       0x2a c:/program files/microchip/xc32/v4.60/bin/bin/../../lib/gcc/pic32c/8.3.1/../../../../pic32c/lib/thumb/v6-m/nofp\libc-musl.a(__towrite_rw.o)
                0x000000000000e7f8                __towrite_rw
                0x000000000000e7f8                __towrite_rw_needed

.text%145       0x000000000000e824       0x28
 .text          0x000000000000e824       0x28 build/SAMD21_IOT_WG_ICM42688/production/_ext/1164161090/wdrv_winc_eint.o
                0x000000000000e824                WDRV_WINC_INTInitialize
                0x000000000000e840                WDRV_WINC_INTDeinitialize

.rodata%146     0x000000000000e84c       0x28
 .rodata        0x000000000000e84c       0x28 build/SAMD21_IOT_WG_ICM42688/production/_ext/907429946/wdrv_winc_authctx.o

.text.puts%147  0x000000000000e874       0x28
 .text.puts     0x000000000000e874       0x28 c:/program files/microchip/xc32/v4.60/bin/bin/../../lib/gcc/pic32c/8.3.1/../../../../pic32c/lib/thumb/v6-m/nofp\libc-musl.a(puts.o)
                0x000000000000e874                puts

.text.__readv%148
                0x000000000000e89c       0x28
 .text.__readv  0x000000000000e89c       0x28 c:/program files/microchip/xc32/v4.60/bin/bin/../../lib/gcc/pic32c/8.3.1/../../../../pic32c/lib/thumb/v6-m/nofp\libc-musl.a(readv.o)
                0x000000000000e89c                readv

.text.__writev%149
                0x000000000000e8c4       0x28
 .text.__writev
                0x000000000000e8c4       0x28 c:/program files/microchip/xc32/v4.60/bin/bin/../../lib/gcc/pic32c/8.3.1/../../../../pic32c/lib/thumb/v6-m/nofp\libc-musl.a(writev.o)
                0x000000000000e8c4                writev

.text%150       0x000000000000e8ec       0x24
 .text          0x000000000000e8ec       0x24 build/SAMD21_IOT_WG_ICM42688/production/_ext/1784303044/wdrv_winc_osal.o
                0x000000000000e8ec                WDRV_MSDelay

.text.fputs%151
                0x000000000000e910       0x22
 .text.fputs    0x000000000000e910       0x22 c:/program files/microchip/xc32/v4.60/bin/bin/../../lib/gcc/pic32c/8.3.1/../../../../pic32c/lib/thumb/v6-m/nofp\libc-musl.a(fputs.o)
                0x000000000000e910                fputs
                0x000000000000e910                fputs_unlocked

.rodata%152     0x000000000000e934       0x20
 .rodata        0x000000000000e934       0x20 build/SAMD21_IOT_WG_ICM42688/production/_ext/121554788/m2m_hif.o

.rodata%153     0x000000000000e954       0x20
 .rodata        0x000000000000e954       0x20 build/SAMD21_IOT_WG_ICM42688/production/_ext/1360937237/winc1500_tcp_client.o

.text.memchr%154
                0x000000000000e974       0x20
 .text.memchr   0x000000000000e974       0x20 c:/program files/microchip/xc32/v4.60/bin/bin/../../lib/gcc/pic32c/8.3.1/../../../../pic32c/lib/thumb/v6-m/nofp\libc-size-musl.a(memchr.o)
                0x000000000000e974                memchr

.text.__wrap_printf%155
                0x000000000000e994       0x20
 .text.__wrap_printf
                0x000000000000e994       0x20 c:/program files/microchip/xc32/v4.60/bin/bin/../../lib/gcc/pic32c/8.3.1/../../../../pic32c/lib/thumb/v6-m/nofp\libc-musl.a(__sio_printf_cdnsu.o)
                0x000000000000e994                _dprintf_cdnsu
                0x000000000000e994                _printf_cdnsu

.text.__month_to_secs%156
                0x000000000000e9b4       0x20
 .text.__month_to_secs
                0x000000000000e9b4       0x20 c:/program files/microchip/xc32/v4.60/bin/bin/../../lib/gcc/pic32c/8.3.1/../../../../pic32c/lib/thumb/v6-m/nofp\libc-musl.a(__month_to_secs.o)
                0x000000000000e9b4                __month_to_secs

.text._get_heap_left_space%157
                0x000000000000e9d4       0x20
 .text._get_heap_left_space
                0x000000000000e9d4       0x20 c:/program files/microchip/xc32/v4.60/bin/bin/../../lib/gcc/pic32c/8.3.1/../../../../pic32c/lib/thumb/v6-m/nofp\libpic32c.a(sbrk.o)
                0x000000000000e9d4                _get_heap_left_space

.text.__dinit_copy%158
                0x000000000000e9f4       0x1e
 .text.__dinit_copy
                0x000000000000e9f4       0x1e c:/program files/microchip/xc32/v4.60/bin/bin/../../lib/gcc/pic32c/8.3.1/../../../../pic32c/lib/thumb/v6-m/nofp\libpic32c.a(pic32_data_init_copy.o)
                0x000000000000e9f4                __dinit_copy_needed
                0x000000000000e9f4                __dinit_copy

.text.__simple_calloc%159
                0x000000000000ea12       0x1c
 .text.__simple_calloc
                0x000000000000ea12       0x1c c:/program files/microchip/xc32/v4.60/bin/bin/../../lib/gcc/pic32c/8.3.1/../../../../pic32c/lib/thumb/v6-m/nofp\liblmalloc-musl.a(lite_calloc.o)
                0x000000000000ea12                calloc
                0x000000000000ea12                __simple_calloc
                0x000000000000ea12                __calloc0

.text.__init_search_fl%160
                0x000000000000ea30       0x1c
 .text.__init_search_fl
                0x000000000000ea30       0x1c c:/program files/microchip/xc32/v4.60/bin/bin/../../lib/gcc/pic32c/8.3.1/../../../../pic32c/lib/thumb/v6-m/nofp\liblmalloc-musl.a(lite_free.o)
                0x000000000000ea30                __init_search_fl

.text.__towrite%161
                0x000000000000ea4c       0x1a
 .text.__towrite
                0x000000000000ea4c       0x1a c:/program files/microchip/xc32/v4.60/bin/bin/../../lib/gcc/pic32c/8.3.1/../../../../pic32c/lib/thumb/v6-m/nofp\libc-musl.a(__towrite.o)
                0x000000000000ea4c                __towrite

.text.strlen%162
                0x000000000000ea68       0x18
 .text.strlen   0x000000000000ea68       0x18 c:/program files/microchip/xc32/v4.60/bin/bin/../../lib/gcc/pic32c/8.3.1/../../../../pic32c/lib/thumb/v6-m/nofp\libc-size-musl.a(strlen.o)
                0x000000000000ea68                strlen

.text.strnlen%163
                0x000000000000ea80       0x18
 .text.strnlen  0x000000000000ea80       0x18 c:/program files/microchip/xc32/v4.60/bin/bin/../../lib/gcc/pic32c/8.3.1/../../../../pic32c/lib/thumb/v6-m/nofp\libc-size-musl.a(strnlen.o)
                0x000000000000ea80                strnlen

.text.__vfprintf%164
                0x000000000000ea98       0x18
 .text.__vfprintf
                0x000000000000ea98       0x18 c:/program files/microchip/xc32/v4.60/bin/bin/../../lib/gcc/pic32c/8.3.1/../../../../pic32c/lib/thumb/v6-m/nofp\libc-musl.a(__int_vfprintf.o)
                0x000000000000ea98                __vfprintf

.text%165       0x000000000000eab0       0x18
 .text          0x000000000000eab0       0x18 c:/program files/microchip/xc32/v4.60/bin/bin/../../lib/gcc/pic32c/8.3.1/thumb/v6-m/nofp\libgcc.a(_lshrdi3.o)
                0x000000000000eab0                __lshrdi3
                0x000000000000eab0                __aeabi_llsr

.text%166       0x000000000000eac8       0x18
 .text          0x000000000000eac8       0x18 c:/program files/microchip/xc32/v4.60/bin/bin/../../lib/gcc/pic32c/8.3.1/thumb/v6-m/nofp\libgcc.a(_ashldi3.o)
                0x000000000000eac8                __aeabi_llsl
                0x000000000000eac8                __ashldi3

.text%167       0x000000000000eae0       0x18
 .text          0x000000000000eae0       0x18 c:/program files/microchip/xc32/v4.60/bin/bin/../../lib/gcc/pic32c/8.3.1/thumb/v6-m/nofp\libgcc.a(_clzdi2.o)
                0x000000000000eae0                __clzdi2

.text.__expand_heap%168
                0x000000000000eaf8       0x16
 .text.__expand_heap
                0x000000000000eaf8       0x16 c:/program files/microchip/xc32/v4.60/bin/bin/../../lib/gcc/pic32c/8.3.1/../../../../pic32c/lib/thumb/v6-m/nofp\libc-musl.a(expand_heap.o)
                0x000000000000eaf8                __expand_heap

.rodata%169     0x000000000000eb0e       0x16
 .rodata        0x000000000000eb0e       0x16 c:/program files/microchip/xc32/v4.60/bin/bin/../../lib/gcc/pic32c/8.3.1/../../../../pic32c/lib/thumb/v6-m/nofp\libc-musl.a(__printf_core.o)

.text%170       0x000000000000eb24       0x14
 .text          0x000000000000eb24       0x14 build/SAMD21_IOT_WG_ICM42688/production/_ext/1832905403/tasks.o
                0x000000000000eb24                SYS_Tasks

.rodata%171     0x000000000000eb38       0x14
 .rodata        0x000000000000eb38       0x14 c:/program files/microchip/xc32/v4.60/bin/bin/../../lib/gcc/pic32c/8.3.1/../../../../pic32c/lib/thumb/v6-m/nofp\libpic32c.a(data_init.o)

.text.memcpy%172
                0x000000000000eb4c       0x14
 .text.memcpy   0x000000000000eb4c       0x14 c:/program files/microchip/xc32/v4.60/bin/bin/../../lib/gcc/pic32c/8.3.1/../../../../pic32c/lib/thumb/v6-m/nofp\libc-size-musl.a(memcpy.o)
                0x000000000000eb4c                memcpy

.text.memset%173
                0x000000000000eb60       0x14
 .text.memset   0x000000000000eb60       0x14 c:/program files/microchip/xc32/v4.60/bin/bin/../../lib/gcc/pic32c/8.3.1/../../../../pic32c/lib/thumb/v6-m/nofp\libc-size-musl.a(memset.o)
                0x000000000000eb60                memset

.text.strchr%174
                0x000000000000eb74       0x14
 .text.strchr   0x000000000000eb74       0x14 c:/program files/microchip/xc32/v4.60/bin/bin/../../lib/gcc/pic32c/8.3.1/../../../../pic32c/lib/thumb/v6-m/nofp\libc-size-musl.a(strchr.o)
                0x000000000000eb74                strchr

.text.__init_stdout%175
                0x000000000000eb88       0x14
 .text.__init_stdout
                0x000000000000eb88       0x14 c:/program files/microchip/xc32/v4.60/bin/bin/../../lib/gcc/pic32c/8.3.1/../../../../pic32c/lib/thumb/v6-m/nofp\libc-musl.a(stdout.o)
                0x000000000000eb88                __init_stdout

.text.__fwrite%176
                0x000000000000eb9c       0x14
 .text.__fwrite
                0x000000000000eb9c       0x14 c:/program files/microchip/xc32/v4.60/bin/bin/../../lib/gcc/pic32c/8.3.1/../../../../pic32c/lib/thumb/v6-m/nofp\libc-musl.a(__fwrite.o)
                0x000000000000eb9c                __fwrite
                0x000000000000eb9c                __fwrite_needed

.text.setbuf%177
                0x000000000000ebb0       0x12
 .text.setbuf   0x000000000000ebb0       0x12 c:/program files/microchip/xc32/v4.60/bin/bin/../../lib/gcc/pic32c/8.3.1/../../../../pic32c/lib/thumb/v6-m/nofp\libc-musl.a(setbuf.o)
                0x000000000000ebb0                setbuf

.text.__dinit_clear%178
                0x000000000000ebc2       0x12
 .text.__dinit_clear
                0x000000000000ebc2       0x12 c:/program files/microchip/xc32/v4.60/bin/bin/../../lib/gcc/pic32c/8.3.1/../../../../pic32c/lib/thumb/v6-m/nofp\libpic32c.a(pic32_data_init_clear.o)
                0x000000000000ebc2                __dinit_clear
                0x000000000000ebc2                __dinit_clear_needed

.text.gmtime%179
                0x000000000000ebd4       0x10
 .text.gmtime   0x000000000000ebd4       0x10 c:/program files/microchip/xc32/v4.60/bin/bin/../../lib/gcc/pic32c/8.3.1/../../../../pic32c/lib/thumb/v6-m/nofp\libc-musl.a(gmtime.o)
                0x000000000000ebd4                gmtime

.text.__init_stdio%180
                0x000000000000ebe4       0x10
 .text.__init_stdio
                0x000000000000ebe4       0x10 c:/program files/microchip/xc32/v4.60/bin/bin/../../lib/gcc/pic32c/8.3.1/../../../../pic32c/lib/thumb/v6-m/nofp\libc-musl.a(__init_stdio.o)
                0x000000000000ebe4                __init_stdio_needed
                0x000000000000ebe4                __init_stdio

.text.tolower%181
                0x000000000000ebf4        0xe
 .text.tolower  0x000000000000ebf4        0xe c:/program files/microchip/xc32/v4.60/bin/bin/../../lib/gcc/pic32c/8.3.1/../../../../pic32c/lib/thumb/v6-m/nofp\libc-musl.a(tolower.o)
                0x000000000000ebf4                tolower

.rodata%182     0x000000000000ec02        0xc
 .rodata        0x000000000000ec02        0xc c:/program files/microchip/xc32/v4.60/bin/bin/../../lib/gcc/pic32c/8.3.1/../../../../pic32c/lib/thumb/v6-m/nofp\libc-musl.a(__secs_to_tm.o)

.text.__fwrite_min%183
                0x000000000000ec0e        0xa
 .text.__fwrite_min
                0x000000000000ec0e        0xa c:/program files/microchip/xc32/v4.60/bin/bin/../../lib/gcc/pic32c/8.3.1/../../../../pic32c/lib/thumb/v6-m/nofp\libc-musl.a(__out.o)
                0x000000000000ec0e                __stdio_write_unbuffered
                0x000000000000ec0e                __stdio_write

.text%184       0x000000000000ec18        0x8
 .text          0x000000000000ec18        0x8 build/SAMD21_IOT_WG_ICM42688/production/_ext/1832905403/exceptions.o
                0x000000000000ec18                NonMaskableInt_Handler
                0x000000000000ec1c                HardFault_Handler

.rodata.str1.4%185
                0x000000000000ec20        0x8
 .rodata.str1.4
                0x000000000000ec20        0x8 build/SAMD21_IOT_WG_ICM42688/production/_ext/1341251756/Icm426xxDriver_HL.o

.rodata.str1.1%186
                0x000000000000ec28        0x8
 .rodata.str1.1
                0x000000000000ec28        0x8 c:/program files/microchip/xc32/v4.60/bin/bin/../../lib/gcc/pic32c/8.3.1/../../../../pic32c/lib/thumb/v6-m/nofp\libc-musl.a(__printf_core.o)

.text.putc%187  0x000000000000ec30        0x8
 .text.putc     0x000000000000ec30        0x8 c:/program files/microchip/xc32/v4.60/bin/bin/../../lib/gcc/pic32c/8.3.1/../../../../pic32c/lib/thumb/v6-m/nofp\libc-musl.a(putc.o)
                0x000000000000ec30                putc
                0x000000000000ec30                fputc
                0x000000000000ec30                _IO_putc
                0x000000000000ec30                putc_unlocked

.text.__get_stdout%188
                0x000000000000ec38        0x8
 .text.__get_stdout
                0x000000000000ec38        0x8 c:/program files/microchip/xc32/v4.60/bin/bin/../../lib/gcc/pic32c/8.3.1/../../../../pic32c/lib/thumb/v6-m/nofp\libc-musl.a(__stdout.o)
                0x000000000000ec38                __get_stdout
                0x000000000000ec38                __init_stdout_needed

.rodata.str1.1%189
                0x000000000000ec40        0x7
 .rodata.str1.1
                0x000000000000ec40        0x7 c:/program files/microchip/xc32/v4.60/bin/bin/../../lib/gcc/pic32c/8.3.1/../../../../pic32c/lib/thumb/v6-m/nofp\libc-musl.a(__fmt_s.o)

.text.close%190
                0x000000000000ec48        0x6
 .text.close    0x000000000000ec48        0x6 c:/program files/microchip/xc32/v4.60/bin/bin/../../lib/gcc/pic32c/8.3.1/../../../../pic32c/lib/thumb/v6-m/nofp\libpic32c.a(close.o)
                0x000000000000ec48                close

.text.__dummy_decompress%191
                0x000000000000ec4e        0x4
 .text.__dummy_decompress
                0x000000000000ec4e        0x4 c:/program files/microchip/xc32/v4.60/bin/bin/../../lib/gcc/pic32c/8.3.1/../../../../pic32c/lib/thumb/v6-m/nofp\libpic32c.a(data_init.o)
                0x000000000000ec4e                __dinit_decompress
                0x000000000000ec4e                __dinit_copy_val_data
                0x000000000000ec4e                __dinit_copy_emb

.text.__dummy_fmt3%192
                0x000000000000ec52        0x4
 .text.__dummy_fmt3
                0x000000000000ec52        0x4 c:/program files/microchip/xc32/v4.60/bin/bin/../../lib/gcc/pic32c/8.3.1/../../../../pic32c/lib/thumb/v6-m/nofp\libc-musl.a(__printf_core.o)
                0x000000000000ec52                __fmt_o

.text.__dummy_fmt4%193
                0x000000000000ec56        0x4
 .text.__dummy_fmt4
                0x000000000000ec56        0x4 c:/program files/microchip/xc32/v4.60/bin/bin/../../lib/gcc/pic32c/8.3.1/../../../../pic32c/lib/thumb/v6-m/nofp\libc-musl.a(__printf_core.o)
                0x000000000000ec56                __fmt_fp
                0x000000000000ec56                __fmt_x
                0x000000000000ec56                __fmt_a

.text.__dummy%194
                0x000000000000ec5a        0x4
 .text.__dummy  0x000000000000ec5a        0x4 c:/program files/microchip/xc32/v4.60/bin/bin/../../lib/gcc/pic32c/8.3.1/../../../../pic32c/lib/thumb/v6-m/nofp\libc-musl.a(stdin.o)
                0x000000000000ec5a                __stdio_seek_rw

.rodata.str1.1%195
                0x000000000000ec5e        0x4
 .rodata.str1.1
                0x000000000000ec5e        0x4 c:/program files/microchip/xc32/v4.60/bin/bin/../../lib/gcc/pic32c/8.3.1/../../../../pic32c/lib/thumb/v6-m/nofp\libc-musl.a(gmtime_r.o)

.rodata.str1.1%196
                0x000000000000ec62        0x4
 .rodata.str1.1
                0x000000000000ec62        0x4 c:/program files/microchip/xc32/v4.60/bin/bin/../../lib/gcc/pic32c/8.3.1/../../../../pic32c/lib/thumb/v6-m/nofp\libc-musl.a(mktime.o)

.text%197       0x000000000000ec68        0x4
 .text          0x000000000000ec68        0x4 c:/program files/microchip/xc32/v4.60/bin/bin/../../lib/gcc/pic32c/8.3.1/thumb/v6-m/nofp\libgcc.a(_dvmd_tls.o)
                0x000000000000ec68                __aeabi_idiv0
                0x000000000000ec68                __aeabi_ldiv0

.text.lseek%198
                0x000000000000ec6c        0x4
 .text.lseek    0x000000000000ec6c        0x4 c:/program files/microchip/xc32/v4.60/bin/bin/../../lib/gcc/pic32c/8.3.1/../../../../pic32c/lib/thumb/v6-m/nofp\libpic32c.a(lseek.o)
                0x000000000000ec6c                lseek

.text%199       0x000000000000d366        0x2
 .text          0x000000000000d366        0x2 build/SAMD21_IOT_WG_ICM42688/production/_ext/1832905403/interrupts.o
                0x000000000000d366                SVCall_Handler
                0x000000000000d366                AC_Handler
                0x000000000000d366                SysTick_Handler
                0x000000000000d366                PendSV_Handler
                0x000000000000d366                ADC_Handler
                0x000000000000d366                TCC1_Handler
                0x000000000000d366                TCC0_Handler
                0x000000000000d366                RTC_Handler
                0x000000000000d366                WDT_Handler
                0x000000000000d366                USB_Handler
                0x000000000000d366                Dummy_Handler
                0x000000000000d366                PM_Handler
                0x000000000000d366                TCC2_Handler
                0x000000000000d366                EVSYS_Handler
                0x000000000000d366                SERCOM3_Handler
                0x000000000000d366                SERCOM4_Handler
                0x000000000000d366                I2S_Handler
                0x000000000000d366                NVMCTRL_Handler
                0x000000000000d366                SERCOM0_Handler
                0x000000000000d366                DAC_Handler
                0x000000000000d366                PTC_Handler
                0x000000000000d366                TC5_Handler
                0x000000000000d366                SYSCTRL_Handler

.text%200       0x000000000000db3e        0x2
 .text          0x000000000000db3e        0x2 build/SAMD21_IOT_WG_ICM42688/production/_ext/1832905403/startup_xc32.o
                0x000000000000db3e                _on_reset
                0x000000000000db3e                _on_bootstrap
                0x000000000000db3e                __xc32_on_reset
                0x000000000000db3e                Dummy_App_Func
                0x000000000000db3e                __xc32_on_bootstrap

.text.__dummy_init_tls%201
                0x000000000000e08e        0x2
 .text.__dummy_init_tls
                0x000000000000e08e        0x2 c:/program files/microchip/xc32/v4.60/bin/bin/../../lib/gcc/pic32c/8.3.1/../../../../pic32c/lib/thumb/v6-m/nofp\libpic32c.a(data_init.o)
                0x000000000000e08e                xc32_init_tls

.text.__dummy%202
                0x000000000000e1ce        0x2
 .text.__dummy  0x000000000000e1ce        0x2 c:/program files/microchip/xc32/v4.60/bin/bin/../../lib/gcc/pic32c/8.3.1/../../../../pic32c/lib/thumb/v6-m/nofp\libc-musl.a(__libc_start_main.o)
                0x000000000000e1ce                __init_host

.text.__dummy%203
                0x000000000000e66e        0x2
 .text.__dummy  0x000000000000e66e        0x2 c:/program files/microchip/xc32/v4.60/bin/bin/../../lib/gcc/pic32c/8.3.1/../../../../pic32c/lib/thumb/v6-m/nofp\libc-musl.a(__init_stdio.o)
                0x000000000000e66e                __init_stdin
                0x000000000000e66e                __init_stderr

.text.__dummy%204
                0x000000000000e822        0x2
 .text.__dummy  0x000000000000e822        0x2 c:/program files/microchip/xc32/v4.60/bin/bin/../../lib/gcc/pic32c/8.3.1/../../../../pic32c/lib/thumb/v6-m/nofp\libc-musl.a(__stderr.o)
                0x000000000000e822                __stdio_seek

.rodata%205     0x000000000000ec47        0x1
 .rodata        0x000000000000ec47        0x1 build/SAMD21_IOT_WG_ICM42688/production/_ext/907429946/wdrv_winc_socket.o
