Archive member included to satisfy reference by file (symbol)

c:/program files/microchip/xc32/v4.60/bin/bin/../../lib/gcc/pic32c/8.3.1/../../../../pic32c/lib/thumb/v6-m/nofp\libpic32c.a(data_init.o)
                              build/SAMD21_IOT_WG_ICM42688/debug/_ext/1832905403/startup_xc32.o (__pic32c_data_initialization)
c:/program files/microchip/xc32/v4.60/bin/bin/../../lib/gcc/pic32c/8.3.1/../../../../pic32c/lib/thumb/v6-m/nofp\libc-size-musl.a(memcpy.o)
                              build/SAMD21_IOT_WG_ICM42688/debug/_ext/101005277/wdrv_winc_spi.o (memcpy)
c:/program files/microchip/xc32/v4.60/bin/bin/../../lib/gcc/pic32c/8.3.1/../../../../pic32c/lib/thumb/v6-m/nofp\libc-size-musl.a(memset.o)
                              build/SAMD21_IOT_WG_ICM42688/debug/_ext/2048461350/icm42688_sensor.o (memset)
c:/program files/microchip/xc32/v4.60/bin/bin/../../lib/gcc/pic32c/8.3.1/../../../../pic32c/lib/thumb/v6-m/nofp\libc-size-musl.a(strlen.o)
                              build/SAMD21_IOT_WG_ICM42688/debug/_ext/121554788/m2m_wifi.o (strlen)
c:/program files/microchip/xc32/v4.60/bin/bin/../../lib/gcc/pic32c/8.3.1/../../../../pic32c/lib/thumb/v6-m/nofp\libc-size-musl.a(strchr.o)
                              build/SAMD21_IOT_WG_ICM42688/debug/_ext/907429946/wdrv_winc_sta.o (strchr)
c:/program files/microchip/xc32/v4.60/bin/bin/../../lib/gcc/pic32c/8.3.1/../../../../pic32c/lib/thumb/v6-m/nofp\libc-size-musl.a(strchrnul.o)
                              c:/program files/microchip/xc32/v4.60/bin/bin/../../lib/gcc/pic32c/8.3.1/../../../../pic32c/lib/thumb/v6-m/nofp\libc-size-musl.a(strchr.o) (__strchrnul)
c:/program files/microchip/xc32/v4.60/bin/bin/../../lib/gcc/pic32c/8.3.1/../../../../pic32c/lib/thumb/v6-m/nofp\libc-size-musl.a(strcmp.o)
                              build/SAMD21_IOT_WG_ICM42688/debug/_ext/299863938/ssi_comms.o (strcmp)
c:/program files/microchip/xc32/v4.60/bin/bin/../../lib/gcc/pic32c/8.3.1/../../../../pic32c/lib/thumb/v6-m/nofp\libc-size-musl.a(strnlen.o)
                              build/SAMD21_IOT_WG_ICM42688/debug/_ext/121554788/m2m_ota.o (strnlen)
c:/program files/microchip/xc32/v4.60/bin/bin/../../lib/gcc/pic32c/8.3.1/../../../../pic32c/lib/thumb/v6-m/nofp\libc-size-musl.a(memchr.o)
                              c:/program files/microchip/xc32/v4.60/bin/bin/../../lib/gcc/pic32c/8.3.1/../../../../pic32c/lib/thumb/v6-m/nofp\libc-size-musl.a(strnlen.o) (memchr)
c:/program files/microchip/xc32/v4.60/bin/bin/../../lib/gcc/pic32c/8.3.1/../../../../pic32c/lib/thumb/v6-m/nofp\liblmalloc-musl.a(lite_calloc.o)
                              build/SAMD21_IOT_WG_ICM42688/debug/_ext/121554788/m2m_wifi.o (calloc)
c:/program files/microchip/xc32/v4.60/bin/bin/../../lib/gcc/pic32c/8.3.1/../../../../pic32c/lib/thumb/v6-m/nofp\liblmalloc-musl.a(lite_free.o)
                              build/SAMD21_IOT_WG_ICM42688/debug/_ext/121554788/m2m_wifi.o (free)
c:/program files/microchip/xc32/v4.60/bin/bin/../../lib/gcc/pic32c/8.3.1/../../../../pic32c/lib/thumb/v6-m/nofp\liblmalloc-musl.a(lite_malloc.o)
                              c:/program files/microchip/xc32/v4.60/bin/bin/../../lib/gcc/pic32c/8.3.1/../../../../pic32c/lib/thumb/v6-m/nofp\liblmalloc-musl.a(lite_calloc.o) (__simple_malloc)
c:/program files/microchip/xc32/v4.60/bin/bin/../../lib/gcc/pic32c/8.3.1/../../../../pic32c/lib/thumb/v6-m/nofp\libm-fast-emfloat.a(modff.o)
                              build/SAMD21_IOT_WG_ICM42688/debug/_ext/596309756/stats_percentile_presorted.o (modff)
c:/program files/microchip/xc32/v4.60/bin/bin/../../lib/gcc/pic32c/8.3.1/../../../../pic32c/lib/thumb/v6-m/nofp\libm-fast-emfloat.a(cos.o)
                              build/SAMD21_IOT_WG_ICM42688/debug/_ext/596309756/utils_array.o (cos)
c:/program files/microchip/xc32/v4.60/bin/bin/../../lib/gcc/pic32c/8.3.1/../../../../pic32c/lib/thumb/v6-m/nofp\libm-fast-emfloat.a(sqrt.o)
                              build/SAMD21_IOT_WG_ICM42688/debug/_ext/596309756/std.o (sqrt)
c:/program files/microchip/xc32/v4.60/bin/bin/../../lib/gcc/pic32c/8.3.1/../../../../pic32c/lib/thumb/v6-m/nofp\libm-fast-emfloat.a(pow.o)
                              build/SAMD21_IOT_WG_ICM42688/debug/_ext/1341251756/Icm426xxSelfTest.o (pow)
c:/program files/microchip/xc32/v4.60/bin/bin/../../lib/gcc/pic32c/8.3.1/../../../../pic32c/lib/thumb/v6-m/nofp\libm-fast-emfloat.a(__SEGGER_RTL_float64_SinCos.o)
                              c:/program files/microchip/xc32/v4.60/bin/bin/../../lib/gcc/pic32c/8.3.1/../../../../pic32c/lib/thumb/v6-m/nofp\libm-fast-emfloat.a(cos.o) (__SEGGER_RTL_float64_SinCos)
c:/program files/microchip/xc32/v4.60/bin/bin/../../lib/gcc/pic32c/8.3.1/../../../../pic32c/lib/thumb/v6-m/nofp\libm-fast-emfloat.a(__SEGGER_RTL_kahan_aT2.o)
                              c:/program files/microchip/xc32/v4.60/bin/bin/../../lib/gcc/pic32c/8.3.1/../../../../pic32c/lib/thumb/v6-m/nofp\libm-fast-emfloat.a(sqrt.o) (__SEGGER_RTL_kahan_aT2)
c:/program files/microchip/xc32/v4.60/bin/bin/../../lib/gcc/pic32c/8.3.1/../../../../pic32c/lib/thumb/v6-m/nofp\libm-fast-emfloat.a(__aeabi_fadd.o)
                              build/SAMD21_IOT_WG_ICM42688/debug/_ext/596309756/calc_area.o (__aeabi_fadd)
c:/program files/microchip/xc32/v4.60/bin/bin/../../lib/gcc/pic32c/8.3.1/../../../../pic32c/lib/thumb/v6-m/nofp\libm-fast-emfloat.a(__aeabi_dadd.o)
                              build/SAMD21_IOT_WG_ICM42688/debug/_ext/1341251756/Icm426xxSelfTest.o (__aeabi_dadd)
c:/program files/microchip/xc32/v4.60/bin/bin/../../lib/gcc/pic32c/8.3.1/../../../../pic32c/lib/thumb/v6-m/nofp\libm-fast-emfloat.a(__aeabi_fsub.o)
                              build/SAMD21_IOT_WG_ICM42688/debug/_ext/596309756/calc_area.o (__aeabi_fsub)
c:/program files/microchip/xc32/v4.60/bin/bin/../../lib/gcc/pic32c/8.3.1/../../../../pic32c/lib/thumb/v6-m/nofp\libm-fast-emfloat.a(__aeabi_dsub.o)
                              build/SAMD21_IOT_WG_ICM42688/debug/_ext/596309756/utils_array.o (__aeabi_dsub)
c:/program files/microchip/xc32/v4.60/bin/bin/../../lib/gcc/pic32c/8.3.1/../../../../pic32c/lib/thumb/v6-m/nofp\libm-fast-emfloat.a(__aeabi_fmul.o)
                              build/SAMD21_IOT_WG_ICM42688/debug/_ext/596309756/ma_symmetric.o (__aeabi_fmul)
c:/program files/microchip/xc32/v4.60/bin/bin/../../lib/gcc/pic32c/8.3.1/../../../../pic32c/lib/thumb/v6-m/nofp\libm-fast-emfloat.a(__aeabi_dmul_aux.o)
                              build/SAMD21_IOT_WG_ICM42688/debug/_ext/1341251756/Icm426xxSelfTest.o (__aeabi_dmul)
c:/program files/microchip/xc32/v4.60/bin/bin/../../lib/gcc/pic32c/8.3.1/../../../../pic32c/lib/thumb/v6-m/nofp\libm-fast-emfloat.a(__aeabi_fdiv.o)
                              build/SAMD21_IOT_WG_ICM42688/debug/_ext/1341251756/Icm426xxSelfTest.o (__aeabi_fdiv)
c:/program files/microchip/xc32/v4.60/bin/bin/../../lib/gcc/pic32c/8.3.1/../../../../pic32c/lib/thumb/v6-m/nofp\libm-fast-emfloat.a(__aeabi_ddiv.o)
                              build/SAMD21_IOT_WG_ICM42688/debug/_ext/596309756/ma_symmetric.o (__aeabi_ddiv)
c:/program files/microchip/xc32/v4.60/bin/bin/../../lib/gcc/pic32c/8.3.1/../../../../pic32c/lib/thumb/v6-m/nofp\libm-fast-emfloat.a(__aeabi_fcmple.o)
                              build/SAMD21_IOT_WG_ICM42688/debug/_ext/1341251756/Icm426xxSelfTest.o (__aeabi_fcmple)
c:/program files/microchip/xc32/v4.60/bin/bin/../../lib/gcc/pic32c/8.3.1/../../../../pic32c/lib/thumb/v6-m/nofp\libm-fast-emfloat.a(__aeabi_fcmpeq.o)
                              build/SAMD21_IOT_WG_ICM42688/debug/_ext/596309756/rb.o (__aeabi_fcmpeq)
c:/program files/microchip/xc32/v4.60/bin/bin/../../lib/gcc/pic32c/8.3.1/../../../../pic32c/lib/thumb/v6-m/nofp\libm-fast-emfloat.a(__aeabi_dcmpeq.o)
                              c:/program files/microchip/xc32/v4.60/bin/bin/../../lib/gcc/pic32c/8.3.1/../../../../pic32c/lib/thumb/v6-m/nofp\libm-fast-emfloat.a(pow.o) (__aeabi_dcmpeq)
c:/program files/microchip/xc32/v4.60/bin/bin/../../lib/gcc/pic32c/8.3.1/../../../../pic32c/lib/thumb/v6-m/nofp\libm-fast-emfloat.a(__aeabi_fcmpge.o)
                              build/SAMD21_IOT_WG_ICM42688/debug/_ext/1341251756/Icm426xxSelfTest.o (__aeabi_fcmpge)
c:/program files/microchip/xc32/v4.60/bin/bin/../../lib/gcc/pic32c/8.3.1/../../../../pic32c/lib/thumb/v6-m/nofp\libm-fast-emfloat.a(__aeabi_fcmpgt.o)
                              build/SAMD21_IOT_WG_ICM42688/debug/_ext/596309756/max_min_high_low_freq.o (__aeabi_fcmpgt)
c:/program files/microchip/xc32/v4.60/bin/bin/../../lib/gcc/pic32c/8.3.1/../../../../pic32c/lib/thumb/v6-m/nofp\libm-fast-emfloat.a(__aeabi_dcmpgt.o)
                              build/SAMD21_IOT_WG_ICM42688/debug/_ext/596309756/utils_buffer_pass_threshold.o (__aeabi_dcmpgt)
c:/program files/microchip/xc32/v4.60/bin/bin/../../lib/gcc/pic32c/8.3.1/../../../../pic32c/lib/thumb/v6-m/nofp\libm-fast-emfloat.a(__aeabi_fcmplt.o)
                              build/SAMD21_IOT_WG_ICM42688/debug/_ext/596309756/calc_area.o (__aeabi_fcmplt)
c:/program files/microchip/xc32/v4.60/bin/bin/../../lib/gcc/pic32c/8.3.1/../../../../pic32c/lib/thumb/v6-m/nofp\libm-fast-emfloat.a(__aeabi_dcmplt.o)
                              c:/program files/microchip/xc32/v4.60/bin/bin/../../lib/gcc/pic32c/8.3.1/../../../../pic32c/lib/thumb/v6-m/nofp\libm-fast-emfloat.a(pow.o) (__aeabi_dcmplt)
c:/program files/microchip/xc32/v4.60/bin/bin/../../lib/gcc/pic32c/8.3.1/../../../../pic32c/lib/thumb/v6-m/nofp\libm-fast-emfloat.a(__aeabi_f2iz.o)
                              build/SAMD21_IOT_WG_ICM42688/debug/_ext/596309756/fftr_utils.o (__aeabi_f2iz)
c:/program files/microchip/xc32/v4.60/bin/bin/../../lib/gcc/pic32c/8.3.1/../../../../pic32c/lib/thumb/v6-m/nofp\libm-fast-emfloat.a(__aeabi_d2iz.o)
                              build/SAMD21_IOT_WG_ICM42688/debug/_ext/596309756/std.o (__aeabi_d2iz)
c:/program files/microchip/xc32/v4.60/bin/bin/../../lib/gcc/pic32c/8.3.1/../../../../pic32c/lib/thumb/v6-m/nofp\libm-fast-emfloat.a(__aeabi_f2uiz.o)
                              build/SAMD21_IOT_WG_ICM42688/debug/_ext/596309756/tr_min_max_scale.o (__aeabi_f2uiz)
c:/program files/microchip/xc32/v4.60/bin/bin/../../lib/gcc/pic32c/8.3.1/../../../../pic32c/lib/thumb/v6-m/nofp\libm-fast-emfloat.a(__aeabi_d2uiz.o)
                              c:/program files/microchip/xc32/v4.60/bin/bin/../../lib/gcc/pic32c/8.3.1/../../../../pic32c/lib/thumb/v6-m/nofp\libm-fast-emfloat.a(__aeabi_d2iz.o) (.L__aeabi_d2uiz_fast_entry)
c:/program files/microchip/xc32/v4.60/bin/bin/../../lib/gcc/pic32c/8.3.1/../../../../pic32c/lib/thumb/v6-m/nofp\libm-fast-emfloat.a(__aeabi_i2f.o)
                              build/SAMD21_IOT_WG_ICM42688/debug/_ext/596309756/calc_area.o (__aeabi_i2f)
c:/program files/microchip/xc32/v4.60/bin/bin/../../lib/gcc/pic32c/8.3.1/../../../../pic32c/lib/thumb/v6-m/nofp\libm-fast-emfloat.a(__aeabi_i2d.o)
                              build/SAMD21_IOT_WG_ICM42688/debug/_ext/1341251756/Icm426xxSelfTest.o (__aeabi_i2d)
c:/program files/microchip/xc32/v4.60/bin/bin/../../lib/gcc/pic32c/8.3.1/../../../../pic32c/lib/thumb/v6-m/nofp\libm-fast-emfloat.a(__aeabi_l2f.o)
                              build/SAMD21_IOT_WG_ICM42688/debug/_ext/596309756/mean.o (__aeabi_l2f)
c:/program files/microchip/xc32/v4.60/bin/bin/../../lib/gcc/pic32c/8.3.1/../../../../pic32c/lib/thumb/v6-m/nofp\libm-fast-emfloat.a(__aeabi_ui2f.o)
                              build/SAMD21_IOT_WG_ICM42688/debug/_ext/1341251756/Icm426xxSelfTest.o (__aeabi_ui2f)
c:/program files/microchip/xc32/v4.60/bin/bin/../../lib/gcc/pic32c/8.3.1/../../../../pic32c/lib/thumb/v6-m/nofp\libm-fast-emfloat.a(__aeabi_ui2d.o)
                              c:/program files/microchip/xc32/v4.60/bin/bin/../../lib/gcc/pic32c/8.3.1/../../../../pic32c/lib/thumb/v6-m/nofp\libm-fast-emfloat.a(__aeabi_i2d.o) (__aeabi_ui2d)
c:/program files/microchip/xc32/v4.60/bin/bin/../../lib/gcc/pic32c/8.3.1/../../../../pic32c/lib/thumb/v6-m/nofp\libm-fast-emfloat.a(__aeabi_ul2f.o)
                              c:/program files/microchip/xc32/v4.60/bin/bin/../../lib/gcc/pic32c/8.3.1/../../../../pic32c/lib/thumb/v6-m/nofp\libm-fast-emfloat.a(__aeabi_l2f.o) (__aeabi_ul2f)
c:/program files/microchip/xc32/v4.60/bin/bin/../../lib/gcc/pic32c/8.3.1/../../../../pic32c/lib/thumb/v6-m/nofp\libm-fast-emfloat.a(__aeabi_f2d.o)
                              build/SAMD21_IOT_WG_ICM42688/debug/_ext/596309756/kb_output.o (__aeabi_f2d)
c:/program files/microchip/xc32/v4.60/bin/bin/../../lib/gcc/pic32c/8.3.1/../../../../pic32c/lib/thumb/v6-m/nofp\libm-fast-emfloat.a(__aeabi_d2f.o)
                              build/SAMD21_IOT_WG_ICM42688/debug/_ext/596309756/ma_symmetric.o (__aeabi_d2f)
c:/program files/microchip/xc32/v4.60/bin/bin/../../lib/gcc/pic32c/8.3.1/../../../../pic32c/lib/thumb/v6-m/nofp\libm-fast-emfloat.a(__SEGGER_RTL_float64_PolyEvalP.o)
                              c:/program files/microchip/xc32/v4.60/bin/bin/../../lib/gcc/pic32c/8.3.1/../../../../pic32c/lib/thumb/v6-m/nofp\libm-fast-emfloat.a(cos.o) (__SEGGER_RTL_float64_PolyEvalP)
c:/program files/microchip/xc32/v4.60/bin/bin/../../lib/gcc/pic32c/8.3.1/../../../../pic32c/lib/thumb/v6-m/nofp\libm-fast-emfloat.a(ldexp.o)
                              c:/program files/microchip/xc32/v4.60/bin/bin/../../lib/gcc/pic32c/8.3.1/../../../../pic32c/lib/thumb/v6-m/nofp\libm-fast-emfloat.a(sqrt.o) (ldexp)
c:/program files/microchip/xc32/v4.60/bin/bin/../../lib/gcc/pic32c/8.3.1/../../../../pic32c/lib/thumb/v6-m/nofp\libm-fast-emfloat.a(log.o)
                              c:/program files/microchip/xc32/v4.60/bin/bin/../../lib/gcc/pic32c/8.3.1/../../../../pic32c/lib/thumb/v6-m/nofp\libm-fast-emfloat.a(pow.o) (log)
c:/program files/microchip/xc32/v4.60/bin/bin/../../lib/gcc/pic32c/8.3.1/../../../../pic32c/lib/thumb/v6-m/nofp\libm-fast-emfloat.a(exp.o)
                              c:/program files/microchip/xc32/v4.60/bin/bin/../../lib/gcc/pic32c/8.3.1/../../../../pic32c/lib/thumb/v6-m/nofp\libm-fast-emfloat.a(pow.o) (exp)
c:/program files/microchip/xc32/v4.60/bin/bin/../../lib/gcc/pic32c/8.3.1/../../../../pic32c/lib/thumb/v6-m/nofp\libm-fast-emfloat.a(__SEGGER_RTL_float64_Log.o)
                              c:/program files/microchip/xc32/v4.60/bin/bin/../../lib/gcc/pic32c/8.3.1/../../../../pic32c/lib/thumb/v6-m/nofp\libm-fast-emfloat.a(log.o) (__SEGGER_RTL_float64_Log)
c:/program files/microchip/xc32/v4.60/bin/bin/../../lib/gcc/pic32c/8.3.1/../../../../pic32c/lib/thumb/v6-m/nofp\libm-fast-emfloat.a(__SEGGER_RTL_float64_PolyEvalQ.o)
                              c:/program files/microchip/xc32/v4.60/bin/bin/../../lib/gcc/pic32c/8.3.1/../../../../pic32c/lib/thumb/v6-m/nofp\libm-fast-emfloat.a(log.o) (__SEGGER_RTL_float64_PolyEvalQ)
c:/program files/microchip/xc32/v4.60/bin/bin/../../lib/gcc/pic32c/8.3.1/../../../../pic32c/lib/thumb/v6-m/nofp\libm-fast-emfloat.a(frexp.o)
                              c:/program files/microchip/xc32/v4.60/bin/bin/../../lib/gcc/pic32c/8.3.1/../../../../pic32c/lib/thumb/v6-m/nofp\libm-fast-emfloat.a(log.o) (frexp)
c:/program files/microchip/xc32/v4.60/bin/bin/../../lib/gcc/pic32c/8.3.1/../../../../pic32c/lib/thumb/v6-m/nofp\libg-musl.a(__libc_start_main.o)
                              build/SAMD21_IOT_WG_ICM42688/debug/_ext/1832905403/startup_xc32.o (__libc_init_array)
c:/program files/microchip/xc32/v4.60/bin/bin/../../lib/gcc/pic32c/8.3.1/../../../../pic32c/lib/thumb/v6-m/nofp\libg-musl.a(__errno_location.o)
                              c:/program files/microchip/xc32/v4.60/bin/bin/../../lib/gcc/pic32c/8.3.1/../../../../pic32c/lib/thumb/v6-m/nofp\liblmalloc-musl.a(lite_malloc.o) (__errno_val)
c:/program files/microchip/xc32/v4.60/bin/bin/../../lib/gcc/pic32c/8.3.1/../../../../pic32c/lib/thumb/v6-m/nofp\libg-musl.a(libc.o)
                              c:/program files/microchip/xc32/v4.60/bin/bin/../../lib/gcc/pic32c/8.3.1/../../../../pic32c/lib/thumb/v6-m/nofp\libg-musl.a(__libc_start_main.o) (__progname_full)
c:/program files/microchip/xc32/v4.60/bin/bin/../../lib/gcc/pic32c/8.3.1/../../../../pic32c/lib/thumb/v6-m/nofp\libg-musl.a(expand_heap.o)
                              c:/program files/microchip/xc32/v4.60/bin/bin/../../lib/gcc/pic32c/8.3.1/../../../../pic32c/lib/thumb/v6-m/nofp\liblmalloc-musl.a(lite_malloc.o) (__expand_heap)
c:/program files/microchip/xc32/v4.60/bin/bin/../../lib/gcc/pic32c/8.3.1/../../../../pic32c/lib/thumb/v6-m/nofp\libg-musl.a(__sio_printf_cdeEfFgGnsu.o)
                              (_printf_cdeEfFgGnsu)
c:/program files/microchip/xc32/v4.60/bin/bin/../../lib/gcc/pic32c/8.3.1/../../../../pic32c/lib/thumb/v6-m/nofp\libg-musl.a(__sio_sprintf_cdeEfFgGnsu.o)
                              (_sprintf_cdeEfFgGnsu)
c:/program files/microchip/xc32/v4.60/bin/bin/../../lib/gcc/pic32c/8.3.1/../../../../pic32c/lib/thumb/v6-m/nofp\libg-musl.a(__fmt_d.o)
                              c:/program files/microchip/xc32/v4.60/bin/bin/../../lib/gcc/pic32c/8.3.1/../../../../pic32c/lib/thumb/v6-m/nofp\libg-musl.a(__sio_printf_cdeEfFgGnsu.o) (__fmt_d_needed)
c:/program files/microchip/xc32/v4.60/bin/bin/../../lib/gcc/pic32c/8.3.1/../../../../pic32c/lib/thumb/v6-m/nofp\libg-musl.a(__fmt_fp.o)
                              c:/program files/microchip/xc32/v4.60/bin/bin/../../lib/gcc/pic32c/8.3.1/../../../../pic32c/lib/thumb/v6-m/nofp\libg-musl.a(__sio_printf_cdeEfFgGnsu.o) (__fmt_f_needed)
c:/program files/microchip/xc32/v4.60/bin/bin/../../lib/gcc/pic32c/8.3.1/../../../../pic32c/lib/thumb/v6-m/nofp\libg-musl.a(__fmt_s.o)
                              c:/program files/microchip/xc32/v4.60/bin/bin/../../lib/gcc/pic32c/8.3.1/../../../../pic32c/lib/thumb/v6-m/nofp\libg-musl.a(__sio_printf_cdeEfFgGnsu.o) (__fmt_s_needed)
c:/program files/microchip/xc32/v4.60/bin/bin/../../lib/gcc/pic32c/8.3.1/../../../../pic32c/lib/thumb/v6-m/nofp\libg-musl.a(__fmt_u.o)
                              c:/program files/microchip/xc32/v4.60/bin/bin/../../lib/gcc/pic32c/8.3.1/../../../../pic32c/lib/thumb/v6-m/nofp\libg-musl.a(__sio_printf_cdeEfFgGnsu.o) (__fmt_u_needed)
c:/program files/microchip/xc32/v4.60/bin/bin/../../lib/gcc/pic32c/8.3.1/../../../../pic32c/lib/thumb/v6-m/nofp\libg-musl.a(__pop_float.o)
                              c:/program files/microchip/xc32/v4.60/bin/bin/../../lib/gcc/pic32c/8.3.1/../../../../pic32c/lib/thumb/v6-m/nofp\libg-musl.a(__sio_printf_cdeEfFgGnsu.o) (__pop_float_needed)
c:/program files/microchip/xc32/v4.60/bin/bin/../../lib/gcc/pic32c/8.3.1/../../../../pic32c/lib/thumb/v6-m/nofp\libg-musl.a(__pop_int.o)
                              c:/program files/microchip/xc32/v4.60/bin/bin/../../lib/gcc/pic32c/8.3.1/../../../../pic32c/lib/thumb/v6-m/nofp\libg-musl.a(__sio_printf_cdeEfFgGnsu.o) (__pop_int_needed)
c:/program files/microchip/xc32/v4.60/bin/bin/../../lib/gcc/pic32c/8.3.1/../../../../pic32c/lib/thumb/v6-m/nofp\libg-musl.a(__pop_ptr.o)
                              c:/program files/microchip/xc32/v4.60/bin/bin/../../lib/gcc/pic32c/8.3.1/../../../../pic32c/lib/thumb/v6-m/nofp\libg-musl.a(__sio_printf_cdeEfFgGnsu.o) (__pop_ptr_needed)
c:/program files/microchip/xc32/v4.60/bin/bin/../../lib/gcc/pic32c/8.3.1/../../../../pic32c/lib/thumb/v6-m/nofp\libg-musl.a(__printf_core.o)
                              c:/program files/microchip/xc32/v4.60/bin/bin/../../lib/gcc/pic32c/8.3.1/../../../../pic32c/lib/thumb/v6-m/nofp\libg-musl.a(__fmt_d.o) (__pad)
c:/program files/microchip/xc32/v4.60/bin/bin/../../lib/gcc/pic32c/8.3.1/../../../../pic32c/lib/thumb/v6-m/nofp\libg-musl.a(stdin.o)
                              build/SAMD21_IOT_WG_ICM42688/debug/_ext/1832905403/initialization.o (_stdin)
c:/program files/microchip/xc32/v4.60/bin/bin/../../lib/gcc/pic32c/8.3.1/../../../../pic32c/lib/thumb/v6-m/nofp\libg-musl.a(stdout.o)
                              build/SAMD21_IOT_WG_ICM42688/debug/_ext/1832905403/initialization.o (_stdout)
c:/program files/microchip/xc32/v4.60/bin/bin/../../lib/gcc/pic32c/8.3.1/../../../../pic32c/lib/thumb/v6-m/nofp\libg-musl.a(putchar.o)
                              build/SAMD21_IOT_WG_ICM42688/debug/_ext/596309756/kb_output.o (putchar)
c:/program files/microchip/xc32/v4.60/bin/bin/../../lib/gcc/pic32c/8.3.1/../../../../pic32c/lib/thumb/v6-m/nofp\libg-musl.a(puts.o)
                              build/SAMD21_IOT_WG_ICM42688/debug/_ext/171618134/sml_recognition_run.o (puts)
c:/program files/microchip/xc32/v4.60/bin/bin/../../lib/gcc/pic32c/8.3.1/../../../../pic32c/lib/thumb/v6-m/nofp\libg-musl.a(setbuf.o)
                              build/SAMD21_IOT_WG_ICM42688/debug/_ext/1832905403/initialization.o (setbuf)
c:/program files/microchip/xc32/v4.60/bin/bin/../../lib/gcc/pic32c/8.3.1/../../../../pic32c/lib/thumb/v6-m/nofp\libg-musl.a(atoi.o)
                              c:/program files/microchip/xc32/v4.60/bin/bin/../../lib/gcc/pic32c/8.3.1/../../../../pic32c/lib/thumb/v6-m/nofp\libg-musl.a(__printf_core.o) (atoi)
c:/program files/microchip/xc32/v4.60/bin/bin/../../lib/gcc/pic32c/8.3.1/../../../../pic32c/lib/thumb/v6-m/nofp\libg-musl.a(gmtime.o)
                              build/SAMD21_IOT_WG_ICM42688/debug/_ext/907429946/wdrv_winc_systime.o (gmtime)
c:/program files/microchip/xc32/v4.60/bin/bin/../../lib/gcc/pic32c/8.3.1/../../../../pic32c/lib/thumb/v6-m/nofp\libg-musl.a(gmtime_r.o)
                              c:/program files/microchip/xc32/v4.60/bin/bin/../../lib/gcc/pic32c/8.3.1/../../../../pic32c/lib/thumb/v6-m/nofp\libg-musl.a(gmtime.o) (__gmtime_r)
c:/program files/microchip/xc32/v4.60/bin/bin/../../lib/gcc/pic32c/8.3.1/../../../../pic32c/lib/thumb/v6-m/nofp\libg-musl.a(mktime.o)
                              build/SAMD21_IOT_WG_ICM42688/debug/_ext/907429946/wdrv_winc_systime.o (mktime)
c:/program files/microchip/xc32/v4.60/bin/bin/../../lib/gcc/pic32c/8.3.1/../../../../pic32c/lib/thumb/v6-m/nofp\libg-musl.a(tolower.o)
                              c:/program files/microchip/xc32/v4.60/bin/bin/../../lib/gcc/pic32c/8.3.1/../../../../pic32c/lib/thumb/v6-m/nofp\libg-musl.a(__fmt_fp.o) (tolower)
c:/program files/microchip/xc32/v4.60/bin/bin/../../lib/gcc/pic32c/8.3.1/../../../../pic32c/lib/thumb/v6-m/nofp\libg-musl.a(__environ.o)
                              c:/program files/microchip/xc32/v4.60/bin/bin/../../lib/gcc/pic32c/8.3.1/../../../../pic32c/lib/thumb/v6-m/nofp\libg-musl.a(__libc_start_main.o) (__environ)
c:/program files/microchip/xc32/v4.60/bin/bin/../../lib/gcc/pic32c/8.3.1/../../../../pic32c/lib/thumb/v6-m/nofp\libg-musl.a(__int_vfprintf.o)
                              c:/program files/microchip/xc32/v4.60/bin/bin/../../lib/gcc/pic32c/8.3.1/../../../../pic32c/lib/thumb/v6-m/nofp\libg-musl.a(__sio_printf_cdeEfFgGnsu.o) (__vfprintf)
c:/program files/microchip/xc32/v4.60/bin/bin/../../lib/gcc/pic32c/8.3.1/../../../../pic32c/lib/thumb/v6-m/nofp\libg-musl.a(__int_vsprintf.o)
                              c:/program files/microchip/xc32/v4.60/bin/bin/../../lib/gcc/pic32c/8.3.1/../../../../pic32c/lib/thumb/v6-m/nofp\libg-musl.a(__sio_sprintf_cdeEfFgGnsu.o) (__vsprintf)
c:/program files/microchip/xc32/v4.60/bin/bin/../../lib/gcc/pic32c/8.3.1/../../../../pic32c/lib/thumb/v6-m/nofp\libg-musl.a(fputs.o)
                              c:/program files/microchip/xc32/v4.60/bin/bin/../../lib/gcc/pic32c/8.3.1/../../../../pic32c/lib/thumb/v6-m/nofp\libg-musl.a(puts.o) (fputs)
c:/program files/microchip/xc32/v4.60/bin/bin/../../lib/gcc/pic32c/8.3.1/../../../../pic32c/lib/thumb/v6-m/nofp\libg-musl.a(__cvt_u.o)
                              c:/program files/microchip/xc32/v4.60/bin/bin/../../lib/gcc/pic32c/8.3.1/../../../../pic32c/lib/thumb/v6-m/nofp\libg-musl.a(__fmt_d.o) (__cvt_u)
c:/program files/microchip/xc32/v4.60/bin/bin/../../lib/gcc/pic32c/8.3.1/../../../../pic32c/lib/thumb/v6-m/nofp\libg-musl.a(__io_init_needed.o)
                              c:/program files/microchip/xc32/v4.60/bin/bin/../../lib/gcc/pic32c/8.3.1/../../../../pic32c/lib/thumb/v6-m/nofp\libg-musl.a(stdout.o) (__io_init_needed)
c:/program files/microchip/xc32/v4.60/bin/bin/../../lib/gcc/pic32c/8.3.1/../../../../pic32c/lib/thumb/v6-m/nofp\libg-musl.a(__io_rw_needed.o)
                              c:/program files/microchip/xc32/v4.60/bin/bin/../../lib/gcc/pic32c/8.3.1/../../../../pic32c/lib/thumb/v6-m/nofp\libg-musl.a(stdin.o) (__io_rw_needed)
c:/program files/microchip/xc32/v4.60/bin/bin/../../lib/gcc/pic32c/8.3.1/../../../../pic32c/lib/thumb/v6-m/nofp\libg-musl.a(__stdio_read.o)
                              c:/program files/microchip/xc32/v4.60/bin/bin/../../lib/gcc/pic32c/8.3.1/../../../../pic32c/lib/thumb/v6-m/nofp\libg-musl.a(stdin.o) (__stdio_read)
c:/program files/microchip/xc32/v4.60/bin/bin/../../lib/gcc/pic32c/8.3.1/../../../../pic32c/lib/thumb/v6-m/nofp\libg-musl.a(__towrite_rw.o)
                              c:/program files/microchip/xc32/v4.60/bin/bin/../../lib/gcc/pic32c/8.3.1/../../../../pic32c/lib/thumb/v6-m/nofp\libg-musl.a(__io_rw_needed.o) (__towrite_rw_needed)
c:/program files/microchip/xc32/v4.60/bin/bin/../../lib/gcc/pic32c/8.3.1/../../../../pic32c/lib/thumb/v6-m/nofp\libg-musl.a(fwrite.o)
                              c:/program files/microchip/xc32/v4.60/bin/bin/../../lib/gcc/pic32c/8.3.1/../../../../pic32c/lib/thumb/v6-m/nofp\libg-musl.a(fputs.o) (fwrite)
c:/program files/microchip/xc32/v4.60/bin/bin/../../lib/gcc/pic32c/8.3.1/../../../../pic32c/lib/thumb/v6-m/nofp\libg-musl.a(putc.o)
                              c:/program files/microchip/xc32/v4.60/bin/bin/../../lib/gcc/pic32c/8.3.1/../../../../pic32c/lib/thumb/v6-m/nofp\libg-musl.a(putchar.o) (fputc)
c:/program files/microchip/xc32/v4.60/bin/bin/../../lib/gcc/pic32c/8.3.1/../../../../pic32c/lib/thumb/v6-m/nofp\libg-musl.a(setvbuf.o)
                              c:/program files/microchip/xc32/v4.60/bin/bin/../../lib/gcc/pic32c/8.3.1/../../../../pic32c/lib/thumb/v6-m/nofp\libg-musl.a(setbuf.o) (setvbuf)
c:/program files/microchip/xc32/v4.60/bin/bin/../../lib/gcc/pic32c/8.3.1/../../../../pic32c/lib/thumb/v6-m/nofp\libg-musl.a(__tm_to_secs.o)
                              c:/program files/microchip/xc32/v4.60/bin/bin/../../lib/gcc/pic32c/8.3.1/../../../../pic32c/lib/thumb/v6-m/nofp\libg-musl.a(mktime.o) (__tm_to_secs)
c:/program files/microchip/xc32/v4.60/bin/bin/../../lib/gcc/pic32c/8.3.1/../../../../pic32c/lib/thumb/v6-m/nofp\libg-musl.a(__year_to_secs.o)
                              c:/program files/microchip/xc32/v4.60/bin/bin/../../lib/gcc/pic32c/8.3.1/../../../../pic32c/lib/thumb/v6-m/nofp\libg-musl.a(__tm_to_secs.o) (__year_to_secs)
c:/program files/microchip/xc32/v4.60/bin/bin/../../lib/gcc/pic32c/8.3.1/../../../../pic32c/lib/thumb/v6-m/nofp\libg-musl.a(__secs_to_tm.o)
                              c:/program files/microchip/xc32/v4.60/bin/bin/../../lib/gcc/pic32c/8.3.1/../../../../pic32c/lib/thumb/v6-m/nofp\libg-musl.a(gmtime_r.o) (__secs_to_tm)
c:/program files/microchip/xc32/v4.60/bin/bin/../../lib/gcc/pic32c/8.3.1/../../../../pic32c/lib/thumb/v6-m/nofp\libg-musl.a(readv.o)
                              c:/program files/microchip/xc32/v4.60/bin/bin/../../lib/gcc/pic32c/8.3.1/../../../../pic32c/lib/thumb/v6-m/nofp\libg-musl.a(__stdio_read.o) (readv)
c:/program files/microchip/xc32/v4.60/bin/bin/../../lib/gcc/pic32c/8.3.1/../../../../pic32c/lib/thumb/v6-m/nofp\libg-musl.a(__int_vsnprintf.o)
                              c:/program files/microchip/xc32/v4.60/bin/bin/../../lib/gcc/pic32c/8.3.1/../../../../pic32c/lib/thumb/v6-m/nofp\libg-musl.a(__int_vsprintf.o) (__vsnprintf)
c:/program files/microchip/xc32/v4.60/bin/bin/../../lib/gcc/pic32c/8.3.1/../../../../pic32c/lib/thumb/v6-m/nofp\libg-musl.a(__fopen_rw.o)
                              c:/program files/microchip/xc32/v4.60/bin/bin/../../lib/gcc/pic32c/8.3.1/../../../../pic32c/lib/thumb/v6-m/nofp\libg-musl.a(__io_rw_needed.o) (__fopen_rw_needed)
c:/program files/microchip/xc32/v4.60/bin/bin/../../lib/gcc/pic32c/8.3.1/../../../../pic32c/lib/thumb/v6-m/nofp\libg-musl.a(__ftello_rw.o)
                              c:/program files/microchip/xc32/v4.60/bin/bin/../../lib/gcc/pic32c/8.3.1/../../../../pic32c/lib/thumb/v6-m/nofp\libg-musl.a(__io_rw_needed.o) (__ftello_adj_rw_needed)
c:/program files/microchip/xc32/v4.60/bin/bin/../../lib/gcc/pic32c/8.3.1/../../../../pic32c/lib/thumb/v6-m/nofp\libg-musl.a(__init_stdio.o)
                              c:/program files/microchip/xc32/v4.60/bin/bin/../../lib/gcc/pic32c/8.3.1/../../../../pic32c/lib/thumb/v6-m/nofp\libg-musl.a(__io_init_needed.o) (__init_stdio_needed)
c:/program files/microchip/xc32/v4.60/bin/bin/../../lib/gcc/pic32c/8.3.1/../../../../pic32c/lib/thumb/v6-m/nofp\libg-musl.a(__io_buf_needed.o)
                              c:/program files/microchip/xc32/v4.60/bin/bin/../../lib/gcc/pic32c/8.3.1/../../../../pic32c/lib/thumb/v6-m/nofp\libg-musl.a(__io_rw_needed.o) (__io_buf_needed)
c:/program files/microchip/xc32/v4.60/bin/bin/../../lib/gcc/pic32c/8.3.1/../../../../pic32c/lib/thumb/v6-m/nofp\libg-musl.a(__io_file_needed.o)
                              c:/program files/microchip/xc32/v4.60/bin/bin/../../lib/gcc/pic32c/8.3.1/../../../../pic32c/lib/thumb/v6-m/nofp\libg-musl.a(__io_init_needed.o) (__io_file_needed)
c:/program files/microchip/xc32/v4.60/bin/bin/../../lib/gcc/pic32c/8.3.1/../../../../pic32c/lib/thumb/v6-m/nofp\libg-musl.a(__io_std_needed.o)
                              c:/program files/microchip/xc32/v4.60/bin/bin/../../lib/gcc/pic32c/8.3.1/../../../../pic32c/lib/thumb/v6-m/nofp\libg-musl.a(__io_buf_needed.o) (__io_std_needed)
c:/program files/microchip/xc32/v4.60/bin/bin/../../lib/gcc/pic32c/8.3.1/../../../../pic32c/lib/thumb/v6-m/nofp\libg-musl.a(__out.o)
                              c:/program files/microchip/xc32/v4.60/bin/bin/../../lib/gcc/pic32c/8.3.1/../../../../pic32c/lib/thumb/v6-m/nofp\libg-musl.a(__fopen_rw.o) (__stdio_write_unbuffered)
c:/program files/microchip/xc32/v4.60/bin/bin/../../lib/gcc/pic32c/8.3.1/../../../../pic32c/lib/thumb/v6-m/nofp\libg-musl.a(__putc.o)
                              c:/program files/microchip/xc32/v4.60/bin/bin/../../lib/gcc/pic32c/8.3.1/../../../../pic32c/lib/thumb/v6-m/nofp\libg-musl.a(__io_buf_needed.o) (__putc_needed)
c:/program files/microchip/xc32/v4.60/bin/bin/../../lib/gcc/pic32c/8.3.1/../../../../pic32c/lib/thumb/v6-m/nofp\libg-musl.a(__stderr.o)
                              c:/program files/microchip/xc32/v4.60/bin/bin/../../lib/gcc/pic32c/8.3.1/../../../../pic32c/lib/thumb/v6-m/nofp\libg-musl.a(__io_std_needed.o) (__init_stderr_needed)
c:/program files/microchip/xc32/v4.60/bin/bin/../../lib/gcc/pic32c/8.3.1/../../../../pic32c/lib/thumb/v6-m/nofp\libg-musl.a(__stdio_close.o)
                              c:/program files/microchip/xc32/v4.60/bin/bin/../../lib/gcc/pic32c/8.3.1/../../../../pic32c/lib/thumb/v6-m/nofp\libg-musl.a(__fopen_rw.o) (__stdio_close_rw)
c:/program files/microchip/xc32/v4.60/bin/bin/../../lib/gcc/pic32c/8.3.1/../../../../pic32c/lib/thumb/v6-m/nofp\libg-musl.a(__stdio_exit.o)
                              c:/program files/microchip/xc32/v4.60/bin/bin/../../lib/gcc/pic32c/8.3.1/../../../../pic32c/lib/thumb/v6-m/nofp\libg-musl.a(__io_buf_needed.o) (__stdio_exit_needed)
c:/program files/microchip/xc32/v4.60/bin/bin/../../lib/gcc/pic32c/8.3.1/../../../../pic32c/lib/thumb/v6-m/nofp\libg-musl.a(__stdio_write.o)
                              c:/program files/microchip/xc32/v4.60/bin/bin/../../lib/gcc/pic32c/8.3.1/../../../../pic32c/lib/thumb/v6-m/nofp\libg-musl.a(setvbuf.o) (__stdio_write_buffered)
c:/program files/microchip/xc32/v4.60/bin/bin/../../lib/gcc/pic32c/8.3.1/../../../../pic32c/lib/thumb/v6-m/nofp\libg-musl.a(__stdout.o)
                              c:/program files/microchip/xc32/v4.60/bin/bin/../../lib/gcc/pic32c/8.3.1/../../../../pic32c/lib/thumb/v6-m/nofp\libg-musl.a(__io_std_needed.o) (__init_stdout_needed)
c:/program files/microchip/xc32/v4.60/bin/bin/../../lib/gcc/pic32c/8.3.1/../../../../pic32c/lib/thumb/v6-m/nofp\libg-musl.a(__towrite.o)
                              c:/program files/microchip/xc32/v4.60/bin/bin/../../lib/gcc/pic32c/8.3.1/../../../../pic32c/lib/thumb/v6-m/nofp\libg-musl.a(__stdio_write.o) (__towrite)
c:/program files/microchip/xc32/v4.60/bin/bin/../../lib/gcc/pic32c/8.3.1/../../../../pic32c/lib/thumb/v6-m/nofp\libg-musl.a(__month_to_secs.o)
                              c:/program files/microchip/xc32/v4.60/bin/bin/../../lib/gcc/pic32c/8.3.1/../../../../pic32c/lib/thumb/v6-m/nofp\libg-musl.a(__tm_to_secs.o) (__month_to_secs)
c:/program files/microchip/xc32/v4.60/bin/bin/../../lib/gcc/pic32c/8.3.1/../../../../pic32c/lib/thumb/v6-m/nofp\libg-musl.a(writev.o)
                              c:/program files/microchip/xc32/v4.60/bin/bin/../../lib/gcc/pic32c/8.3.1/../../../../pic32c/lib/thumb/v6-m/nofp\libg-musl.a(__stdio_write.o) (writev)
c:/program files/microchip/xc32/v4.60/bin/bin/../../lib/gcc/pic32c/8.3.1/../../../../pic32c/lib/thumb/v6-m/nofp\libg-musl.a(__overflow.o)
                              c:/program files/microchip/xc32/v4.60/bin/bin/../../lib/gcc/pic32c/8.3.1/../../../../pic32c/lib/thumb/v6-m/nofp\libg-musl.a(__putc.o) (__overflow)
c:/program files/microchip/xc32/v4.60/bin/bin/../../lib/gcc/pic32c/8.3.1/../../../../pic32c/lib/thumb/v6-m/nofp\libg-musl.a(__fclose.o)
                              c:/program files/microchip/xc32/v4.60/bin/bin/../../lib/gcc/pic32c/8.3.1/../../../../pic32c/lib/thumb/v6-m/nofp\libg-musl.a(__io_buf_needed.o) (__fclose_needed)
c:/program files/microchip/xc32/v4.60/bin/bin/../../lib/gcc/pic32c/8.3.1/../../../../pic32c/lib/thumb/v6-m/nofp\libg-musl.a(__fopen.o)
                              c:/program files/microchip/xc32/v4.60/bin/bin/../../lib/gcc/pic32c/8.3.1/../../../../pic32c/lib/thumb/v6-m/nofp\libg-musl.a(__io_std_needed.o) (__fopen_needed)
c:/program files/microchip/xc32/v4.60/bin/bin/../../lib/gcc/pic32c/8.3.1/../../../../pic32c/lib/thumb/v6-m/nofp\libg-musl.a(__fseeko.o)
                              c:/program files/microchip/xc32/v4.60/bin/bin/../../lib/gcc/pic32c/8.3.1/../../../../pic32c/lib/thumb/v6-m/nofp\libg-musl.a(__io_buf_needed.o) (__fseeko_needed)
c:/program files/microchip/xc32/v4.60/bin/bin/../../lib/gcc/pic32c/8.3.1/../../../../pic32c/lib/thumb/v6-m/nofp\libg-musl.a(__ftello.o)
                              c:/program files/microchip/xc32/v4.60/bin/bin/../../lib/gcc/pic32c/8.3.1/../../../../pic32c/lib/thumb/v6-m/nofp\libg-musl.a(__io_buf_needed.o) (__ftello_adj_needed)
c:/program files/microchip/xc32/v4.60/bin/bin/../../lib/gcc/pic32c/8.3.1/../../../../pic32c/lib/thumb/v6-m/nofp\libg-musl.a(__fwrite.o)
                              c:/program files/microchip/xc32/v4.60/bin/bin/../../lib/gcc/pic32c/8.3.1/../../../../pic32c/lib/thumb/v6-m/nofp\libg-musl.a(__io_std_needed.o) (__fwrite_needed)
c:/program files/microchip/xc32/v4.60/bin/bin/../../lib/gcc/pic32c/8.3.1/../../../../pic32c/lib/thumb/v6-m/nofp\libm-fast-emfloat.a(fma.o)
                              c:/program files/microchip/xc32/v4.60/bin/bin/../../lib/gcc/pic32c/8.3.1/../../../../pic32c/lib/thumb/v6-m/nofp\libg-musl.a(__fmt_fp.o) (fma)
c:/program files/microchip/xc32/v4.60/bin/bin/../../lib/gcc/pic32c/8.3.1/../../../../pic32c/lib/thumb/v6-m/nofp\libm-fast-emfloat.a(floor.o)
                              c:/program files/microchip/xc32/v4.60/bin/bin/../../lib/gcc/pic32c/8.3.1/../../../../pic32c/lib/thumb/v6-m/nofp\libg-musl.a(__fmt_fp.o) (floor)
c:/program files/microchip/xc32/v4.60/bin/bin/../../lib/gcc/pic32c/8.3.1/../../../../pic32c/lib/thumb/v6-m/nofp\libm-fast-emfloat.a(__aeabi_dcmple.o)
                              c:/program files/microchip/xc32/v4.60/bin/bin/../../lib/gcc/pic32c/8.3.1/../../../../pic32c/lib/thumb/v6-m/nofp\libg-musl.a(__fmt_fp.o) (__aeabi_dcmple)
c:/program files/microchip/xc32/v4.60/bin/bin/../../lib/gcc/pic32c/8.3.1/thumb/v6-m/nofp\libgcc.a(_udivsi3.o)
                              build/SAMD21_IOT_WG_ICM42688/debug/_ext/548032175/inet_ntop.o (__aeabi_uidiv)
c:/program files/microchip/xc32/v4.60/bin/bin/../../lib/gcc/pic32c/8.3.1/thumb/v6-m/nofp\libgcc.a(_divsi3.o)
                              build/SAMD21_IOT_WG_ICM42688/debug/_ext/548032175/inet_ntop.o (__aeabi_idiv)
c:/program files/microchip/xc32/v4.60/bin/bin/../../lib/gcc/pic32c/8.3.1/thumb/v6-m/nofp\libgcc.a(_dvmd_tls.o)
                              c:/program files/microchip/xc32/v4.60/bin/bin/../../lib/gcc/pic32c/8.3.1/thumb/v6-m/nofp\libgcc.a(_udivsi3.o) (__aeabi_idiv0)
c:/program files/microchip/xc32/v4.60/bin/bin/../../lib/gcc/pic32c/8.3.1/thumb/v6-m/nofp\libgcc.a(_aeabi_ldivmod.o)
                              build/SAMD21_IOT_WG_ICM42688/debug/_ext/177673482/plib_sercom5_usart.o (__aeabi_ldivmod)
c:/program files/microchip/xc32/v4.60/bin/bin/../../lib/gcc/pic32c/8.3.1/thumb/v6-m/nofp\libgcc.a(_aeabi_uldivmod.o)
                              build/SAMD21_IOT_WG_ICM42688/debug/_ext/177673482/plib_sercom5_usart.o (__aeabi_uldivmod)
c:/program files/microchip/xc32/v4.60/bin/bin/../../lib/gcc/pic32c/8.3.1/thumb/v6-m/nofp\libgcc.a(_muldi3.o)
                              build/SAMD21_IOT_WG_ICM42688/debug/_ext/386530258/sys_time.o (__aeabi_lmul)
c:/program files/microchip/xc32/v4.60/bin/bin/../../lib/gcc/pic32c/8.3.1/thumb/v6-m/nofp\libgcc.a(_udivmoddi4.o)
                              c:/program files/microchip/xc32/v4.60/bin/bin/../../lib/gcc/pic32c/8.3.1/thumb/v6-m/nofp\libgcc.a(_aeabi_uldivmod.o) (__udivmoddi4)
c:/program files/microchip/xc32/v4.60/bin/bin/../../lib/gcc/pic32c/8.3.1/thumb/v6-m/nofp\libgcc.a(bpabi.o)
                              c:/program files/microchip/xc32/v4.60/bin/bin/../../lib/gcc/pic32c/8.3.1/thumb/v6-m/nofp\libgcc.a(_aeabi_ldivmod.o) (__gnu_ldivmod_helper)
c:/program files/microchip/xc32/v4.60/bin/bin/../../lib/gcc/pic32c/8.3.1/thumb/v6-m/nofp\libgcc.a(_lshrdi3.o)
                              c:/program files/microchip/xc32/v4.60/bin/bin/../../lib/gcc/pic32c/8.3.1/thumb/v6-m/nofp\libgcc.a(_udivmoddi4.o) (__aeabi_llsr)
c:/program files/microchip/xc32/v4.60/bin/bin/../../lib/gcc/pic32c/8.3.1/thumb/v6-m/nofp\libgcc.a(_ashldi3.o)
                              c:/program files/microchip/xc32/v4.60/bin/bin/../../lib/gcc/pic32c/8.3.1/thumb/v6-m/nofp\libgcc.a(_udivmoddi4.o) (__aeabi_llsl)
c:/program files/microchip/xc32/v4.60/bin/bin/../../lib/gcc/pic32c/8.3.1/thumb/v6-m/nofp\libgcc.a(_clzdi2.o)
                              c:/program files/microchip/xc32/v4.60/bin/bin/../../lib/gcc/pic32c/8.3.1/thumb/v6-m/nofp\libgcc.a(_udivmoddi4.o) (__clzdi2)
c:/program files/microchip/xc32/v4.60/bin/bin/../../lib/gcc/pic32c/8.3.1/thumb/v6-m/nofp\libgcc.a(_divdi3.o)
                              c:/program files/microchip/xc32/v4.60/bin/bin/../../lib/gcc/pic32c/8.3.1/thumb/v6-m/nofp\libgcc.a(bpabi.o) (__divdi3)
c:/program files/microchip/xc32/v4.60/bin/bin/../../lib/gcc/pic32c/8.3.1/thumb/v6-m/nofp\libgcc.a(_clzsi2.o)
                              c:/program files/microchip/xc32/v4.60/bin/bin/../../lib/gcc/pic32c/8.3.1/thumb/v6-m/nofp\libgcc.a(_clzdi2.o) (__clzsi2)
c:/program files/microchip/xc32/v4.60/bin/bin/../../lib/gcc/pic32c/8.3.1/../../../../pic32c/lib/thumb/v6-m/nofp\libpic32c.a(close.o)
                              c:/program files/microchip/xc32/v4.60/bin/bin/../../lib/gcc/pic32c/8.3.1/../../../../pic32c/lib/thumb/v6-m/nofp\libg-musl.a(__stdio_close.o) (close)
c:/program files/microchip/xc32/v4.60/bin/bin/../../lib/gcc/pic32c/8.3.1/../../../../pic32c/lib/thumb/v6-m/nofp\libpic32c.a(lseek.o)
                              c:/program files/microchip/xc32/v4.60/bin/bin/../../lib/gcc/pic32c/8.3.1/../../../../pic32c/lib/thumb/v6-m/nofp\libg-musl.a(__stdio_close.o) (lseek)
c:/program files/microchip/xc32/v4.60/bin/bin/../../lib/gcc/pic32c/8.3.1/../../../../pic32c/lib/thumb/v6-m/nofp\libpic32c.a(sbrk.o)
                              c:/program files/microchip/xc32/v4.60/bin/bin/../../lib/gcc/pic32c/8.3.1/../../../../pic32c/lib/thumb/v6-m/nofp\liblmalloc-musl.a(lite_malloc.o) (_get_heap_left_space)
c:/program files/microchip/xc32/v4.60/bin/bin/../../lib/gcc/pic32c/8.3.1/../../../../pic32c/lib/thumb/v6-m/nofp\libc-size-musl.a(strcpy.o)
                              c:/program files/microchip/xc32/v4.60/bin/bin/../../lib/gcc/pic32c/8.3.1/../../../../pic32c/lib/thumb/v6-m/nofp\libg-musl.a(__fmt_fp.o) (strcpy)
c:/program files/microchip/xc32/v4.60/bin/bin/../../lib/gcc/pic32c/8.3.1/../../../../pic32c/lib/thumb/v6-m/nofp\libc-size-musl.a(stpcpy.o)
                              c:/program files/microchip/xc32/v4.60/bin/bin/../../lib/gcc/pic32c/8.3.1/../../../../pic32c/lib/thumb/v6-m/nofp\libc-size-musl.a(strcpy.o) (__stpcpy)
c:/program files/microchip/xc32/v4.60/bin/bin/../../lib/gcc/pic32c/8.3.1/../../../../pic32c/lib/thumb/v6-m/nofp\libpic32c.a(pic32_data_init_clear.o)
                              (__dinit_clear_needed)
c:/program files/microchip/xc32/v4.60/bin/bin/../../lib/gcc/pic32c/8.3.1/../../../../pic32c/lib/thumb/v6-m/nofp\libpic32c.a(pic32_data_init_copy.o)
                              (__dinit_copy_needed)

Microchip PIC32 Memory-Usage Report

ROM Program-Memory Usage
section                    address  length [bytes]      (dec)  Description
-------                 ----------  -------------------------  -----------
.vectors                         0           0xb0         176   
.text                         0xb0           0x20          32  App's exec code 
.ARM.exidx                    0xd0           0x10          16   
.text                         0xe0         0x2250        8784  App's exec code 
.text                       0x2330         0x14a8        5288  App's exec code 
.text                       0x37d8          0xd84        3460  App's exec code 
.text                       0x455c          0xca0        3232  App's exec code 
.text                       0x51fc          0xbe8        3048  App's exec code 
.text                       0x5de4          0xb50        2896  App's exec code 
.text                       0x6934          0x704        1796  App's exec code 
.text                       0x7038          0x680        1664  App's exec code 
.text                       0x76b8          0x67c        1660  App's exec code 
.text                       0x7d34          0x530        1328  App's exec code 
.text                       0x8264          0x500        1280  App's exec code 
.text.__fmt_fp              0x8764          0x4c0        1216   
.text                       0x8c24          0x48c        1164  App's exec code 
.text                       0x90b0          0x414        1044  App's exec code 
.text                       0x94c4          0x400        1024  App's exec code 
.text                       0x98c4          0x3f4        1012  App's exec code 
.text                       0x9cb8          0x3d8         984  App's exec code 
.text                       0xa090          0x3d4         980  App's exec code 
.text                       0xa464          0x384         900  App's exec code 
.text.__printf_core         0xa7e8          0x33c         828   
.text                       0xab24          0x310         784  App's exec code 
.text                       0xae34          0x2f8         760  App's exec code 
.dinit                      0xb12c          0x2f0         752   
.text                       0xb41c          0x2ac         684  App's exec code 
.text                       0xb6c8          0x280         640  App's exec code 
.text                       0xb948          0x228         552  App's exec code 
.text                       0xbb70          0x1fc         508  App's exec code 
.text.__secs_to_tm          0xbd6c          0x1dc         476   
.text.__aeabi_dadd          0xbf48          0x1c8         456   
.text                       0xc110          0x1bc         444  App's exec code 
.text                       0xc2cc          0x1b4         436  App's exec code 
.text                       0xc480          0x190         400  App's exec code 
.text.__aeabi_dmul_aux      0xc610          0x18a         394   
.text                       0xc79a            0x2           2  App's exec code 
.text                       0xc79c          0x188         392  App's exec code 
.text                       0xc924          0x184         388  App's exec code 
.text                       0xcaa8          0x17c         380  App's exec code 
.text                       0xcc24          0x160         352  App's exec code 
.text                       0xcd84          0x15c         348  App's exec code 
.rodata.str1.4              0xcee0          0x138         312   
.rodata                     0xd018          0x134         308  Read-only const 
.text                       0xd14c          0x130         304  App's exec code 
.text                       0xd27c          0x130         304  App's exec code 
.text                       0xd3ac          0x128         296  App's exec code 
.text                       0xd4d4          0x120         288  App's exec code 
.text                       0xd5f4          0x11c         284  App's exec code 
.text                       0xd710          0x114         276  App's exec code 
.text.__year_to_secs        0xd824          0x100         256   
.rodata                     0xd924           0xf0         240  Read-only const 
.text                       0xda14           0xe8         232  App's exec code 
.text                       0xdafc           0xe2         226  App's exec code 
.text                       0xdbde            0x2           2  App's exec code 
.text                       0xdbe0           0xcc         204  App's exec code 
.rodata                     0xdcac           0xcc         204  Read-only const 
.text.__aeabi_ddiv          0xdd78           0xc4         196   
.text                       0xde3c           0xc0         192  App's exec code 
.text.__pop_int             0xdefc           0xbe         190   
.text.__dummy_init_tls      0xdfba            0x2           2   
.text.floor                 0xdfbc           0xb4         180   
.text.__fmt_d               0xe070           0xb2         178   
.text.__dummy               0xe122            0x2           2   
.text                       0xe124           0xa8         168  App's exec code 
.rodata.str1.4              0xe1cc           0xa0         160   
.text.__tm_to_secs          0xe26c           0xa0         160   
.text                       0xe30c           0x94         148  App's exec code 
.text                       0xe3a0           0x94         148  App's exec code 
.text                       0xe434           0x90         144  App's exec code 
.text                       0xe4c4           0x8c         140  App's exec code 
.text.__write_buffered      0xe550           0x82         130   
.text.__dummy               0xe5d2            0x2           2   
.text.__simple_search_f     0xe5d4           0x80         128   
.text.__stdio_write_buf     0xe654           0x7c         124   
.text.__pad                 0xe6d0           0x7a         122   
.text.__cvt_u               0xe74a           0x76         118   
.text                       0xe7c0           0x74         116  App's exec code 
.text                       0xe834           0x6c         108  App's exec code 
.text.__pop_ptr             0xe8a0           0x68         104   
.text.__simple_malloc       0xe908           0x64         100   
.text.__stdio_read          0xe96c           0x64         100   
.text.__strchrnul           0xe9d0           0x60          96   
.text.__libc_start_init     0xea30           0x5c          92   
.text.__stdio_close_rw      0xea8c           0x5c          92   
.text.__fmt_u               0xeae8           0x56          86   
.text.__dummy               0xeb3e            0x2           2   
.text.__fmt_s               0xeb40           0x50          80   
.text.setvbuf               0xeb90           0x50          80   
.text._sbrk                 0xebe0           0x50          80   
.text.__overflow            0xec30           0x4e          78   
.rodata                     0xec80           0x4c          76  Read-only const 
.text                       0xeccc           0x48          72  App's exec code 
.text                       0xed14           0x48          72  App's exec code 
.text.Reset_Handler         0xed5c           0x48          72   
.text.mktime                0xeda4           0x48          72   
.text                       0xedec           0x48          72  App's exec code 
.text                       0xee34           0x44          68  App's exec code 
.text.__aeabi_dcmple        0xee78           0x44          68   
.text                       0xeebc           0x44          68  App's exec code 
.text                       0xef00           0x40          64  App's exec code 
.rodata                     0xef40           0x40          64  Read-only const 
.text.__simple_free         0xef80           0x40          64   
.text.atoi                  0xefc0           0x40          64   
.text                       0xf000           0x40          64  App's exec code 
.text.__aeabi_dcmpgt        0xf040           0x3e          62   
.text.__aeabi_dcmplt        0xf07e           0x3e          62   
.text.__out                 0xf0bc           0x3c          60   
.text.__putc                0xf0f8           0x3c          60   
.text                       0xf134           0x3c          60  App's exec code 
.text.__pic32c_data_ini     0xf170           0x38          56   
.text.__putc_unbuffered     0xf1a8           0x36          54   
.text.__aeabi_d2iz          0xf1de           0x34          52   
.text.__fmt_state           0xf214           0x34          52   
.text.__gmtime_r            0xf248           0x34          52   
.text                       0xf27c           0x34          52  App's exec code 
.text._sbrk_init            0xf2b0           0x34          52   
.text                       0xf2e4           0x30          48  App's exec code 
.rodata                     0xf314           0x30          48  Read-only const 
.text.__aeabi_dcmpeq        0xf344           0x2e          46   
.text.__aeabi_d2uiz         0xf372           0x2e          46   
.text.fwrite                0xf3a0           0x2e          46   
.text.__pop_float           0xf3ce           0x2a          42   
.text.__towrite_rw          0xf3f8           0x2a          42   
.text                       0xf424           0x28          40  App's exec code 
.rodata                     0xf44c           0x28          40  Read-only const 
.text.puts                  0xf474           0x28          40   
.text.__readv               0xf49c           0x28          40   
.text.__writev              0xf4c4           0x28          40   
.text                       0xf4ec           0x24          36  App's exec code 
.text.fputs                 0xf510           0x22          34   
.rodata                     0xf534           0x20          32  Read-only const 
.text.memchr                0xf554           0x20          32   
.text.__wrap_printf         0xf574           0x20          32   
.text.__month_to_secs       0xf594           0x20          32   
.text._get_heap_left_sp     0xf5b4           0x20          32   
.text.__dinit_copy          0xf5d4           0x1e          30   
.text.__simple_calloc       0xf5f2           0x1c          28   
.text.__init_search_fl      0xf610           0x1c          28   
.text.__towrite             0xf62c           0x1a          26   
.text.strlen                0xf648           0x18          24   
.text.strnlen               0xf660           0x18          24   
.text.__vfprintf            0xf678           0x18          24   
.text                       0xf690           0x18          24  App's exec code 
.text                       0xf6a8           0x18          24  App's exec code 
.text                       0xf6c0           0x18          24  App's exec code 
.text.__expand_heap         0xf6d8           0x16          22   
.rodata                     0xf6ee           0x16          22  Read-only const 
.rodata                     0xf704           0x14          20  Read-only const 
.text.memcpy                0xf718           0x14          20   
.text.memset                0xf72c           0x14          20   
.text.strchr                0xf740           0x14          20   
.text.__init_stdout         0xf754           0x14          20   
.text.__fwrite              0xf768           0x14          20   
.text.stpcpy                0xf77c           0x14          20   
.text.setbuf                0xf790           0x12          18   
.text.__dinit_clear         0xf7a2           0x12          18   
.rodata.str1.1              0xf7b4           0x10          16   
.text.gmtime                0xf7c4           0x10          16   
.text.__init_stdio          0xf7d4           0x10          16   
.text.fma                   0xf7e4           0x10          16   
.text.tolower               0xf7f4            0xe          14   
.rodata                     0xf802            0xc          12  Read-only const 
.text.strcpy                0xf80e            0xc          12   
.text.__fwrite_min          0xf81a            0xa          10   
.text                       0xf824            0x8           8  App's exec code 
.text                       0xf82c            0x8           8  App's exec code 
.rodata.str1.4              0xf834            0x8           8   
.rodata.str1.1              0xf83c            0x8           8   
.text.putc                  0xf844            0x8           8   
.text.__get_stdout          0xf84c            0x8           8   
.rodata.str1.1              0xf854            0x7           7   
.rodata                     0xf85b            0x1           1  Read-only const 
.text.close                 0xf85c            0x6           6   
.text.__dummy_decompres     0xf862            0x4           4   
.text.__dummy_fmt3          0xf866            0x4           4   
.text.__dummy_fmt4          0xf86a            0x4           4   
.text.__dummy               0xf86e            0x4           4   
.rodata.str1.1              0xf872            0x4           4   
.rodata.str1.1              0xf876            0x4           4   
.text                       0xf87c            0x4           4  App's exec code 
.text.lseek                 0xf880            0x4           4   
      Total ROM used  :      0xf876       63606  24.3% of 0x40000
        --------------------------------------------------------------------------
         Total Program Memory used  :      0xf876       63606  24.3% of 0x40000
        --------------------------------------------------------------------------


RAM Data-Memory Usage
section                    address  length [bytes]      (dec)  Description
-------                 ----------  -------------------------  -----------
.bss                    0x20000000          0xf60        3936  Uninitialized data 
.bss                    0x20000f60          0x408        1032  Uninitialized data 
.bss                    0x20001368          0x114         276  Uninitialized data 
.bss                    0x2000147c            0x4           4  Uninitialized data 
.bss                    0x20001480           0xe0         224  Uninitialized data 
.bss                    0x20001560           0xcd         205  Uninitialized data 
.bss                    0x2000162d            0x2           2  Uninitialized data 
.data                   0x2000162f            0x1           1  Initialized data 
.bss                    0x20001630           0xc4         196  Uninitialized data 
.bss                    0x200016f4           0xc0         192  Uninitialized data 
.bss                    0x200017b4           0x78         120  Uninitialized data 
.bss                    0x2000182c           0x68         104  Uninitialized data 
.bss                    0x20001894            0x4           4  Uninitialized data 
.bss                    0x20001898           0x60          96  Uninitialized data 
.bss                    0x200018f8           0x50          80  Uninitialized data 
.bss                    0x20001948           0x2d          45  Uninitialized data 
.data                   0x20001976            0x2           2  Initialized data 
.bss                    0x20001978           0x2c          44  Uninitialized data 
.bss                    0x200019a4           0x29          41  Uninitialized data 
.bss                    0x200019d0           0x28          40  Uninitialized data 
.bss                    0x200019f8           0x1d          29  Uninitialized data 
.bss                    0x20001a18           0x1c          28  Uninitialized data 
.bss                    0x20001a34           0x13          19  Uninitialized data 
.data                   0x20001a47            0x1           1  Initialized data 
.bss                    0x20001a48            0xc          12  Uninitialized data 
.bss                    0x20001a54            0x8           8  Uninitialized data 
.bss                    0x20001a5c            0x8           8  Uninitialized data 
.bss                    0x20001a64            0x8           8  Uninitialized data 
.bss                    0x20001a6c            0x8           8  Uninitialized data 
.bss                    0x20001a74            0x8           8  Uninitialized data 
.bss                    0x20001a7c            0x7           7  Uninitialized data 
.data                   0x20001a83            0x1           1  Initialized data 
.bss                    0x20001a84            0x4           4  Uninitialized data 
.bss                    0x20001a88            0x4           4  Uninitialized data 
.bss                    0x20001a8c            0x4           4  Uninitialized data 
.bss                    0x20001a90            0x4           4  Uninitialized data 
.bss                    0x20001a94            0x4           4  Uninitialized data 
.data                   0x20001a98           0x6c         108  Initialized data 
.data                   0x20001b04           0x60          96  Initialized data 
.data                   0x20001b64           0x20          32  Initialized data 
.data                   0x20001b84            0x4           4  Initialized data 
.data                   0x20001b88            0x4           4  Initialized data 
.data                   0x20001b8c            0x2           2  Initialized data 
         Total RAM used  :      0x1b87        7047  21.5% of 0x8000
        --------------------------------------------------------------------------
            Total Data Memory used  :      0x1b87        7047  21.5% of 0x8000
        --------------------------------------------------------------------------


Dynamic Data-Memory Reservation
section                    address  length [bytes]      (dec)  Description
-------                 ----------  -------------------------  -----------
heap                    0x20001b90          0x200         512  Reserved for heap 
stack                   0x20001da8         0x6248       25160  Reserved for stack 

        --------------------------------------------------------------------------

Microchip PIC32 Memory-Usage Report By Module

        text        data         bss         dec         hex    basename                                   filename
--------------------------------------------------------------------------------
        8868           0           0        8868        22a4    Icm426xxDriver_HL.o                    build/SAMD21_IOT_WG_ICM42688/debug/_ext/1341251756/Icm426xxDriver_HL.o
        5288           4          40        5332        14d4    m2m_wifi.o                             build/SAMD21_IOT_WG_ICM42688/debug/_ext/121554788/m2m_wifi.o
        1324           1        3936        5261        148d    main.o                                 build/SAMD21_IOT_WG_ICM42688/debug/_ext/1360937237/main.o
        3700           0         276        3976         f88    wdrv_winc.o                            build/SAMD21_IOT_WG_ICM42688/debug/_ext/907429946/wdrv_winc.o
        3232           0         120        3352         d18    drv_spi.o                              build/SAMD21_IOT_WG_ICM42688/debug/_ext/1660664302/drv_spi.o
        3048           0         205        3253         cb5    socket.o                               build/SAMD21_IOT_WG_ICM42688/debug/_ext/548032175/socket.o
        2896           2         224        3122         c32    sys_time.o                             build/SAMD21_IOT_WG_ICM42688/debug/_ext/386530258/sys_time.o
        1972           0           2        1974         7b6    nmspi.o                                build/SAMD21_IOT_WG_ICM42688/debug/_ext/121554788/nmspi.o
        1796           0           4        1800         708    nmasic.o                               build/SAMD21_IOT_WG_ICM42688/debug/_ext/121554788/nmasic.o
        1660           0           4        1664         680    spi_flash.o                            build/SAMD21_IOT_WG_ICM42688/debug/_ext/609036575/spi_flash.o
        1360           0          41        1401         579    m2m_hif.o                              build/SAMD21_IOT_WG_ICM42688/debug/_ext/121554788/m2m_hif.o
        1280           1         104        1385         569    m2m_ota.o                              build/SAMD21_IOT_WG_ICM42688/debug/_ext/121554788/m2m_ota.o
        1232           0           0        1232         4d0    __fmt_fp.o                             libg-musl.a
        1164           1           8        1173         495    m2m_ssl.o                              build/SAMD21_IOT_WG_ICM42688/debug/_ext/121554788/m2m_ssl.o
           4         108        1032        1144         478    stdin.o                                libg-musl.a
        1024           0          96        1120         460    plib_dmac.o                            build/SAMD21_IOT_WG_ICM42688/debug/_ext/1580516298/plib_dmac.o
        1045           0           0        1045         415    wdrv_winc_socket.o                     build/SAMD21_IOT_WG_ICM42688/debug/_ext/907429946/wdrv_winc_socket.o
        1040           0           0        1040         410    __printf_core.o                        libg-musl.a
         984           0          45        1029         405    plib_sercom2_spi_master.o              build/SAMD21_IOT_WG_ICM42688/debug/_ext/1014017276/plib_sercom2_spi_master.o
         980           0           0         980         3d4    wdrv_winc_host_file.o                  build/SAMD21_IOT_WG_ICM42688/debug/_ext/907429946/wdrv_winc_host_file.o
         900           0           0         900         384    wdrv_winc_sta.o                        build/SAMD21_IOT_WG_ICM42688/debug/_ext/907429946/wdrv_winc_sta.o
         784           0           0         784         310    plib_sercom5_usart.o                   build/SAMD21_IOT_WG_ICM42688/debug/_ext/177673482/plib_sercom5_usart.o
         760           0           0         760         2f8    nmdrv.o                                build/SAMD21_IOT_WG_ICM42688/debug/_ext/121554788/nmdrv.o
         752           0           0         752         2f0    data_init                              data_init
         724           0           0         724         2d4    wdrv_winc_authctx.o                    build/SAMD21_IOT_WG_ICM42688/debug/_ext/907429946/wdrv_winc_authctx.o
         640           0           0         640         280    plib_sercom0_spi_master.o              build/SAMD21_IOT_WG_ICM42688/debug/_ext/1014017276/plib_sercom0_spi_master.o
         596           0          19         615         267    winc1500_udp_client.o                  build/SAMD21_IOT_WG_ICM42688/debug/_ext/1360937237/winc1500_udp_client.o
         552           0           4         556         22c    icm42688_sensor.o                      build/SAMD21_IOT_WG_ICM42688/debug/_ext/2048461350/icm42688_sensor.o
         356           0         196         552         228    initialization.o                       build/SAMD21_IOT_WG_ICM42688/debug/_ext/1832905403/initialization.o
         508           0           0         508         1fc    ringbuffer.o                           build/SAMD21_IOT_WG_ICM42688/debug/_ext/1360937237/ringbuffer.o
         508           0           0         508         1fc    Icm426xxTransport.o                    build/SAMD21_IOT_WG_ICM42688/debug/_ext/1341251756/Icm426xxTransport.o
         488           0           0         488         1e8    __secs_to_tm.o                         libg-musl.a
         276           0         192         468         1d4    plib_eic.o                             build/SAMD21_IOT_WG_ICM42688/debug/_ext/503204096/plib_eic.o
         456           0           0         456         1c8    __aeabi_dadd.o                         libm-fast-emfloat.a
         392           0          29         421         1a5    wdrv_winc_spi.o                        build/SAMD21_IOT_WG_ICM42688/debug/_ext/101005277/wdrv_winc_spi.o
         400           0           0         400         190    wdrv_winc_bssctx.o                     build/SAMD21_IOT_WG_ICM42688/debug/_ext/907429946/wdrv_winc_bssctx.o
         394           0           0         394         18a    __aeabi_dmul_aux.o                     libm-fast-emfloat.a
         388           0           0         388         184    plib_port.o                            build/SAMD21_IOT_WG_ICM42688/debug/_ext/1580876256/plib_port.o
         380           0           0         380         17c    wdrv_winc_systime.o                    build/SAMD21_IOT_WG_ICM42688/debug/_ext/907429946/wdrv_winc_systime.o
         352           0           7         359         167    ws2812.o                               build/SAMD21_IOT_WG_ICM42688/debug/_ext/1360937237/ws2812.o
         348           0           0         348         15c    plib_nvmctrl.o                         build/SAMD21_IOT_WG_ICM42688/debug/_ext/11470383/plib_nvmctrl.o
         304           0           8         312         138    plib_tc4.o                             build/SAMD21_IOT_WG_ICM42688/debug/_ext/399410062/plib_tc4.o
         312           0           0         312         138    _divdi3.o                              libgcc.a
         296           0           0         296         128    plib_nvic.o                            build/SAMD21_IOT_WG_ICM42688/debug/_ext/1580823105/plib_nvic.o
         288           0           8         296         128    plib_tc3.o                             build/SAMD21_IOT_WG_ICM42688/debug/_ext/399410062/plib_tc3.o
         284           0           0         284         11c    plib_systick.o                         build/SAMD21_IOT_WG_ICM42688/debug/_ext/223004715/plib_systick.o
         256           0           0         256         100    __year_to_secs.o                       libg-musl.a
         254           0           0         254          fe    __stdio_write.o                        libg-musl.a
         234           0           0         234          ea    _udivmoddi4.o                          libgcc.a
         232           2           0         234          ea    nmbus.o                                build/SAMD21_IOT_WG_ICM42688/debug/_ext/121554788/nmbus.o
         220           0           4         224          e0    lite_free.o                            liblmalloc-musl.a
         204           0           0         204          cc    plib_clock.o                           build/SAMD21_IOT_WG_ICM42688/debug/_ext/1750425231/plib_clock.o
         196           0           0         196          c4    __aeabi_ddiv.o                         libm-fast-emfloat.a
         192           0           0         192          c0    inet_ntop.o                            build/SAMD21_IOT_WG_ICM42688/debug/_ext/548032175/inet_ntop.o
         190           0           0         190          be    __pop_int.o                            libg-musl.a
         180           0           0         180          b4    floor.o                                libm-fast-emfloat.a
         178           0           0         178          b2    interrupts.o                           build/SAMD21_IOT_WG_ICM42688/debug/_ext/1832905403/interrupts.o
         178           0           0         178          b2    __fmt_d.o                              libg-musl.a
         164           0          12         176          b0    sbrk.o                                 libpic32c.a
         168           0           0         168          a8    _divsi3.o                              libgcc.a
         160           0           0         160          a0    __tm_to_secs.o                         libg-musl.a
         148           0           0         148          94    flexible_flash.o                       build/SAMD21_IOT_WG_ICM42688/debug/_ext/609036575/flexible_flash.o
         148           0           0         148          94    inet_addr.o                            build/SAMD21_IOT_WG_ICM42688/debug/_ext/548032175/inet_addr.o
         140           0           0         140          8c    _udivsi3.o                             libgcc.a
         116           0           8         124          7c    app.o                                  build/SAMD21_IOT_WG_ICM42688/debug/_ext/1360937237/app.o
         118           0           0         118          76    __cvt_u.o                              libg-musl.a
         108           0           0         108          6c    sys_int.o                              build/SAMD21_IOT_WG_ICM42688/debug/_ext/1318297016/sys_int.o
          80           0          28         108          6c    crtbegin.o                             c:/program files/microchip/xc32/v4.60/bin/bin/../../lib/gcc/pic32c/8.3.1/thumb/v6-m/nofp/crtbegin.o
           8          96           0         104          68    __stdout.o                             libg-musl.a
         100           4           0         104          68    lite_malloc.o                          liblmalloc-musl.a
         104           0           0         104          68    __pop_ptr.o                            libg-musl.a
         100           0           0         100          64    __stdio_read.o                         libg-musl.a
          96           0           0          96          60    strchrnul.o                            libc-size-musl.a
          94           0           0          94          5e    __libc_start_main.o                    libg-musl.a
          92           0           0          92          5c    __stdio_close.o                        libg-musl.a
          87           0           0          87          57    __fmt_s.o                              libg-musl.a
          86           0           0          86          56    __fmt_u.o                              libg-musl.a
          82           0           4          86          56    data_init.o                            libpic32c.a
          80           0           0          80          50    __month_to_secs.o                      libg-musl.a
          80           0           0          80          50    setvbuf.o                              libg-musl.a
           0           0          80          80          50    libc.o                                 libg-musl.a
          78           0           0          78          4e    __overflow.o                           libg-musl.a
          76           0           0          76          4c    mktime.o                               libg-musl.a
          74           0           0          74          4a    startup_xc32.o                         build/SAMD21_IOT_WG_ICM42688/debug/_ext/1832905403/startup_xc32.o
          72           0           0          72          48    xc32_monitor.o                         build/SAMD21_IOT_WG_ICM42688/debug/_ext/1357625803/xc32_monitor.o
          72           0           0          72          48    _aeabi_ldivmod.o                       libgcc.a
          70           0           0          70          46    __out.o                                libg-musl.a
          68           0           0          68          44    sys_dma.o                              build/SAMD21_IOT_WG_ICM42688/debug/_ext/1584719636/sys_dma.o
          68           0           0          68          44    _muldi3.o                              libgcc.a
          68           0           0          68          44    __aeabi_dcmple.o                       libm-fast-emfloat.a
          64           0           0          64          40    wdrv_winc_gpio.o                       build/SAMD21_IOT_WG_ICM42688/debug/_ext/1164161090/wdrv_winc_gpio.o
          64           0           0          64          40    atoi.o                                 libg-musl.a
          64           0           0          64          40    _aeabi_uldivmod.o                      libgcc.a
          62           0           0          62          3e    putc.o                                 libg-musl.a
          62           0           0          62          3e    __aeabi_dcmpgt.o                       libm-fast-emfloat.a
          62           0           0          62          3e    __aeabi_dcmplt.o                       libm-fast-emfloat.a
          16           0          44          60          3c    gmtime.o                               libg-musl.a
          60           0           0          60          3c    _clzsi2.o                              libgcc.a
          60           0           0          60          3c    __putc.o                               libg-musl.a
          20          32           8          60          3c    stdout.o                               libg-musl.a
          56           0           0          56          38    gmtime_r.o                             libg-musl.a
          52           0           0          52          34    __aeabi_d2iz.o                         libm-fast-emfloat.a
          52           0           0          52          34    bpabi.o                                libgcc.a
          48           0           0          48          30    nm_common.o                            build/SAMD21_IOT_WG_ICM42688/debug/_ext/90265895/nm_common.o
          46           0           0          46          2e    __aeabi_d2uiz.o                        libm-fast-emfloat.a
          46           0           0          46          2e    fwrite.o                               libg-musl.a
          46           0           0          46          2e    __aeabi_dcmpeq.o                       libm-fast-emfloat.a
          42           0           0          42          2a    __pop_float.o                          libg-musl.a
          42           0           0          42          2a    __towrite_rw.o                         libg-musl.a
          40           0           0          40          28    writev.o                               libg-musl.a
          40           0           0          40          28    readv.o                                libg-musl.a
          40           0           0          40          28    puts.o                                 libg-musl.a
          40           0           0          40          28    wdrv_winc_eint.o                       build/SAMD21_IOT_WG_ICM42688/debug/_ext/1164161090/wdrv_winc_eint.o
          36           0           0          36          24    wdrv_winc_osal.o                       build/SAMD21_IOT_WG_ICM42688/debug/_ext/1784303044/wdrv_winc_osal.o
          34           0           0          34          22    fputs.o                                libg-musl.a
          32           0           0          32          20    __sio_printf_cdeEfFgGnsu.o             libg-musl.a
          32           0           0          32          20    memchr.o                               libc-size-musl.a
          30           0           0          30          1e    pic32_data_init_copy.o                 libpic32c.a
          28           0           0          28          1c    lite_calloc.o                          liblmalloc-musl.a
          26           0           0          26          1a    __towrite.o                            libg-musl.a
          24           0           0          24          18    _ashldi3.o                             libgcc.a
          24           0           0          24          18    strnlen.o                              libc-size-musl.a
          24           0           0          24          18    _clzdi2.o                              libgcc.a
          24           0           0          24          18    _lshrdi3.o                             libgcc.a
          24           0           0          24          18    __int_vfprintf.o                       libg-musl.a
          24           0           0          24          18    strlen.o                               libc-size-musl.a
          22           0           0          22          16    expand_heap.o                          libg-musl.a
          20           0           0          20          14    memcpy.o                               libc-size-musl.a
          20           0           0          20          14    __fwrite.o                             libg-musl.a
          20           0           0          20          14    stpcpy.o                               libc-size-musl.a
          20           0           0          20          14    strchr.o                               libc-size-musl.a
          20           0           0          20          14    memset.o                               libc-size-musl.a
          18           0           0          18          12    setbuf.o                               libg-musl.a
          18           0           0          18          12    __init_stdio.o                         libg-musl.a
          18           0           0          18          12    pic32_data_init_clear.o                libpic32c.a
          16           0           0          16          10    fma.o                                  libm-fast-emfloat.a
          16           0           0          16          10    crtn.o                                 c:/program files/microchip/xc32/v4.60/bin/bin/../../lib/gcc/pic32c/8.3.1/thumb/v6-m/nofp/crtn.o
          14           0           0          14           e    tolower.o                              libg-musl.a
          12           0           0          12           c    strcpy.o                               libc-size-musl.a
           8           0           0           8           8    tasks.o                                build/SAMD21_IOT_WG_ICM42688/debug/_ext/1832905403/tasks.o
           8           0           0           8           8    crti.o                                 c:/program files/microchip/xc32/v4.60/bin/bin/../../lib/gcc/pic32c/8.3.1/thumb/v6-m/nofp/crti.o
           8           0           0           8           8    exceptions.o                           build/SAMD21_IOT_WG_ICM42688/debug/_ext/1832905403/exceptions.o
           6           0           0           6           6    close.o                                libpic32c.a
           0           0           4           4           4    __environ.o                            libg-musl.a
           4           0           0           4           4    _dvmd_tls.o                            libgcc.a
           0           0           4           4           4    __errno_location.o                     libg-musl.a
           4           0           0           4           4    lseek.o                                libpic32c.a
           2           0           0           2           2    __stderr.o                             libg-musl.a
--------------------------------------------------------------------------------
       63614         251        6796       70661       11405    dist/SAMD21_IOT_WG_ICM42688/debug/samd21_iot_wand.X.debug.elf


Discarded input sections

 .text          0x0000000000000000        0x0 c:/program files/microchip/xc32/v4.60/bin/bin/../../lib/gcc/pic32c/8.3.1/thumb/v6-m/nofp/crti.o
 .data          0x0000000000000000        0x0 c:/program files/microchip/xc32/v4.60/bin/bin/../../lib/gcc/pic32c/8.3.1/thumb/v6-m/nofp/crti.o
 .bss           0x0000000000000000        0x0 c:/program files/microchip/xc32/v4.60/bin/bin/../../lib/gcc/pic32c/8.3.1/thumb/v6-m/nofp/crti.o
 .xc_stack_usage.hdr
                0x0000000000000000        0xe c:/program files/microchip/xc32/v4.60/bin/bin/../../lib/gcc/pic32c/8.3.1/thumb/v6-m/nofp/crti.o
 .xc_stack_usage
                0x0000000000000000       0x26 c:/program files/microchip/xc32/v4.60/bin/bin/../../lib/gcc/pic32c/8.3.1/thumb/v6-m/nofp/crti.o
 .data          0x0000000000000000        0x4 c:/program files/microchip/xc32/v4.60/bin/bin/../../lib/gcc/pic32c/8.3.1/thumb/v6-m/nofp/crtbegin.o
 .xc_stack_usage
                0x0000000000000000       0x3c c:/program files/microchip/xc32/v4.60/bin/bin/../../lib/gcc/pic32c/8.3.1/thumb/v6-m/nofp/crtbegin.o
 .xc_stack_usage.hdr
                0x0000000000000000        0xe c:/program files/microchip/xc32/v4.60/bin/bin/../../lib/gcc/pic32c/8.3.1/thumb/v6-m/nofp/crtbegin.o
 .data          0x0000000000000000        0x0 build/SAMD21_IOT_WG_ICM42688/debug/_ext/2048461350/icm42688_sensor.o
 .text          0x0000000000000000       0x54 build/SAMD21_IOT_WG_ICM42688/debug/_ext/171618134/sml_recognition_run.o
 .data          0x0000000000000000        0x0 build/SAMD21_IOT_WG_ICM42688/debug/_ext/171618134/sml_recognition_run.o
 .bss           0x0000000000000000      0x200 build/SAMD21_IOT_WG_ICM42688/debug/_ext/171618134/sml_recognition_run.o
 .debug_info    0x0000000000000000      0x250 build/SAMD21_IOT_WG_ICM42688/debug/_ext/171618134/sml_recognition_run.o
 .debug_abbrev  0x0000000000000000      0x120 build/SAMD21_IOT_WG_ICM42688/debug/_ext/171618134/sml_recognition_run.o
 .debug_loc     0x0000000000000000      0x10f build/SAMD21_IOT_WG_ICM42688/debug/_ext/171618134/sml_recognition_run.o
 .debug_aranges
                0x0000000000000000       0x20 build/SAMD21_IOT_WG_ICM42688/debug/_ext/171618134/sml_recognition_run.o
 .debug_line    0x0000000000000000      0x13b build/SAMD21_IOT_WG_ICM42688/debug/_ext/171618134/sml_recognition_run.o
 .debug_str     0x0000000000000000      0x350 build/SAMD21_IOT_WG_ICM42688/debug/_ext/171618134/sml_recognition_run.o
 .comment       0x0000000000000000       0x2c build/SAMD21_IOT_WG_ICM42688/debug/_ext/171618134/sml_recognition_run.o
 .debug_frame   0x0000000000000000       0x44 build/SAMD21_IOT_WG_ICM42688/debug/_ext/171618134/sml_recognition_run.o
 .ARM.attributes
                0x0000000000000000       0x2c build/SAMD21_IOT_WG_ICM42688/debug/_ext/171618134/sml_recognition_run.o
 .data          0x0000000000000000        0x0 build/SAMD21_IOT_WG_ICM42688/debug/_ext/1660664302/drv_spi.o
 .data          0x0000000000000000        0x0 build/SAMD21_IOT_WG_ICM42688/debug/_ext/1164161090/wdrv_winc_gpio.o
 .bss           0x0000000000000000        0x0 build/SAMD21_IOT_WG_ICM42688/debug/_ext/1164161090/wdrv_winc_gpio.o
 .data          0x0000000000000000        0x0 build/SAMD21_IOT_WG_ICM42688/debug/_ext/1164161090/wdrv_winc_eint.o
 .bss           0x0000000000000000        0x0 build/SAMD21_IOT_WG_ICM42688/debug/_ext/1164161090/wdrv_winc_eint.o
 .data          0x0000000000000000        0x0 build/SAMD21_IOT_WG_ICM42688/debug/_ext/101005277/wdrv_winc_spi.o
 .data          0x0000000000000000        0x0 build/SAMD21_IOT_WG_ICM42688/debug/_ext/90265895/nm_common.o
 .bss           0x0000000000000000        0x0 build/SAMD21_IOT_WG_ICM42688/debug/_ext/90265895/nm_common.o
 .data          0x0000000000000000        0x0 build/SAMD21_IOT_WG_ICM42688/debug/_ext/121554788/m2m_hif.o
 .data          0x0000000000000000        0x0 build/SAMD21_IOT_WG_ICM42688/debug/_ext/121554788/nmspi.o
 .data          0x0000000000000000        0x0 build/SAMD21_IOT_WG_ICM42688/debug/_ext/121554788/nmdrv.o
 .bss           0x0000000000000000        0x0 build/SAMD21_IOT_WG_ICM42688/debug/_ext/121554788/nmdrv.o
 .text          0x0000000000000000       0x68 build/SAMD21_IOT_WG_ICM42688/debug/_ext/121554788/m2m_periph.o
 .data          0x0000000000000000        0x0 build/SAMD21_IOT_WG_ICM42688/debug/_ext/121554788/m2m_periph.o
 .bss           0x0000000000000000        0x0 build/SAMD21_IOT_WG_ICM42688/debug/_ext/121554788/m2m_periph.o
 .debug_info    0x0000000000000000      0x60b build/SAMD21_IOT_WG_ICM42688/debug/_ext/121554788/m2m_periph.o
 .debug_abbrev  0x0000000000000000      0x190 build/SAMD21_IOT_WG_ICM42688/debug/_ext/121554788/m2m_periph.o
 .debug_loc     0x0000000000000000      0x455 build/SAMD21_IOT_WG_ICM42688/debug/_ext/121554788/m2m_periph.o
 .debug_aranges
                0x0000000000000000       0x20 build/SAMD21_IOT_WG_ICM42688/debug/_ext/121554788/m2m_periph.o
 .debug_line    0x0000000000000000      0x234 build/SAMD21_IOT_WG_ICM42688/debug/_ext/121554788/m2m_periph.o
 .debug_str     0x0000000000000000      0x45e build/SAMD21_IOT_WG_ICM42688/debug/_ext/121554788/m2m_periph.o
 .comment       0x0000000000000000       0x2c build/SAMD21_IOT_WG_ICM42688/debug/_ext/121554788/m2m_periph.o
 .debug_frame   0x0000000000000000       0x7c build/SAMD21_IOT_WG_ICM42688/debug/_ext/121554788/m2m_periph.o
 .ARM.attributes
                0x0000000000000000       0x2c build/SAMD21_IOT_WG_ICM42688/debug/_ext/121554788/m2m_periph.o
 .data          0x0000000000000000        0x0 build/SAMD21_IOT_WG_ICM42688/debug/_ext/121554788/nmasic.o
 .bss           0x0000000000000000        0x0 build/SAMD21_IOT_WG_ICM42688/debug/_ext/121554788/nmbus.o
 .data          0x0000000000000000        0x0 build/SAMD21_IOT_WG_ICM42688/debug/_ext/548032175/socket.o
 .data          0x0000000000000000        0x0 build/SAMD21_IOT_WG_ICM42688/debug/_ext/548032175/inet_addr.o
 .bss           0x0000000000000000        0x0 build/SAMD21_IOT_WG_ICM42688/debug/_ext/548032175/inet_addr.o
 .data          0x0000000000000000        0x0 build/SAMD21_IOT_WG_ICM42688/debug/_ext/548032175/inet_ntop.o
 .bss           0x0000000000000000        0x0 build/SAMD21_IOT_WG_ICM42688/debug/_ext/548032175/inet_ntop.o
 .data          0x0000000000000000        0x0 build/SAMD21_IOT_WG_ICM42688/debug/_ext/609036575/flexible_flash.o
 .bss           0x0000000000000000        0x0 build/SAMD21_IOT_WG_ICM42688/debug/_ext/609036575/flexible_flash.o
 .data          0x0000000000000000        0x0 build/SAMD21_IOT_WG_ICM42688/debug/_ext/609036575/spi_flash.o
 .data          0x0000000000000000        0x0 build/SAMD21_IOT_WG_ICM42688/debug/_ext/1784303044/wdrv_winc_osal.o
 .bss           0x0000000000000000        0x0 build/SAMD21_IOT_WG_ICM42688/debug/_ext/1784303044/wdrv_winc_osal.o
 .text          0x0000000000000000      0x1f4 build/SAMD21_IOT_WG_ICM42688/debug/_ext/907429946/wdrv_winc_softap.o
 .data          0x0000000000000000        0x0 build/SAMD21_IOT_WG_ICM42688/debug/_ext/907429946/wdrv_winc_softap.o
 .bss           0x0000000000000000        0x0 build/SAMD21_IOT_WG_ICM42688/debug/_ext/907429946/wdrv_winc_softap.o
 .debug_info    0x0000000000000000     0x157a build/SAMD21_IOT_WG_ICM42688/debug/_ext/907429946/wdrv_winc_softap.o
 .debug_abbrev  0x0000000000000000      0x2bd build/SAMD21_IOT_WG_ICM42688/debug/_ext/907429946/wdrv_winc_softap.o
 .debug_loc     0x0000000000000000      0x49e build/SAMD21_IOT_WG_ICM42688/debug/_ext/907429946/wdrv_winc_softap.o
 .debug_aranges
                0x0000000000000000       0x20 build/SAMD21_IOT_WG_ICM42688/debug/_ext/907429946/wdrv_winc_softap.o
 .debug_line    0x0000000000000000      0x610 build/SAMD21_IOT_WG_ICM42688/debug/_ext/907429946/wdrv_winc_softap.o
 .debug_str     0x0000000000000000     0x194d build/SAMD21_IOT_WG_ICM42688/debug/_ext/907429946/wdrv_winc_softap.o
 .comment       0x0000000000000000       0x2c build/SAMD21_IOT_WG_ICM42688/debug/_ext/907429946/wdrv_winc_softap.o
 .debug_frame   0x0000000000000000       0x6c build/SAMD21_IOT_WG_ICM42688/debug/_ext/907429946/wdrv_winc_softap.o
 .ARM.attributes
                0x0000000000000000       0x2c build/SAMD21_IOT_WG_ICM42688/debug/_ext/907429946/wdrv_winc_softap.o
 .text          0x0000000000000000      0x318 build/SAMD21_IOT_WG_ICM42688/debug/_ext/907429946/wdrv_winc_bssfind.o
 .data          0x0000000000000000        0x0 build/SAMD21_IOT_WG_ICM42688/debug/_ext/907429946/wdrv_winc_bssfind.o
 .bss           0x0000000000000000        0x0 build/SAMD21_IOT_WG_ICM42688/debug/_ext/907429946/wdrv_winc_bssfind.o
 .debug_info    0x0000000000000000     0x17e2 build/SAMD21_IOT_WG_ICM42688/debug/_ext/907429946/wdrv_winc_bssfind.o
 .debug_abbrev  0x0000000000000000      0x2e5 build/SAMD21_IOT_WG_ICM42688/debug/_ext/907429946/wdrv_winc_bssfind.o
 .debug_loc     0x0000000000000000      0xcd6 build/SAMD21_IOT_WG_ICM42688/debug/_ext/907429946/wdrv_winc_bssfind.o
 .debug_aranges
                0x0000000000000000       0x20 build/SAMD21_IOT_WG_ICM42688/debug/_ext/907429946/wdrv_winc_bssfind.o
 .debug_line    0x0000000000000000      0x7e0 build/SAMD21_IOT_WG_ICM42688/debug/_ext/907429946/wdrv_winc_bssfind.o
 .debug_str     0x0000000000000000     0x1c91 build/SAMD21_IOT_WG_ICM42688/debug/_ext/907429946/wdrv_winc_bssfind.o
 .comment       0x0000000000000000       0x2c build/SAMD21_IOT_WG_ICM42688/debug/_ext/907429946/wdrv_winc_bssfind.o
 .debug_frame   0x0000000000000000      0x110 build/SAMD21_IOT_WG_ICM42688/debug/_ext/907429946/wdrv_winc_bssfind.o
 .ARM.attributes
                0x0000000000000000       0x2c build/SAMD21_IOT_WG_ICM42688/debug/_ext/907429946/wdrv_winc_bssfind.o
 .data          0x0000000000000000        0x0 build/SAMD21_IOT_WG_ICM42688/debug/_ext/907429946/wdrv_winc_sta.o
 .bss           0x0000000000000000        0x0 build/SAMD21_IOT_WG_ICM42688/debug/_ext/907429946/wdrv_winc_sta.o
 .text          0x0000000000000000      0x148 build/SAMD21_IOT_WG_ICM42688/debug/_ext/907429946/wdrv_winc_wps.o
 .data          0x0000000000000000        0x0 build/SAMD21_IOT_WG_ICM42688/debug/_ext/907429946/wdrv_winc_wps.o
 .bss           0x0000000000000000        0x0 build/SAMD21_IOT_WG_ICM42688/debug/_ext/907429946/wdrv_winc_wps.o
 .rodata.str1.4
                0x0000000000000000        0x8 build/SAMD21_IOT_WG_ICM42688/debug/_ext/907429946/wdrv_winc_wps.o
 .debug_info    0x0000000000000000     0x1271 build/SAMD21_IOT_WG_ICM42688/debug/_ext/907429946/wdrv_winc_wps.o
 .debug_abbrev  0x0000000000000000      0x2e5 build/SAMD21_IOT_WG_ICM42688/debug/_ext/907429946/wdrv_winc_wps.o
 .debug_loc     0x0000000000000000      0x5d4 build/SAMD21_IOT_WG_ICM42688/debug/_ext/907429946/wdrv_winc_wps.o
 .debug_aranges
                0x0000000000000000       0x20 build/SAMD21_IOT_WG_ICM42688/debug/_ext/907429946/wdrv_winc_wps.o
 .debug_line    0x0000000000000000      0x471 build/SAMD21_IOT_WG_ICM42688/debug/_ext/907429946/wdrv_winc_wps.o
 .debug_str     0x0000000000000000     0x1739 build/SAMD21_IOT_WG_ICM42688/debug/_ext/907429946/wdrv_winc_wps.o
 .comment       0x0000000000000000       0x2c build/SAMD21_IOT_WG_ICM42688/debug/_ext/907429946/wdrv_winc_wps.o
 .debug_frame   0x0000000000000000       0x68 build/SAMD21_IOT_WG_ICM42688/debug/_ext/907429946/wdrv_winc_wps.o
 .ARM.attributes
                0x0000000000000000       0x2c build/SAMD21_IOT_WG_ICM42688/debug/_ext/907429946/wdrv_winc_wps.o
 .text          0x0000000000000000      0x168 build/SAMD21_IOT_WG_ICM42688/debug/_ext/907429946/wdrv_winc_assoc.o
 .data          0x0000000000000000        0x0 build/SAMD21_IOT_WG_ICM42688/debug/_ext/907429946/wdrv_winc_assoc.o
 .bss           0x0000000000000000        0x0 build/SAMD21_IOT_WG_ICM42688/debug/_ext/907429946/wdrv_winc_assoc.o
 .debug_info    0x0000000000000000     0x130f build/SAMD21_IOT_WG_ICM42688/debug/_ext/907429946/wdrv_winc_assoc.o
 .debug_abbrev  0x0000000000000000      0x287 build/SAMD21_IOT_WG_ICM42688/debug/_ext/907429946/wdrv_winc_assoc.o
 .debug_loc     0x0000000000000000      0x8bf build/SAMD21_IOT_WG_ICM42688/debug/_ext/907429946/wdrv_winc_assoc.o
 .debug_aranges
                0x0000000000000000       0x20 build/SAMD21_IOT_WG_ICM42688/debug/_ext/907429946/wdrv_winc_assoc.o
 .debug_line    0x0000000000000000      0x560 build/SAMD21_IOT_WG_ICM42688/debug/_ext/907429946/wdrv_winc_assoc.o
 .debug_str     0x0000000000000000     0x1759 build/SAMD21_IOT_WG_ICM42688/debug/_ext/907429946/wdrv_winc_assoc.o
 .comment       0x0000000000000000       0x2c build/SAMD21_IOT_WG_ICM42688/debug/_ext/907429946/wdrv_winc_assoc.o
 .debug_frame   0x0000000000000000       0x88 build/SAMD21_IOT_WG_ICM42688/debug/_ext/907429946/wdrv_winc_assoc.o
 .ARM.attributes
                0x0000000000000000       0x2c build/SAMD21_IOT_WG_ICM42688/debug/_ext/907429946/wdrv_winc_assoc.o
 .data          0x0000000000000000        0x0 build/SAMD21_IOT_WG_ICM42688/debug/_ext/907429946/wdrv_winc_socket.o
 .bss           0x0000000000000000        0x0 build/SAMD21_IOT_WG_ICM42688/debug/_ext/907429946/wdrv_winc_socket.o
 .data          0x0000000000000000        0x0 build/SAMD21_IOT_WG_ICM42688/debug/_ext/907429946/wdrv_winc_systime.o
 .bss           0x0000000000000000        0x0 build/SAMD21_IOT_WG_ICM42688/debug/_ext/907429946/wdrv_winc_systime.o
 .text          0x0000000000000000      0x1cc build/SAMD21_IOT_WG_ICM42688/debug/_ext/907429946/wdrv_winc_enterprise.o
 .data          0x0000000000000000        0x0 build/SAMD21_IOT_WG_ICM42688/debug/_ext/907429946/wdrv_winc_enterprise.o
 .bss           0x0000000000000000        0x0 build/SAMD21_IOT_WG_ICM42688/debug/_ext/907429946/wdrv_winc_enterprise.o
 .rodata        0x0000000000000000        0x4 build/SAMD21_IOT_WG_ICM42688/debug/_ext/907429946/wdrv_winc_enterprise.o
 .debug_info    0x0000000000000000     0x1546 build/SAMD21_IOT_WG_ICM42688/debug/_ext/907429946/wdrv_winc_enterprise.o
 .debug_abbrev  0x0000000000000000      0x297 build/SAMD21_IOT_WG_ICM42688/debug/_ext/907429946/wdrv_winc_enterprise.o
 .debug_loc     0x0000000000000000      0x84a build/SAMD21_IOT_WG_ICM42688/debug/_ext/907429946/wdrv_winc_enterprise.o
 .debug_aranges
                0x0000000000000000       0x20 build/SAMD21_IOT_WG_ICM42688/debug/_ext/907429946/wdrv_winc_enterprise.o
 .debug_line    0x0000000000000000      0x5a8 build/SAMD21_IOT_WG_ICM42688/debug/_ext/907429946/wdrv_winc_enterprise.o
 .debug_str     0x0000000000000000     0x1988 build/SAMD21_IOT_WG_ICM42688/debug/_ext/907429946/wdrv_winc_enterprise.o
 .comment       0x0000000000000000       0x2c build/SAMD21_IOT_WG_ICM42688/debug/_ext/907429946/wdrv_winc_enterprise.o
 .debug_frame   0x0000000000000000       0xd4 build/SAMD21_IOT_WG_ICM42688/debug/_ext/907429946/wdrv_winc_enterprise.o
 .ARM.attributes
                0x0000000000000000       0x2c build/SAMD21_IOT_WG_ICM42688/debug/_ext/907429946/wdrv_winc_enterprise.o
 .text          0x0000000000000000      0x29c build/SAMD21_IOT_WG_ICM42688/debug/_ext/907429946/wdrv_winc_nvm.o
 .data          0x0000000000000000        0x0 build/SAMD21_IOT_WG_ICM42688/debug/_ext/907429946/wdrv_winc_nvm.o
 .bss           0x0000000000000000        0x0 build/SAMD21_IOT_WG_ICM42688/debug/_ext/907429946/wdrv_winc_nvm.o
 .rodata        0x0000000000000000       0x18 build/SAMD21_IOT_WG_ICM42688/debug/_ext/907429946/wdrv_winc_nvm.o
 .debug_info    0x0000000000000000     0x1972 build/SAMD21_IOT_WG_ICM42688/debug/_ext/907429946/wdrv_winc_nvm.o
 .debug_abbrev  0x0000000000000000      0x375 build/SAMD21_IOT_WG_ICM42688/debug/_ext/907429946/wdrv_winc_nvm.o
 .debug_loc     0x0000000000000000      0x898 build/SAMD21_IOT_WG_ICM42688/debug/_ext/907429946/wdrv_winc_nvm.o
 .debug_aranges
                0x0000000000000000       0x20 build/SAMD21_IOT_WG_ICM42688/debug/_ext/907429946/wdrv_winc_nvm.o
 .debug_ranges  0x0000000000000000       0x78 build/SAMD21_IOT_WG_ICM42688/debug/_ext/907429946/wdrv_winc_nvm.o
 .debug_line    0x0000000000000000      0x76b build/SAMD21_IOT_WG_ICM42688/debug/_ext/907429946/wdrv_winc_nvm.o
 .debug_str     0x0000000000000000     0x1e6e build/SAMD21_IOT_WG_ICM42688/debug/_ext/907429946/wdrv_winc_nvm.o
 .comment       0x0000000000000000       0x2c build/SAMD21_IOT_WG_ICM42688/debug/_ext/907429946/wdrv_winc_nvm.o
 .debug_frame   0x0000000000000000       0xb4 build/SAMD21_IOT_WG_ICM42688/debug/_ext/907429946/wdrv_winc_nvm.o
 .ARM.attributes
                0x0000000000000000       0x2c build/SAMD21_IOT_WG_ICM42688/debug/_ext/907429946/wdrv_winc_nvm.o
 .text          0x0000000000000000       0x68 build/SAMD21_IOT_WG_ICM42688/debug/_ext/907429946/wdrv_winc_httpprovctx.o
 .data          0x0000000000000000        0x0 build/SAMD21_IOT_WG_ICM42688/debug/_ext/907429946/wdrv_winc_httpprovctx.o
 .bss           0x0000000000000000        0x0 build/SAMD21_IOT_WG_ICM42688/debug/_ext/907429946/wdrv_winc_httpprovctx.o
 .debug_info    0x0000000000000000      0x5c2 build/SAMD21_IOT_WG_ICM42688/debug/_ext/907429946/wdrv_winc_httpprovctx.o
 .debug_abbrev  0x0000000000000000      0x1ea build/SAMD21_IOT_WG_ICM42688/debug/_ext/907429946/wdrv_winc_httpprovctx.o
 .debug_loc     0x0000000000000000      0x195 build/SAMD21_IOT_WG_ICM42688/debug/_ext/907429946/wdrv_winc_httpprovctx.o
 .debug_aranges
                0x0000000000000000       0x20 build/SAMD21_IOT_WG_ICM42688/debug/_ext/907429946/wdrv_winc_httpprovctx.o
 .debug_line    0x0000000000000000      0x291 build/SAMD21_IOT_WG_ICM42688/debug/_ext/907429946/wdrv_winc_httpprovctx.o
 .debug_str     0x0000000000000000      0x832 build/SAMD21_IOT_WG_ICM42688/debug/_ext/907429946/wdrv_winc_httpprovctx.o
 .comment       0x0000000000000000       0x2c build/SAMD21_IOT_WG_ICM42688/debug/_ext/907429946/wdrv_winc_httpprovctx.o
 .debug_frame   0x0000000000000000       0x5c build/SAMD21_IOT_WG_ICM42688/debug/_ext/907429946/wdrv_winc_httpprovctx.o
 .ARM.attributes
                0x0000000000000000       0x2c build/SAMD21_IOT_WG_ICM42688/debug/_ext/907429946/wdrv_winc_httpprovctx.o
 .text          0x0000000000000000       0xe8 build/SAMD21_IOT_WG_ICM42688/debug/_ext/907429946/wdrv_winc_powersave.o
 .data          0x0000000000000000        0x0 build/SAMD21_IOT_WG_ICM42688/debug/_ext/907429946/wdrv_winc_powersave.o
 .bss           0x0000000000000000        0x0 build/SAMD21_IOT_WG_ICM42688/debug/_ext/907429946/wdrv_winc_powersave.o
 .debug_info    0x0000000000000000     0x12b0 build/SAMD21_IOT_WG_ICM42688/debug/_ext/907429946/wdrv_winc_powersave.o
 .debug_abbrev  0x0000000000000000      0x239 build/SAMD21_IOT_WG_ICM42688/debug/_ext/907429946/wdrv_winc_powersave.o
 .debug_loc     0x0000000000000000      0x422 build/SAMD21_IOT_WG_ICM42688/debug/_ext/907429946/wdrv_winc_powersave.o
 .debug_aranges
                0x0000000000000000       0x20 build/SAMD21_IOT_WG_ICM42688/debug/_ext/907429946/wdrv_winc_powersave.o
 .debug_line    0x0000000000000000      0x47b build/SAMD21_IOT_WG_ICM42688/debug/_ext/907429946/wdrv_winc_powersave.o
 .debug_str     0x0000000000000000     0x1834 build/SAMD21_IOT_WG_ICM42688/debug/_ext/907429946/wdrv_winc_powersave.o
 .comment       0x0000000000000000       0x2c build/SAMD21_IOT_WG_ICM42688/debug/_ext/907429946/wdrv_winc_powersave.o
 .debug_frame   0x0000000000000000       0x78 build/SAMD21_IOT_WG_ICM42688/debug/_ext/907429946/wdrv_winc_powersave.o
 .ARM.attributes
                0x0000000000000000       0x2c build/SAMD21_IOT_WG_ICM42688/debug/_ext/907429946/wdrv_winc_powersave.o
 .data          0x0000000000000000        0x0 build/SAMD21_IOT_WG_ICM42688/debug/_ext/907429946/wdrv_winc_authctx.o
 .bss           0x0000000000000000        0x0 build/SAMD21_IOT_WG_ICM42688/debug/_ext/907429946/wdrv_winc_authctx.o
 .text          0x0000000000000000      0x2ec build/SAMD21_IOT_WG_ICM42688/debug/_ext/907429946/wdrv_winc_ssl.o
 .data          0x0000000000000000        0x0 build/SAMD21_IOT_WG_ICM42688/debug/_ext/907429946/wdrv_winc_ssl.o
 .bss           0x0000000000000000        0x0 build/SAMD21_IOT_WG_ICM42688/debug/_ext/907429946/wdrv_winc_ssl.o
 .rodata        0x0000000000000000       0x58 build/SAMD21_IOT_WG_ICM42688/debug/_ext/907429946/wdrv_winc_ssl.o
 .debug_info    0x0000000000000000     0x1a1a build/SAMD21_IOT_WG_ICM42688/debug/_ext/907429946/wdrv_winc_ssl.o
 .debug_abbrev  0x0000000000000000      0x338 build/SAMD21_IOT_WG_ICM42688/debug/_ext/907429946/wdrv_winc_ssl.o
 .debug_loc     0x0000000000000000      0x96a build/SAMD21_IOT_WG_ICM42688/debug/_ext/907429946/wdrv_winc_ssl.o
 .debug_aranges
                0x0000000000000000       0x20 build/SAMD21_IOT_WG_ICM42688/debug/_ext/907429946/wdrv_winc_ssl.o
 .debug_line    0x0000000000000000      0x6a4 build/SAMD21_IOT_WG_ICM42688/debug/_ext/907429946/wdrv_winc_ssl.o
 .debug_str     0x0000000000000000     0x1dc0 build/SAMD21_IOT_WG_ICM42688/debug/_ext/907429946/wdrv_winc_ssl.o
 .comment       0x0000000000000000       0x2c build/SAMD21_IOT_WG_ICM42688/debug/_ext/907429946/wdrv_winc_ssl.o
 .debug_frame   0x0000000000000000       0xfc build/SAMD21_IOT_WG_ICM42688/debug/_ext/907429946/wdrv_winc_ssl.o
 .ARM.attributes
                0x0000000000000000       0x2c build/SAMD21_IOT_WG_ICM42688/debug/_ext/907429946/wdrv_winc_ssl.o
 .text          0x0000000000000000      0x108 build/SAMD21_IOT_WG_ICM42688/debug/_ext/907429946/wdrv_winc_custie.o
 .data          0x0000000000000000        0x0 build/SAMD21_IOT_WG_ICM42688/debug/_ext/907429946/wdrv_winc_custie.o
 .bss           0x0000000000000000        0x0 build/SAMD21_IOT_WG_ICM42688/debug/_ext/907429946/wdrv_winc_custie.o
 .debug_info    0x0000000000000000      0x39d build/SAMD21_IOT_WG_ICM42688/debug/_ext/907429946/wdrv_winc_custie.o
 .debug_abbrev  0x0000000000000000      0x14e build/SAMD21_IOT_WG_ICM42688/debug/_ext/907429946/wdrv_winc_custie.o
 .debug_loc     0x0000000000000000      0x3c7 build/SAMD21_IOT_WG_ICM42688/debug/_ext/907429946/wdrv_winc_custie.o
 .debug_aranges
                0x0000000000000000       0x20 build/SAMD21_IOT_WG_ICM42688/debug/_ext/907429946/wdrv_winc_custie.o
 .debug_line    0x0000000000000000      0x2c2 build/SAMD21_IOT_WG_ICM42688/debug/_ext/907429946/wdrv_winc_custie.o
 .debug_str     0x0000000000000000      0x5e5 build/SAMD21_IOT_WG_ICM42688/debug/_ext/907429946/wdrv_winc_custie.o
 .comment       0x0000000000000000       0x2c build/SAMD21_IOT_WG_ICM42688/debug/_ext/907429946/wdrv_winc_custie.o
 .debug_frame   0x0000000000000000       0x6c build/SAMD21_IOT_WG_ICM42688/debug/_ext/907429946/wdrv_winc_custie.o
 .ARM.attributes
                0x0000000000000000       0x2c build/SAMD21_IOT_WG_ICM42688/debug/_ext/907429946/wdrv_winc_custie.o
 .data          0x0000000000000000        0x0 build/SAMD21_IOT_WG_ICM42688/debug/_ext/907429946/wdrv_winc_host_file.o
 .bss           0x0000000000000000        0x0 build/SAMD21_IOT_WG_ICM42688/debug/_ext/907429946/wdrv_winc_host_file.o
 .data          0x0000000000000000        0x0 build/SAMD21_IOT_WG_ICM42688/debug/_ext/907429946/wdrv_winc.o
 .data          0x0000000000000000        0x0 build/SAMD21_IOT_WG_ICM42688/debug/_ext/907429946/wdrv_winc_bssctx.o
 .bss           0x0000000000000000        0x0 build/SAMD21_IOT_WG_ICM42688/debug/_ext/907429946/wdrv_winc_bssctx.o
 .data          0x0000000000000000        0x0 build/SAMD21_IOT_WG_ICM42688/debug/_ext/1750425231/plib_clock.o
 .bss           0x0000000000000000        0x0 build/SAMD21_IOT_WG_ICM42688/debug/_ext/1750425231/plib_clock.o
 .data          0x0000000000000000        0x0 build/SAMD21_IOT_WG_ICM42688/debug/_ext/1580516298/plib_dmac.o
 .data          0x0000000000000000        0x0 build/SAMD21_IOT_WG_ICM42688/debug/_ext/503204096/plib_eic.o
 .text          0x0000000000000000        0x4 build/SAMD21_IOT_WG_ICM42688/debug/_ext/1752574717/plib_evsys.o
 .data          0x0000000000000000        0x0 build/SAMD21_IOT_WG_ICM42688/debug/_ext/1752574717/plib_evsys.o
 .bss           0x0000000000000000        0x0 build/SAMD21_IOT_WG_ICM42688/debug/_ext/1752574717/plib_evsys.o
 .debug_info    0x0000000000000000       0x97 build/SAMD21_IOT_WG_ICM42688/debug/_ext/1752574717/plib_evsys.o
 .debug_abbrev  0x0000000000000000       0x44 build/SAMD21_IOT_WG_ICM42688/debug/_ext/1752574717/plib_evsys.o
 .debug_aranges
                0x0000000000000000       0x20 build/SAMD21_IOT_WG_ICM42688/debug/_ext/1752574717/plib_evsys.o
 .debug_line    0x0000000000000000       0x75 build/SAMD21_IOT_WG_ICM42688/debug/_ext/1752574717/plib_evsys.o
 .debug_str     0x0000000000000000      0x2a9 build/SAMD21_IOT_WG_ICM42688/debug/_ext/1752574717/plib_evsys.o
 .comment       0x0000000000000000       0x2c build/SAMD21_IOT_WG_ICM42688/debug/_ext/1752574717/plib_evsys.o
 .debug_frame   0x0000000000000000       0x20 build/SAMD21_IOT_WG_ICM42688/debug/_ext/1752574717/plib_evsys.o
 .ARM.attributes
                0x0000000000000000       0x2c build/SAMD21_IOT_WG_ICM42688/debug/_ext/1752574717/plib_evsys.o
 .data          0x0000000000000000        0x0 build/SAMD21_IOT_WG_ICM42688/debug/_ext/1580823105/plib_nvic.o
 .bss           0x0000000000000000        0x0 build/SAMD21_IOT_WG_ICM42688/debug/_ext/1580823105/plib_nvic.o
 .data          0x0000000000000000        0x0 build/SAMD21_IOT_WG_ICM42688/debug/_ext/11470383/plib_nvmctrl.o
 .bss           0x0000000000000000        0x0 build/SAMD21_IOT_WG_ICM42688/debug/_ext/11470383/plib_nvmctrl.o
 .data          0x0000000000000000        0x0 build/SAMD21_IOT_WG_ICM42688/debug/_ext/1580876256/plib_port.o
 .bss           0x0000000000000000        0x0 build/SAMD21_IOT_WG_ICM42688/debug/_ext/1580876256/plib_port.o
 .data          0x0000000000000000        0x0 build/SAMD21_IOT_WG_ICM42688/debug/_ext/1014017276/plib_sercom0_spi_master.o
 .bss           0x0000000000000000        0x0 build/SAMD21_IOT_WG_ICM42688/debug/_ext/1014017276/plib_sercom0_spi_master.o
 .data          0x0000000000000000        0x0 build/SAMD21_IOT_WG_ICM42688/debug/_ext/1014017276/plib_sercom2_spi_master.o
 .data          0x0000000000000000        0x0 build/SAMD21_IOT_WG_ICM42688/debug/_ext/177673482/plib_sercom5_usart.o
 .bss           0x0000000000000000        0x0 build/SAMD21_IOT_WG_ICM42688/debug/_ext/177673482/plib_sercom5_usart.o
 .data          0x0000000000000000        0x0 build/SAMD21_IOT_WG_ICM42688/debug/_ext/223004715/plib_systick.o
 .bss           0x0000000000000000        0x0 build/SAMD21_IOT_WG_ICM42688/debug/_ext/223004715/plib_systick.o
 .data          0x0000000000000000        0x0 build/SAMD21_IOT_WG_ICM42688/debug/_ext/399410062/plib_tc3.o
 .data          0x0000000000000000        0x0 build/SAMD21_IOT_WG_ICM42688/debug/_ext/399410062/plib_tc4.o
 .data          0x0000000000000000        0x0 build/SAMD21_IOT_WG_ICM42688/debug/_ext/1357625803/xc32_monitor.o
 .bss           0x0000000000000000        0x0 build/SAMD21_IOT_WG_ICM42688/debug/_ext/1357625803/xc32_monitor.o
 .data          0x0000000000000000        0x0 build/SAMD21_IOT_WG_ICM42688/debug/_ext/1584719636/sys_dma.o
 .bss           0x0000000000000000        0x0 build/SAMD21_IOT_WG_ICM42688/debug/_ext/1584719636/sys_dma.o
 .data          0x0000000000000000        0x0 build/SAMD21_IOT_WG_ICM42688/debug/_ext/1318297016/sys_int.o
 .bss           0x0000000000000000        0x0 build/SAMD21_IOT_WG_ICM42688/debug/_ext/1318297016/sys_int.o
 .data          0x0000000000000000        0x0 build/SAMD21_IOT_WG_ICM42688/debug/_ext/1832905403/initialization.o
 .data          0x0000000000000000        0x0 build/SAMD21_IOT_WG_ICM42688/debug/_ext/1832905403/interrupts.o
 .bss           0x0000000000000000        0x0 build/SAMD21_IOT_WG_ICM42688/debug/_ext/1832905403/interrupts.o
 .data          0x0000000000000000        0x0 build/SAMD21_IOT_WG_ICM42688/debug/_ext/1832905403/exceptions.o
 .bss           0x0000000000000000        0x0 build/SAMD21_IOT_WG_ICM42688/debug/_ext/1832905403/exceptions.o
 .data          0x0000000000000000        0x0 build/SAMD21_IOT_WG_ICM42688/debug/_ext/1832905403/startup_xc32.o
 .bss           0x0000000000000000        0x0 build/SAMD21_IOT_WG_ICM42688/debug/_ext/1832905403/startup_xc32.o
 .text          0x0000000000000000        0x4 build/SAMD21_IOT_WG_ICM42688/debug/_ext/1832905403/libc_syscalls.o
 .data          0x0000000000000000        0x0 build/SAMD21_IOT_WG_ICM42688/debug/_ext/1832905403/libc_syscalls.o
 .bss           0x0000000000000000        0x0 build/SAMD21_IOT_WG_ICM42688/debug/_ext/1832905403/libc_syscalls.o
 .debug_info    0x0000000000000000       0xa0 build/SAMD21_IOT_WG_ICM42688/debug/_ext/1832905403/libc_syscalls.o
 .debug_abbrev  0x0000000000000000       0x58 build/SAMD21_IOT_WG_ICM42688/debug/_ext/1832905403/libc_syscalls.o
 .debug_aranges
                0x0000000000000000       0x20 build/SAMD21_IOT_WG_ICM42688/debug/_ext/1832905403/libc_syscalls.o
 .debug_line    0x0000000000000000       0x6d build/SAMD21_IOT_WG_ICM42688/debug/_ext/1832905403/libc_syscalls.o
 .debug_str     0x0000000000000000      0x28b build/SAMD21_IOT_WG_ICM42688/debug/_ext/1832905403/libc_syscalls.o
 .comment       0x0000000000000000       0x2c build/SAMD21_IOT_WG_ICM42688/debug/_ext/1832905403/libc_syscalls.o
 .debug_frame   0x0000000000000000       0x20 build/SAMD21_IOT_WG_ICM42688/debug/_ext/1832905403/libc_syscalls.o
 .ARM.attributes
                0x0000000000000000       0x2c build/SAMD21_IOT_WG_ICM42688/debug/_ext/1832905403/libc_syscalls.o
 .data          0x0000000000000000        0x0 build/SAMD21_IOT_WG_ICM42688/debug/_ext/1832905403/tasks.o
 .bss           0x0000000000000000        0x0 build/SAMD21_IOT_WG_ICM42688/debug/_ext/1832905403/tasks.o
 .data          0x0000000000000000        0x0 build/SAMD21_IOT_WG_ICM42688/debug/_ext/1341251756/Icm426xxDriver_HL.o
 .bss           0x0000000000000000        0x0 build/SAMD21_IOT_WG_ICM42688/debug/_ext/1341251756/Icm426xxDriver_HL.o
 .text          0x0000000000000000      0xd64 build/SAMD21_IOT_WG_ICM42688/debug/_ext/1341251756/Icm426xxDriver_HL_apex.o
 .data          0x0000000000000000        0x0 build/SAMD21_IOT_WG_ICM42688/debug/_ext/1341251756/Icm426xxDriver_HL_apex.o
 .bss           0x0000000000000000        0x0 build/SAMD21_IOT_WG_ICM42688/debug/_ext/1341251756/Icm426xxDriver_HL_apex.o
 .debug_info    0x0000000000000000     0x2d26 build/SAMD21_IOT_WG_ICM42688/debug/_ext/1341251756/Icm426xxDriver_HL_apex.o
 .debug_abbrev  0x0000000000000000      0x37d build/SAMD21_IOT_WG_ICM42688/debug/_ext/1341251756/Icm426xxDriver_HL_apex.o
 .debug_loc     0x0000000000000000     0x1d25 build/SAMD21_IOT_WG_ICM42688/debug/_ext/1341251756/Icm426xxDriver_HL_apex.o
 .debug_aranges
                0x0000000000000000       0x20 build/SAMD21_IOT_WG_ICM42688/debug/_ext/1341251756/Icm426xxDriver_HL_apex.o
 .debug_ranges  0x0000000000000000       0x30 build/SAMD21_IOT_WG_ICM42688/debug/_ext/1341251756/Icm426xxDriver_HL_apex.o
 .debug_line    0x0000000000000000     0x10ab build/SAMD21_IOT_WG_ICM42688/debug/_ext/1341251756/Icm426xxDriver_HL_apex.o
 .debug_str     0x0000000000000000     0x2bd8 build/SAMD21_IOT_WG_ICM42688/debug/_ext/1341251756/Icm426xxDriver_HL_apex.o
 .comment       0x0000000000000000       0x2c build/SAMD21_IOT_WG_ICM42688/debug/_ext/1341251756/Icm426xxDriver_HL_apex.o
 .debug_frame   0x0000000000000000      0x3c8 build/SAMD21_IOT_WG_ICM42688/debug/_ext/1341251756/Icm426xxDriver_HL_apex.o
 .ARM.attributes
                0x0000000000000000       0x2c build/SAMD21_IOT_WG_ICM42688/debug/_ext/1341251756/Icm426xxDriver_HL_apex.o
 .text          0x0000000000000000      0xa4c build/SAMD21_IOT_WG_ICM42688/debug/_ext/1341251756/Icm426xxSelfTest.o
 .data          0x0000000000000000        0x0 build/SAMD21_IOT_WG_ICM42688/debug/_ext/1341251756/Icm426xxSelfTest.o
 .bss           0x0000000000000000        0x0 build/SAMD21_IOT_WG_ICM42688/debug/_ext/1341251756/Icm426xxSelfTest.o
 .debug_info    0x0000000000000000     0x1ae7 build/SAMD21_IOT_WG_ICM42688/debug/_ext/1341251756/Icm426xxSelfTest.o
 .debug_abbrev  0x0000000000000000      0x3f3 build/SAMD21_IOT_WG_ICM42688/debug/_ext/1341251756/Icm426xxSelfTest.o
 .debug_loc     0x0000000000000000     0x1352 build/SAMD21_IOT_WG_ICM42688/debug/_ext/1341251756/Icm426xxSelfTest.o
 .debug_aranges
                0x0000000000000000       0x20 build/SAMD21_IOT_WG_ICM42688/debug/_ext/1341251756/Icm426xxSelfTest.o
 .debug_ranges  0x0000000000000000      0x120 build/SAMD21_IOT_WG_ICM42688/debug/_ext/1341251756/Icm426xxSelfTest.o
 .debug_line    0x0000000000000000      0xb01 build/SAMD21_IOT_WG_ICM42688/debug/_ext/1341251756/Icm426xxSelfTest.o
 .debug_str     0x0000000000000000     0x1560 build/SAMD21_IOT_WG_ICM42688/debug/_ext/1341251756/Icm426xxSelfTest.o
 .comment       0x0000000000000000       0x2c build/SAMD21_IOT_WG_ICM42688/debug/_ext/1341251756/Icm426xxSelfTest.o
 .debug_frame   0x0000000000000000       0xc0 build/SAMD21_IOT_WG_ICM42688/debug/_ext/1341251756/Icm426xxSelfTest.o
 .ARM.attributes
                0x0000000000000000       0x2c build/SAMD21_IOT_WG_ICM42688/debug/_ext/1341251756/Icm426xxSelfTest.o
 .data          0x0000000000000000        0x0 build/SAMD21_IOT_WG_ICM42688/debug/_ext/1341251756/Icm426xxTransport.o
 .bss           0x0000000000000000        0x0 build/SAMD21_IOT_WG_ICM42688/debug/_ext/1341251756/Icm426xxTransport.o
 .text          0x0000000000000000       0x54 build/SAMD21_IOT_WG_ICM42688/debug/_ext/596309756/array_contains.o
 .data          0x0000000000000000        0x0 build/SAMD21_IOT_WG_ICM42688/debug/_ext/596309756/array_contains.o
 .bss           0x0000000000000000        0x0 build/SAMD21_IOT_WG_ICM42688/debug/_ext/596309756/array_contains.o
 .debug_info    0x0000000000000000      0x172 build/SAMD21_IOT_WG_ICM42688/debug/_ext/596309756/array_contains.o
 .debug_abbrev  0x0000000000000000       0xb5 build/SAMD21_IOT_WG_ICM42688/debug/_ext/596309756/array_contains.o
 .debug_loc     0x0000000000000000      0x1c1 build/SAMD21_IOT_WG_ICM42688/debug/_ext/596309756/array_contains.o
 .debug_aranges
                0x0000000000000000       0x20 build/SAMD21_IOT_WG_ICM42688/debug/_ext/596309756/array_contains.o
 .debug_line    0x0000000000000000      0x10f build/SAMD21_IOT_WG_ICM42688/debug/_ext/596309756/array_contains.o
 .debug_str     0x0000000000000000      0x2e4 build/SAMD21_IOT_WG_ICM42688/debug/_ext/596309756/array_contains.o
 .comment       0x0000000000000000       0x2c build/SAMD21_IOT_WG_ICM42688/debug/_ext/596309756/array_contains.o
 .debug_frame   0x0000000000000000       0x38 build/SAMD21_IOT_WG_ICM42688/debug/_ext/596309756/array_contains.o
 .ARM.attributes
                0x0000000000000000       0x2c build/SAMD21_IOT_WG_ICM42688/debug/_ext/596309756/array_contains.o
 .text          0x0000000000000000      0x128 build/SAMD21_IOT_WG_ICM42688/debug/_ext/596309756/calc_area.o
 .data          0x0000000000000000        0x0 build/SAMD21_IOT_WG_ICM42688/debug/_ext/596309756/calc_area.o
 .bss           0x0000000000000000        0x0 build/SAMD21_IOT_WG_ICM42688/debug/_ext/596309756/calc_area.o
 .debug_info    0x0000000000000000      0x2ee build/SAMD21_IOT_WG_ICM42688/debug/_ext/596309756/calc_area.o
 .debug_abbrev  0x0000000000000000      0x137 build/SAMD21_IOT_WG_ICM42688/debug/_ext/596309756/calc_area.o
 .debug_loc     0x0000000000000000      0x3e1 build/SAMD21_IOT_WG_ICM42688/debug/_ext/596309756/calc_area.o
 .debug_aranges
                0x0000000000000000       0x20 build/SAMD21_IOT_WG_ICM42688/debug/_ext/596309756/calc_area.o
 .debug_ranges  0x0000000000000000       0x20 build/SAMD21_IOT_WG_ICM42688/debug/_ext/596309756/calc_area.o
 .debug_line    0x0000000000000000      0x1d2 build/SAMD21_IOT_WG_ICM42688/debug/_ext/596309756/calc_area.o
 .debug_str     0x0000000000000000      0x382 build/SAMD21_IOT_WG_ICM42688/debug/_ext/596309756/calc_area.o
 .comment       0x0000000000000000       0x2c build/SAMD21_IOT_WG_ICM42688/debug/_ext/596309756/calc_area.o
 .debug_frame   0x0000000000000000       0x3c build/SAMD21_IOT_WG_ICM42688/debug/_ext/596309756/calc_area.o
 .ARM.attributes
                0x0000000000000000       0x2c build/SAMD21_IOT_WG_ICM42688/debug/_ext/596309756/calc_area.o
 .text          0x0000000000000000       0x70 build/SAMD21_IOT_WG_ICM42688/debug/_ext/596309756/column_to_row_complex.o
 .data          0x0000000000000000        0x0 build/SAMD21_IOT_WG_ICM42688/debug/_ext/596309756/column_to_row_complex.o
 .bss           0x0000000000000000        0x0 build/SAMD21_IOT_WG_ICM42688/debug/_ext/596309756/column_to_row_complex.o
 .debug_info    0x0000000000000000      0x230 build/SAMD21_IOT_WG_ICM42688/debug/_ext/596309756/column_to_row_complex.o
 .debug_abbrev  0x0000000000000000       0xff build/SAMD21_IOT_WG_ICM42688/debug/_ext/596309756/column_to_row_complex.o
 .debug_loc     0x0000000000000000      0x1b4 build/SAMD21_IOT_WG_ICM42688/debug/_ext/596309756/column_to_row_complex.o
 .debug_aranges
                0x0000000000000000       0x20 build/SAMD21_IOT_WG_ICM42688/debug/_ext/596309756/column_to_row_complex.o
 .debug_line    0x0000000000000000      0x133 build/SAMD21_IOT_WG_ICM42688/debug/_ext/596309756/column_to_row_complex.o
 .debug_str     0x0000000000000000      0x331 build/SAMD21_IOT_WG_ICM42688/debug/_ext/596309756/column_to_row_complex.o
 .comment       0x0000000000000000       0x2c build/SAMD21_IOT_WG_ICM42688/debug/_ext/596309756/column_to_row_complex.o
 .debug_frame   0x0000000000000000       0x38 build/SAMD21_IOT_WG_ICM42688/debug/_ext/596309756/column_to_row_complex.o
 .ARM.attributes
                0x0000000000000000       0x2c build/SAMD21_IOT_WG_ICM42688/debug/_ext/596309756/column_to_row_complex.o
 .text          0x0000000000000000      0x168 build/SAMD21_IOT_WG_ICM42688/debug/_ext/596309756/crossing_rate.o
 .data          0x0000000000000000        0x0 build/SAMD21_IOT_WG_ICM42688/debug/_ext/596309756/crossing_rate.o
 .bss           0x0000000000000000        0x0 build/SAMD21_IOT_WG_ICM42688/debug/_ext/596309756/crossing_rate.o
 .debug_info    0x0000000000000000      0x545 build/SAMD21_IOT_WG_ICM42688/debug/_ext/596309756/crossing_rate.o
 .debug_abbrev  0x0000000000000000       0xe8 build/SAMD21_IOT_WG_ICM42688/debug/_ext/596309756/crossing_rate.o
 .debug_loc     0x0000000000000000      0x877 build/SAMD21_IOT_WG_ICM42688/debug/_ext/596309756/crossing_rate.o
 .debug_aranges
                0x0000000000000000       0x20 build/SAMD21_IOT_WG_ICM42688/debug/_ext/596309756/crossing_rate.o
 .debug_ranges  0x0000000000000000       0xa0 build/SAMD21_IOT_WG_ICM42688/debug/_ext/596309756/crossing_rate.o
 .debug_line    0x0000000000000000      0x2ca build/SAMD21_IOT_WG_ICM42688/debug/_ext/596309756/crossing_rate.o
 .debug_str     0x0000000000000000      0x445 build/SAMD21_IOT_WG_ICM42688/debug/_ext/596309756/crossing_rate.o
 .comment       0x0000000000000000       0x2c build/SAMD21_IOT_WG_ICM42688/debug/_ext/596309756/crossing_rate.o
 .debug_frame   0x0000000000000000       0xc8 build/SAMD21_IOT_WG_ICM42688/debug/_ext/596309756/crossing_rate.o
 .ARM.attributes
                0x0000000000000000       0x2c build/SAMD21_IOT_WG_ICM42688/debug/_ext/596309756/crossing_rate.o
 .text          0x0000000000000000       0x10 build/SAMD21_IOT_WG_ICM42688/debug/_ext/596309756/dsp_dtw_distance.o
 .data          0x0000000000000000        0x0 build/SAMD21_IOT_WG_ICM42688/debug/_ext/596309756/dsp_dtw_distance.o
 .bss           0x0000000000000000        0x0 build/SAMD21_IOT_WG_ICM42688/debug/_ext/596309756/dsp_dtw_distance.o
 .debug_info    0x0000000000000000      0x1ab build/SAMD21_IOT_WG_ICM42688/debug/_ext/596309756/dsp_dtw_distance.o
 .debug_abbrev  0x0000000000000000       0xef build/SAMD21_IOT_WG_ICM42688/debug/_ext/596309756/dsp_dtw_distance.o
 .debug_loc     0x0000000000000000       0x25 build/SAMD21_IOT_WG_ICM42688/debug/_ext/596309756/dsp_dtw_distance.o
 .debug_aranges
                0x0000000000000000       0x20 build/SAMD21_IOT_WG_ICM42688/debug/_ext/596309756/dsp_dtw_distance.o
 .debug_line    0x0000000000000000       0xba build/SAMD21_IOT_WG_ICM42688/debug/_ext/596309756/dsp_dtw_distance.o
 .debug_str     0x0000000000000000      0x30e build/SAMD21_IOT_WG_ICM42688/debug/_ext/596309756/dsp_dtw_distance.o
 .comment       0x0000000000000000       0x2c build/SAMD21_IOT_WG_ICM42688/debug/_ext/596309756/dsp_dtw_distance.o
 .debug_frame   0x0000000000000000       0x50 build/SAMD21_IOT_WG_ICM42688/debug/_ext/596309756/dsp_dtw_distance.o
 .ARM.attributes
                0x0000000000000000       0x2c build/SAMD21_IOT_WG_ICM42688/debug/_ext/596309756/dsp_dtw_distance.o
 .text          0x0000000000000000       0x34 build/SAMD21_IOT_WG_ICM42688/debug/_ext/596309756/dsp_l1_distance.o
 .data          0x0000000000000000        0x0 build/SAMD21_IOT_WG_ICM42688/debug/_ext/596309756/dsp_l1_distance.o
 .bss           0x0000000000000000        0x0 build/SAMD21_IOT_WG_ICM42688/debug/_ext/596309756/dsp_l1_distance.o
 .debug_info    0x0000000000000000      0x160 build/SAMD21_IOT_WG_ICM42688/debug/_ext/596309756/dsp_l1_distance.o
 .debug_abbrev  0x0000000000000000       0xc8 build/SAMD21_IOT_WG_ICM42688/debug/_ext/596309756/dsp_l1_distance.o
 .debug_loc     0x0000000000000000      0x180 build/SAMD21_IOT_WG_ICM42688/debug/_ext/596309756/dsp_l1_distance.o
 .debug_aranges
                0x0000000000000000       0x20 build/SAMD21_IOT_WG_ICM42688/debug/_ext/596309756/dsp_l1_distance.o
 .debug_line    0x0000000000000000       0xfd build/SAMD21_IOT_WG_ICM42688/debug/_ext/596309756/dsp_l1_distance.o
 .debug_str     0x0000000000000000      0x2e1 build/SAMD21_IOT_WG_ICM42688/debug/_ext/596309756/dsp_l1_distance.o
 .comment       0x0000000000000000       0x2c build/SAMD21_IOT_WG_ICM42688/debug/_ext/596309756/dsp_l1_distance.o
 .debug_frame   0x0000000000000000       0x34 build/SAMD21_IOT_WG_ICM42688/debug/_ext/596309756/dsp_l1_distance.o
 .ARM.attributes
                0x0000000000000000       0x2c build/SAMD21_IOT_WG_ICM42688/debug/_ext/596309756/dsp_l1_distance.o
 .text          0x0000000000000000       0x4c build/SAMD21_IOT_WG_ICM42688/debug/_ext/596309756/dsp_lsup_distance.o
 .data          0x0000000000000000        0x0 build/SAMD21_IOT_WG_ICM42688/debug/_ext/596309756/dsp_lsup_distance.o
 .bss           0x0000000000000000        0x0 build/SAMD21_IOT_WG_ICM42688/debug/_ext/596309756/dsp_lsup_distance.o
 .debug_info    0x0000000000000000      0x184 build/SAMD21_IOT_WG_ICM42688/debug/_ext/596309756/dsp_lsup_distance.o
 .debug_abbrev  0x0000000000000000       0xf0 build/SAMD21_IOT_WG_ICM42688/debug/_ext/596309756/dsp_lsup_distance.o
 .debug_loc     0x0000000000000000      0x180 build/SAMD21_IOT_WG_ICM42688/debug/_ext/596309756/dsp_lsup_distance.o
 .debug_aranges
                0x0000000000000000       0x20 build/SAMD21_IOT_WG_ICM42688/debug/_ext/596309756/dsp_lsup_distance.o
 .debug_line    0x0000000000000000      0x103 build/SAMD21_IOT_WG_ICM42688/debug/_ext/596309756/dsp_lsup_distance.o
 .debug_str     0x0000000000000000      0x2fe build/SAMD21_IOT_WG_ICM42688/debug/_ext/596309756/dsp_lsup_distance.o
 .comment       0x0000000000000000       0x2c build/SAMD21_IOT_WG_ICM42688/debug/_ext/596309756/dsp_lsup_distance.o
 .debug_frame   0x0000000000000000       0x38 build/SAMD21_IOT_WG_ICM42688/debug/_ext/596309756/dsp_lsup_distance.o
 .ARM.attributes
                0x0000000000000000       0x2c build/SAMD21_IOT_WG_ICM42688/debug/_ext/596309756/dsp_lsup_distance.o
 .text          0x0000000000000000      0x218 build/SAMD21_IOT_WG_ICM42688/debug/_ext/596309756/fftr.o
 .data          0x0000000000000000        0x0 build/SAMD21_IOT_WG_ICM42688/debug/_ext/596309756/fftr.o
 .bss           0x0000000000000000        0x0 build/SAMD21_IOT_WG_ICM42688/debug/_ext/596309756/fftr.o
 .rodata        0x0000000000000000      0x400 build/SAMD21_IOT_WG_ICM42688/debug/_ext/596309756/fftr.o
 .debug_info    0x0000000000000000      0x697 build/SAMD21_IOT_WG_ICM42688/debug/_ext/596309756/fftr.o
 .debug_abbrev  0x0000000000000000      0x202 build/SAMD21_IOT_WG_ICM42688/debug/_ext/596309756/fftr.o
 .debug_loc     0x0000000000000000      0x69c build/SAMD21_IOT_WG_ICM42688/debug/_ext/596309756/fftr.o
 .debug_aranges
                0x0000000000000000       0x20 build/SAMD21_IOT_WG_ICM42688/debug/_ext/596309756/fftr.o
 .debug_ranges  0x0000000000000000      0x1c0 build/SAMD21_IOT_WG_ICM42688/debug/_ext/596309756/fftr.o
 .debug_line    0x0000000000000000      0x343 build/SAMD21_IOT_WG_ICM42688/debug/_ext/596309756/fftr.o
 .debug_str     0x0000000000000000      0x3e2 build/SAMD21_IOT_WG_ICM42688/debug/_ext/596309756/fftr.o
 .comment       0x0000000000000000       0x2c build/SAMD21_IOT_WG_ICM42688/debug/_ext/596309756/fftr.o
 .debug_frame   0x0000000000000000       0x4c build/SAMD21_IOT_WG_ICM42688/debug/_ext/596309756/fftr.o
 .ARM.attributes
                0x0000000000000000       0x2c build/SAMD21_IOT_WG_ICM42688/debug/_ext/596309756/fftr.o
 .text          0x0000000000000000      0x1c4 build/SAMD21_IOT_WG_ICM42688/debug/_ext/596309756/fftr_utils.o
 .data          0x0000000000000000        0x0 build/SAMD21_IOT_WG_ICM42688/debug/_ext/596309756/fftr_utils.o
 .bss           0x0000000000000000        0x2 build/SAMD21_IOT_WG_ICM42688/debug/_ext/596309756/fftr_utils.o
 .debug_info    0x0000000000000000      0x56e build/SAMD21_IOT_WG_ICM42688/debug/_ext/596309756/fftr_utils.o
 .debug_abbrev  0x0000000000000000      0x1b1 build/SAMD21_IOT_WG_ICM42688/debug/_ext/596309756/fftr_utils.o
 .debug_loc     0x0000000000000000      0x497 build/SAMD21_IOT_WG_ICM42688/debug/_ext/596309756/fftr_utils.o
 .debug_aranges
                0x0000000000000000       0x20 build/SAMD21_IOT_WG_ICM42688/debug/_ext/596309756/fftr_utils.o
 .debug_line    0x0000000000000000      0x2dc build/SAMD21_IOT_WG_ICM42688/debug/_ext/596309756/fftr_utils.o
 .debug_str     0x0000000000000000      0x3b8 build/SAMD21_IOT_WG_ICM42688/debug/_ext/596309756/fftr_utils.o
 .comment       0x0000000000000000       0x2c build/SAMD21_IOT_WG_ICM42688/debug/_ext/596309756/fftr_utils.o
 .debug_frame   0x0000000000000000       0xb4 build/SAMD21_IOT_WG_ICM42688/debug/_ext/596309756/fftr_utils.o
 .ARM.attributes
                0x0000000000000000       0x2c build/SAMD21_IOT_WG_ICM42688/debug/_ext/596309756/fftr_utils.o
 .text          0x0000000000000000       0x5c build/SAMD21_IOT_WG_ICM42688/debug/_ext/596309756/fg_amplitude_global_p2p_low_frequency.o
 .data          0x0000000000000000        0x0 build/SAMD21_IOT_WG_ICM42688/debug/_ext/596309756/fg_amplitude_global_p2p_low_frequency.o
 .bss           0x0000000000000000        0x0 build/SAMD21_IOT_WG_ICM42688/debug/_ext/596309756/fg_amplitude_global_p2p_low_frequency.o
 .debug_info    0x0000000000000000      0x6f7 build/SAMD21_IOT_WG_ICM42688/debug/_ext/596309756/fg_amplitude_global_p2p_low_frequency.o
 .debug_abbrev  0x0000000000000000      0x152 build/SAMD21_IOT_WG_ICM42688/debug/_ext/596309756/fg_amplitude_global_p2p_low_frequency.o
 .debug_loc     0x0000000000000000      0x138 build/SAMD21_IOT_WG_ICM42688/debug/_ext/596309756/fg_amplitude_global_p2p_low_frequency.o
 .debug_aranges
                0x0000000000000000       0x20 build/SAMD21_IOT_WG_ICM42688/debug/_ext/596309756/fg_amplitude_global_p2p_low_frequency.o
 .debug_line    0x0000000000000000      0x138 build/SAMD21_IOT_WG_ICM42688/debug/_ext/596309756/fg_amplitude_global_p2p_low_frequency.o
 .debug_str     0x0000000000000000      0x75e build/SAMD21_IOT_WG_ICM42688/debug/_ext/596309756/fg_amplitude_global_p2p_low_frequency.o
 .comment       0x0000000000000000       0x2c build/SAMD21_IOT_WG_ICM42688/debug/_ext/596309756/fg_amplitude_global_p2p_low_frequency.o
 .debug_frame   0x0000000000000000       0x38 build/SAMD21_IOT_WG_ICM42688/debug/_ext/596309756/fg_amplitude_global_p2p_low_frequency.o
 .ARM.attributes
                0x0000000000000000       0x2c build/SAMD21_IOT_WG_ICM42688/debug/_ext/596309756/fg_amplitude_global_p2p_low_frequency.o
 .text          0x0000000000000000       0x60 build/SAMD21_IOT_WG_ICM42688/debug/_ext/596309756/fg_amplitude_peak_to_peak.o
 .data          0x0000000000000000        0x0 build/SAMD21_IOT_WG_ICM42688/debug/_ext/596309756/fg_amplitude_peak_to_peak.o
 .bss           0x0000000000000000        0x0 build/SAMD21_IOT_WG_ICM42688/debug/_ext/596309756/fg_amplitude_peak_to_peak.o
 .debug_info    0x0000000000000000      0x6a7 build/SAMD21_IOT_WG_ICM42688/debug/_ext/596309756/fg_amplitude_peak_to_peak.o
 .debug_abbrev  0x0000000000000000      0x131 build/SAMD21_IOT_WG_ICM42688/debug/_ext/596309756/fg_amplitude_peak_to_peak.o
 .debug_loc     0x0000000000000000      0x12f build/SAMD21_IOT_WG_ICM42688/debug/_ext/596309756/fg_amplitude_peak_to_peak.o
 .debug_aranges
                0x0000000000000000       0x20 build/SAMD21_IOT_WG_ICM42688/debug/_ext/596309756/fg_amplitude_peak_to_peak.o
 .debug_line    0x0000000000000000      0x12e build/SAMD21_IOT_WG_ICM42688/debug/_ext/596309756/fg_amplitude_peak_to_peak.o
 .debug_str     0x0000000000000000      0x659 build/SAMD21_IOT_WG_ICM42688/debug/_ext/596309756/fg_amplitude_peak_to_peak.o
 .comment       0x0000000000000000       0x2c build/SAMD21_IOT_WG_ICM42688/debug/_ext/596309756/fg_amplitude_peak_to_peak.o
 .debug_frame   0x0000000000000000       0x38 build/SAMD21_IOT_WG_ICM42688/debug/_ext/596309756/fg_amplitude_peak_to_peak.o
 .ARM.attributes
                0x0000000000000000       0x2c build/SAMD21_IOT_WG_ICM42688/debug/_ext/596309756/fg_amplitude_peak_to_peak.o
 .text          0x0000000000000000       0x98 build/SAMD21_IOT_WG_ICM42688/debug/_ext/596309756/fg_area_absolute_area_low_frequency.o
 .data          0x0000000000000000        0x0 build/SAMD21_IOT_WG_ICM42688/debug/_ext/596309756/fg_area_absolute_area_low_frequency.o
 .bss           0x0000000000000000        0x0 build/SAMD21_IOT_WG_ICM42688/debug/_ext/596309756/fg_area_absolute_area_low_frequency.o
 .debug_info    0x0000000000000000      0x713 build/SAMD21_IOT_WG_ICM42688/debug/_ext/596309756/fg_area_absolute_area_low_frequency.o
 .debug_abbrev  0x0000000000000000      0x13e build/SAMD21_IOT_WG_ICM42688/debug/_ext/596309756/fg_area_absolute_area_low_frequency.o
 .debug_loc     0x0000000000000000      0x1ca build/SAMD21_IOT_WG_ICM42688/debug/_ext/596309756/fg_area_absolute_area_low_frequency.o
 .debug_aranges
                0x0000000000000000       0x20 build/SAMD21_IOT_WG_ICM42688/debug/_ext/596309756/fg_area_absolute_area_low_frequency.o
 .debug_line    0x0000000000000000      0x15a build/SAMD21_IOT_WG_ICM42688/debug/_ext/596309756/fg_area_absolute_area_low_frequency.o
 .debug_str     0x0000000000000000      0x76f build/SAMD21_IOT_WG_ICM42688/debug/_ext/596309756/fg_area_absolute_area_low_frequency.o
 .comment       0x0000000000000000       0x2c build/SAMD21_IOT_WG_ICM42688/debug/_ext/596309756/fg_area_absolute_area_low_frequency.o
 .debug_frame   0x0000000000000000       0x3c build/SAMD21_IOT_WG_ICM42688/debug/_ext/596309756/fg_area_absolute_area_low_frequency.o
 .ARM.attributes
                0x0000000000000000       0x2c build/SAMD21_IOT_WG_ICM42688/debug/_ext/596309756/fg_area_absolute_area_low_frequency.o
 .text          0x0000000000000000       0x10 build/SAMD21_IOT_WG_ICM42688/debug/_ext/596309756/fg_cross_p2p_difference.o
 .data          0x0000000000000000        0x0 build/SAMD21_IOT_WG_ICM42688/debug/_ext/596309756/fg_cross_p2p_difference.o
 .bss           0x0000000000000000        0x0 build/SAMD21_IOT_WG_ICM42688/debug/_ext/596309756/fg_cross_p2p_difference.o
 .debug_info    0x0000000000000000      0x685 build/SAMD21_IOT_WG_ICM42688/debug/_ext/596309756/fg_cross_p2p_difference.o
 .debug_abbrev  0x0000000000000000      0x10c build/SAMD21_IOT_WG_ICM42688/debug/_ext/596309756/fg_cross_p2p_difference.o
 .debug_loc     0x0000000000000000       0xc0 build/SAMD21_IOT_WG_ICM42688/debug/_ext/596309756/fg_cross_p2p_difference.o
 .debug_aranges
                0x0000000000000000       0x20 build/SAMD21_IOT_WG_ICM42688/debug/_ext/596309756/fg_cross_p2p_difference.o
 .debug_line    0x0000000000000000       0xf7 build/SAMD21_IOT_WG_ICM42688/debug/_ext/596309756/fg_cross_p2p_difference.o
 .debug_str     0x0000000000000000      0x665 build/SAMD21_IOT_WG_ICM42688/debug/_ext/596309756/fg_cross_p2p_difference.o
 .comment       0x0000000000000000       0x2c build/SAMD21_IOT_WG_ICM42688/debug/_ext/596309756/fg_cross_p2p_difference.o
 .debug_frame   0x0000000000000000       0x2c build/SAMD21_IOT_WG_ICM42688/debug/_ext/596309756/fg_cross_p2p_difference.o
 .ARM.attributes
                0x0000000000000000       0x2c build/SAMD21_IOT_WG_ICM42688/debug/_ext/596309756/fg_cross_p2p_difference.o
 .text          0x0000000000000000       0xc4 build/SAMD21_IOT_WG_ICM42688/debug/_ext/596309756/fg_sampling_downsample.o
 .data          0x0000000000000000        0x0 build/SAMD21_IOT_WG_ICM42688/debug/_ext/596309756/fg_sampling_downsample.o
 .bss           0x0000000000000000        0x0 build/SAMD21_IOT_WG_ICM42688/debug/_ext/596309756/fg_sampling_downsample.o
 .debug_info    0x0000000000000000      0x6fd build/SAMD21_IOT_WG_ICM42688/debug/_ext/596309756/fg_sampling_downsample.o
 .debug_abbrev  0x0000000000000000      0x134 build/SAMD21_IOT_WG_ICM42688/debug/_ext/596309756/fg_sampling_downsample.o
 .debug_loc     0x0000000000000000      0x2f7 build/SAMD21_IOT_WG_ICM42688/debug/_ext/596309756/fg_sampling_downsample.o
 .debug_aranges
                0x0000000000000000       0x20 build/SAMD21_IOT_WG_ICM42688/debug/_ext/596309756/fg_sampling_downsample.o
 .debug_line    0x0000000000000000      0x18f build/SAMD21_IOT_WG_ICM42688/debug/_ext/596309756/fg_sampling_downsample.o
 .debug_str     0x0000000000000000      0x66e build/SAMD21_IOT_WG_ICM42688/debug/_ext/596309756/fg_sampling_downsample.o
 .comment       0x0000000000000000       0x2c build/SAMD21_IOT_WG_ICM42688/debug/_ext/596309756/fg_sampling_downsample.o
 .debug_frame   0x0000000000000000       0x3c build/SAMD21_IOT_WG_ICM42688/debug/_ext/596309756/fg_sampling_downsample.o
 .ARM.attributes
                0x0000000000000000       0x2c build/SAMD21_IOT_WG_ICM42688/debug/_ext/596309756/fg_sampling_downsample.o
 .text          0x0000000000000000       0x7c build/SAMD21_IOT_WG_ICM42688/debug/_ext/596309756/fg_stats_abs_mean.o
 .data          0x0000000000000000        0x0 build/SAMD21_IOT_WG_ICM42688/debug/_ext/596309756/fg_stats_abs_mean.o
 .bss           0x0000000000000000        0x0 build/SAMD21_IOT_WG_ICM42688/debug/_ext/596309756/fg_stats_abs_mean.o
 .debug_info    0x0000000000000000      0x6a0 build/SAMD21_IOT_WG_ICM42688/debug/_ext/596309756/fg_stats_abs_mean.o
 .debug_abbrev  0x0000000000000000      0x134 build/SAMD21_IOT_WG_ICM42688/debug/_ext/596309756/fg_stats_abs_mean.o
 .debug_loc     0x0000000000000000      0x188 build/SAMD21_IOT_WG_ICM42688/debug/_ext/596309756/fg_stats_abs_mean.o
 .debug_aranges
                0x0000000000000000       0x20 build/SAMD21_IOT_WG_ICM42688/debug/_ext/596309756/fg_stats_abs_mean.o
 .debug_line    0x0000000000000000      0x147 build/SAMD21_IOT_WG_ICM42688/debug/_ext/596309756/fg_stats_abs_mean.o
 .debug_str     0x0000000000000000      0x65f build/SAMD21_IOT_WG_ICM42688/debug/_ext/596309756/fg_stats_abs_mean.o
 .comment       0x0000000000000000       0x2c build/SAMD21_IOT_WG_ICM42688/debug/_ext/596309756/fg_stats_abs_mean.o
 .debug_frame   0x0000000000000000       0x34 build/SAMD21_IOT_WG_ICM42688/debug/_ext/596309756/fg_stats_abs_mean.o
 .ARM.attributes
                0x0000000000000000       0x2c build/SAMD21_IOT_WG_ICM42688/debug/_ext/596309756/fg_stats_abs_mean.o
 .text          0x0000000000000000       0x10 build/SAMD21_IOT_WG_ICM42688/debug/_ext/596309756/fg_stats_minimum.o
 .data          0x0000000000000000        0x0 build/SAMD21_IOT_WG_ICM42688/debug/_ext/596309756/fg_stats_minimum.o
 .bss           0x0000000000000000        0x0 build/SAMD21_IOT_WG_ICM42688/debug/_ext/596309756/fg_stats_minimum.o
 .debug_info    0x0000000000000000      0x685 build/SAMD21_IOT_WG_ICM42688/debug/_ext/596309756/fg_stats_minimum.o
 .debug_abbrev  0x0000000000000000      0x10c build/SAMD21_IOT_WG_ICM42688/debug/_ext/596309756/fg_stats_minimum.o
 .debug_loc     0x0000000000000000       0xc0 build/SAMD21_IOT_WG_ICM42688/debug/_ext/596309756/fg_stats_minimum.o
 .debug_aranges
                0x0000000000000000       0x20 build/SAMD21_IOT_WG_ICM42688/debug/_ext/596309756/fg_stats_minimum.o
 .debug_line    0x0000000000000000       0xf0 build/SAMD21_IOT_WG_ICM42688/debug/_ext/596309756/fg_stats_minimum.o
 .debug_str     0x0000000000000000      0x64d build/SAMD21_IOT_WG_ICM42688/debug/_ext/596309756/fg_stats_minimum.o
 .comment       0x0000000000000000       0x2c build/SAMD21_IOT_WG_ICM42688/debug/_ext/596309756/fg_stats_minimum.o
 .debug_frame   0x0000000000000000       0x2c build/SAMD21_IOT_WG_ICM42688/debug/_ext/596309756/fg_stats_minimum.o
 .ARM.attributes
                0x0000000000000000       0x2c build/SAMD21_IOT_WG_ICM42688/debug/_ext/596309756/fg_stats_minimum.o
 .text          0x0000000000000000       0x90 build/SAMD21_IOT_WG_ICM42688/debug/_ext/596309756/fixlog.o
 .data          0x0000000000000000        0x0 build/SAMD21_IOT_WG_ICM42688/debug/_ext/596309756/fixlog.o
 .bss           0x0000000000000000        0x0 build/SAMD21_IOT_WG_ICM42688/debug/_ext/596309756/fixlog.o
 .rodata        0x0000000000000000      0x6c0 build/SAMD21_IOT_WG_ICM42688/debug/_ext/596309756/fixlog.o
 .debug_info    0x0000000000000000      0x2b2 build/SAMD21_IOT_WG_ICM42688/debug/_ext/596309756/fixlog.o
 .debug_abbrev  0x0000000000000000      0x1f1 build/SAMD21_IOT_WG_ICM42688/debug/_ext/596309756/fixlog.o
 .debug_loc     0x0000000000000000      0x1f9 build/SAMD21_IOT_WG_ICM42688/debug/_ext/596309756/fixlog.o
 .debug_aranges
                0x0000000000000000       0x20 build/SAMD21_IOT_WG_ICM42688/debug/_ext/596309756/fixlog.o
 .debug_line    0x0000000000000000      0x17e build/SAMD21_IOT_WG_ICM42688/debug/_ext/596309756/fixlog.o
 .debug_str     0x0000000000000000      0x306 build/SAMD21_IOT_WG_ICM42688/debug/_ext/596309756/fixlog.o
 .comment       0x0000000000000000       0x2c build/SAMD21_IOT_WG_ICM42688/debug/_ext/596309756/fixlog.o
 .debug_frame   0x0000000000000000       0x70 build/SAMD21_IOT_WG_ICM42688/debug/_ext/596309756/fixlog.o
 .ARM.attributes
                0x0000000000000000       0x2c build/SAMD21_IOT_WG_ICM42688/debug/_ext/596309756/fixlog.o
 .text          0x0000000000000000      0x4b0 build/SAMD21_IOT_WG_ICM42688/debug/_ext/596309756/imfcc.o
 .data          0x0000000000000000        0x0 build/SAMD21_IOT_WG_ICM42688/debug/_ext/596309756/imfcc.o
 .bss           0x0000000000000000        0x0 build/SAMD21_IOT_WG_ICM42688/debug/_ext/596309756/imfcc.o
 .rodata        0x0000000000000000      0x9d4 build/SAMD21_IOT_WG_ICM42688/debug/_ext/596309756/imfcc.o
 .debug_info    0x0000000000000000      0x9ce build/SAMD21_IOT_WG_ICM42688/debug/_ext/596309756/imfcc.o
 .debug_abbrev  0x0000000000000000      0x28e build/SAMD21_IOT_WG_ICM42688/debug/_ext/596309756/imfcc.o
 .debug_loc     0x0000000000000000      0xea8 build/SAMD21_IOT_WG_ICM42688/debug/_ext/596309756/imfcc.o
 .debug_aranges
                0x0000000000000000       0x20 build/SAMD21_IOT_WG_ICM42688/debug/_ext/596309756/imfcc.o
 .debug_ranges  0x0000000000000000       0x98 build/SAMD21_IOT_WG_ICM42688/debug/_ext/596309756/imfcc.o
 .debug_line    0x0000000000000000      0x514 build/SAMD21_IOT_WG_ICM42688/debug/_ext/596309756/imfcc.o
 .debug_str     0x0000000000000000      0x48a build/SAMD21_IOT_WG_ICM42688/debug/_ext/596309756/imfcc.o
 .comment       0x0000000000000000       0x2c build/SAMD21_IOT_WG_ICM42688/debug/_ext/596309756/imfcc.o
 .debug_frame   0x0000000000000000      0x110 build/SAMD21_IOT_WG_ICM42688/debug/_ext/596309756/imfcc.o
 .ARM.attributes
                0x0000000000000000       0x2c build/SAMD21_IOT_WG_ICM42688/debug/_ext/596309756/imfcc.o
 .text          0x0000000000000000      0xd90 build/SAMD21_IOT_WG_ICM42688/debug/_ext/596309756/kb.o
 .data          0x0000000000000000       0x25 build/SAMD21_IOT_WG_ICM42688/debug/_ext/596309756/kb.o
 .bss           0x0000000000000000      0x478 build/SAMD21_IOT_WG_ICM42688/debug/_ext/596309756/kb.o
 .debug_info    0x0000000000000000     0x31b1 build/SAMD21_IOT_WG_ICM42688/debug/_ext/596309756/kb.o
 .debug_abbrev  0x0000000000000000      0x503 build/SAMD21_IOT_WG_ICM42688/debug/_ext/596309756/kb.o
 .debug_loc     0x0000000000000000     0x261d build/SAMD21_IOT_WG_ICM42688/debug/_ext/596309756/kb.o
 .debug_aranges
                0x0000000000000000       0x20 build/SAMD21_IOT_WG_ICM42688/debug/_ext/596309756/kb.o
 .debug_ranges  0x0000000000000000      0x320 build/SAMD21_IOT_WG_ICM42688/debug/_ext/596309756/kb.o
 .debug_line    0x0000000000000000     0x1551 build/SAMD21_IOT_WG_ICM42688/debug/_ext/596309756/kb.o
 .debug_str     0x0000000000000000     0x10a8 build/SAMD21_IOT_WG_ICM42688/debug/_ext/596309756/kb.o
 .comment       0x0000000000000000       0x2c build/SAMD21_IOT_WG_ICM42688/debug/_ext/596309756/kb.o
 .debug_frame   0x0000000000000000      0x570 build/SAMD21_IOT_WG_ICM42688/debug/_ext/596309756/kb.o
 .ARM.attributes
                0x0000000000000000       0x2c build/SAMD21_IOT_WG_ICM42688/debug/_ext/596309756/kb.o
 .text          0x0000000000000000      0x45c build/SAMD21_IOT_WG_ICM42688/debug/_ext/596309756/kb_output.o
 .data          0x0000000000000000        0x0 build/SAMD21_IOT_WG_ICM42688/debug/_ext/596309756/kb_output.o
 .bss           0x0000000000000000        0x0 build/SAMD21_IOT_WG_ICM42688/debug/_ext/596309756/kb_output.o
 .rodata.str1.4
                0x0000000000000000      0x1dc build/SAMD21_IOT_WG_ICM42688/debug/_ext/596309756/kb_output.o
 .debug_info    0x0000000000000000      0xcdf build/SAMD21_IOT_WG_ICM42688/debug/_ext/596309756/kb_output.o
 .debug_abbrev  0x0000000000000000      0x1cd build/SAMD21_IOT_WG_ICM42688/debug/_ext/596309756/kb_output.o
 .debug_loc     0x0000000000000000      0x953 build/SAMD21_IOT_WG_ICM42688/debug/_ext/596309756/kb_output.o
 .debug_aranges
                0x0000000000000000       0x20 build/SAMD21_IOT_WG_ICM42688/debug/_ext/596309756/kb_output.o
 .debug_ranges  0x0000000000000000       0xb0 build/SAMD21_IOT_WG_ICM42688/debug/_ext/596309756/kb_output.o
 .debug_line    0x0000000000000000      0x48c build/SAMD21_IOT_WG_ICM42688/debug/_ext/596309756/kb_output.o
 .debug_str     0x0000000000000000      0x58d build/SAMD21_IOT_WG_ICM42688/debug/_ext/596309756/kb_output.o
 .comment       0x0000000000000000       0x2c build/SAMD21_IOT_WG_ICM42688/debug/_ext/596309756/kb_output.o
 .debug_frame   0x0000000000000000      0x10c build/SAMD21_IOT_WG_ICM42688/debug/_ext/596309756/kb_output.o
 .ARM.attributes
                0x0000000000000000       0x2c build/SAMD21_IOT_WG_ICM42688/debug/_ext/596309756/kb_output.o
 .text          0x0000000000000000      0x264 build/SAMD21_IOT_WG_ICM42688/debug/_ext/596309756/kb_pipeline.o
 .data          0x0000000000000000       0x70 build/SAMD21_IOT_WG_ICM42688/debug/_ext/596309756/kb_pipeline.o
 .bss           0x0000000000000000       0x3c build/SAMD21_IOT_WG_ICM42688/debug/_ext/596309756/kb_pipeline.o
 .debug_info    0x0000000000000000      0xb6b build/SAMD21_IOT_WG_ICM42688/debug/_ext/596309756/kb_pipeline.o
 .debug_abbrev  0x0000000000000000      0x1b5 build/SAMD21_IOT_WG_ICM42688/debug/_ext/596309756/kb_pipeline.o
 .debug_loc     0x0000000000000000      0x4b3 build/SAMD21_IOT_WG_ICM42688/debug/_ext/596309756/kb_pipeline.o
 .debug_aranges
                0x0000000000000000       0x20 build/SAMD21_IOT_WG_ICM42688/debug/_ext/596309756/kb_pipeline.o
 .debug_line    0x0000000000000000      0x4ba build/SAMD21_IOT_WG_ICM42688/debug/_ext/596309756/kb_pipeline.o
 .debug_str     0x0000000000000000      0x889 build/SAMD21_IOT_WG_ICM42688/debug/_ext/596309756/kb_pipeline.o
 .comment       0x0000000000000000       0x2c build/SAMD21_IOT_WG_ICM42688/debug/_ext/596309756/kb_pipeline.o
 .debug_frame   0x0000000000000000       0xb4 build/SAMD21_IOT_WG_ICM42688/debug/_ext/596309756/kb_pipeline.o
 .ARM.attributes
                0x0000000000000000       0x2c build/SAMD21_IOT_WG_ICM42688/debug/_ext/596309756/kb_pipeline.o
 .text          0x0000000000000000      0x3d4 build/SAMD21_IOT_WG_ICM42688/debug/_ext/596309756/kb_post_processing.o
 .data          0x0000000000000000        0x0 build/SAMD21_IOT_WG_ICM42688/debug/_ext/596309756/kb_post_processing.o
 .bss           0x0000000000000000        0x0 build/SAMD21_IOT_WG_ICM42688/debug/_ext/596309756/kb_post_processing.o
 .debug_info    0x0000000000000000      0xb33 build/SAMD21_IOT_WG_ICM42688/debug/_ext/596309756/kb_post_processing.o
 .debug_abbrev  0x0000000000000000      0x29b build/SAMD21_IOT_WG_ICM42688/debug/_ext/596309756/kb_post_processing.o
 .debug_loc     0x0000000000000000      0xfe1 build/SAMD21_IOT_WG_ICM42688/debug/_ext/596309756/kb_post_processing.o
 .debug_aranges
                0x0000000000000000       0x20 build/SAMD21_IOT_WG_ICM42688/debug/_ext/596309756/kb_post_processing.o
 .debug_ranges  0x0000000000000000      0x210 build/SAMD21_IOT_WG_ICM42688/debug/_ext/596309756/kb_post_processing.o
 .debug_line    0x0000000000000000      0x5df build/SAMD21_IOT_WG_ICM42688/debug/_ext/596309756/kb_post_processing.o
 .debug_str     0x0000000000000000      0x42d build/SAMD21_IOT_WG_ICM42688/debug/_ext/596309756/kb_post_processing.o
 .comment       0x0000000000000000       0x2c build/SAMD21_IOT_WG_ICM42688/debug/_ext/596309756/kb_post_processing.o
 .debug_frame   0x0000000000000000      0x1ac build/SAMD21_IOT_WG_ICM42688/debug/_ext/596309756/kb_post_processing.o
 .ARM.attributes
                0x0000000000000000       0x2c build/SAMD21_IOT_WG_ICM42688/debug/_ext/596309756/kb_post_processing.o
 .text          0x0000000000000000      0x1ec build/SAMD21_IOT_WG_ICM42688/debug/_ext/596309756/max_min_high_low_freq.o
 .data          0x0000000000000000        0x0 build/SAMD21_IOT_WG_ICM42688/debug/_ext/596309756/max_min_high_low_freq.o
 .bss           0x0000000000000000        0x0 build/SAMD21_IOT_WG_ICM42688/debug/_ext/596309756/max_min_high_low_freq.o
 .debug_info    0x0000000000000000      0x324 build/SAMD21_IOT_WG_ICM42688/debug/_ext/596309756/max_min_high_low_freq.o
 .debug_abbrev  0x0000000000000000      0x144 build/SAMD21_IOT_WG_ICM42688/debug/_ext/596309756/max_min_high_low_freq.o
 .debug_loc     0x0000000000000000      0x487 build/SAMD21_IOT_WG_ICM42688/debug/_ext/596309756/max_min_high_low_freq.o
 .debug_aranges
                0x0000000000000000       0x20 build/SAMD21_IOT_WG_ICM42688/debug/_ext/596309756/max_min_high_low_freq.o
 .debug_ranges  0x0000000000000000       0x18 build/SAMD21_IOT_WG_ICM42688/debug/_ext/596309756/max_min_high_low_freq.o
 .debug_line    0x0000000000000000      0x2a6 build/SAMD21_IOT_WG_ICM42688/debug/_ext/596309756/max_min_high_low_freq.o
 .debug_str     0x0000000000000000      0x374 build/SAMD21_IOT_WG_ICM42688/debug/_ext/596309756/max_min_high_low_freq.o
 .comment       0x0000000000000000       0x2c build/SAMD21_IOT_WG_ICM42688/debug/_ext/596309756/max_min_high_low_freq.o
 .debug_frame   0x0000000000000000       0x3c build/SAMD21_IOT_WG_ICM42688/debug/_ext/596309756/max_min_high_low_freq.o
 .ARM.attributes
                0x0000000000000000       0x2c build/SAMD21_IOT_WG_ICM42688/debug/_ext/596309756/max_min_high_low_freq.o
 .text          0x0000000000000000      0x3ac build/SAMD21_IOT_WG_ICM42688/debug/_ext/596309756/ma_symmetric.o
 .data          0x0000000000000000        0x0 build/SAMD21_IOT_WG_ICM42688/debug/_ext/596309756/ma_symmetric.o
 .bss           0x0000000000000000        0x0 build/SAMD21_IOT_WG_ICM42688/debug/_ext/596309756/ma_symmetric.o
 .debug_info    0x0000000000000000      0x8b6 build/SAMD21_IOT_WG_ICM42688/debug/_ext/596309756/ma_symmetric.o
 .debug_abbrev  0x0000000000000000      0x1b5 build/SAMD21_IOT_WG_ICM42688/debug/_ext/596309756/ma_symmetric.o
 .debug_loc     0x0000000000000000     0x1987 build/SAMD21_IOT_WG_ICM42688/debug/_ext/596309756/ma_symmetric.o
 .debug_aranges
                0x0000000000000000       0x20 build/SAMD21_IOT_WG_ICM42688/debug/_ext/596309756/ma_symmetric.o
 .debug_ranges  0x0000000000000000       0x58 build/SAMD21_IOT_WG_ICM42688/debug/_ext/596309756/ma_symmetric.o
 .debug_line    0x0000000000000000      0x42e build/SAMD21_IOT_WG_ICM42688/debug/_ext/596309756/ma_symmetric.o
 .debug_str     0x0000000000000000      0x4f8 build/SAMD21_IOT_WG_ICM42688/debug/_ext/596309756/ma_symmetric.o
 .comment       0x0000000000000000       0x2c build/SAMD21_IOT_WG_ICM42688/debug/_ext/596309756/ma_symmetric.o
 .debug_frame   0x0000000000000000       0x3c build/SAMD21_IOT_WG_ICM42688/debug/_ext/596309756/ma_symmetric.o
 .ARM.attributes
                0x0000000000000000       0x2c build/SAMD21_IOT_WG_ICM42688/debug/_ext/596309756/ma_symmetric.o
 .text          0x0000000000000000       0xb4 build/SAMD21_IOT_WG_ICM42688/debug/_ext/596309756/mean.o
 .data          0x0000000000000000        0x0 build/SAMD21_IOT_WG_ICM42688/debug/_ext/596309756/mean.o
 .bss           0x0000000000000000        0x0 build/SAMD21_IOT_WG_ICM42688/debug/_ext/596309756/mean.o
 .debug_info    0x0000000000000000      0x2c8 build/SAMD21_IOT_WG_ICM42688/debug/_ext/596309756/mean.o
 .debug_abbrev  0x0000000000000000       0xfb build/SAMD21_IOT_WG_ICM42688/debug/_ext/596309756/mean.o
 .debug_loc     0x0000000000000000      0x38e build/SAMD21_IOT_WG_ICM42688/debug/_ext/596309756/mean.o
 .debug_aranges
                0x0000000000000000       0x20 build/SAMD21_IOT_WG_ICM42688/debug/_ext/596309756/mean.o
 .debug_line    0x0000000000000000      0x167 build/SAMD21_IOT_WG_ICM42688/debug/_ext/596309756/mean.o
 .debug_str     0x0000000000000000      0x303 build/SAMD21_IOT_WG_ICM42688/debug/_ext/596309756/mean.o
 .comment       0x0000000000000000       0x2c build/SAMD21_IOT_WG_ICM42688/debug/_ext/596309756/mean.o
 .debug_frame   0x0000000000000000       0x74 build/SAMD21_IOT_WG_ICM42688/debug/_ext/596309756/mean.o
 .ARM.attributes
                0x0000000000000000       0x2c build/SAMD21_IOT_WG_ICM42688/debug/_ext/596309756/mean.o
 .text          0x0000000000000000      0xbd8 build/SAMD21_IOT_WG_ICM42688/debug/_ext/596309756/pme.o
 .data          0x0000000000000000        0x0 build/SAMD21_IOT_WG_ICM42688/debug/_ext/596309756/pme.o
 .bss           0x0000000000000000      0x218 build/SAMD21_IOT_WG_ICM42688/debug/_ext/596309756/pme.o
 .rodata.str1.4
                0x0000000000000000       0x90 build/SAMD21_IOT_WG_ICM42688/debug/_ext/596309756/pme.o
 .debug_info    0x0000000000000000     0x1aa4 build/SAMD21_IOT_WG_ICM42688/debug/_ext/596309756/pme.o
 .debug_abbrev  0x0000000000000000      0x3b5 build/SAMD21_IOT_WG_ICM42688/debug/_ext/596309756/pme.o
 .debug_loc     0x0000000000000000     0x1dee build/SAMD21_IOT_WG_ICM42688/debug/_ext/596309756/pme.o
 .debug_aranges
                0x0000000000000000       0x20 build/SAMD21_IOT_WG_ICM42688/debug/_ext/596309756/pme.o
 .debug_ranges  0x0000000000000000      0x1e8 build/SAMD21_IOT_WG_ICM42688/debug/_ext/596309756/pme.o
 .debug_line    0x0000000000000000     0x103b build/SAMD21_IOT_WG_ICM42688/debug/_ext/596309756/pme.o
 .debug_str     0x0000000000000000      0xac3 build/SAMD21_IOT_WG_ICM42688/debug/_ext/596309756/pme.o
 .comment       0x0000000000000000       0x2c build/SAMD21_IOT_WG_ICM42688/debug/_ext/596309756/pme.o
 .debug_frame   0x0000000000000000      0x320 build/SAMD21_IOT_WG_ICM42688/debug/_ext/596309756/pme.o
 .ARM.attributes
                0x0000000000000000       0x2c build/SAMD21_IOT_WG_ICM42688/debug/_ext/596309756/pme.o
 .text          0x0000000000000000        0x0 build/SAMD21_IOT_WG_ICM42688/debug/_ext/596309756/pme_trained_neurons.o
 .data          0x0000000000000000      0x144 build/SAMD21_IOT_WG_ICM42688/debug/_ext/596309756/pme_trained_neurons.o
 .bss           0x0000000000000000        0x0 build/SAMD21_IOT_WG_ICM42688/debug/_ext/596309756/pme_trained_neurons.o
 .rodata        0x0000000000000000        0x4 build/SAMD21_IOT_WG_ICM42688/debug/_ext/596309756/pme_trained_neurons.o
 .debug_info    0x0000000000000000      0x2fe build/SAMD21_IOT_WG_ICM42688/debug/_ext/596309756/pme_trained_neurons.o
 .debug_abbrev  0x0000000000000000       0xef build/SAMD21_IOT_WG_ICM42688/debug/_ext/596309756/pme_trained_neurons.o
 .debug_aranges
                0x0000000000000000       0x18 build/SAMD21_IOT_WG_ICM42688/debug/_ext/596309756/pme_trained_neurons.o
 .debug_line    0x0000000000000000       0xbc build/SAMD21_IOT_WG_ICM42688/debug/_ext/596309756/pme_trained_neurons.o
 .debug_str     0x0000000000000000      0x4f5 build/SAMD21_IOT_WG_ICM42688/debug/_ext/596309756/pme_trained_neurons.o
 .comment       0x0000000000000000       0x2c build/SAMD21_IOT_WG_ICM42688/debug/_ext/596309756/pme_trained_neurons.o
 .ARM.attributes
                0x0000000000000000       0x32 build/SAMD21_IOT_WG_ICM42688/debug/_ext/596309756/pme_trained_neurons.o
 .text          0x0000000000000000      0x154 build/SAMD21_IOT_WG_ICM42688/debug/_ext/596309756/ratio_diff_impl.o
 .data          0x0000000000000000        0x0 build/SAMD21_IOT_WG_ICM42688/debug/_ext/596309756/ratio_diff_impl.o
 .bss           0x0000000000000000        0x0 build/SAMD21_IOT_WG_ICM42688/debug/_ext/596309756/ratio_diff_impl.o
 .debug_info    0x0000000000000000      0x265 build/SAMD21_IOT_WG_ICM42688/debug/_ext/596309756/ratio_diff_impl.o
 .debug_abbrev  0x0000000000000000      0x101 build/SAMD21_IOT_WG_ICM42688/debug/_ext/596309756/ratio_diff_impl.o
 .debug_loc     0x0000000000000000      0x414 build/SAMD21_IOT_WG_ICM42688/debug/_ext/596309756/ratio_diff_impl.o
 .debug_aranges
                0x0000000000000000       0x20 build/SAMD21_IOT_WG_ICM42688/debug/_ext/596309756/ratio_diff_impl.o
 .debug_line    0x0000000000000000      0x1d8 build/SAMD21_IOT_WG_ICM42688/debug/_ext/596309756/ratio_diff_impl.o
 .debug_str     0x0000000000000000      0x335 build/SAMD21_IOT_WG_ICM42688/debug/_ext/596309756/ratio_diff_impl.o
 .comment       0x0000000000000000       0x2c build/SAMD21_IOT_WG_ICM42688/debug/_ext/596309756/ratio_diff_impl.o
 .debug_frame   0x0000000000000000       0x3c build/SAMD21_IOT_WG_ICM42688/debug/_ext/596309756/ratio_diff_impl.o
 .ARM.attributes
                0x0000000000000000       0x2c build/SAMD21_IOT_WG_ICM42688/debug/_ext/596309756/ratio_diff_impl.o
 .text          0x0000000000000000      0x288 build/SAMD21_IOT_WG_ICM42688/debug/_ext/596309756/rb.o
 .data          0x0000000000000000        0x0 build/SAMD21_IOT_WG_ICM42688/debug/_ext/596309756/rb.o
 .bss           0x0000000000000000        0x0 build/SAMD21_IOT_WG_ICM42688/debug/_ext/596309756/rb.o
 .debug_info    0x0000000000000000      0x92a build/SAMD21_IOT_WG_ICM42688/debug/_ext/596309756/rb.o
 .debug_abbrev  0x0000000000000000      0x2a8 build/SAMD21_IOT_WG_ICM42688/debug/_ext/596309756/rb.o
 .debug_loc     0x0000000000000000      0x949 build/SAMD21_IOT_WG_ICM42688/debug/_ext/596309756/rb.o
 .debug_aranges
                0x0000000000000000       0x20 build/SAMD21_IOT_WG_ICM42688/debug/_ext/596309756/rb.o
 .debug_ranges  0x0000000000000000       0x88 build/SAMD21_IOT_WG_ICM42688/debug/_ext/596309756/rb.o
 .debug_line    0x0000000000000000      0x4ac build/SAMD21_IOT_WG_ICM42688/debug/_ext/596309756/rb.o
 .debug_str     0x0000000000000000      0x446 build/SAMD21_IOT_WG_ICM42688/debug/_ext/596309756/rb.o
 .comment       0x0000000000000000       0x2c build/SAMD21_IOT_WG_ICM42688/debug/_ext/596309756/rb.o
 .debug_frame   0x0000000000000000      0x1e0 build/SAMD21_IOT_WG_ICM42688/debug/_ext/596309756/rb.o
 .ARM.attributes
                0x0000000000000000       0x2c build/SAMD21_IOT_WG_ICM42688/debug/_ext/596309756/rb.o
 .text          0x0000000000000000       0x4c build/SAMD21_IOT_WG_ICM42688/debug/_ext/596309756/save_sensor_data.o
 .data          0x0000000000000000        0x0 build/SAMD21_IOT_WG_ICM42688/debug/_ext/596309756/save_sensor_data.o
 .bss           0x0000000000000000        0x0 build/SAMD21_IOT_WG_ICM42688/debug/_ext/596309756/save_sensor_data.o
 .debug_info    0x0000000000000000      0x25a build/SAMD21_IOT_WG_ICM42688/debug/_ext/596309756/save_sensor_data.o
 .debug_abbrev  0x0000000000000000       0xf4 build/SAMD21_IOT_WG_ICM42688/debug/_ext/596309756/save_sensor_data.o
 .debug_loc     0x0000000000000000      0x1b0 build/SAMD21_IOT_WG_ICM42688/debug/_ext/596309756/save_sensor_data.o
 .debug_aranges
                0x0000000000000000       0x20 build/SAMD21_IOT_WG_ICM42688/debug/_ext/596309756/save_sensor_data.o
 .debug_line    0x0000000000000000       0xeb build/SAMD21_IOT_WG_ICM42688/debug/_ext/596309756/save_sensor_data.o
 .debug_str     0x0000000000000000      0x31f build/SAMD21_IOT_WG_ICM42688/debug/_ext/596309756/save_sensor_data.o
 .comment       0x0000000000000000       0x2c build/SAMD21_IOT_WG_ICM42688/debug/_ext/596309756/save_sensor_data.o
 .debug_frame   0x0000000000000000       0x48 build/SAMD21_IOT_WG_ICM42688/debug/_ext/596309756/save_sensor_data.o
 .ARM.attributes
                0x0000000000000000       0x2c build/SAMD21_IOT_WG_ICM42688/debug/_ext/596309756/save_sensor_data.o
 .text          0x0000000000000000       0x58 build/SAMD21_IOT_WG_ICM42688/debug/_ext/596309756/sf_downsample_by_averaging.o
 .data          0x0000000000000000        0x0 build/SAMD21_IOT_WG_ICM42688/debug/_ext/596309756/sf_downsample_by_averaging.o
 .bss           0x0000000000000000        0x0 build/SAMD21_IOT_WG_ICM42688/debug/_ext/596309756/sf_downsample_by_averaging.o
 .debug_info    0x0000000000000000      0x2c3 build/SAMD21_IOT_WG_ICM42688/debug/_ext/596309756/sf_downsample_by_averaging.o
 .debug_abbrev  0x0000000000000000      0x10e build/SAMD21_IOT_WG_ICM42688/debug/_ext/596309756/sf_downsample_by_averaging.o
 .debug_loc     0x0000000000000000      0x189 build/SAMD21_IOT_WG_ICM42688/debug/_ext/596309756/sf_downsample_by_averaging.o
 .debug_aranges
                0x0000000000000000       0x20 build/SAMD21_IOT_WG_ICM42688/debug/_ext/596309756/sf_downsample_by_averaging.o
 .debug_line    0x0000000000000000      0x12c build/SAMD21_IOT_WG_ICM42688/debug/_ext/596309756/sf_downsample_by_averaging.o
 .debug_str     0x0000000000000000      0x374 build/SAMD21_IOT_WG_ICM42688/debug/_ext/596309756/sf_downsample_by_averaging.o
 .comment       0x0000000000000000       0x2c build/SAMD21_IOT_WG_ICM42688/debug/_ext/596309756/sf_downsample_by_averaging.o
 .debug_frame   0x0000000000000000       0x34 build/SAMD21_IOT_WG_ICM42688/debug/_ext/596309756/sf_downsample_by_averaging.o
 .ARM.attributes
                0x0000000000000000       0x2c build/SAMD21_IOT_WG_ICM42688/debug/_ext/596309756/sf_downsample_by_averaging.o
 .text          0x0000000000000000       0x20 build/SAMD21_IOT_WG_ICM42688/debug/_ext/596309756/sf_downsample_by_decimation.o
 .data          0x0000000000000000        0x0 build/SAMD21_IOT_WG_ICM42688/debug/_ext/596309756/sf_downsample_by_decimation.o
 .bss           0x0000000000000000        0x0 build/SAMD21_IOT_WG_ICM42688/debug/_ext/596309756/sf_downsample_by_decimation.o
 .debug_info    0x0000000000000000      0x210 build/SAMD21_IOT_WG_ICM42688/debug/_ext/596309756/sf_downsample_by_decimation.o
 .debug_abbrev  0x0000000000000000       0xb7 build/SAMD21_IOT_WG_ICM42688/debug/_ext/596309756/sf_downsample_by_decimation.o
 .debug_loc     0x0000000000000000       0xb2 build/SAMD21_IOT_WG_ICM42688/debug/_ext/596309756/sf_downsample_by_decimation.o
 .debug_aranges
                0x0000000000000000       0x20 build/SAMD21_IOT_WG_ICM42688/debug/_ext/596309756/sf_downsample_by_decimation.o
 .debug_line    0x0000000000000000       0xff build/SAMD21_IOT_WG_ICM42688/debug/_ext/596309756/sf_downsample_by_decimation.o
 .debug_str     0x0000000000000000      0x34e build/SAMD21_IOT_WG_ICM42688/debug/_ext/596309756/sf_downsample_by_decimation.o
 .comment       0x0000000000000000       0x2c build/SAMD21_IOT_WG_ICM42688/debug/_ext/596309756/sf_downsample_by_decimation.o
 .debug_frame   0x0000000000000000       0x20 build/SAMD21_IOT_WG_ICM42688/debug/_ext/596309756/sf_downsample_by_decimation.o
 .ARM.attributes
                0x0000000000000000       0x2c build/SAMD21_IOT_WG_ICM42688/debug/_ext/596309756/sf_downsample_by_decimation.o
 .text          0x0000000000000000       0x24 build/SAMD21_IOT_WG_ICM42688/debug/_ext/596309756/sg_windowing.o
 .data          0x0000000000000000        0x0 build/SAMD21_IOT_WG_ICM42688/debug/_ext/596309756/sg_windowing.o
 .bss           0x0000000000000000        0x0 build/SAMD21_IOT_WG_ICM42688/debug/_ext/596309756/sg_windowing.o
 .debug_info    0x0000000000000000      0x660 build/SAMD21_IOT_WG_ICM42688/debug/_ext/596309756/sg_windowing.o
 .debug_abbrev  0x0000000000000000       0xfa build/SAMD21_IOT_WG_ICM42688/debug/_ext/596309756/sg_windowing.o
 .debug_loc     0x0000000000000000       0x93 build/SAMD21_IOT_WG_ICM42688/debug/_ext/596309756/sg_windowing.o
 .debug_aranges
                0x0000000000000000       0x20 build/SAMD21_IOT_WG_ICM42688/debug/_ext/596309756/sg_windowing.o
 .debug_line    0x0000000000000000      0x109 build/SAMD21_IOT_WG_ICM42688/debug/_ext/596309756/sg_windowing.o
 .debug_str     0x0000000000000000      0x633 build/SAMD21_IOT_WG_ICM42688/debug/_ext/596309756/sg_windowing.o
 .comment       0x0000000000000000       0x2c build/SAMD21_IOT_WG_ICM42688/debug/_ext/596309756/sg_windowing.o
 .debug_frame   0x0000000000000000       0x30 build/SAMD21_IOT_WG_ICM42688/debug/_ext/596309756/sg_windowing.o
 .ARM.attributes
                0x0000000000000000       0x2c build/SAMD21_IOT_WG_ICM42688/debug/_ext/596309756/sg_windowing.o
 .text          0x0000000000000000       0x94 build/SAMD21_IOT_WG_ICM42688/debug/_ext/596309756/sortarray.o
 .data          0x0000000000000000        0x0 build/SAMD21_IOT_WG_ICM42688/debug/_ext/596309756/sortarray.o
 .bss           0x0000000000000000        0x0 build/SAMD21_IOT_WG_ICM42688/debug/_ext/596309756/sortarray.o
 .debug_info    0x0000000000000000      0x137 build/SAMD21_IOT_WG_ICM42688/debug/_ext/596309756/sortarray.o
 .debug_abbrev  0x0000000000000000       0x98 build/SAMD21_IOT_WG_ICM42688/debug/_ext/596309756/sortarray.o
 .debug_loc     0x0000000000000000      0x162 build/SAMD21_IOT_WG_ICM42688/debug/_ext/596309756/sortarray.o
 .debug_aranges
                0x0000000000000000       0x20 build/SAMD21_IOT_WG_ICM42688/debug/_ext/596309756/sortarray.o
 .debug_line    0x0000000000000000      0x113 build/SAMD21_IOT_WG_ICM42688/debug/_ext/596309756/sortarray.o
 .debug_str     0x0000000000000000      0x2a3 build/SAMD21_IOT_WG_ICM42688/debug/_ext/596309756/sortarray.o
 .comment       0x0000000000000000       0x2c build/SAMD21_IOT_WG_ICM42688/debug/_ext/596309756/sortarray.o
 .debug_frame   0x0000000000000000       0x3c build/SAMD21_IOT_WG_ICM42688/debug/_ext/596309756/sortarray.o
 .ARM.attributes
                0x0000000000000000       0x2c build/SAMD21_IOT_WG_ICM42688/debug/_ext/596309756/sortarray.o
 .text          0x0000000000000000       0x48 build/SAMD21_IOT_WG_ICM42688/debug/_ext/596309756/sorted_copy.o
 .data          0x0000000000000000        0x0 build/SAMD21_IOT_WG_ICM42688/debug/_ext/596309756/sorted_copy.o
 .bss           0x0000000000000000        0x0 build/SAMD21_IOT_WG_ICM42688/debug/_ext/596309756/sorted_copy.o
 .debug_info    0x0000000000000000      0x21d build/SAMD21_IOT_WG_ICM42688/debug/_ext/596309756/sorted_copy.o
 .debug_abbrev  0x0000000000000000      0x11e build/SAMD21_IOT_WG_ICM42688/debug/_ext/596309756/sorted_copy.o
 .debug_loc     0x0000000000000000      0x1c4 build/SAMD21_IOT_WG_ICM42688/debug/_ext/596309756/sorted_copy.o
 .debug_aranges
                0x0000000000000000       0x20 build/SAMD21_IOT_WG_ICM42688/debug/_ext/596309756/sorted_copy.o
 .debug_ranges  0x0000000000000000       0x18 build/SAMD21_IOT_WG_ICM42688/debug/_ext/596309756/sorted_copy.o
 .debug_line    0x0000000000000000       0xfa build/SAMD21_IOT_WG_ICM42688/debug/_ext/596309756/sorted_copy.o
 .debug_str     0x0000000000000000      0x315 build/SAMD21_IOT_WG_ICM42688/debug/_ext/596309756/sorted_copy.o
 .comment       0x0000000000000000       0x2c build/SAMD21_IOT_WG_ICM42688/debug/_ext/596309756/sorted_copy.o
 .debug_frame   0x0000000000000000       0x30 build/SAMD21_IOT_WG_ICM42688/debug/_ext/596309756/sorted_copy.o
 .ARM.attributes
                0x0000000000000000       0x2c build/SAMD21_IOT_WG_ICM42688/debug/_ext/596309756/sorted_copy.o
 .text          0x0000000000000000       0xd0 build/SAMD21_IOT_WG_ICM42688/debug/_ext/596309756/stats_percentile_presorted.o
 .data          0x0000000000000000        0x0 build/SAMD21_IOT_WG_ICM42688/debug/_ext/596309756/stats_percentile_presorted.o
 .bss           0x0000000000000000        0x0 build/SAMD21_IOT_WG_ICM42688/debug/_ext/596309756/stats_percentile_presorted.o
 .debug_info    0x0000000000000000      0x1b3 build/SAMD21_IOT_WG_ICM42688/debug/_ext/596309756/stats_percentile_presorted.o
 .debug_abbrev  0x0000000000000000       0xf3 build/SAMD21_IOT_WG_ICM42688/debug/_ext/596309756/stats_percentile_presorted.o
 .debug_loc     0x0000000000000000      0x217 build/SAMD21_IOT_WG_ICM42688/debug/_ext/596309756/stats_percentile_presorted.o
 .debug_aranges
                0x0000000000000000       0x20 build/SAMD21_IOT_WG_ICM42688/debug/_ext/596309756/stats_percentile_presorted.o
 .debug_line    0x0000000000000000      0x1b3 build/SAMD21_IOT_WG_ICM42688/debug/_ext/596309756/stats_percentile_presorted.o
 .debug_str     0x0000000000000000      0x301 build/SAMD21_IOT_WG_ICM42688/debug/_ext/596309756/stats_percentile_presorted.o
 .comment       0x0000000000000000       0x2c build/SAMD21_IOT_WG_ICM42688/debug/_ext/596309756/stats_percentile_presorted.o
 .debug_frame   0x0000000000000000       0x38 build/SAMD21_IOT_WG_ICM42688/debug/_ext/596309756/stats_percentile_presorted.o
 .ARM.attributes
                0x0000000000000000       0x2c build/SAMD21_IOT_WG_ICM42688/debug/_ext/596309756/stats_percentile_presorted.o
 .text          0x0000000000000000       0x50 build/SAMD21_IOT_WG_ICM42688/debug/_ext/596309756/stat_mean.o
 .data          0x0000000000000000        0x0 build/SAMD21_IOT_WG_ICM42688/debug/_ext/596309756/stat_mean.o
 .bss           0x0000000000000000        0x0 build/SAMD21_IOT_WG_ICM42688/debug/_ext/596309756/stat_mean.o
 .debug_info    0x0000000000000000      0x1dd build/SAMD21_IOT_WG_ICM42688/debug/_ext/596309756/stat_mean.o
 .debug_abbrev  0x0000000000000000       0xdf build/SAMD21_IOT_WG_ICM42688/debug/_ext/596309756/stat_mean.o
 .debug_loc     0x0000000000000000      0x168 build/SAMD21_IOT_WG_ICM42688/debug/_ext/596309756/stat_mean.o
 .debug_aranges
                0x0000000000000000       0x20 build/SAMD21_IOT_WG_ICM42688/debug/_ext/596309756/stat_mean.o
 .debug_line    0x0000000000000000       0xf3 build/SAMD21_IOT_WG_ICM42688/debug/_ext/596309756/stat_mean.o
 .debug_str     0x0000000000000000      0x2f7 build/SAMD21_IOT_WG_ICM42688/debug/_ext/596309756/stat_mean.o
 .comment       0x0000000000000000       0x2c build/SAMD21_IOT_WG_ICM42688/debug/_ext/596309756/stat_mean.o
 .debug_frame   0x0000000000000000       0x38 build/SAMD21_IOT_WG_ICM42688/debug/_ext/596309756/stat_mean.o
 .ARM.attributes
                0x0000000000000000       0x2c build/SAMD21_IOT_WG_ICM42688/debug/_ext/596309756/stat_mean.o
 .text          0x0000000000000000      0x220 build/SAMD21_IOT_WG_ICM42688/debug/_ext/596309756/stat_moment.o
 .data          0x0000000000000000        0x0 build/SAMD21_IOT_WG_ICM42688/debug/_ext/596309756/stat_moment.o
 .bss           0x0000000000000000        0x0 build/SAMD21_IOT_WG_ICM42688/debug/_ext/596309756/stat_moment.o
 .debug_info    0x0000000000000000      0x514 build/SAMD21_IOT_WG_ICM42688/debug/_ext/596309756/stat_moment.o
 .debug_abbrev  0x0000000000000000      0x205 build/SAMD21_IOT_WG_ICM42688/debug/_ext/596309756/stat_moment.o
 .debug_loc     0x0000000000000000      0xaba build/SAMD21_IOT_WG_ICM42688/debug/_ext/596309756/stat_moment.o
 .debug_aranges
                0x0000000000000000       0x20 build/SAMD21_IOT_WG_ICM42688/debug/_ext/596309756/stat_moment.o
 .debug_ranges  0x0000000000000000       0x18 build/SAMD21_IOT_WG_ICM42688/debug/_ext/596309756/stat_moment.o
 .debug_line    0x0000000000000000      0x2ef build/SAMD21_IOT_WG_ICM42688/debug/_ext/596309756/stat_moment.o
 .debug_str     0x0000000000000000      0x32b build/SAMD21_IOT_WG_ICM42688/debug/_ext/596309756/stat_moment.o
 .comment       0x0000000000000000       0x2c build/SAMD21_IOT_WG_ICM42688/debug/_ext/596309756/stat_moment.o
 .debug_frame   0x0000000000000000       0x98 build/SAMD21_IOT_WG_ICM42688/debug/_ext/596309756/stat_moment.o
 .ARM.attributes
                0x0000000000000000       0x2c build/SAMD21_IOT_WG_ICM42688/debug/_ext/596309756/stat_moment.o
 .text          0x0000000000000000      0x170 build/SAMD21_IOT_WG_ICM42688/debug/_ext/596309756/std.o
 .data          0x0000000000000000        0x0 build/SAMD21_IOT_WG_ICM42688/debug/_ext/596309756/std.o
 .bss           0x0000000000000000        0x0 build/SAMD21_IOT_WG_ICM42688/debug/_ext/596309756/std.o
 .debug_info    0x0000000000000000      0x46d build/SAMD21_IOT_WG_ICM42688/debug/_ext/596309756/std.o
 .debug_abbrev  0x0000000000000000      0x154 build/SAMD21_IOT_WG_ICM42688/debug/_ext/596309756/std.o
 .debug_loc     0x0000000000000000      0x56c build/SAMD21_IOT_WG_ICM42688/debug/_ext/596309756/std.o
 .debug_aranges
                0x0000000000000000       0x20 build/SAMD21_IOT_WG_ICM42688/debug/_ext/596309756/std.o
 .debug_line    0x0000000000000000      0x215 build/SAMD21_IOT_WG_ICM42688/debug/_ext/596309756/std.o
 .debug_str     0x0000000000000000      0x334 build/SAMD21_IOT_WG_ICM42688/debug/_ext/596309756/std.o
 .comment       0x0000000000000000       0x2c build/SAMD21_IOT_WG_ICM42688/debug/_ext/596309756/std.o
 .debug_frame   0x0000000000000000       0xa4 build/SAMD21_IOT_WG_ICM42688/debug/_ext/596309756/std.o
 .ARM.attributes
                0x0000000000000000       0x2c build/SAMD21_IOT_WG_ICM42688/debug/_ext/596309756/std.o
 .text          0x0000000000000000       0x3c build/SAMD21_IOT_WG_ICM42688/debug/_ext/596309756/st_absolute_average.o
 .data          0x0000000000000000        0x0 build/SAMD21_IOT_WG_ICM42688/debug/_ext/596309756/st_absolute_average.o
 .bss           0x0000000000000000        0x0 build/SAMD21_IOT_WG_ICM42688/debug/_ext/596309756/st_absolute_average.o
 .debug_info    0x0000000000000000      0x18c build/SAMD21_IOT_WG_ICM42688/debug/_ext/596309756/st_absolute_average.o
 .debug_abbrev  0x0000000000000000       0xcb build/SAMD21_IOT_WG_ICM42688/debug/_ext/596309756/st_absolute_average.o
 .debug_loc     0x0000000000000000      0x167 build/SAMD21_IOT_WG_ICM42688/debug/_ext/596309756/st_absolute_average.o
 .debug_aranges
                0x0000000000000000       0x20 build/SAMD21_IOT_WG_ICM42688/debug/_ext/596309756/st_absolute_average.o
 .debug_line    0x0000000000000000      0x101 build/SAMD21_IOT_WG_ICM42688/debug/_ext/596309756/st_absolute_average.o
 .debug_str     0x0000000000000000      0x2f8 build/SAMD21_IOT_WG_ICM42688/debug/_ext/596309756/st_absolute_average.o
 .comment       0x0000000000000000       0x2c build/SAMD21_IOT_WG_ICM42688/debug/_ext/596309756/st_absolute_average.o
 .debug_frame   0x0000000000000000       0x30 build/SAMD21_IOT_WG_ICM42688/debug/_ext/596309756/st_absolute_average.o
 .ARM.attributes
                0x0000000000000000       0x2c build/SAMD21_IOT_WG_ICM42688/debug/_ext/596309756/st_absolute_average.o
 .text          0x0000000000000000       0x38 build/SAMD21_IOT_WG_ICM42688/debug/_ext/596309756/st_average.o
 .data          0x0000000000000000        0x0 build/SAMD21_IOT_WG_ICM42688/debug/_ext/596309756/st_average.o
 .bss           0x0000000000000000        0x0 build/SAMD21_IOT_WG_ICM42688/debug/_ext/596309756/st_average.o
 .debug_info    0x0000000000000000      0x18c build/SAMD21_IOT_WG_ICM42688/debug/_ext/596309756/st_average.o
 .debug_abbrev  0x0000000000000000       0xcb build/SAMD21_IOT_WG_ICM42688/debug/_ext/596309756/st_average.o
 .debug_loc     0x0000000000000000      0x167 build/SAMD21_IOT_WG_ICM42688/debug/_ext/596309756/st_average.o
 .debug_aranges
                0x0000000000000000       0x20 build/SAMD21_IOT_WG_ICM42688/debug/_ext/596309756/st_average.o
 .debug_line    0x0000000000000000       0xf5 build/SAMD21_IOT_WG_ICM42688/debug/_ext/596309756/st_average.o
 .debug_str     0x0000000000000000      0x2eb build/SAMD21_IOT_WG_ICM42688/debug/_ext/596309756/st_average.o
 .comment       0x0000000000000000       0x2c build/SAMD21_IOT_WG_ICM42688/debug/_ext/596309756/st_average.o
 .debug_frame   0x0000000000000000       0x30 build/SAMD21_IOT_WG_ICM42688/debug/_ext/596309756/st_average.o
 .ARM.attributes
                0x0000000000000000       0x2c build/SAMD21_IOT_WG_ICM42688/debug/_ext/596309756/st_average.o
 .text          0x0000000000000000       0x98 build/SAMD21_IOT_WG_ICM42688/debug/_ext/596309756/st_high_pass_filter.o
 .data          0x0000000000000000        0x0 build/SAMD21_IOT_WG_ICM42688/debug/_ext/596309756/st_high_pass_filter.o
 .bss           0x0000000000000000        0x0 build/SAMD21_IOT_WG_ICM42688/debug/_ext/596309756/st_high_pass_filter.o
 .debug_info    0x0000000000000000      0x2a3 build/SAMD21_IOT_WG_ICM42688/debug/_ext/596309756/st_high_pass_filter.o
 .debug_abbrev  0x0000000000000000       0xed build/SAMD21_IOT_WG_ICM42688/debug/_ext/596309756/st_high_pass_filter.o
 .debug_loc     0x0000000000000000      0x1f4 build/SAMD21_IOT_WG_ICM42688/debug/_ext/596309756/st_high_pass_filter.o
 .debug_aranges
                0x0000000000000000       0x20 build/SAMD21_IOT_WG_ICM42688/debug/_ext/596309756/st_high_pass_filter.o
 .debug_line    0x0000000000000000      0x14b build/SAMD21_IOT_WG_ICM42688/debug/_ext/596309756/st_high_pass_filter.o
 .debug_str     0x0000000000000000      0x348 build/SAMD21_IOT_WG_ICM42688/debug/_ext/596309756/st_high_pass_filter.o
 .comment       0x0000000000000000       0x2c build/SAMD21_IOT_WG_ICM42688/debug/_ext/596309756/st_high_pass_filter.o
 .debug_frame   0x0000000000000000       0x38 build/SAMD21_IOT_WG_ICM42688/debug/_ext/596309756/st_high_pass_filter.o
 .ARM.attributes
                0x0000000000000000       0x2c build/SAMD21_IOT_WG_ICM42688/debug/_ext/596309756/st_high_pass_filter.o
 .text          0x0000000000000000       0xf4 build/SAMD21_IOT_WG_ICM42688/debug/_ext/596309756/st_moving_average.o
 .data          0x0000000000000000        0x0 build/SAMD21_IOT_WG_ICM42688/debug/_ext/596309756/st_moving_average.o
 .bss           0x0000000000000000        0x0 build/SAMD21_IOT_WG_ICM42688/debug/_ext/596309756/st_moving_average.o
 .debug_info    0x0000000000000000      0x4a7 build/SAMD21_IOT_WG_ICM42688/debug/_ext/596309756/st_moving_average.o
 .debug_abbrev  0x0000000000000000      0x1cf build/SAMD21_IOT_WG_ICM42688/debug/_ext/596309756/st_moving_average.o
 .debug_loc     0x0000000000000000      0x499 build/SAMD21_IOT_WG_ICM42688/debug/_ext/596309756/st_moving_average.o
 .debug_aranges
                0x0000000000000000       0x20 build/SAMD21_IOT_WG_ICM42688/debug/_ext/596309756/st_moving_average.o
 .debug_ranges  0x0000000000000000       0x78 build/SAMD21_IOT_WG_ICM42688/debug/_ext/596309756/st_moving_average.o
 .debug_line    0x0000000000000000      0x1d2 build/SAMD21_IOT_WG_ICM42688/debug/_ext/596309756/st_moving_average.o
 .debug_str     0x0000000000000000      0x390 build/SAMD21_IOT_WG_ICM42688/debug/_ext/596309756/st_moving_average.o
 .comment       0x0000000000000000       0x2c build/SAMD21_IOT_WG_ICM42688/debug/_ext/596309756/st_moving_average.o
 .debug_frame   0x0000000000000000       0x74 build/SAMD21_IOT_WG_ICM42688/debug/_ext/596309756/st_moving_average.o
 .ARM.attributes
                0x0000000000000000       0x2c build/SAMD21_IOT_WG_ICM42688/debug/_ext/596309756/st_moving_average.o
 .text          0x0000000000000000       0x4c build/SAMD21_IOT_WG_ICM42688/debug/_ext/596309756/sum.o
 .data          0x0000000000000000        0x0 build/SAMD21_IOT_WG_ICM42688/debug/_ext/596309756/sum.o
 .bss           0x0000000000000000        0x0 build/SAMD21_IOT_WG_ICM42688/debug/_ext/596309756/sum.o
 .debug_info    0x0000000000000000      0x2a1 build/SAMD21_IOT_WG_ICM42688/debug/_ext/596309756/sum.o
 .debug_abbrev  0x0000000000000000      0x12a build/SAMD21_IOT_WG_ICM42688/debug/_ext/596309756/sum.o
 .debug_loc     0x0000000000000000      0x2f4 build/SAMD21_IOT_WG_ICM42688/debug/_ext/596309756/sum.o
 .debug_aranges
                0x0000000000000000       0x20 build/SAMD21_IOT_WG_ICM42688/debug/_ext/596309756/sum.o
 .debug_ranges  0x0000000000000000       0x20 build/SAMD21_IOT_WG_ICM42688/debug/_ext/596309756/sum.o
 .debug_line    0x0000000000000000      0x129 build/SAMD21_IOT_WG_ICM42688/debug/_ext/596309756/sum.o
 .debug_str     0x0000000000000000      0x2f1 build/SAMD21_IOT_WG_ICM42688/debug/_ext/596309756/sum.o
 .comment       0x0000000000000000       0x2c build/SAMD21_IOT_WG_ICM42688/debug/_ext/596309756/sum.o
 .debug_frame   0x0000000000000000       0x48 build/SAMD21_IOT_WG_ICM42688/debug/_ext/596309756/sum.o
 .ARM.attributes
                0x0000000000000000       0x2c build/SAMD21_IOT_WG_ICM42688/debug/_ext/596309756/sum.o
 .text          0x0000000000000000       0xd8 build/SAMD21_IOT_WG_ICM42688/debug/_ext/596309756/tr_min_max_scale.o
 .data          0x0000000000000000        0x0 build/SAMD21_IOT_WG_ICM42688/debug/_ext/596309756/tr_min_max_scale.o
 .bss           0x0000000000000000        0x0 build/SAMD21_IOT_WG_ICM42688/debug/_ext/596309756/tr_min_max_scale.o
 .debug_info    0x0000000000000000      0x264 build/SAMD21_IOT_WG_ICM42688/debug/_ext/596309756/tr_min_max_scale.o
 .debug_abbrev  0x0000000000000000      0x116 build/SAMD21_IOT_WG_ICM42688/debug/_ext/596309756/tr_min_max_scale.o
 .debug_loc     0x0000000000000000      0x1ad build/SAMD21_IOT_WG_ICM42688/debug/_ext/596309756/tr_min_max_scale.o
 .debug_aranges
                0x0000000000000000       0x20 build/SAMD21_IOT_WG_ICM42688/debug/_ext/596309756/tr_min_max_scale.o
 .debug_line    0x0000000000000000      0x170 build/SAMD21_IOT_WG_ICM42688/debug/_ext/596309756/tr_min_max_scale.o
 .debug_str     0x0000000000000000      0x34c build/SAMD21_IOT_WG_ICM42688/debug/_ext/596309756/tr_min_max_scale.o
 .comment       0x0000000000000000       0x2c build/SAMD21_IOT_WG_ICM42688/debug/_ext/596309756/tr_min_max_scale.o
 .debug_frame   0x0000000000000000       0x3c build/SAMD21_IOT_WG_ICM42688/debug/_ext/596309756/tr_min_max_scale.o
 .ARM.attributes
                0x0000000000000000       0x2c build/SAMD21_IOT_WG_ICM42688/debug/_ext/596309756/tr_min_max_scale.o
 .text          0x0000000000000000      0x37c build/SAMD21_IOT_WG_ICM42688/debug/_ext/596309756/utils_array.o
 .data          0x0000000000000000        0x0 build/SAMD21_IOT_WG_ICM42688/debug/_ext/596309756/utils_array.o
 .bss           0x0000000000000000      0x404 build/SAMD21_IOT_WG_ICM42688/debug/_ext/596309756/utils_array.o
 .debug_info    0x0000000000000000      0x57a build/SAMD21_IOT_WG_ICM42688/debug/_ext/596309756/utils_array.o
 .debug_abbrev  0x0000000000000000      0x201 build/SAMD21_IOT_WG_ICM42688/debug/_ext/596309756/utils_array.o
 .debug_loc     0x0000000000000000      0x856 build/SAMD21_IOT_WG_ICM42688/debug/_ext/596309756/utils_array.o
 .debug_aranges
                0x0000000000000000       0x20 build/SAMD21_IOT_WG_ICM42688/debug/_ext/596309756/utils_array.o
 .debug_line    0x0000000000000000      0x3b9 build/SAMD21_IOT_WG_ICM42688/debug/_ext/596309756/utils_array.o
 .debug_str     0x0000000000000000      0x388 build/SAMD21_IOT_WG_ICM42688/debug/_ext/596309756/utils_array.o
 .comment       0x0000000000000000       0x2c build/SAMD21_IOT_WG_ICM42688/debug/_ext/596309756/utils_array.o
 .debug_frame   0x0000000000000000       0xe8 build/SAMD21_IOT_WG_ICM42688/debug/_ext/596309756/utils_array.o
 .ARM.attributes
                0x0000000000000000       0x2c build/SAMD21_IOT_WG_ICM42688/debug/_ext/596309756/utils_array.o
 .text          0x0000000000000000       0x74 build/SAMD21_IOT_WG_ICM42688/debug/_ext/596309756/utils_array_max_uint8.o
 .data          0x0000000000000000        0x0 build/SAMD21_IOT_WG_ICM42688/debug/_ext/596309756/utils_array_max_uint8.o
 .bss           0x0000000000000000        0x0 build/SAMD21_IOT_WG_ICM42688/debug/_ext/596309756/utils_array_max_uint8.o
 .debug_info    0x0000000000000000      0x166 build/SAMD21_IOT_WG_ICM42688/debug/_ext/596309756/utils_array_max_uint8.o
 .debug_abbrev  0x0000000000000000       0xa7 build/SAMD21_IOT_WG_ICM42688/debug/_ext/596309756/utils_array_max_uint8.o
 .debug_loc     0x0000000000000000      0x2f1 build/SAMD21_IOT_WG_ICM42688/debug/_ext/596309756/utils_array_max_uint8.o
 .debug_aranges
                0x0000000000000000       0x20 build/SAMD21_IOT_WG_ICM42688/debug/_ext/596309756/utils_array_max_uint8.o
 .debug_line    0x0000000000000000      0x125 build/SAMD21_IOT_WG_ICM42688/debug/_ext/596309756/utils_array_max_uint8.o
 .debug_str     0x0000000000000000      0x2e5 build/SAMD21_IOT_WG_ICM42688/debug/_ext/596309756/utils_array_max_uint8.o
 .comment       0x0000000000000000       0x2c build/SAMD21_IOT_WG_ICM42688/debug/_ext/596309756/utils_array_max_uint8.o
 .debug_frame   0x0000000000000000       0x34 build/SAMD21_IOT_WG_ICM42688/debug/_ext/596309756/utils_array_max_uint8.o
 .ARM.attributes
                0x0000000000000000       0x2c build/SAMD21_IOT_WG_ICM42688/debug/_ext/596309756/utils_array_max_uint8.o
 .text          0x0000000000000000        0xc build/SAMD21_IOT_WG_ICM42688/debug/_ext/596309756/utils_bitwise_abs_val.o
 .data          0x0000000000000000        0x0 build/SAMD21_IOT_WG_ICM42688/debug/_ext/596309756/utils_bitwise_abs_val.o
 .bss           0x0000000000000000        0x0 build/SAMD21_IOT_WG_ICM42688/debug/_ext/596309756/utils_bitwise_abs_val.o
 .debug_info    0x0000000000000000       0xe7 build/SAMD21_IOT_WG_ICM42688/debug/_ext/596309756/utils_bitwise_abs_val.o
 .debug_abbrev  0x0000000000000000       0x8c build/SAMD21_IOT_WG_ICM42688/debug/_ext/596309756/utils_bitwise_abs_val.o
 .debug_loc     0x0000000000000000       0x3a build/SAMD21_IOT_WG_ICM42688/debug/_ext/596309756/utils_bitwise_abs_val.o
 .debug_aranges
                0x0000000000000000       0x20 build/SAMD21_IOT_WG_ICM42688/debug/_ext/596309756/utils_bitwise_abs_val.o
 .debug_line    0x0000000000000000       0xc0 build/SAMD21_IOT_WG_ICM42688/debug/_ext/596309756/utils_bitwise_abs_val.o
 .debug_str     0x0000000000000000      0x2b8 build/SAMD21_IOT_WG_ICM42688/debug/_ext/596309756/utils_bitwise_abs_val.o
 .comment       0x0000000000000000       0x2c build/SAMD21_IOT_WG_ICM42688/debug/_ext/596309756/utils_bitwise_abs_val.o
 .debug_frame   0x0000000000000000       0x20 build/SAMD21_IOT_WG_ICM42688/debug/_ext/596309756/utils_bitwise_abs_val.o
 .ARM.attributes
                0x0000000000000000       0x2c build/SAMD21_IOT_WG_ICM42688/debug/_ext/596309756/utils_bitwise_abs_val.o
 .text          0x0000000000000000       0x24 build/SAMD21_IOT_WG_ICM42688/debug/_ext/596309756/utils_buffer_absmean.o
 .data          0x0000000000000000        0x0 build/SAMD21_IOT_WG_ICM42688/debug/_ext/596309756/utils_buffer_absmean.o
 .bss           0x0000000000000000        0x0 build/SAMD21_IOT_WG_ICM42688/debug/_ext/596309756/utils_buffer_absmean.o
 .debug_info    0x0000000000000000      0x1f1 build/SAMD21_IOT_WG_ICM42688/debug/_ext/596309756/utils_buffer_absmean.o
 .debug_abbrev  0x0000000000000000       0xce build/SAMD21_IOT_WG_ICM42688/debug/_ext/596309756/utils_buffer_absmean.o
 .debug_loc     0x0000000000000000       0xcd build/SAMD21_IOT_WG_ICM42688/debug/_ext/596309756/utils_buffer_absmean.o
 .debug_aranges
                0x0000000000000000       0x20 build/SAMD21_IOT_WG_ICM42688/debug/_ext/596309756/utils_buffer_absmean.o
 .debug_line    0x0000000000000000       0xed build/SAMD21_IOT_WG_ICM42688/debug/_ext/596309756/utils_buffer_absmean.o
 .debug_str     0x0000000000000000      0x32a build/SAMD21_IOT_WG_ICM42688/debug/_ext/596309756/utils_buffer_absmean.o
 .comment       0x0000000000000000       0x2c build/SAMD21_IOT_WG_ICM42688/debug/_ext/596309756/utils_buffer_absmean.o
 .debug_frame   0x0000000000000000       0x2c build/SAMD21_IOT_WG_ICM42688/debug/_ext/596309756/utils_buffer_absmean.o
 .ARM.attributes
                0x0000000000000000       0x2c build/SAMD21_IOT_WG_ICM42688/debug/_ext/596309756/utils_buffer_absmean.o
 .text          0x0000000000000000       0x10 build/SAMD21_IOT_WG_ICM42688/debug/_ext/596309756/utils_buffer_abssum.o
 .data          0x0000000000000000        0x0 build/SAMD21_IOT_WG_ICM42688/debug/_ext/596309756/utils_buffer_abssum.o
 .bss           0x0000000000000000        0x0 build/SAMD21_IOT_WG_ICM42688/debug/_ext/596309756/utils_buffer_abssum.o
 .debug_info    0x0000000000000000      0x1f3 build/SAMD21_IOT_WG_ICM42688/debug/_ext/596309756/utils_buffer_abssum.o
 .debug_abbrev  0x0000000000000000       0xce build/SAMD21_IOT_WG_ICM42688/debug/_ext/596309756/utils_buffer_abssum.o
 .debug_loc     0x0000000000000000       0xc0 build/SAMD21_IOT_WG_ICM42688/debug/_ext/596309756/utils_buffer_abssum.o
 .debug_aranges
                0x0000000000000000       0x20 build/SAMD21_IOT_WG_ICM42688/debug/_ext/596309756/utils_buffer_abssum.o
 .debug_line    0x0000000000000000       0xe4 build/SAMD21_IOT_WG_ICM42688/debug/_ext/596309756/utils_buffer_abssum.o
 .debug_str     0x0000000000000000      0x333 build/SAMD21_IOT_WG_ICM42688/debug/_ext/596309756/utils_buffer_abssum.o
 .comment       0x0000000000000000       0x2c build/SAMD21_IOT_WG_ICM42688/debug/_ext/596309756/utils_buffer_abssum.o
 .debug_frame   0x0000000000000000       0x2c build/SAMD21_IOT_WG_ICM42688/debug/_ext/596309756/utils_buffer_abssum.o
 .ARM.attributes
                0x0000000000000000       0x2c build/SAMD21_IOT_WG_ICM42688/debug/_ext/596309756/utils_buffer_abssum.o
 .text          0x0000000000000000       0x10 build/SAMD21_IOT_WG_ICM42688/debug/_ext/596309756/utils_buffer_abs_max.o
 .data          0x0000000000000000        0x0 build/SAMD21_IOT_WG_ICM42688/debug/_ext/596309756/utils_buffer_abs_max.o
 .bss           0x0000000000000000        0x0 build/SAMD21_IOT_WG_ICM42688/debug/_ext/596309756/utils_buffer_abs_max.o
 .debug_info    0x0000000000000000      0x1e7 build/SAMD21_IOT_WG_ICM42688/debug/_ext/596309756/utils_buffer_abs_max.o
 .debug_abbrev  0x0000000000000000       0xce build/SAMD21_IOT_WG_ICM42688/debug/_ext/596309756/utils_buffer_abs_max.o
 .debug_loc     0x0000000000000000       0xc0 build/SAMD21_IOT_WG_ICM42688/debug/_ext/596309756/utils_buffer_abs_max.o
 .debug_aranges
                0x0000000000000000       0x20 build/SAMD21_IOT_WG_ICM42688/debug/_ext/596309756/utils_buffer_abs_max.o
 .debug_line    0x0000000000000000       0xd4 build/SAMD21_IOT_WG_ICM42688/debug/_ext/596309756/utils_buffer_abs_max.o
 .debug_str     0x0000000000000000      0x313 build/SAMD21_IOT_WG_ICM42688/debug/_ext/596309756/utils_buffer_abs_max.o
 .comment       0x0000000000000000       0x2c build/SAMD21_IOT_WG_ICM42688/debug/_ext/596309756/utils_buffer_abs_max.o
 .debug_frame   0x0000000000000000       0x2c build/SAMD21_IOT_WG_ICM42688/debug/_ext/596309756/utils_buffer_abs_max.o
 .ARM.attributes
                0x0000000000000000       0x2c build/SAMD21_IOT_WG_ICM42688/debug/_ext/596309756/utils_buffer_abs_max.o
 .text          0x0000000000000000       0x3c build/SAMD21_IOT_WG_ICM42688/debug/_ext/596309756/utils_buffer_argmax.o
 .data          0x0000000000000000        0x0 build/SAMD21_IOT_WG_ICM42688/debug/_ext/596309756/utils_buffer_argmax.o
 .bss           0x0000000000000000        0x0 build/SAMD21_IOT_WG_ICM42688/debug/_ext/596309756/utils_buffer_argmax.o
 .debug_info    0x0000000000000000      0x1f6 build/SAMD21_IOT_WG_ICM42688/debug/_ext/596309756/utils_buffer_argmax.o
 .debug_abbrev  0x0000000000000000       0xdc build/SAMD21_IOT_WG_ICM42688/debug/_ext/596309756/utils_buffer_argmax.o
 .debug_loc     0x0000000000000000      0x1c5 build/SAMD21_IOT_WG_ICM42688/debug/_ext/596309756/utils_buffer_argmax.o
 .debug_aranges
                0x0000000000000000       0x20 build/SAMD21_IOT_WG_ICM42688/debug/_ext/596309756/utils_buffer_argmax.o
 .debug_line    0x0000000000000000      0x107 build/SAMD21_IOT_WG_ICM42688/debug/_ext/596309756/utils_buffer_argmax.o
 .debug_str     0x0000000000000000      0x318 build/SAMD21_IOT_WG_ICM42688/debug/_ext/596309756/utils_buffer_argmax.o
 .comment       0x0000000000000000       0x2c build/SAMD21_IOT_WG_ICM42688/debug/_ext/596309756/utils_buffer_argmax.o
 .debug_frame   0x0000000000000000       0x30 build/SAMD21_IOT_WG_ICM42688/debug/_ext/596309756/utils_buffer_argmax.o
 .ARM.attributes
                0x0000000000000000       0x2c build/SAMD21_IOT_WG_ICM42688/debug/_ext/596309756/utils_buffer_argmax.o
 .text          0x0000000000000000       0x90 build/SAMD21_IOT_WG_ICM42688/debug/_ext/596309756/utils_buffer_autoscale.o
 .data          0x0000000000000000        0x0 build/SAMD21_IOT_WG_ICM42688/debug/_ext/596309756/utils_buffer_autoscale.o
 .bss           0x0000000000000000        0x0 build/SAMD21_IOT_WG_ICM42688/debug/_ext/596309756/utils_buffer_autoscale.o
 .debug_info    0x0000000000000000      0x237 build/SAMD21_IOT_WG_ICM42688/debug/_ext/596309756/utils_buffer_autoscale.o
 .debug_abbrev  0x0000000000000000       0xf4 build/SAMD21_IOT_WG_ICM42688/debug/_ext/596309756/utils_buffer_autoscale.o
 .debug_loc     0x0000000000000000      0x310 build/SAMD21_IOT_WG_ICM42688/debug/_ext/596309756/utils_buffer_autoscale.o
 .debug_aranges
                0x0000000000000000       0x20 build/SAMD21_IOT_WG_ICM42688/debug/_ext/596309756/utils_buffer_autoscale.o
 .debug_line    0x0000000000000000      0x14b build/SAMD21_IOT_WG_ICM42688/debug/_ext/596309756/utils_buffer_autoscale.o
 .debug_str     0x0000000000000000      0x32d build/SAMD21_IOT_WG_ICM42688/debug/_ext/596309756/utils_buffer_autoscale.o
 .comment       0x0000000000000000       0x2c build/SAMD21_IOT_WG_ICM42688/debug/_ext/596309756/utils_buffer_autoscale.o
 .debug_frame   0x0000000000000000       0x34 build/SAMD21_IOT_WG_ICM42688/debug/_ext/596309756/utils_buffer_autoscale.o
 .ARM.attributes
                0x0000000000000000       0x2c build/SAMD21_IOT_WG_ICM42688/debug/_ext/596309756/utils_buffer_autoscale.o
 .text          0x0000000000000000       0x78 build/SAMD21_IOT_WG_ICM42688/debug/_ext/596309756/utils_buffer_cumsum.o
 .data          0x0000000000000000        0x0 build/SAMD21_IOT_WG_ICM42688/debug/_ext/596309756/utils_buffer_cumsum.o
 .bss           0x0000000000000000        0x0 build/SAMD21_IOT_WG_ICM42688/debug/_ext/596309756/utils_buffer_cumsum.o
 .debug_info    0x0000000000000000      0x320 build/SAMD21_IOT_WG_ICM42688/debug/_ext/596309756/utils_buffer_cumsum.o
 .debug_abbrev  0x0000000000000000      0x133 build/SAMD21_IOT_WG_ICM42688/debug/_ext/596309756/utils_buffer_cumsum.o
 .debug_loc     0x0000000000000000      0x485 build/SAMD21_IOT_WG_ICM42688/debug/_ext/596309756/utils_buffer_cumsum.o
 .debug_aranges
                0x0000000000000000       0x20 build/SAMD21_IOT_WG_ICM42688/debug/_ext/596309756/utils_buffer_cumsum.o
 .debug_ranges  0x0000000000000000       0x20 build/SAMD21_IOT_WG_ICM42688/debug/_ext/596309756/utils_buffer_cumsum.o
 .debug_line    0x0000000000000000      0x1a5 build/SAMD21_IOT_WG_ICM42688/debug/_ext/596309756/utils_buffer_cumsum.o
 .debug_str     0x0000000000000000      0x33e build/SAMD21_IOT_WG_ICM42688/debug/_ext/596309756/utils_buffer_cumsum.o
 .comment       0x0000000000000000       0x2c build/SAMD21_IOT_WG_ICM42688/debug/_ext/596309756/utils_buffer_cumsum.o
 .debug_frame   0x0000000000000000       0x50 build/SAMD21_IOT_WG_ICM42688/debug/_ext/596309756/utils_buffer_cumsum.o
 .ARM.attributes
                0x0000000000000000       0x2c build/SAMD21_IOT_WG_ICM42688/debug/_ext/596309756/utils_buffer_cumsum.o
 .text          0x0000000000000000       0x7c build/SAMD21_IOT_WG_ICM42688/debug/_ext/596309756/utils_buffer_max.o
 .data          0x0000000000000000        0x0 build/SAMD21_IOT_WG_ICM42688/debug/_ext/596309756/utils_buffer_max.o
 .bss           0x0000000000000000        0x0 build/SAMD21_IOT_WG_ICM42688/debug/_ext/596309756/utils_buffer_max.o
 .debug_info    0x0000000000000000      0x330 build/SAMD21_IOT_WG_ICM42688/debug/_ext/596309756/utils_buffer_max.o
 .debug_abbrev  0x0000000000000000      0x144 build/SAMD21_IOT_WG_ICM42688/debug/_ext/596309756/utils_buffer_max.o
 .debug_loc     0x0000000000000000      0x360 build/SAMD21_IOT_WG_ICM42688/debug/_ext/596309756/utils_buffer_max.o
 .debug_aranges
                0x0000000000000000       0x20 build/SAMD21_IOT_WG_ICM42688/debug/_ext/596309756/utils_buffer_max.o
 .debug_ranges  0x0000000000000000       0x18 build/SAMD21_IOT_WG_ICM42688/debug/_ext/596309756/utils_buffer_max.o
 .debug_line    0x0000000000000000      0x185 build/SAMD21_IOT_WG_ICM42688/debug/_ext/596309756/utils_buffer_max.o
 .debug_str     0x0000000000000000      0x329 build/SAMD21_IOT_WG_ICM42688/debug/_ext/596309756/utils_buffer_max.o
 .comment       0x0000000000000000       0x2c build/SAMD21_IOT_WG_ICM42688/debug/_ext/596309756/utils_buffer_max.o
 .debug_frame   0x0000000000000000       0x50 build/SAMD21_IOT_WG_ICM42688/debug/_ext/596309756/utils_buffer_max.o
 .ARM.attributes
                0x0000000000000000       0x2c build/SAMD21_IOT_WG_ICM42688/debug/_ext/596309756/utils_buffer_max.o
 .text          0x0000000000000000       0x24 build/SAMD21_IOT_WG_ICM42688/debug/_ext/596309756/utils_buffer_mean.o
 .data          0x0000000000000000        0x0 build/SAMD21_IOT_WG_ICM42688/debug/_ext/596309756/utils_buffer_mean.o
 .bss           0x0000000000000000        0x0 build/SAMD21_IOT_WG_ICM42688/debug/_ext/596309756/utils_buffer_mean.o
 .debug_info    0x0000000000000000      0x1f1 build/SAMD21_IOT_WG_ICM42688/debug/_ext/596309756/utils_buffer_mean.o
 .debug_abbrev  0x0000000000000000       0xce build/SAMD21_IOT_WG_ICM42688/debug/_ext/596309756/utils_buffer_mean.o
 .debug_loc     0x0000000000000000       0xcd build/SAMD21_IOT_WG_ICM42688/debug/_ext/596309756/utils_buffer_mean.o
 .debug_aranges
                0x0000000000000000       0x20 build/SAMD21_IOT_WG_ICM42688/debug/_ext/596309756/utils_buffer_mean.o
 .debug_line    0x0000000000000000       0xea build/SAMD21_IOT_WG_ICM42688/debug/_ext/596309756/utils_buffer_mean.o
 .debug_str     0x0000000000000000      0x31e build/SAMD21_IOT_WG_ICM42688/debug/_ext/596309756/utils_buffer_mean.o
 .comment       0x0000000000000000       0x2c build/SAMD21_IOT_WG_ICM42688/debug/_ext/596309756/utils_buffer_mean.o
 .debug_frame   0x0000000000000000       0x2c build/SAMD21_IOT_WG_ICM42688/debug/_ext/596309756/utils_buffer_mean.o
 .ARM.attributes
                0x0000000000000000       0x2c build/SAMD21_IOT_WG_ICM42688/debug/_ext/596309756/utils_buffer_mean.o
 .text          0x0000000000000000       0x34 build/SAMD21_IOT_WG_ICM42688/debug/_ext/596309756/utils_buffer_median.o
 .data          0x0000000000000000        0x0 build/SAMD21_IOT_WG_ICM42688/debug/_ext/596309756/utils_buffer_median.o
 .bss           0x0000000000000000        0x0 build/SAMD21_IOT_WG_ICM42688/debug/_ext/596309756/utils_buffer_median.o
 .debug_info    0x0000000000000000      0x203 build/SAMD21_IOT_WG_ICM42688/debug/_ext/596309756/utils_buffer_median.o
 .debug_abbrev  0x0000000000000000       0xe2 build/SAMD21_IOT_WG_ICM42688/debug/_ext/596309756/utils_buffer_median.o
 .debug_loc     0x0000000000000000      0x125 build/SAMD21_IOT_WG_ICM42688/debug/_ext/596309756/utils_buffer_median.o
 .debug_aranges
                0x0000000000000000       0x20 build/SAMD21_IOT_WG_ICM42688/debug/_ext/596309756/utils_buffer_median.o
 .debug_line    0x0000000000000000      0x10b build/SAMD21_IOT_WG_ICM42688/debug/_ext/596309756/utils_buffer_median.o
 .debug_str     0x0000000000000000      0x31c build/SAMD21_IOT_WG_ICM42688/debug/_ext/596309756/utils_buffer_median.o
 .comment       0x0000000000000000       0x2c build/SAMD21_IOT_WG_ICM42688/debug/_ext/596309756/utils_buffer_median.o
 .debug_frame   0x0000000000000000       0x28 build/SAMD21_IOT_WG_ICM42688/debug/_ext/596309756/utils_buffer_median.o
 .ARM.attributes
                0x0000000000000000       0x2c build/SAMD21_IOT_WG_ICM42688/debug/_ext/596309756/utils_buffer_median.o
 .text          0x0000000000000000       0x34 build/SAMD21_IOT_WG_ICM42688/debug/_ext/596309756/utils_buffer_min.o
 .data          0x0000000000000000        0x0 build/SAMD21_IOT_WG_ICM42688/debug/_ext/596309756/utils_buffer_min.o
 .bss           0x0000000000000000        0x0 build/SAMD21_IOT_WG_ICM42688/debug/_ext/596309756/utils_buffer_min.o
 .debug_info    0x0000000000000000      0x1fc build/SAMD21_IOT_WG_ICM42688/debug/_ext/596309756/utils_buffer_min.o
 .debug_abbrev  0x0000000000000000       0xcb build/SAMD21_IOT_WG_ICM42688/debug/_ext/596309756/utils_buffer_min.o
 .debug_loc     0x0000000000000000      0x14f build/SAMD21_IOT_WG_ICM42688/debug/_ext/596309756/utils_buffer_min.o
 .debug_aranges
                0x0000000000000000       0x20 build/SAMD21_IOT_WG_ICM42688/debug/_ext/596309756/utils_buffer_min.o
 .debug_line    0x0000000000000000       0xed build/SAMD21_IOT_WG_ICM42688/debug/_ext/596309756/utils_buffer_min.o
 .debug_str     0x0000000000000000      0x314 build/SAMD21_IOT_WG_ICM42688/debug/_ext/596309756/utils_buffer_min.o
 .comment       0x0000000000000000       0x2c build/SAMD21_IOT_WG_ICM42688/debug/_ext/596309756/utils_buffer_min.o
 .debug_frame   0x0000000000000000       0x2c build/SAMD21_IOT_WG_ICM42688/debug/_ext/596309756/utils_buffer_min.o
 .ARM.attributes
                0x0000000000000000       0x2c build/SAMD21_IOT_WG_ICM42688/debug/_ext/596309756/utils_buffer_min.o
 .text          0x0000000000000000       0x50 build/SAMD21_IOT_WG_ICM42688/debug/_ext/596309756/utils_buffer_min_max.o
 .data          0x0000000000000000        0x0 build/SAMD21_IOT_WG_ICM42688/debug/_ext/596309756/utils_buffer_min_max.o
 .bss           0x0000000000000000        0x0 build/SAMD21_IOT_WG_ICM42688/debug/_ext/596309756/utils_buffer_min_max.o
 .debug_info    0x0000000000000000      0x232 build/SAMD21_IOT_WG_ICM42688/debug/_ext/596309756/utils_buffer_min_max.o
 .debug_abbrev  0x0000000000000000       0xdc build/SAMD21_IOT_WG_ICM42688/debug/_ext/596309756/utils_buffer_min_max.o
 .debug_loc     0x0000000000000000      0x20a build/SAMD21_IOT_WG_ICM42688/debug/_ext/596309756/utils_buffer_min_max.o
 .debug_aranges
                0x0000000000000000       0x20 build/SAMD21_IOT_WG_ICM42688/debug/_ext/596309756/utils_buffer_min_max.o
 .debug_line    0x0000000000000000      0x119 build/SAMD21_IOT_WG_ICM42688/debug/_ext/596309756/utils_buffer_min_max.o
 .debug_str     0x0000000000000000      0x31f build/SAMD21_IOT_WG_ICM42688/debug/_ext/596309756/utils_buffer_min_max.o
 .comment       0x0000000000000000       0x2c build/SAMD21_IOT_WG_ICM42688/debug/_ext/596309756/utils_buffer_min_max.o
 .debug_frame   0x0000000000000000       0x30 build/SAMD21_IOT_WG_ICM42688/debug/_ext/596309756/utils_buffer_min_max.o
 .ARM.attributes
                0x0000000000000000       0x2c build/SAMD21_IOT_WG_ICM42688/debug/_ext/596309756/utils_buffer_min_max.o
 .text          0x0000000000000000      0x104 build/SAMD21_IOT_WG_ICM42688/debug/_ext/596309756/utils_buffer_pass_threshold.o
 .data          0x0000000000000000        0x0 build/SAMD21_IOT_WG_ICM42688/debug/_ext/596309756/utils_buffer_pass_threshold.o
 .bss           0x0000000000000000        0x0 build/SAMD21_IOT_WG_ICM42688/debug/_ext/596309756/utils_buffer_pass_threshold.o
 .debug_info    0x0000000000000000      0x300 build/SAMD21_IOT_WG_ICM42688/debug/_ext/596309756/utils_buffer_pass_threshold.o
 .debug_abbrev  0x0000000000000000       0xf8 build/SAMD21_IOT_WG_ICM42688/debug/_ext/596309756/utils_buffer_pass_threshold.o
 .debug_loc     0x0000000000000000      0x37e build/SAMD21_IOT_WG_ICM42688/debug/_ext/596309756/utils_buffer_pass_threshold.o
 .debug_aranges
                0x0000000000000000       0x20 build/SAMD21_IOT_WG_ICM42688/debug/_ext/596309756/utils_buffer_pass_threshold.o
 .debug_line    0x0000000000000000      0x178 build/SAMD21_IOT_WG_ICM42688/debug/_ext/596309756/utils_buffer_pass_threshold.o
 .debug_str     0x0000000000000000      0x395 build/SAMD21_IOT_WG_ICM42688/debug/_ext/596309756/utils_buffer_pass_threshold.o
 .comment       0x0000000000000000       0x2c build/SAMD21_IOT_WG_ICM42688/debug/_ext/596309756/utils_buffer_pass_threshold.o
 .debug_frame   0x0000000000000000       0x58 build/SAMD21_IOT_WG_ICM42688/debug/_ext/596309756/utils_buffer_pass_threshold.o
 .ARM.attributes
                0x0000000000000000       0x2c build/SAMD21_IOT_WG_ICM42688/debug/_ext/596309756/utils_buffer_pass_threshold.o
 .text          0x0000000000000000       0x14 build/SAMD21_IOT_WG_ICM42688/debug/_ext/596309756/utils_buffer_std.o
 .data          0x0000000000000000        0x0 build/SAMD21_IOT_WG_ICM42688/debug/_ext/596309756/utils_buffer_std.o
 .bss           0x0000000000000000        0x0 build/SAMD21_IOT_WG_ICM42688/debug/_ext/596309756/utils_buffer_std.o
 .debug_info    0x0000000000000000      0x208 build/SAMD21_IOT_WG_ICM42688/debug/_ext/596309756/utils_buffer_std.o
 .debug_abbrev  0x0000000000000000       0xef build/SAMD21_IOT_WG_ICM42688/debug/_ext/596309756/utils_buffer_std.o
 .debug_loc     0x0000000000000000       0xb4 build/SAMD21_IOT_WG_ICM42688/debug/_ext/596309756/utils_buffer_std.o
 .debug_aranges
                0x0000000000000000       0x20 build/SAMD21_IOT_WG_ICM42688/debug/_ext/596309756/utils_buffer_std.o
 .debug_line    0x0000000000000000      0x120 build/SAMD21_IOT_WG_ICM42688/debug/_ext/596309756/utils_buffer_std.o
 .debug_str     0x0000000000000000      0x326 build/SAMD21_IOT_WG_ICM42688/debug/_ext/596309756/utils_buffer_std.o
 .comment       0x0000000000000000       0x2c build/SAMD21_IOT_WG_ICM42688/debug/_ext/596309756/utils_buffer_std.o
 .debug_frame   0x0000000000000000       0x28 build/SAMD21_IOT_WG_ICM42688/debug/_ext/596309756/utils_buffer_std.o
 .ARM.attributes
                0x0000000000000000       0x2c build/SAMD21_IOT_WG_ICM42688/debug/_ext/596309756/utils_buffer_std.o
 .text          0x0000000000000000       0x78 build/SAMD21_IOT_WG_ICM42688/debug/_ext/596309756/utils_buffer_variance.o
 .data          0x0000000000000000        0x0 build/SAMD21_IOT_WG_ICM42688/debug/_ext/596309756/utils_buffer_variance.o
 .bss           0x0000000000000000        0x0 build/SAMD21_IOT_WG_ICM42688/debug/_ext/596309756/utils_buffer_variance.o
 .debug_info    0x0000000000000000      0x256 build/SAMD21_IOT_WG_ICM42688/debug/_ext/596309756/utils_buffer_variance.o
 .debug_abbrev  0x0000000000000000       0xff build/SAMD21_IOT_WG_ICM42688/debug/_ext/596309756/utils_buffer_variance.o
 .debug_loc     0x0000000000000000      0x1e1 build/SAMD21_IOT_WG_ICM42688/debug/_ext/596309756/utils_buffer_variance.o
 .debug_aranges
                0x0000000000000000       0x20 build/SAMD21_IOT_WG_ICM42688/debug/_ext/596309756/utils_buffer_variance.o
 .debug_ranges  0x0000000000000000       0x18 build/SAMD21_IOT_WG_ICM42688/debug/_ext/596309756/utils_buffer_variance.o
 .debug_line    0x0000000000000000      0x13b build/SAMD21_IOT_WG_ICM42688/debug/_ext/596309756/utils_buffer_variance.o
 .debug_str     0x0000000000000000      0x32a build/SAMD21_IOT_WG_ICM42688/debug/_ext/596309756/utils_buffer_variance.o
 .comment       0x0000000000000000       0x2c build/SAMD21_IOT_WG_ICM42688/debug/_ext/596309756/utils_buffer_variance.o
 .debug_frame   0x0000000000000000       0x3c build/SAMD21_IOT_WG_ICM42688/debug/_ext/596309756/utils_buffer_variance.o
 .ARM.attributes
                0x0000000000000000       0x2c build/SAMD21_IOT_WG_ICM42688/debug/_ext/596309756/utils_buffer_variance.o
 .text          0x0000000000000000      0x160 build/SAMD21_IOT_WG_ICM42688/debug/_ext/596309756/utils_model_crossing_rate.o
 .data          0x0000000000000000        0x0 build/SAMD21_IOT_WG_ICM42688/debug/_ext/596309756/utils_model_crossing_rate.o
 .bss           0x0000000000000000        0x0 build/SAMD21_IOT_WG_ICM42688/debug/_ext/596309756/utils_model_crossing_rate.o
 .rodata.str1.4
                0x0000000000000000       0x14 build/SAMD21_IOT_WG_ICM42688/debug/_ext/596309756/utils_model_crossing_rate.o
 .debug_info    0x0000000000000000      0x556 build/SAMD21_IOT_WG_ICM42688/debug/_ext/596309756/utils_model_crossing_rate.o
 .debug_abbrev  0x0000000000000000      0x1c8 build/SAMD21_IOT_WG_ICM42688/debug/_ext/596309756/utils_model_crossing_rate.o
 .debug_loc     0x0000000000000000      0x7d9 build/SAMD21_IOT_WG_ICM42688/debug/_ext/596309756/utils_model_crossing_rate.o
 .debug_aranges
                0x0000000000000000       0x20 build/SAMD21_IOT_WG_ICM42688/debug/_ext/596309756/utils_model_crossing_rate.o
 .debug_ranges  0x0000000000000000       0x70 build/SAMD21_IOT_WG_ICM42688/debug/_ext/596309756/utils_model_crossing_rate.o
 .debug_line    0x0000000000000000      0x310 build/SAMD21_IOT_WG_ICM42688/debug/_ext/596309756/utils_model_crossing_rate.o
 .debug_str     0x0000000000000000      0x517 build/SAMD21_IOT_WG_ICM42688/debug/_ext/596309756/utils_model_crossing_rate.o
 .comment       0x0000000000000000       0x2c build/SAMD21_IOT_WG_ICM42688/debug/_ext/596309756/utils_model_crossing_rate.o
 .debug_frame   0x0000000000000000       0x6c build/SAMD21_IOT_WG_ICM42688/debug/_ext/596309756/utils_model_crossing_rate.o
 .ARM.attributes
                0x0000000000000000       0x2c build/SAMD21_IOT_WG_ICM42688/debug/_ext/596309756/utils_model_crossing_rate.o
 .text          0x0000000000000000       0xdc build/SAMD21_IOT_WG_ICM42688/debug/_ext/596309756/utils_model_cross_column.o
 .data          0x0000000000000000        0x0 build/SAMD21_IOT_WG_ICM42688/debug/_ext/596309756/utils_model_cross_column.o
 .bss           0x0000000000000000        0x0 build/SAMD21_IOT_WG_ICM42688/debug/_ext/596309756/utils_model_cross_column.o
 .debug_info    0x0000000000000000      0x6f6 build/SAMD21_IOT_WG_ICM42688/debug/_ext/596309756/utils_model_cross_column.o
 .debug_abbrev  0x0000000000000000      0x11a build/SAMD21_IOT_WG_ICM42688/debug/_ext/596309756/utils_model_cross_column.o
 .debug_loc     0x0000000000000000      0x32f build/SAMD21_IOT_WG_ICM42688/debug/_ext/596309756/utils_model_cross_column.o
 .debug_aranges
                0x0000000000000000       0x20 build/SAMD21_IOT_WG_ICM42688/debug/_ext/596309756/utils_model_cross_column.o
 .debug_line    0x0000000000000000      0x1d4 build/SAMD21_IOT_WG_ICM42688/debug/_ext/596309756/utils_model_cross_column.o
 .debug_str     0x0000000000000000      0x674 build/SAMD21_IOT_WG_ICM42688/debug/_ext/596309756/utils_model_cross_column.o
 .comment       0x0000000000000000       0x2c build/SAMD21_IOT_WG_ICM42688/debug/_ext/596309756/utils_model_cross_column.o
 .debug_frame   0x0000000000000000       0x3c build/SAMD21_IOT_WG_ICM42688/debug/_ext/596309756/utils_model_cross_column.o
 .ARM.attributes
                0x0000000000000000       0x2c build/SAMD21_IOT_WG_ICM42688/debug/_ext/596309756/utils_model_cross_column.o
 .text          0x0000000000000000       0x64 build/SAMD21_IOT_WG_ICM42688/debug/_ext/596309756/utils_model_cross_difference.o
 .data          0x0000000000000000        0x0 build/SAMD21_IOT_WG_ICM42688/debug/_ext/596309756/utils_model_cross_difference.o
 .bss           0x0000000000000000        0x0 build/SAMD21_IOT_WG_ICM42688/debug/_ext/596309756/utils_model_cross_difference.o
 .debug_info    0x0000000000000000      0x735 build/SAMD21_IOT_WG_ICM42688/debug/_ext/596309756/utils_model_cross_difference.o
 .debug_abbrev  0x0000000000000000      0x129 build/SAMD21_IOT_WG_ICM42688/debug/_ext/596309756/utils_model_cross_difference.o
 .debug_loc     0x0000000000000000      0x3bc build/SAMD21_IOT_WG_ICM42688/debug/_ext/596309756/utils_model_cross_difference.o
 .debug_aranges
                0x0000000000000000       0x20 build/SAMD21_IOT_WG_ICM42688/debug/_ext/596309756/utils_model_cross_difference.o
 .debug_line    0x0000000000000000      0x161 build/SAMD21_IOT_WG_ICM42688/debug/_ext/596309756/utils_model_cross_difference.o
 .debug_str     0x0000000000000000      0x6aa build/SAMD21_IOT_WG_ICM42688/debug/_ext/596309756/utils_model_cross_difference.o
 .comment       0x0000000000000000       0x2c build/SAMD21_IOT_WG_ICM42688/debug/_ext/596309756/utils_model_cross_difference.o
 .debug_frame   0x0000000000000000       0x2c build/SAMD21_IOT_WG_ICM42688/debug/_ext/596309756/utils_model_cross_difference.o
 .ARM.attributes
                0x0000000000000000       0x2c build/SAMD21_IOT_WG_ICM42688/debug/_ext/596309756/utils_model_cross_difference.o
 .text          0x0000000000000000       0xc8 build/SAMD21_IOT_WG_ICM42688/debug/_ext/596309756/utils_model_mean_crossing_rate.o
 .data          0x0000000000000000        0x0 build/SAMD21_IOT_WG_ICM42688/debug/_ext/596309756/utils_model_mean_crossing_rate.o
 .bss           0x0000000000000000        0x0 build/SAMD21_IOT_WG_ICM42688/debug/_ext/596309756/utils_model_mean_crossing_rate.o
 .debug_info    0x0000000000000000      0x736 build/SAMD21_IOT_WG_ICM42688/debug/_ext/596309756/utils_model_mean_crossing_rate.o
 .debug_abbrev  0x0000000000000000      0x16d build/SAMD21_IOT_WG_ICM42688/debug/_ext/596309756/utils_model_mean_crossing_rate.o
 .debug_loc     0x0000000000000000      0x23e build/SAMD21_IOT_WG_ICM42688/debug/_ext/596309756/utils_model_mean_crossing_rate.o
 .debug_aranges
                0x0000000000000000       0x20 build/SAMD21_IOT_WG_ICM42688/debug/_ext/596309756/utils_model_mean_crossing_rate.o
 .debug_line    0x0000000000000000      0x190 build/SAMD21_IOT_WG_ICM42688/debug/_ext/596309756/utils_model_mean_crossing_rate.o
 .debug_str     0x0000000000000000      0x6ae build/SAMD21_IOT_WG_ICM42688/debug/_ext/596309756/utils_model_mean_crossing_rate.o
 .comment       0x0000000000000000       0x2c build/SAMD21_IOT_WG_ICM42688/debug/_ext/596309756/utils_model_mean_crossing_rate.o
 .debug_frame   0x0000000000000000       0x3c build/SAMD21_IOT_WG_ICM42688/debug/_ext/596309756/utils_model_mean_crossing_rate.o
 .ARM.attributes
                0x0000000000000000       0x2c build/SAMD21_IOT_WG_ICM42688/debug/_ext/596309756/utils_model_mean_crossing_rate.o
 .text          0x0000000000000000       0xf8 build/SAMD21_IOT_WG_ICM42688/debug/_ext/596309756/utils_model_pct_time_over_sigma.o
 .data          0x0000000000000000        0x0 build/SAMD21_IOT_WG_ICM42688/debug/_ext/596309756/utils_model_pct_time_over_sigma.o
 .bss           0x0000000000000000        0x0 build/SAMD21_IOT_WG_ICM42688/debug/_ext/596309756/utils_model_pct_time_over_sigma.o
 .debug_info    0x0000000000000000      0x76d build/SAMD21_IOT_WG_ICM42688/debug/_ext/596309756/utils_model_pct_time_over_sigma.o
 .debug_abbrev  0x0000000000000000      0x162 build/SAMD21_IOT_WG_ICM42688/debug/_ext/596309756/utils_model_pct_time_over_sigma.o
 .debug_loc     0x0000000000000000      0x2ef build/SAMD21_IOT_WG_ICM42688/debug/_ext/596309756/utils_model_pct_time_over_sigma.o
 .debug_aranges
                0x0000000000000000       0x20 build/SAMD21_IOT_WG_ICM42688/debug/_ext/596309756/utils_model_pct_time_over_sigma.o
 .debug_ranges  0x0000000000000000       0x38 build/SAMD21_IOT_WG_ICM42688/debug/_ext/596309756/utils_model_pct_time_over_sigma.o
 .debug_line    0x0000000000000000      0x1ca build/SAMD21_IOT_WG_ICM42688/debug/_ext/596309756/utils_model_pct_time_over_sigma.o
 .debug_str     0x0000000000000000      0x690 build/SAMD21_IOT_WG_ICM42688/debug/_ext/596309756/utils_model_pct_time_over_sigma.o
 .comment       0x0000000000000000       0x2c build/SAMD21_IOT_WG_ICM42688/debug/_ext/596309756/utils_model_pct_time_over_sigma.o
 .debug_frame   0x0000000000000000       0x3c build/SAMD21_IOT_WG_ICM42688/debug/_ext/596309756/utils_model_pct_time_over_sigma.o
 .ARM.attributes
                0x0000000000000000       0x2c build/SAMD21_IOT_WG_ICM42688/debug/_ext/596309756/utils_model_pct_time_over_sigma.o
 .text          0x0000000000000000       0xb8 build/SAMD21_IOT_WG_ICM42688/debug/_ext/596309756/utils_model_pct_time_over_threshold.o
 .data          0x0000000000000000        0x0 build/SAMD21_IOT_WG_ICM42688/debug/_ext/596309756/utils_model_pct_time_over_threshold.o
 .bss           0x0000000000000000        0x0 build/SAMD21_IOT_WG_ICM42688/debug/_ext/596309756/utils_model_pct_time_over_threshold.o
 .debug_info    0x0000000000000000      0x714 build/SAMD21_IOT_WG_ICM42688/debug/_ext/596309756/utils_model_pct_time_over_threshold.o
 .debug_abbrev  0x0000000000000000      0x123 build/SAMD21_IOT_WG_ICM42688/debug/_ext/596309756/utils_model_pct_time_over_threshold.o
 .debug_loc     0x0000000000000000      0x33b build/SAMD21_IOT_WG_ICM42688/debug/_ext/596309756/utils_model_pct_time_over_threshold.o
 .debug_aranges
                0x0000000000000000       0x20 build/SAMD21_IOT_WG_ICM42688/debug/_ext/596309756/utils_model_pct_time_over_threshold.o
 .debug_line    0x0000000000000000      0x196 build/SAMD21_IOT_WG_ICM42688/debug/_ext/596309756/utils_model_pct_time_over_threshold.o
 .debug_str     0x0000000000000000      0x698 build/SAMD21_IOT_WG_ICM42688/debug/_ext/596309756/utils_model_pct_time_over_threshold.o
 .comment       0x0000000000000000       0x2c build/SAMD21_IOT_WG_ICM42688/debug/_ext/596309756/utils_model_pct_time_over_threshold.o
 .debug_frame   0x0000000000000000       0x3c build/SAMD21_IOT_WG_ICM42688/debug/_ext/596309756/utils_model_pct_time_over_threshold.o
 .ARM.attributes
                0x0000000000000000       0x2c build/SAMD21_IOT_WG_ICM42688/debug/_ext/596309756/utils_model_pct_time_over_threshold.o
 .text          0x0000000000000000       0xd4 build/SAMD21_IOT_WG_ICM42688/debug/_ext/596309756/utils_model_stats_max_min.o
 .data          0x0000000000000000        0x0 build/SAMD21_IOT_WG_ICM42688/debug/_ext/596309756/utils_model_stats_max_min.o
 .bss           0x0000000000000000        0x0 build/SAMD21_IOT_WG_ICM42688/debug/_ext/596309756/utils_model_stats_max_min.o
 .debug_info    0x0000000000000000      0x6fc build/SAMD21_IOT_WG_ICM42688/debug/_ext/596309756/utils_model_stats_max_min.o
 .debug_abbrev  0x0000000000000000      0x121 build/SAMD21_IOT_WG_ICM42688/debug/_ext/596309756/utils_model_stats_max_min.o
 .debug_loc     0x0000000000000000      0x25e build/SAMD21_IOT_WG_ICM42688/debug/_ext/596309756/utils_model_stats_max_min.o
 .debug_aranges
                0x0000000000000000       0x20 build/SAMD21_IOT_WG_ICM42688/debug/_ext/596309756/utils_model_stats_max_min.o
 .debug_ranges  0x0000000000000000       0x18 build/SAMD21_IOT_WG_ICM42688/debug/_ext/596309756/utils_model_stats_max_min.o
 .debug_line    0x0000000000000000      0x192 build/SAMD21_IOT_WG_ICM42688/debug/_ext/596309756/utils_model_stats_max_min.o
 .debug_str     0x0000000000000000      0x670 build/SAMD21_IOT_WG_ICM42688/debug/_ext/596309756/utils_model_stats_max_min.o
 .comment       0x0000000000000000       0x2c build/SAMD21_IOT_WG_ICM42688/debug/_ext/596309756/utils_model_stats_max_min.o
 .debug_frame   0x0000000000000000       0x3c build/SAMD21_IOT_WG_ICM42688/debug/_ext/596309756/utils_model_stats_max_min.o
 .ARM.attributes
                0x0000000000000000       0x2c build/SAMD21_IOT_WG_ICM42688/debug/_ext/596309756/utils_model_stats_max_min.o
 .text          0x0000000000000000       0xd0 build/SAMD21_IOT_WG_ICM42688/debug/_ext/596309756/utils_model_total_area.o
 .data          0x0000000000000000        0x0 build/SAMD21_IOT_WG_ICM42688/debug/_ext/596309756/utils_model_total_area.o
 .bss           0x0000000000000000        0x0 build/SAMD21_IOT_WG_ICM42688/debug/_ext/596309756/utils_model_total_area.o
 .debug_info    0x0000000000000000      0x6c4 build/SAMD21_IOT_WG_ICM42688/debug/_ext/596309756/utils_model_total_area.o
 .debug_abbrev  0x0000000000000000      0x129 build/SAMD21_IOT_WG_ICM42688/debug/_ext/596309756/utils_model_total_area.o
 .debug_loc     0x0000000000000000      0x27f build/SAMD21_IOT_WG_ICM42688/debug/_ext/596309756/utils_model_total_area.o
 .debug_aranges
                0x0000000000000000       0x20 build/SAMD21_IOT_WG_ICM42688/debug/_ext/596309756/utils_model_total_area.o
 .debug_line    0x0000000000000000      0x19c build/SAMD21_IOT_WG_ICM42688/debug/_ext/596309756/utils_model_total_area.o
 .debug_str     0x0000000000000000      0x664 build/SAMD21_IOT_WG_ICM42688/debug/_ext/596309756/utils_model_total_area.o
 .comment       0x0000000000000000       0x2c build/SAMD21_IOT_WG_ICM42688/debug/_ext/596309756/utils_model_total_area.o
 .debug_frame   0x0000000000000000       0x3c build/SAMD21_IOT_WG_ICM42688/debug/_ext/596309756/utils_model_total_area.o
 .ARM.attributes
                0x0000000000000000       0x2c build/SAMD21_IOT_WG_ICM42688/debug/_ext/596309756/utils_model_total_area.o
 .text          0x0000000000000000       0xd8 build/SAMD21_IOT_WG_ICM42688/debug/_ext/596309756/utils_model_total_energy.o
 .data          0x0000000000000000        0x0 build/SAMD21_IOT_WG_ICM42688/debug/_ext/596309756/utils_model_total_energy.o
 .bss           0x0000000000000000        0x0 build/SAMD21_IOT_WG_ICM42688/debug/_ext/596309756/utils_model_total_energy.o
 .debug_info    0x0000000000000000      0x6e2 build/SAMD21_IOT_WG_ICM42688/debug/_ext/596309756/utils_model_total_energy.o
 .debug_abbrev  0x0000000000000000      0x11a build/SAMD21_IOT_WG_ICM42688/debug/_ext/596309756/utils_model_total_energy.o
 .debug_loc     0x0000000000000000      0x315 build/SAMD21_IOT_WG_ICM42688/debug/_ext/596309756/utils_model_total_energy.o
 .debug_aranges
                0x0000000000000000       0x20 build/SAMD21_IOT_WG_ICM42688/debug/_ext/596309756/utils_model_total_energy.o
 .debug_line    0x0000000000000000      0x195 build/SAMD21_IOT_WG_ICM42688/debug/_ext/596309756/utils_model_total_energy.o
 .debug_str     0x0000000000000000      0x661 build/SAMD21_IOT_WG_ICM42688/debug/_ext/596309756/utils_model_total_energy.o
 .comment       0x0000000000000000       0x2c build/SAMD21_IOT_WG_ICM42688/debug/_ext/596309756/utils_model_total_energy.o
 .debug_frame   0x0000000000000000       0x3c build/SAMD21_IOT_WG_ICM42688/debug/_ext/596309756/utils_model_total_energy.o
 .ARM.attributes
                0x0000000000000000       0x2c build/SAMD21_IOT_WG_ICM42688/debug/_ext/596309756/utils_model_total_energy.o
 .text          0x0000000000000000       0x20 build/SAMD21_IOT_WG_ICM42688/debug/_ext/596309756/utils_tr_sensor.o
 .data          0x0000000000000000        0x0 build/SAMD21_IOT_WG_ICM42688/debug/_ext/596309756/utils_tr_sensor.o
 .bss           0x0000000000000000        0x0 build/SAMD21_IOT_WG_ICM42688/debug/_ext/596309756/utils_tr_sensor.o
 .debug_info    0x0000000000000000      0x151 build/SAMD21_IOT_WG_ICM42688/debug/_ext/596309756/utils_tr_sensor.o
 .debug_abbrev  0x0000000000000000       0xb9 build/SAMD21_IOT_WG_ICM42688/debug/_ext/596309756/utils_tr_sensor.o
 .debug_loc     0x0000000000000000       0x80 build/SAMD21_IOT_WG_ICM42688/debug/_ext/596309756/utils_tr_sensor.o
 .debug_aranges
                0x0000000000000000       0x20 build/SAMD21_IOT_WG_ICM42688/debug/_ext/596309756/utils_tr_sensor.o
 .debug_line    0x0000000000000000       0xdf build/SAMD21_IOT_WG_ICM42688/debug/_ext/596309756/utils_tr_sensor.o
 .debug_str     0x0000000000000000      0x2e7 build/SAMD21_IOT_WG_ICM42688/debug/_ext/596309756/utils_tr_sensor.o
 .comment       0x0000000000000000       0x2c build/SAMD21_IOT_WG_ICM42688/debug/_ext/596309756/utils_tr_sensor.o
 .debug_frame   0x0000000000000000       0x30 build/SAMD21_IOT_WG_ICM42688/debug/_ext/596309756/utils_tr_sensor.o
 .ARM.attributes
                0x0000000000000000       0x2c build/SAMD21_IOT_WG_ICM42688/debug/_ext/596309756/utils_tr_sensor.o
 .text          0x0000000000000000      0x208 build/SAMD21_IOT_WG_ICM42688/debug/_ext/299863938/ssi_comms.o
 .data          0x0000000000000000        0x8 build/SAMD21_IOT_WG_ICM42688/debug/_ext/299863938/ssi_comms.o
 .bss           0x0000000000000000       0x20 build/SAMD21_IOT_WG_ICM42688/debug/_ext/299863938/ssi_comms.o
 .rodata.str1.4
                0x0000000000000000       0x14 build/SAMD21_IOT_WG_ICM42688/debug/_ext/299863938/ssi_comms.o
 .debug_info    0x0000000000000000      0x608 build/SAMD21_IOT_WG_ICM42688/debug/_ext/299863938/ssi_comms.o
 .debug_abbrev  0x0000000000000000      0x2b0 build/SAMD21_IOT_WG_ICM42688/debug/_ext/299863938/ssi_comms.o
 .debug_loc     0x0000000000000000      0x458 build/SAMD21_IOT_WG_ICM42688/debug/_ext/299863938/ssi_comms.o
 .debug_aranges
                0x0000000000000000       0x20 build/SAMD21_IOT_WG_ICM42688/debug/_ext/299863938/ssi_comms.o
 .debug_ranges  0x0000000000000000       0x48 build/SAMD21_IOT_WG_ICM42688/debug/_ext/299863938/ssi_comms.o
 .debug_line    0x0000000000000000      0x31e build/SAMD21_IOT_WG_ICM42688/debug/_ext/299863938/ssi_comms.o
 .debug_str     0x0000000000000000      0x449 build/SAMD21_IOT_WG_ICM42688/debug/_ext/299863938/ssi_comms.o
 .comment       0x0000000000000000       0x2c build/SAMD21_IOT_WG_ICM42688/debug/_ext/299863938/ssi_comms.o
 .debug_frame   0x0000000000000000      0x10c build/SAMD21_IOT_WG_ICM42688/debug/_ext/299863938/ssi_comms.o
 .ARM.attributes
                0x0000000000000000       0x2c build/SAMD21_IOT_WG_ICM42688/debug/_ext/299863938/ssi_comms.o
 .data          0x0000000000000000        0x0 build/SAMD21_IOT_WG_ICM42688/debug/_ext/1360937237/ringbuffer.o
 .bss           0x0000000000000000        0x0 build/SAMD21_IOT_WG_ICM42688/debug/_ext/1360937237/ringbuffer.o
 .data          0x0000000000000000        0x0 build/SAMD21_IOT_WG_ICM42688/debug/_ext/1360937237/app.o
 .data          0x0000000000000000        0x0 build/SAMD21_IOT_WG_ICM42688/debug/_ext/1360937237/ws2812.o
 .data          0x0000000000000000        0x0 build/SAMD21_IOT_WG_ICM42688/debug/_ext/1360937237/winc1500_udp_client.o
 .text          0x0000000000000000        0x0 c:/program files/microchip/xc32/v4.60/bin/bin/../../lib/gcc/pic32c/8.3.1/../../../../pic32c/lib/thumb/v6-m/nofp\libpic32c.a(data_init.o)
 .data          0x0000000000000000        0x0 c:/program files/microchip/xc32/v4.60/bin/bin/../../lib/gcc/pic32c/8.3.1/../../../../pic32c/lib/thumb/v6-m/nofp\libpic32c.a(data_init.o)
 .xc_stack_usage
                0x0000000000000000       0x68 c:/program files/microchip/xc32/v4.60/bin/bin/../../lib/gcc/pic32c/8.3.1/../../../../pic32c/lib/thumb/v6-m/nofp\libpic32c.a(data_init.o)
 .xc_stack_usage.hdr
                0x0000000000000000        0xe c:/program files/microchip/xc32/v4.60/bin/bin/../../lib/gcc/pic32c/8.3.1/../../../../pic32c/lib/thumb/v6-m/nofp\libpic32c.a(data_init.o)
 .text          0x0000000000000000        0x0 c:/program files/microchip/xc32/v4.60/bin/bin/../../lib/gcc/pic32c/8.3.1/../../../../pic32c/lib/thumb/v6-m/nofp\libc-size-musl.a(memcpy.o)
 .data          0x0000000000000000        0x0 c:/program files/microchip/xc32/v4.60/bin/bin/../../lib/gcc/pic32c/8.3.1/../../../../pic32c/lib/thumb/v6-m/nofp\libc-size-musl.a(memcpy.o)
 .bss           0x0000000000000000        0x0 c:/program files/microchip/xc32/v4.60/bin/bin/../../lib/gcc/pic32c/8.3.1/../../../../pic32c/lib/thumb/v6-m/nofp\libc-size-musl.a(memcpy.o)
 .xc_stack_usage
                0x0000000000000000       0x14 c:/program files/microchip/xc32/v4.60/bin/bin/../../lib/gcc/pic32c/8.3.1/../../../../pic32c/lib/thumb/v6-m/nofp\libc-size-musl.a(memcpy.o)
 .xc_stack_usage.hdr
                0x0000000000000000        0xe c:/program files/microchip/xc32/v4.60/bin/bin/../../lib/gcc/pic32c/8.3.1/../../../../pic32c/lib/thumb/v6-m/nofp\libc-size-musl.a(memcpy.o)
 .text          0x0000000000000000        0x0 c:/program files/microchip/xc32/v4.60/bin/bin/../../lib/gcc/pic32c/8.3.1/../../../../pic32c/lib/thumb/v6-m/nofp\libc-size-musl.a(memset.o)
 .data          0x0000000000000000        0x0 c:/program files/microchip/xc32/v4.60/bin/bin/../../lib/gcc/pic32c/8.3.1/../../../../pic32c/lib/thumb/v6-m/nofp\libc-size-musl.a(memset.o)
 .bss           0x0000000000000000        0x0 c:/program files/microchip/xc32/v4.60/bin/bin/../../lib/gcc/pic32c/8.3.1/../../../../pic32c/lib/thumb/v6-m/nofp\libc-size-musl.a(memset.o)
 .xc_stack_usage
                0x0000000000000000       0x14 c:/program files/microchip/xc32/v4.60/bin/bin/../../lib/gcc/pic32c/8.3.1/../../../../pic32c/lib/thumb/v6-m/nofp\libc-size-musl.a(memset.o)
 .xc_stack_usage.hdr
                0x0000000000000000        0xe c:/program files/microchip/xc32/v4.60/bin/bin/../../lib/gcc/pic32c/8.3.1/../../../../pic32c/lib/thumb/v6-m/nofp\libc-size-musl.a(memset.o)
 .text          0x0000000000000000        0x0 c:/program files/microchip/xc32/v4.60/bin/bin/../../lib/gcc/pic32c/8.3.1/../../../../pic32c/lib/thumb/v6-m/nofp\libc-size-musl.a(strlen.o)
 .data          0x0000000000000000        0x0 c:/program files/microchip/xc32/v4.60/bin/bin/../../lib/gcc/pic32c/8.3.1/../../../../pic32c/lib/thumb/v6-m/nofp\libc-size-musl.a(strlen.o)
 .bss           0x0000000000000000        0x0 c:/program files/microchip/xc32/v4.60/bin/bin/../../lib/gcc/pic32c/8.3.1/../../../../pic32c/lib/thumb/v6-m/nofp\libc-size-musl.a(strlen.o)
 .xc_stack_usage
                0x0000000000000000       0x14 c:/program files/microchip/xc32/v4.60/bin/bin/../../lib/gcc/pic32c/8.3.1/../../../../pic32c/lib/thumb/v6-m/nofp\libc-size-musl.a(strlen.o)
 .xc_stack_usage.hdr
                0x0000000000000000        0xe c:/program files/microchip/xc32/v4.60/bin/bin/../../lib/gcc/pic32c/8.3.1/../../../../pic32c/lib/thumb/v6-m/nofp\libc-size-musl.a(strlen.o)
 .text          0x0000000000000000        0x0 c:/program files/microchip/xc32/v4.60/bin/bin/../../lib/gcc/pic32c/8.3.1/../../../../pic32c/lib/thumb/v6-m/nofp\libc-size-musl.a(strchr.o)
 .data          0x0000000000000000        0x0 c:/program files/microchip/xc32/v4.60/bin/bin/../../lib/gcc/pic32c/8.3.1/../../../../pic32c/lib/thumb/v6-m/nofp\libc-size-musl.a(strchr.o)
 .bss           0x0000000000000000        0x0 c:/program files/microchip/xc32/v4.60/bin/bin/../../lib/gcc/pic32c/8.3.1/../../../../pic32c/lib/thumb/v6-m/nofp\libc-size-musl.a(strchr.o)
 .xc_stack_usage
                0x0000000000000000       0x14 c:/program files/microchip/xc32/v4.60/bin/bin/../../lib/gcc/pic32c/8.3.1/../../../../pic32c/lib/thumb/v6-m/nofp\libc-size-musl.a(strchr.o)
 .xc_stack_usage.hdr
                0x0000000000000000        0xe c:/program files/microchip/xc32/v4.60/bin/bin/../../lib/gcc/pic32c/8.3.1/../../../../pic32c/lib/thumb/v6-m/nofp\libc-size-musl.a(strchr.o)
 .text          0x0000000000000000        0x0 c:/program files/microchip/xc32/v4.60/bin/bin/../../lib/gcc/pic32c/8.3.1/../../../../pic32c/lib/thumb/v6-m/nofp\libc-size-musl.a(strchrnul.o)
 .data          0x0000000000000000        0x0 c:/program files/microchip/xc32/v4.60/bin/bin/../../lib/gcc/pic32c/8.3.1/../../../../pic32c/lib/thumb/v6-m/nofp\libc-size-musl.a(strchrnul.o)
 .bss           0x0000000000000000        0x0 c:/program files/microchip/xc32/v4.60/bin/bin/../../lib/gcc/pic32c/8.3.1/../../../../pic32c/lib/thumb/v6-m/nofp\libc-size-musl.a(strchrnul.o)
 .xc_stack_usage
                0x0000000000000000       0x19 c:/program files/microchip/xc32/v4.60/bin/bin/../../lib/gcc/pic32c/8.3.1/../../../../pic32c/lib/thumb/v6-m/nofp\libc-size-musl.a(strchrnul.o)
 .xc_stack_usage.hdr
                0x0000000000000000        0xe c:/program files/microchip/xc32/v4.60/bin/bin/../../lib/gcc/pic32c/8.3.1/../../../../pic32c/lib/thumb/v6-m/nofp\libc-size-musl.a(strchrnul.o)
 .text          0x0000000000000000        0x0 c:/program files/microchip/xc32/v4.60/bin/bin/../../lib/gcc/pic32c/8.3.1/../../../../pic32c/lib/thumb/v6-m/nofp\libc-size-musl.a(strcmp.o)
 .data          0x0000000000000000        0x0 c:/program files/microchip/xc32/v4.60/bin/bin/../../lib/gcc/pic32c/8.3.1/../../../../pic32c/lib/thumb/v6-m/nofp\libc-size-musl.a(strcmp.o)
 .bss           0x0000000000000000        0x0 c:/program files/microchip/xc32/v4.60/bin/bin/../../lib/gcc/pic32c/8.3.1/../../../../pic32c/lib/thumb/v6-m/nofp\libc-size-musl.a(strcmp.o)
 .xc_stack_usage
                0x0000000000000000       0x14 c:/program files/microchip/xc32/v4.60/bin/bin/../../lib/gcc/pic32c/8.3.1/../../../../pic32c/lib/thumb/v6-m/nofp\libc-size-musl.a(strcmp.o)
 .text.strcmp   0x0000000000000000       0x16 c:/program files/microchip/xc32/v4.60/bin/bin/../../lib/gcc/pic32c/8.3.1/../../../../pic32c/lib/thumb/v6-m/nofp\libc-size-musl.a(strcmp.o)
 .xc_stack_usage.hdr
                0x0000000000000000        0xe c:/program files/microchip/xc32/v4.60/bin/bin/../../lib/gcc/pic32c/8.3.1/../../../../pic32c/lib/thumb/v6-m/nofp\libc-size-musl.a(strcmp.o)
 .debug_info    0x0000000000000000       0x95 c:/program files/microchip/xc32/v4.60/bin/bin/../../lib/gcc/pic32c/8.3.1/../../../../pic32c/lib/thumb/v6-m/nofp\libc-size-musl.a(strcmp.o)
 .debug_abbrev  0x0000000000000000       0x6e c:/program files/microchip/xc32/v4.60/bin/bin/../../lib/gcc/pic32c/8.3.1/../../../../pic32c/lib/thumb/v6-m/nofp\libc-size-musl.a(strcmp.o)
 .debug_loc     0x0000000000000000       0x96 c:/program files/microchip/xc32/v4.60/bin/bin/../../lib/gcc/pic32c/8.3.1/../../../../pic32c/lib/thumb/v6-m/nofp\libc-size-musl.a(strcmp.o)
 .debug_aranges
                0x0000000000000000       0x20 c:/program files/microchip/xc32/v4.60/bin/bin/../../lib/gcc/pic32c/8.3.1/../../../../pic32c/lib/thumb/v6-m/nofp\libc-size-musl.a(strcmp.o)
 .debug_ranges  0x0000000000000000       0x10 c:/program files/microchip/xc32/v4.60/bin/bin/../../lib/gcc/pic32c/8.3.1/../../../../pic32c/lib/thumb/v6-m/nofp\libc-size-musl.a(strcmp.o)
 .debug_line    0x0000000000000000       0xb9 c:/program files/microchip/xc32/v4.60/bin/bin/../../lib/gcc/pic32c/8.3.1/../../../../pic32c/lib/thumb/v6-m/nofp\libc-size-musl.a(strcmp.o)
 .debug_str     0x0000000000000000      0x1ff c:/program files/microchip/xc32/v4.60/bin/bin/../../lib/gcc/pic32c/8.3.1/../../../../pic32c/lib/thumb/v6-m/nofp\libc-size-musl.a(strcmp.o)
 .comment       0x0000000000000000       0x2c c:/program files/microchip/xc32/v4.60/bin/bin/../../lib/gcc/pic32c/8.3.1/../../../../pic32c/lib/thumb/v6-m/nofp\libc-size-musl.a(strcmp.o)
 .note.GNU-stack
                0x0000000000000000        0x0 c:/program files/microchip/xc32/v4.60/bin/bin/../../lib/gcc/pic32c/8.3.1/../../../../pic32c/lib/thumb/v6-m/nofp\libc-size-musl.a(strcmp.o)
 .debug_frame   0x0000000000000000       0x28 c:/program files/microchip/xc32/v4.60/bin/bin/../../lib/gcc/pic32c/8.3.1/../../../../pic32c/lib/thumb/v6-m/nofp\libc-size-musl.a(strcmp.o)
 .ARM.attributes
                0x0000000000000000       0x2e c:/program files/microchip/xc32/v4.60/bin/bin/../../lib/gcc/pic32c/8.3.1/../../../../pic32c/lib/thumb/v6-m/nofp\libc-size-musl.a(strcmp.o)
 .text          0x0000000000000000        0x0 c:/program files/microchip/xc32/v4.60/bin/bin/../../lib/gcc/pic32c/8.3.1/../../../../pic32c/lib/thumb/v6-m/nofp\libc-size-musl.a(strnlen.o)
 .data          0x0000000000000000        0x0 c:/program files/microchip/xc32/v4.60/bin/bin/../../lib/gcc/pic32c/8.3.1/../../../../pic32c/lib/thumb/v6-m/nofp\libc-size-musl.a(strnlen.o)
 .bss           0x0000000000000000        0x0 c:/program files/microchip/xc32/v4.60/bin/bin/../../lib/gcc/pic32c/8.3.1/../../../../pic32c/lib/thumb/v6-m/nofp\libc-size-musl.a(strnlen.o)
 .xc_stack_usage
                0x0000000000000000       0x15 c:/program files/microchip/xc32/v4.60/bin/bin/../../lib/gcc/pic32c/8.3.1/../../../../pic32c/lib/thumb/v6-m/nofp\libc-size-musl.a(strnlen.o)
 .xc_stack_usage.hdr
                0x0000000000000000        0xe c:/program files/microchip/xc32/v4.60/bin/bin/../../lib/gcc/pic32c/8.3.1/../../../../pic32c/lib/thumb/v6-m/nofp\libc-size-musl.a(strnlen.o)
 .text          0x0000000000000000        0x0 c:/program files/microchip/xc32/v4.60/bin/bin/../../lib/gcc/pic32c/8.3.1/../../../../pic32c/lib/thumb/v6-m/nofp\libc-size-musl.a(memchr.o)
 .data          0x0000000000000000        0x0 c:/program files/microchip/xc32/v4.60/bin/bin/../../lib/gcc/pic32c/8.3.1/../../../../pic32c/lib/thumb/v6-m/nofp\libc-size-musl.a(memchr.o)
 .bss           0x0000000000000000        0x0 c:/program files/microchip/xc32/v4.60/bin/bin/../../lib/gcc/pic32c/8.3.1/../../../../pic32c/lib/thumb/v6-m/nofp\libc-size-musl.a(memchr.o)
 .xc_stack_usage
                0x0000000000000000       0x14 c:/program files/microchip/xc32/v4.60/bin/bin/../../lib/gcc/pic32c/8.3.1/../../../../pic32c/lib/thumb/v6-m/nofp\libc-size-musl.a(memchr.o)
 .xc_stack_usage.hdr
                0x0000000000000000        0xe c:/program files/microchip/xc32/v4.60/bin/bin/../../lib/gcc/pic32c/8.3.1/../../../../pic32c/lib/thumb/v6-m/nofp\libc-size-musl.a(memchr.o)
 .text          0x0000000000000000        0x0 c:/program files/microchip/xc32/v4.60/bin/bin/../../lib/gcc/pic32c/8.3.1/../../../../pic32c/lib/thumb/v6-m/nofp\liblmalloc-musl.a(lite_calloc.o)
 .data          0x0000000000000000        0x0 c:/program files/microchip/xc32/v4.60/bin/bin/../../lib/gcc/pic32c/8.3.1/../../../../pic32c/lib/thumb/v6-m/nofp\liblmalloc-musl.a(lite_calloc.o)
 .bss           0x0000000000000000        0x0 c:/program files/microchip/xc32/v4.60/bin/bin/../../lib/gcc/pic32c/8.3.1/../../../../pic32c/lib/thumb/v6-m/nofp\liblmalloc-musl.a(lite_calloc.o)
 .xc_stack_usage
                0x0000000000000000       0x1d c:/program files/microchip/xc32/v4.60/bin/bin/../../lib/gcc/pic32c/8.3.1/../../../../pic32c/lib/thumb/v6-m/nofp\liblmalloc-musl.a(lite_calloc.o)
 .xc_stack_usage.hdr
                0x0000000000000000        0xe c:/program files/microchip/xc32/v4.60/bin/bin/../../lib/gcc/pic32c/8.3.1/../../../../pic32c/lib/thumb/v6-m/nofp\liblmalloc-musl.a(lite_calloc.o)
 .text          0x0000000000000000        0x0 c:/program files/microchip/xc32/v4.60/bin/bin/../../lib/gcc/pic32c/8.3.1/../../../../pic32c/lib/thumb/v6-m/nofp\liblmalloc-musl.a(lite_free.o)
 .data          0x0000000000000000        0x0 c:/program files/microchip/xc32/v4.60/bin/bin/../../lib/gcc/pic32c/8.3.1/../../../../pic32c/lib/thumb/v6-m/nofp\liblmalloc-musl.a(lite_free.o)
 .xc_stack_usage
                0x0000000000000000       0x59 c:/program files/microchip/xc32/v4.60/bin/bin/../../lib/gcc/pic32c/8.3.1/../../../../pic32c/lib/thumb/v6-m/nofp\liblmalloc-musl.a(lite_free.o)
 .xc_stack_usage.hdr
                0x0000000000000000        0xe c:/program files/microchip/xc32/v4.60/bin/bin/../../lib/gcc/pic32c/8.3.1/../../../../pic32c/lib/thumb/v6-m/nofp\liblmalloc-musl.a(lite_free.o)
 .text          0x0000000000000000        0x0 c:/program files/microchip/xc32/v4.60/bin/bin/../../lib/gcc/pic32c/8.3.1/../../../../pic32c/lib/thumb/v6-m/nofp\liblmalloc-musl.a(lite_malloc.o)
 .bss           0x0000000000000000        0x0 c:/program files/microchip/xc32/v4.60/bin/bin/../../lib/gcc/pic32c/8.3.1/../../../../pic32c/lib/thumb/v6-m/nofp\liblmalloc-musl.a(lite_malloc.o)
 .xc_stack_usage
                0x0000000000000000       0x1d c:/program files/microchip/xc32/v4.60/bin/bin/../../lib/gcc/pic32c/8.3.1/../../../../pic32c/lib/thumb/v6-m/nofp\liblmalloc-musl.a(lite_malloc.o)
 .xc_stack_usage.hdr
                0x0000000000000000        0xe c:/program files/microchip/xc32/v4.60/bin/bin/../../lib/gcc/pic32c/8.3.1/../../../../pic32c/lib/thumb/v6-m/nofp\liblmalloc-musl.a(lite_malloc.o)
 .ARM.attributes
                0x0000000000000000       0x2c c:/program files/microchip/xc32/v4.60/bin/bin/../../lib/gcc/pic32c/8.3.1/../../../../pic32c/lib/thumb/v6-m/nofp\libm-fast-emfloat.a(modff.o)
 .comment       0x0000000000000000       0x2c c:/program files/microchip/xc32/v4.60/bin/bin/../../lib/gcc/pic32c/8.3.1/../../../../pic32c/lib/thumb/v6-m/nofp\libm-fast-emfloat.a(modff.o)
 .text.modff    0x0000000000000000       0x34 c:/program files/microchip/xc32/v4.60/bin/bin/../../lib/gcc/pic32c/8.3.1/../../../../pic32c/lib/thumb/v6-m/nofp\libm-fast-emfloat.a(modff.o)
 .xc_stack_usage.hdr
                0x0000000000000000        0xe c:/program files/microchip/xc32/v4.60/bin/bin/../../lib/gcc/pic32c/8.3.1/../../../../pic32c/lib/thumb/v6-m/nofp\libm-fast-emfloat.a(modff.o)
 .xc_stack_usage
                0x0000000000000000       0x13 c:/program files/microchip/xc32/v4.60/bin/bin/../../lib/gcc/pic32c/8.3.1/../../../../pic32c/lib/thumb/v6-m/nofp\libm-fast-emfloat.a(modff.o)
 .ARM.attributes
                0x0000000000000000       0x2c c:/program files/microchip/xc32/v4.60/bin/bin/../../lib/gcc/pic32c/8.3.1/../../../../pic32c/lib/thumb/v6-m/nofp\libm-fast-emfloat.a(cos.o)
 .comment       0x0000000000000000       0x2c c:/program files/microchip/xc32/v4.60/bin/bin/../../lib/gcc/pic32c/8.3.1/../../../../pic32c/lib/thumb/v6-m/nofp\libm-fast-emfloat.a(cos.o)
 .text.cos      0x0000000000000000      0x120 c:/program files/microchip/xc32/v4.60/bin/bin/../../lib/gcc/pic32c/8.3.1/../../../../pic32c/lib/thumb/v6-m/nofp\libm-fast-emfloat.a(cos.o)
 .xc_stack_usage.hdr
                0x0000000000000000        0xe c:/program files/microchip/xc32/v4.60/bin/bin/../../lib/gcc/pic32c/8.3.1/../../../../pic32c/lib/thumb/v6-m/nofp\libm-fast-emfloat.a(cos.o)
 .xc_stack_usage
                0x0000000000000000       0x11 c:/program files/microchip/xc32/v4.60/bin/bin/../../lib/gcc/pic32c/8.3.1/../../../../pic32c/lib/thumb/v6-m/nofp\libm-fast-emfloat.a(cos.o)
 .ARM.attributes
                0x0000000000000000       0x2c c:/program files/microchip/xc32/v4.60/bin/bin/../../lib/gcc/pic32c/8.3.1/../../../../pic32c/lib/thumb/v6-m/nofp\libm-fast-emfloat.a(sqrt.o)
 .comment       0x0000000000000000       0x2c c:/program files/microchip/xc32/v4.60/bin/bin/../../lib/gcc/pic32c/8.3.1/../../../../pic32c/lib/thumb/v6-m/nofp\libm-fast-emfloat.a(sqrt.o)
 .text.sqrt     0x0000000000000000      0x118 c:/program files/microchip/xc32/v4.60/bin/bin/../../lib/gcc/pic32c/8.3.1/../../../../pic32c/lib/thumb/v6-m/nofp\libm-fast-emfloat.a(sqrt.o)
 .xc_stack_usage.hdr
                0x0000000000000000        0xe c:/program files/microchip/xc32/v4.60/bin/bin/../../lib/gcc/pic32c/8.3.1/../../../../pic32c/lib/thumb/v6-m/nofp\libm-fast-emfloat.a(sqrt.o)
 .xc_stack_usage
                0x0000000000000000       0x12 c:/program files/microchip/xc32/v4.60/bin/bin/../../lib/gcc/pic32c/8.3.1/../../../../pic32c/lib/thumb/v6-m/nofp\libm-fast-emfloat.a(sqrt.o)
 .ARM.attributes
                0x0000000000000000       0x2c c:/program files/microchip/xc32/v4.60/bin/bin/../../lib/gcc/pic32c/8.3.1/../../../../pic32c/lib/thumb/v6-m/nofp\libm-fast-emfloat.a(pow.o)
 .comment       0x0000000000000000       0x2c c:/program files/microchip/xc32/v4.60/bin/bin/../../lib/gcc/pic32c/8.3.1/../../../../pic32c/lib/thumb/v6-m/nofp\libm-fast-emfloat.a(pow.o)
 .text.pow      0x0000000000000000      0x460 c:/program files/microchip/xc32/v4.60/bin/bin/../../lib/gcc/pic32c/8.3.1/../../../../pic32c/lib/thumb/v6-m/nofp\libm-fast-emfloat.a(pow.o)
 .xc_stack_usage.hdr
                0x0000000000000000        0xe c:/program files/microchip/xc32/v4.60/bin/bin/../../lib/gcc/pic32c/8.3.1/../../../../pic32c/lib/thumb/v6-m/nofp\libm-fast-emfloat.a(pow.o)
 .xc_stack_usage
                0x0000000000000000       0x11 c:/program files/microchip/xc32/v4.60/bin/bin/../../lib/gcc/pic32c/8.3.1/../../../../pic32c/lib/thumb/v6-m/nofp\libm-fast-emfloat.a(pow.o)
 .ARM.attributes
                0x0000000000000000       0x2c c:/program files/microchip/xc32/v4.60/bin/bin/../../lib/gcc/pic32c/8.3.1/../../../../pic32c/lib/thumb/v6-m/nofp\libm-fast-emfloat.a(__SEGGER_RTL_float64_SinCos.o)
 .comment       0x0000000000000000       0x2c c:/program files/microchip/xc32/v4.60/bin/bin/../../lib/gcc/pic32c/8.3.1/../../../../pic32c/lib/thumb/v6-m/nofp\libm-fast-emfloat.a(__SEGGER_RTL_float64_SinCos.o)
 .rodata.__SEGGER_RTL_float64_SinCos
                0x0000000000000000       0x40 c:/program files/microchip/xc32/v4.60/bin/bin/../../lib/gcc/pic32c/8.3.1/../../../../pic32c/lib/thumb/v6-m/nofp\libm-fast-emfloat.a(__SEGGER_RTL_float64_SinCos.o)
 .xc_stack_usage.hdr
                0x0000000000000000        0xe c:/program files/microchip/xc32/v4.60/bin/bin/../../lib/gcc/pic32c/8.3.1/../../../../pic32c/lib/thumb/v6-m/nofp\libm-fast-emfloat.a(__SEGGER_RTL_float64_SinCos.o)
 .xc_stack_usage
                0x0000000000000000        0x0 c:/program files/microchip/xc32/v4.60/bin/bin/../../lib/gcc/pic32c/8.3.1/../../../../pic32c/lib/thumb/v6-m/nofp\libm-fast-emfloat.a(__SEGGER_RTL_float64_SinCos.o)
 .ARM.attributes
                0x0000000000000000       0x2c c:/program files/microchip/xc32/v4.60/bin/bin/../../lib/gcc/pic32c/8.3.1/../../../../pic32c/lib/thumb/v6-m/nofp\libm-fast-emfloat.a(__SEGGER_RTL_kahan_aT2.o)
 .comment       0x0000000000000000       0x2c c:/program files/microchip/xc32/v4.60/bin/bin/../../lib/gcc/pic32c/8.3.1/../../../../pic32c/lib/thumb/v6-m/nofp\libm-fast-emfloat.a(__SEGGER_RTL_kahan_aT2.o)
 .rodata.__SEGGER_RTL_kahan_aT2
                0x0000000000000000      0x100 c:/program files/microchip/xc32/v4.60/bin/bin/../../lib/gcc/pic32c/8.3.1/../../../../pic32c/lib/thumb/v6-m/nofp\libm-fast-emfloat.a(__SEGGER_RTL_kahan_aT2.o)
 .xc_stack_usage.hdr
                0x0000000000000000        0xe c:/program files/microchip/xc32/v4.60/bin/bin/../../lib/gcc/pic32c/8.3.1/../../../../pic32c/lib/thumb/v6-m/nofp\libm-fast-emfloat.a(__SEGGER_RTL_kahan_aT2.o)
 .xc_stack_usage
                0x0000000000000000        0x0 c:/program files/microchip/xc32/v4.60/bin/bin/../../lib/gcc/pic32c/8.3.1/../../../../pic32c/lib/thumb/v6-m/nofp\libm-fast-emfloat.a(__SEGGER_RTL_kahan_aT2.o)
 .ARM.attributes
                0x0000000000000000       0x1c c:/program files/microchip/xc32/v4.60/bin/bin/../../lib/gcc/pic32c/8.3.1/../../../../pic32c/lib/thumb/v6-m/nofp\libm-fast-emfloat.a(__aeabi_fadd.o)
 .text.__aeabi_fadd
                0x0000000000000000      0x13a c:/program files/microchip/xc32/v4.60/bin/bin/../../lib/gcc/pic32c/8.3.1/../../../../pic32c/lib/thumb/v6-m/nofp\libm-fast-emfloat.a(__aeabi_fadd.o)
 .xc_stack_usage.hdr
                0x0000000000000000        0xe c:/program files/microchip/xc32/v4.60/bin/bin/../../lib/gcc/pic32c/8.3.1/../../../../pic32c/lib/thumb/v6-m/nofp\libm-fast-emfloat.a(__aeabi_fadd.o)
 .xc_stack_usage
                0x0000000000000000       0x41 c:/program files/microchip/xc32/v4.60/bin/bin/../../lib/gcc/pic32c/8.3.1/../../../../pic32c/lib/thumb/v6-m/nofp\libm-fast-emfloat.a(__aeabi_fadd.o)
 .xc_stack_usage.hdr
                0x0000000000000000        0xe c:/program files/microchip/xc32/v4.60/bin/bin/../../lib/gcc/pic32c/8.3.1/../../../../pic32c/lib/thumb/v6-m/nofp\libm-fast-emfloat.a(__aeabi_dadd.o)
 .xc_stack_usage
                0x0000000000000000       0x41 c:/program files/microchip/xc32/v4.60/bin/bin/../../lib/gcc/pic32c/8.3.1/../../../../pic32c/lib/thumb/v6-m/nofp\libm-fast-emfloat.a(__aeabi_dadd.o)
 .ARM.attributes
                0x0000000000000000       0x1c c:/program files/microchip/xc32/v4.60/bin/bin/../../lib/gcc/pic32c/8.3.1/../../../../pic32c/lib/thumb/v6-m/nofp\libm-fast-emfloat.a(__aeabi_fsub.o)
 .text.__aeabi_fsub
                0x0000000000000000       0x10 c:/program files/microchip/xc32/v4.60/bin/bin/../../lib/gcc/pic32c/8.3.1/../../../../pic32c/lib/thumb/v6-m/nofp\libm-fast-emfloat.a(__aeabi_fsub.o)
 .xc_stack_usage.hdr
                0x0000000000000000        0xe c:/program files/microchip/xc32/v4.60/bin/bin/../../lib/gcc/pic32c/8.3.1/../../../../pic32c/lib/thumb/v6-m/nofp\libm-fast-emfloat.a(__aeabi_fsub.o)
 .xc_stack_usage
                0x0000000000000000       0x1a c:/program files/microchip/xc32/v4.60/bin/bin/../../lib/gcc/pic32c/8.3.1/../../../../pic32c/lib/thumb/v6-m/nofp\libm-fast-emfloat.a(__aeabi_fsub.o)
 .ARM.attributes
                0x0000000000000000       0x1c c:/program files/microchip/xc32/v4.60/bin/bin/../../lib/gcc/pic32c/8.3.1/../../../../pic32c/lib/thumb/v6-m/nofp\libm-fast-emfloat.a(__aeabi_dsub.o)
 .text.__aeabi_dsub
                0x0000000000000000       0x10 c:/program files/microchip/xc32/v4.60/bin/bin/../../lib/gcc/pic32c/8.3.1/../../../../pic32c/lib/thumb/v6-m/nofp\libm-fast-emfloat.a(__aeabi_dsub.o)
 .xc_stack_usage.hdr
                0x0000000000000000        0xe c:/program files/microchip/xc32/v4.60/bin/bin/../../lib/gcc/pic32c/8.3.1/../../../../pic32c/lib/thumb/v6-m/nofp\libm-fast-emfloat.a(__aeabi_dsub.o)
 .xc_stack_usage
                0x0000000000000000       0x1a c:/program files/microchip/xc32/v4.60/bin/bin/../../lib/gcc/pic32c/8.3.1/../../../../pic32c/lib/thumb/v6-m/nofp\libm-fast-emfloat.a(__aeabi_dsub.o)
 .ARM.attributes
                0x0000000000000000       0x1c c:/program files/microchip/xc32/v4.60/bin/bin/../../lib/gcc/pic32c/8.3.1/../../../../pic32c/lib/thumb/v6-m/nofp\libm-fast-emfloat.a(__aeabi_fmul.o)
 .text.__aeabi_fmul
                0x0000000000000000       0xb6 c:/program files/microchip/xc32/v4.60/bin/bin/../../lib/gcc/pic32c/8.3.1/../../../../pic32c/lib/thumb/v6-m/nofp\libm-fast-emfloat.a(__aeabi_fmul.o)
 .xc_stack_usage.hdr
                0x0000000000000000        0xe c:/program files/microchip/xc32/v4.60/bin/bin/../../lib/gcc/pic32c/8.3.1/../../../../pic32c/lib/thumb/v6-m/nofp\libm-fast-emfloat.a(__aeabi_fmul.o)
 .xc_stack_usage
                0x0000000000000000       0x1a c:/program files/microchip/xc32/v4.60/bin/bin/../../lib/gcc/pic32c/8.3.1/../../../../pic32c/lib/thumb/v6-m/nofp\libm-fast-emfloat.a(__aeabi_fmul.o)
 .xc_stack_usage.hdr
                0x0000000000000000        0xe c:/program files/microchip/xc32/v4.60/bin/bin/../../lib/gcc/pic32c/8.3.1/../../../../pic32c/lib/thumb/v6-m/nofp\libm-fast-emfloat.a(__aeabi_dmul_aux.o)
 .xc_stack_usage
                0x0000000000000000       0x38 c:/program files/microchip/xc32/v4.60/bin/bin/../../lib/gcc/pic32c/8.3.1/../../../../pic32c/lib/thumb/v6-m/nofp\libm-fast-emfloat.a(__aeabi_dmul_aux.o)
 .ARM.attributes
                0x0000000000000000       0x1c c:/program files/microchip/xc32/v4.60/bin/bin/../../lib/gcc/pic32c/8.3.1/../../../../pic32c/lib/thumb/v6-m/nofp\libm-fast-emfloat.a(__aeabi_fdiv.o)
 .text.__aeabi_fdiv
                0x0000000000000000       0x94 c:/program files/microchip/xc32/v4.60/bin/bin/../../lib/gcc/pic32c/8.3.1/../../../../pic32c/lib/thumb/v6-m/nofp\libm-fast-emfloat.a(__aeabi_fdiv.o)
 .xc_stack_usage.hdr
                0x0000000000000000        0xe c:/program files/microchip/xc32/v4.60/bin/bin/../../lib/gcc/pic32c/8.3.1/../../../../pic32c/lib/thumb/v6-m/nofp\libm-fast-emfloat.a(__aeabi_fdiv.o)
 .xc_stack_usage
                0x0000000000000000       0x1a c:/program files/microchip/xc32/v4.60/bin/bin/../../lib/gcc/pic32c/8.3.1/../../../../pic32c/lib/thumb/v6-m/nofp\libm-fast-emfloat.a(__aeabi_fdiv.o)
 .xc_stack_usage.hdr
                0x0000000000000000        0xe c:/program files/microchip/xc32/v4.60/bin/bin/../../lib/gcc/pic32c/8.3.1/../../../../pic32c/lib/thumb/v6-m/nofp\libm-fast-emfloat.a(__aeabi_ddiv.o)
 .xc_stack_usage
                0x0000000000000000       0x1a c:/program files/microchip/xc32/v4.60/bin/bin/../../lib/gcc/pic32c/8.3.1/../../../../pic32c/lib/thumb/v6-m/nofp\libm-fast-emfloat.a(__aeabi_ddiv.o)
 .ARM.attributes
                0x0000000000000000       0x1c c:/program files/microchip/xc32/v4.60/bin/bin/../../lib/gcc/pic32c/8.3.1/../../../../pic32c/lib/thumb/v6-m/nofp\libm-fast-emfloat.a(__aeabi_fcmple.o)
 .text.__aeabi_fcmple
                0x0000000000000000       0x32 c:/program files/microchip/xc32/v4.60/bin/bin/../../lib/gcc/pic32c/8.3.1/../../../../pic32c/lib/thumb/v6-m/nofp\libm-fast-emfloat.a(__aeabi_fcmple.o)
 .xc_stack_usage.hdr
                0x0000000000000000        0xe c:/program files/microchip/xc32/v4.60/bin/bin/../../lib/gcc/pic32c/8.3.1/../../../../pic32c/lib/thumb/v6-m/nofp\libm-fast-emfloat.a(__aeabi_fcmple.o)
 .xc_stack_usage
                0x0000000000000000       0x1c c:/program files/microchip/xc32/v4.60/bin/bin/../../lib/gcc/pic32c/8.3.1/../../../../pic32c/lib/thumb/v6-m/nofp\libm-fast-emfloat.a(__aeabi_fcmple.o)
 .ARM.attributes
                0x0000000000000000       0x1c c:/program files/microchip/xc32/v4.60/bin/bin/../../lib/gcc/pic32c/8.3.1/../../../../pic32c/lib/thumb/v6-m/nofp\libm-fast-emfloat.a(__aeabi_fcmpeq.o)
 .text.__aeabi_fcmpeq
                0x0000000000000000       0x1e c:/program files/microchip/xc32/v4.60/bin/bin/../../lib/gcc/pic32c/8.3.1/../../../../pic32c/lib/thumb/v6-m/nofp\libm-fast-emfloat.a(__aeabi_fcmpeq.o)
 .xc_stack_usage.hdr
                0x0000000000000000        0xe c:/program files/microchip/xc32/v4.60/bin/bin/../../lib/gcc/pic32c/8.3.1/../../../../pic32c/lib/thumb/v6-m/nofp\libm-fast-emfloat.a(__aeabi_fcmpeq.o)
 .xc_stack_usage
                0x0000000000000000       0x1c c:/program files/microchip/xc32/v4.60/bin/bin/../../lib/gcc/pic32c/8.3.1/../../../../pic32c/lib/thumb/v6-m/nofp\libm-fast-emfloat.a(__aeabi_fcmpeq.o)
 .xc_stack_usage.hdr
                0x0000000000000000        0xe c:/program files/microchip/xc32/v4.60/bin/bin/../../lib/gcc/pic32c/8.3.1/../../../../pic32c/lib/thumb/v6-m/nofp\libm-fast-emfloat.a(__aeabi_dcmpeq.o)
 .xc_stack_usage
                0x0000000000000000       0x1c c:/program files/microchip/xc32/v4.60/bin/bin/../../lib/gcc/pic32c/8.3.1/../../../../pic32c/lib/thumb/v6-m/nofp\libm-fast-emfloat.a(__aeabi_dcmpeq.o)
 .ARM.attributes
                0x0000000000000000       0x1c c:/program files/microchip/xc32/v4.60/bin/bin/../../lib/gcc/pic32c/8.3.1/../../../../pic32c/lib/thumb/v6-m/nofp\libm-fast-emfloat.a(__aeabi_fcmpge.o)
 .text.__aeabi_fcmpge
                0x0000000000000000       0x32 c:/program files/microchip/xc32/v4.60/bin/bin/../../lib/gcc/pic32c/8.3.1/../../../../pic32c/lib/thumb/v6-m/nofp\libm-fast-emfloat.a(__aeabi_fcmpge.o)
 .xc_stack_usage.hdr
                0x0000000000000000        0xe c:/program files/microchip/xc32/v4.60/bin/bin/../../lib/gcc/pic32c/8.3.1/../../../../pic32c/lib/thumb/v6-m/nofp\libm-fast-emfloat.a(__aeabi_fcmpge.o)
 .xc_stack_usage
                0x0000000000000000       0x1c c:/program files/microchip/xc32/v4.60/bin/bin/../../lib/gcc/pic32c/8.3.1/../../../../pic32c/lib/thumb/v6-m/nofp\libm-fast-emfloat.a(__aeabi_fcmpge.o)
 .ARM.attributes
                0x0000000000000000       0x1c c:/program files/microchip/xc32/v4.60/bin/bin/../../lib/gcc/pic32c/8.3.1/../../../../pic32c/lib/thumb/v6-m/nofp\libm-fast-emfloat.a(__aeabi_fcmpgt.o)
 .text.__aeabi_fcmpgt
                0x0000000000000000       0x2e c:/program files/microchip/xc32/v4.60/bin/bin/../../lib/gcc/pic32c/8.3.1/../../../../pic32c/lib/thumb/v6-m/nofp\libm-fast-emfloat.a(__aeabi_fcmpgt.o)
 .xc_stack_usage.hdr
                0x0000000000000000        0xe c:/program files/microchip/xc32/v4.60/bin/bin/../../lib/gcc/pic32c/8.3.1/../../../../pic32c/lib/thumb/v6-m/nofp\libm-fast-emfloat.a(__aeabi_fcmpgt.o)
 .xc_stack_usage
                0x0000000000000000       0x1c c:/program files/microchip/xc32/v4.60/bin/bin/../../lib/gcc/pic32c/8.3.1/../../../../pic32c/lib/thumb/v6-m/nofp\libm-fast-emfloat.a(__aeabi_fcmpgt.o)
 .xc_stack_usage.hdr
                0x0000000000000000        0xe c:/program files/microchip/xc32/v4.60/bin/bin/../../lib/gcc/pic32c/8.3.1/../../../../pic32c/lib/thumb/v6-m/nofp\libm-fast-emfloat.a(__aeabi_dcmpgt.o)
 .xc_stack_usage
                0x0000000000000000       0x1c c:/program files/microchip/xc32/v4.60/bin/bin/../../lib/gcc/pic32c/8.3.1/../../../../pic32c/lib/thumb/v6-m/nofp\libm-fast-emfloat.a(__aeabi_dcmpgt.o)
 .ARM.attributes
                0x0000000000000000       0x1c c:/program files/microchip/xc32/v4.60/bin/bin/../../lib/gcc/pic32c/8.3.1/../../../../pic32c/lib/thumb/v6-m/nofp\libm-fast-emfloat.a(__aeabi_fcmplt.o)
 .text.__aeabi_fcmplt
                0x0000000000000000       0x2e c:/program files/microchip/xc32/v4.60/bin/bin/../../lib/gcc/pic32c/8.3.1/../../../../pic32c/lib/thumb/v6-m/nofp\libm-fast-emfloat.a(__aeabi_fcmplt.o)
 .xc_stack_usage.hdr
                0x0000000000000000        0xe c:/program files/microchip/xc32/v4.60/bin/bin/../../lib/gcc/pic32c/8.3.1/../../../../pic32c/lib/thumb/v6-m/nofp\libm-fast-emfloat.a(__aeabi_fcmplt.o)
 .xc_stack_usage
                0x0000000000000000       0x1c c:/program files/microchip/xc32/v4.60/bin/bin/../../lib/gcc/pic32c/8.3.1/../../../../pic32c/lib/thumb/v6-m/nofp\libm-fast-emfloat.a(__aeabi_fcmplt.o)
 .xc_stack_usage.hdr
                0x0000000000000000        0xe c:/program files/microchip/xc32/v4.60/bin/bin/../../lib/gcc/pic32c/8.3.1/../../../../pic32c/lib/thumb/v6-m/nofp\libm-fast-emfloat.a(__aeabi_dcmplt.o)
 .xc_stack_usage
                0x0000000000000000       0x1c c:/program files/microchip/xc32/v4.60/bin/bin/../../lib/gcc/pic32c/8.3.1/../../../../pic32c/lib/thumb/v6-m/nofp\libm-fast-emfloat.a(__aeabi_dcmplt.o)
 .ARM.attributes
                0x0000000000000000       0x1c c:/program files/microchip/xc32/v4.60/bin/bin/../../lib/gcc/pic32c/8.3.1/../../../../pic32c/lib/thumb/v6-m/nofp\libm-fast-emfloat.a(__aeabi_f2iz.o)
 .text.__aeabi_f2iz
                0x0000000000000000       0x3e c:/program files/microchip/xc32/v4.60/bin/bin/../../lib/gcc/pic32c/8.3.1/../../../../pic32c/lib/thumb/v6-m/nofp\libm-fast-emfloat.a(__aeabi_f2iz.o)
 .xc_stack_usage.hdr
                0x0000000000000000        0xe c:/program files/microchip/xc32/v4.60/bin/bin/../../lib/gcc/pic32c/8.3.1/../../../../pic32c/lib/thumb/v6-m/nofp\libm-fast-emfloat.a(__aeabi_f2iz.o)
 .xc_stack_usage
                0x0000000000000000       0x1a c:/program files/microchip/xc32/v4.60/bin/bin/../../lib/gcc/pic32c/8.3.1/../../../../pic32c/lib/thumb/v6-m/nofp\libm-fast-emfloat.a(__aeabi_f2iz.o)
 .xc_stack_usage.hdr
                0x0000000000000000        0xe c:/program files/microchip/xc32/v4.60/bin/bin/../../lib/gcc/pic32c/8.3.1/../../../../pic32c/lib/thumb/v6-m/nofp\libm-fast-emfloat.a(__aeabi_d2iz.o)
 .xc_stack_usage
                0x0000000000000000       0x1a c:/program files/microchip/xc32/v4.60/bin/bin/../../lib/gcc/pic32c/8.3.1/../../../../pic32c/lib/thumb/v6-m/nofp\libm-fast-emfloat.a(__aeabi_d2iz.o)
 .ARM.attributes
                0x0000000000000000       0x1c c:/program files/microchip/xc32/v4.60/bin/bin/../../lib/gcc/pic32c/8.3.1/../../../../pic32c/lib/thumb/v6-m/nofp\libm-fast-emfloat.a(__aeabi_f2uiz.o)
 .text.__aeabi_f2uiz
                0x0000000000000000       0x24 c:/program files/microchip/xc32/v4.60/bin/bin/../../lib/gcc/pic32c/8.3.1/../../../../pic32c/lib/thumb/v6-m/nofp\libm-fast-emfloat.a(__aeabi_f2uiz.o)
 .xc_stack_usage.hdr
                0x0000000000000000        0xe c:/program files/microchip/xc32/v4.60/bin/bin/../../lib/gcc/pic32c/8.3.1/../../../../pic32c/lib/thumb/v6-m/nofp\libm-fast-emfloat.a(__aeabi_f2uiz.o)
 .xc_stack_usage
                0x0000000000000000       0x1b c:/program files/microchip/xc32/v4.60/bin/bin/../../lib/gcc/pic32c/8.3.1/../../../../pic32c/lib/thumb/v6-m/nofp\libm-fast-emfloat.a(__aeabi_f2uiz.o)
 .xc_stack_usage.hdr
                0x0000000000000000        0xe c:/program files/microchip/xc32/v4.60/bin/bin/../../lib/gcc/pic32c/8.3.1/../../../../pic32c/lib/thumb/v6-m/nofp\libm-fast-emfloat.a(__aeabi_d2uiz.o)
 .xc_stack_usage
                0x0000000000000000       0x43 c:/program files/microchip/xc32/v4.60/bin/bin/../../lib/gcc/pic32c/8.3.1/../../../../pic32c/lib/thumb/v6-m/nofp\libm-fast-emfloat.a(__aeabi_d2uiz.o)
 .ARM.attributes
                0x0000000000000000       0x1c c:/program files/microchip/xc32/v4.60/bin/bin/../../lib/gcc/pic32c/8.3.1/../../../../pic32c/lib/thumb/v6-m/nofp\libm-fast-emfloat.a(__aeabi_i2f.o)
 .text.__aeabi_i2f
                0x0000000000000000       0x26 c:/program files/microchip/xc32/v4.60/bin/bin/../../lib/gcc/pic32c/8.3.1/../../../../pic32c/lib/thumb/v6-m/nofp\libm-fast-emfloat.a(__aeabi_i2f.o)
 .xc_stack_usage.hdr
                0x0000000000000000        0xe c:/program files/microchip/xc32/v4.60/bin/bin/../../lib/gcc/pic32c/8.3.1/../../../../pic32c/lib/thumb/v6-m/nofp\libm-fast-emfloat.a(__aeabi_i2f.o)
 .xc_stack_usage
                0x0000000000000000       0x19 c:/program files/microchip/xc32/v4.60/bin/bin/../../lib/gcc/pic32c/8.3.1/../../../../pic32c/lib/thumb/v6-m/nofp\libm-fast-emfloat.a(__aeabi_i2f.o)
 .ARM.attributes
                0x0000000000000000       0x1c c:/program files/microchip/xc32/v4.60/bin/bin/../../lib/gcc/pic32c/8.3.1/../../../../pic32c/lib/thumb/v6-m/nofp\libm-fast-emfloat.a(__aeabi_i2d.o)
 .text.__aeabi_i2d
                0x0000000000000000       0x1c c:/program files/microchip/xc32/v4.60/bin/bin/../../lib/gcc/pic32c/8.3.1/../../../../pic32c/lib/thumb/v6-m/nofp\libm-fast-emfloat.a(__aeabi_i2d.o)
 .xc_stack_usage.hdr
                0x0000000000000000        0xe c:/program files/microchip/xc32/v4.60/bin/bin/../../lib/gcc/pic32c/8.3.1/../../../../pic32c/lib/thumb/v6-m/nofp\libm-fast-emfloat.a(__aeabi_i2d.o)
 .xc_stack_usage
                0x0000000000000000       0x19 c:/program files/microchip/xc32/v4.60/bin/bin/../../lib/gcc/pic32c/8.3.1/../../../../pic32c/lib/thumb/v6-m/nofp\libm-fast-emfloat.a(__aeabi_i2d.o)
 .ARM.attributes
                0x0000000000000000       0x1c c:/program files/microchip/xc32/v4.60/bin/bin/../../lib/gcc/pic32c/8.3.1/../../../../pic32c/lib/thumb/v6-m/nofp\libm-fast-emfloat.a(__aeabi_l2f.o)
 .text.__aeabi_l2f
                0x0000000000000000       0x20 c:/program files/microchip/xc32/v4.60/bin/bin/../../lib/gcc/pic32c/8.3.1/../../../../pic32c/lib/thumb/v6-m/nofp\libm-fast-emfloat.a(__aeabi_l2f.o)
 .xc_stack_usage.hdr
                0x0000000000000000        0xe c:/program files/microchip/xc32/v4.60/bin/bin/../../lib/gcc/pic32c/8.3.1/../../../../pic32c/lib/thumb/v6-m/nofp\libm-fast-emfloat.a(__aeabi_l2f.o)
 .xc_stack_usage
                0x0000000000000000       0x19 c:/program files/microchip/xc32/v4.60/bin/bin/../../lib/gcc/pic32c/8.3.1/../../../../pic32c/lib/thumb/v6-m/nofp\libm-fast-emfloat.a(__aeabi_l2f.o)
 .ARM.attributes
                0x0000000000000000       0x1c c:/program files/microchip/xc32/v4.60/bin/bin/../../lib/gcc/pic32c/8.3.1/../../../../pic32c/lib/thumb/v6-m/nofp\libm-fast-emfloat.a(__aeabi_ui2f.o)
 .text.__aeabi_ui2f
                0x0000000000000000       0x1e c:/program files/microchip/xc32/v4.60/bin/bin/../../lib/gcc/pic32c/8.3.1/../../../../pic32c/lib/thumb/v6-m/nofp\libm-fast-emfloat.a(__aeabi_ui2f.o)
 .xc_stack_usage.hdr
                0x0000000000000000        0xe c:/program files/microchip/xc32/v4.60/bin/bin/../../lib/gcc/pic32c/8.3.1/../../../../pic32c/lib/thumb/v6-m/nofp\libm-fast-emfloat.a(__aeabi_ui2f.o)
 .xc_stack_usage
                0x0000000000000000       0x1a c:/program files/microchip/xc32/v4.60/bin/bin/../../lib/gcc/pic32c/8.3.1/../../../../pic32c/lib/thumb/v6-m/nofp\libm-fast-emfloat.a(__aeabi_ui2f.o)
 .ARM.attributes
                0x0000000000000000       0x1c c:/program files/microchip/xc32/v4.60/bin/bin/../../lib/gcc/pic32c/8.3.1/../../../../pic32c/lib/thumb/v6-m/nofp\libm-fast-emfloat.a(__aeabi_ui2d.o)
 .text.__aeabi_ui2d
                0x0000000000000000       0x1c c:/program files/microchip/xc32/v4.60/bin/bin/../../lib/gcc/pic32c/8.3.1/../../../../pic32c/lib/thumb/v6-m/nofp\libm-fast-emfloat.a(__aeabi_ui2d.o)
 .xc_stack_usage.hdr
                0x0000000000000000        0xe c:/program files/microchip/xc32/v4.60/bin/bin/../../lib/gcc/pic32c/8.3.1/../../../../pic32c/lib/thumb/v6-m/nofp\libm-fast-emfloat.a(__aeabi_ui2d.o)
 .xc_stack_usage
                0x0000000000000000       0x1a c:/program files/microchip/xc32/v4.60/bin/bin/../../lib/gcc/pic32c/8.3.1/../../../../pic32c/lib/thumb/v6-m/nofp\libm-fast-emfloat.a(__aeabi_ui2d.o)
 .ARM.attributes
                0x0000000000000000       0x1c c:/program files/microchip/xc32/v4.60/bin/bin/../../lib/gcc/pic32c/8.3.1/../../../../pic32c/lib/thumb/v6-m/nofp\libm-fast-emfloat.a(__aeabi_ul2f.o)
 .text.__aeabi_ul2f
                0x0000000000000000       0x30 c:/program files/microchip/xc32/v4.60/bin/bin/../../lib/gcc/pic32c/8.3.1/../../../../pic32c/lib/thumb/v6-m/nofp\libm-fast-emfloat.a(__aeabi_ul2f.o)
 .xc_stack_usage.hdr
                0x0000000000000000        0xe c:/program files/microchip/xc32/v4.60/bin/bin/../../lib/gcc/pic32c/8.3.1/../../../../pic32c/lib/thumb/v6-m/nofp\libm-fast-emfloat.a(__aeabi_ul2f.o)
 .xc_stack_usage
                0x0000000000000000       0x1a c:/program files/microchip/xc32/v4.60/bin/bin/../../lib/gcc/pic32c/8.3.1/../../../../pic32c/lib/thumb/v6-m/nofp\libm-fast-emfloat.a(__aeabi_ul2f.o)
 .ARM.attributes
                0x0000000000000000       0x1c c:/program files/microchip/xc32/v4.60/bin/bin/../../lib/gcc/pic32c/8.3.1/../../../../pic32c/lib/thumb/v6-m/nofp\libm-fast-emfloat.a(__aeabi_f2d.o)
 .text.__aeabi_f2d
                0x0000000000000000       0x44 c:/program files/microchip/xc32/v4.60/bin/bin/../../lib/gcc/pic32c/8.3.1/../../../../pic32c/lib/thumb/v6-m/nofp\libm-fast-emfloat.a(__aeabi_f2d.o)
 .xc_stack_usage.hdr
                0x0000000000000000        0xe c:/program files/microchip/xc32/v4.60/bin/bin/../../lib/gcc/pic32c/8.3.1/../../../../pic32c/lib/thumb/v6-m/nofp\libm-fast-emfloat.a(__aeabi_f2d.o)
 .xc_stack_usage
                0x0000000000000000       0x19 c:/program files/microchip/xc32/v4.60/bin/bin/../../lib/gcc/pic32c/8.3.1/../../../../pic32c/lib/thumb/v6-m/nofp\libm-fast-emfloat.a(__aeabi_f2d.o)
 .ARM.attributes
                0x0000000000000000       0x1c c:/program files/microchip/xc32/v4.60/bin/bin/../../lib/gcc/pic32c/8.3.1/../../../../pic32c/lib/thumb/v6-m/nofp\libm-fast-emfloat.a(__aeabi_d2f.o)
 .text.__aeabi_d2f
                0x0000000000000000       0x62 c:/program files/microchip/xc32/v4.60/bin/bin/../../lib/gcc/pic32c/8.3.1/../../../../pic32c/lib/thumb/v6-m/nofp\libm-fast-emfloat.a(__aeabi_d2f.o)
 .xc_stack_usage.hdr
                0x0000000000000000        0xe c:/program files/microchip/xc32/v4.60/bin/bin/../../lib/gcc/pic32c/8.3.1/../../../../pic32c/lib/thumb/v6-m/nofp\libm-fast-emfloat.a(__aeabi_d2f.o)
 .xc_stack_usage
                0x0000000000000000       0x19 c:/program files/microchip/xc32/v4.60/bin/bin/../../lib/gcc/pic32c/8.3.1/../../../../pic32c/lib/thumb/v6-m/nofp\libm-fast-emfloat.a(__aeabi_d2f.o)
 .ARM.attributes
                0x0000000000000000       0x2c c:/program files/microchip/xc32/v4.60/bin/bin/../../lib/gcc/pic32c/8.3.1/../../../../pic32c/lib/thumb/v6-m/nofp\libm-fast-emfloat.a(__SEGGER_RTL_float64_PolyEvalP.o)
 .comment       0x0000000000000000       0x2c c:/program files/microchip/xc32/v4.60/bin/bin/../../lib/gcc/pic32c/8.3.1/../../../../pic32c/lib/thumb/v6-m/nofp\libm-fast-emfloat.a(__SEGGER_RTL_float64_PolyEvalP.o)
 .text.__SEGGER_RTL_float64_PolyEvalP
                0x0000000000000000       0xd4 c:/program files/microchip/xc32/v4.60/bin/bin/../../lib/gcc/pic32c/8.3.1/../../../../pic32c/lib/thumb/v6-m/nofp\libm-fast-emfloat.a(__SEGGER_RTL_float64_PolyEvalP.o)
 .xc_stack_usage.hdr
                0x0000000000000000        0xe c:/program files/microchip/xc32/v4.60/bin/bin/../../lib/gcc/pic32c/8.3.1/../../../../pic32c/lib/thumb/v6-m/nofp\libm-fast-emfloat.a(__SEGGER_RTL_float64_PolyEvalP.o)
 .xc_stack_usage
                0x0000000000000000       0x2c c:/program files/microchip/xc32/v4.60/bin/bin/../../lib/gcc/pic32c/8.3.1/../../../../pic32c/lib/thumb/v6-m/nofp\libm-fast-emfloat.a(__SEGGER_RTL_float64_PolyEvalP.o)
 .ARM.attributes
                0x0000000000000000       0x2c c:/program files/microchip/xc32/v4.60/bin/bin/../../lib/gcc/pic32c/8.3.1/../../../../pic32c/lib/thumb/v6-m/nofp\libm-fast-emfloat.a(ldexp.o)
 .comment       0x0000000000000000       0x2c c:/program files/microchip/xc32/v4.60/bin/bin/../../lib/gcc/pic32c/8.3.1/../../../../pic32c/lib/thumb/v6-m/nofp\libm-fast-emfloat.a(ldexp.o)
 .text.ldexp    0x0000000000000000       0x54 c:/program files/microchip/xc32/v4.60/bin/bin/../../lib/gcc/pic32c/8.3.1/../../../../pic32c/lib/thumb/v6-m/nofp\libm-fast-emfloat.a(ldexp.o)
 .xc_stack_usage.hdr
                0x0000000000000000        0xe c:/program files/microchip/xc32/v4.60/bin/bin/../../lib/gcc/pic32c/8.3.1/../../../../pic32c/lib/thumb/v6-m/nofp\libm-fast-emfloat.a(ldexp.o)
 .xc_stack_usage
                0x0000000000000000       0x13 c:/program files/microchip/xc32/v4.60/bin/bin/../../lib/gcc/pic32c/8.3.1/../../../../pic32c/lib/thumb/v6-m/nofp\libm-fast-emfloat.a(ldexp.o)
 .ARM.attributes
                0x0000000000000000       0x2c c:/program files/microchip/xc32/v4.60/bin/bin/../../lib/gcc/pic32c/8.3.1/../../../../pic32c/lib/thumb/v6-m/nofp\libm-fast-emfloat.a(log.o)
 .comment       0x0000000000000000       0x2c c:/program files/microchip/xc32/v4.60/bin/bin/../../lib/gcc/pic32c/8.3.1/../../../../pic32c/lib/thumb/v6-m/nofp\libm-fast-emfloat.a(log.o)
 .text.log      0x0000000000000000      0x1dc c:/program files/microchip/xc32/v4.60/bin/bin/../../lib/gcc/pic32c/8.3.1/../../../../pic32c/lib/thumb/v6-m/nofp\libm-fast-emfloat.a(log.o)
 .xc_stack_usage.hdr
                0x0000000000000000        0xe c:/program files/microchip/xc32/v4.60/bin/bin/../../lib/gcc/pic32c/8.3.1/../../../../pic32c/lib/thumb/v6-m/nofp\libm-fast-emfloat.a(log.o)
 .xc_stack_usage
                0x0000000000000000       0x11 c:/program files/microchip/xc32/v4.60/bin/bin/../../lib/gcc/pic32c/8.3.1/../../../../pic32c/lib/thumb/v6-m/nofp\libm-fast-emfloat.a(log.o)
 .ARM.attributes
                0x0000000000000000       0x2c c:/program files/microchip/xc32/v4.60/bin/bin/../../lib/gcc/pic32c/8.3.1/../../../../pic32c/lib/thumb/v6-m/nofp\libm-fast-emfloat.a(exp.o)
 .comment       0x0000000000000000       0x2c c:/program files/microchip/xc32/v4.60/bin/bin/../../lib/gcc/pic32c/8.3.1/../../../../pic32c/lib/thumb/v6-m/nofp\libm-fast-emfloat.a(exp.o)
 .text.exp      0x0000000000000000      0x20c c:/program files/microchip/xc32/v4.60/bin/bin/../../lib/gcc/pic32c/8.3.1/../../../../pic32c/lib/thumb/v6-m/nofp\libm-fast-emfloat.a(exp.o)
 .xc_stack_usage.hdr
                0x0000000000000000        0xe c:/program files/microchip/xc32/v4.60/bin/bin/../../lib/gcc/pic32c/8.3.1/../../../../pic32c/lib/thumb/v6-m/nofp\libm-fast-emfloat.a(exp.o)
 .xc_stack_usage
                0x0000000000000000       0x11 c:/program files/microchip/xc32/v4.60/bin/bin/../../lib/gcc/pic32c/8.3.1/../../../../pic32c/lib/thumb/v6-m/nofp\libm-fast-emfloat.a(exp.o)
 .ARM.attributes
                0x0000000000000000       0x2c c:/program files/microchip/xc32/v4.60/bin/bin/../../lib/gcc/pic32c/8.3.1/../../../../pic32c/lib/thumb/v6-m/nofp\libm-fast-emfloat.a(__SEGGER_RTL_float64_Log.o)
 .comment       0x0000000000000000       0x2c c:/program files/microchip/xc32/v4.60/bin/bin/../../lib/gcc/pic32c/8.3.1/../../../../pic32c/lib/thumb/v6-m/nofp\libm-fast-emfloat.a(__SEGGER_RTL_float64_Log.o)
 .rodata.__SEGGER_RTL_float64_Log
                0x0000000000000000       0x28 c:/program files/microchip/xc32/v4.60/bin/bin/../../lib/gcc/pic32c/8.3.1/../../../../pic32c/lib/thumb/v6-m/nofp\libm-fast-emfloat.a(__SEGGER_RTL_float64_Log.o)
 .xc_stack_usage.hdr
                0x0000000000000000        0xe c:/program files/microchip/xc32/v4.60/bin/bin/../../lib/gcc/pic32c/8.3.1/../../../../pic32c/lib/thumb/v6-m/nofp\libm-fast-emfloat.a(__SEGGER_RTL_float64_Log.o)
 .xc_stack_usage
                0x0000000000000000        0x0 c:/program files/microchip/xc32/v4.60/bin/bin/../../lib/gcc/pic32c/8.3.1/../../../../pic32c/lib/thumb/v6-m/nofp\libm-fast-emfloat.a(__SEGGER_RTL_float64_Log.o)
 .ARM.attributes
                0x0000000000000000       0x2c c:/program files/microchip/xc32/v4.60/bin/bin/../../lib/gcc/pic32c/8.3.1/../../../../pic32c/lib/thumb/v6-m/nofp\libm-fast-emfloat.a(__SEGGER_RTL_float64_PolyEvalQ.o)
 .comment       0x0000000000000000       0x2c c:/program files/microchip/xc32/v4.60/bin/bin/../../lib/gcc/pic32c/8.3.1/../../../../pic32c/lib/thumb/v6-m/nofp\libm-fast-emfloat.a(__SEGGER_RTL_float64_PolyEvalQ.o)
 .text.__SEGGER_RTL_float64_PolyEvalQ
                0x0000000000000000       0x80 c:/program files/microchip/xc32/v4.60/bin/bin/../../lib/gcc/pic32c/8.3.1/../../../../pic32c/lib/thumb/v6-m/nofp\libm-fast-emfloat.a(__SEGGER_RTL_float64_PolyEvalQ.o)
 .xc_stack_usage.hdr
                0x0000000000000000        0xe c:/program files/microchip/xc32/v4.60/bin/bin/../../lib/gcc/pic32c/8.3.1/../../../../pic32c/lib/thumb/v6-m/nofp\libm-fast-emfloat.a(__SEGGER_RTL_float64_PolyEvalQ.o)
 .xc_stack_usage
                0x0000000000000000       0x2c c:/program files/microchip/xc32/v4.60/bin/bin/../../lib/gcc/pic32c/8.3.1/../../../../pic32c/lib/thumb/v6-m/nofp\libm-fast-emfloat.a(__SEGGER_RTL_float64_PolyEvalQ.o)
 .ARM.attributes
                0x0000000000000000       0x2c c:/program files/microchip/xc32/v4.60/bin/bin/../../lib/gcc/pic32c/8.3.1/../../../../pic32c/lib/thumb/v6-m/nofp\libm-fast-emfloat.a(frexp.o)
 .comment       0x0000000000000000       0x2c c:/program files/microchip/xc32/v4.60/bin/bin/../../lib/gcc/pic32c/8.3.1/../../../../pic32c/lib/thumb/v6-m/nofp\libm-fast-emfloat.a(frexp.o)
 .text.frexp    0x0000000000000000       0x40 c:/program files/microchip/xc32/v4.60/bin/bin/../../lib/gcc/pic32c/8.3.1/../../../../pic32c/lib/thumb/v6-m/nofp\libm-fast-emfloat.a(frexp.o)
 .xc_stack_usage.hdr
                0x0000000000000000        0xe c:/program files/microchip/xc32/v4.60/bin/bin/../../lib/gcc/pic32c/8.3.1/../../../../pic32c/lib/thumb/v6-m/nofp\libm-fast-emfloat.a(frexp.o)
 .xc_stack_usage
                0x0000000000000000       0x13 c:/program files/microchip/xc32/v4.60/bin/bin/../../lib/gcc/pic32c/8.3.1/../../../../pic32c/lib/thumb/v6-m/nofp\libm-fast-emfloat.a(frexp.o)
 .text          0x0000000000000000        0x0 c:/program files/microchip/xc32/v4.60/bin/bin/../../lib/gcc/pic32c/8.3.1/../../../../pic32c/lib/thumb/v6-m/nofp\libg-musl.a(__libc_start_main.o)
 .data          0x0000000000000000        0x0 c:/program files/microchip/xc32/v4.60/bin/bin/../../lib/gcc/pic32c/8.3.1/../../../../pic32c/lib/thumb/v6-m/nofp\libg-musl.a(__libc_start_main.o)
 .bss           0x0000000000000000        0x0 c:/program files/microchip/xc32/v4.60/bin/bin/../../lib/gcc/pic32c/8.3.1/../../../../pic32c/lib/thumb/v6-m/nofp\libg-musl.a(__libc_start_main.o)
 .xc_stack_usage
                0x0000000000000000       0x34 c:/program files/microchip/xc32/v4.60/bin/bin/../../lib/gcc/pic32c/8.3.1/../../../../pic32c/lib/thumb/v6-m/nofp\libg-musl.a(__libc_start_main.o)
 .xc_stack_usage.hdr
                0x0000000000000000        0xe c:/program files/microchip/xc32/v4.60/bin/bin/../../lib/gcc/pic32c/8.3.1/../../../../pic32c/lib/thumb/v6-m/nofp\libg-musl.a(__libc_start_main.o)
 .text          0x0000000000000000        0x0 c:/program files/microchip/xc32/v4.60/bin/bin/../../lib/gcc/pic32c/8.3.1/../../../../pic32c/lib/thumb/v6-m/nofp\libg-musl.a(__errno_location.o)
 .data          0x0000000000000000        0x0 c:/program files/microchip/xc32/v4.60/bin/bin/../../lib/gcc/pic32c/8.3.1/../../../../pic32c/lib/thumb/v6-m/nofp\libg-musl.a(__errno_location.o)
 .xc_stack_usage.hdr
                0x0000000000000000        0xe c:/program files/microchip/xc32/v4.60/bin/bin/../../lib/gcc/pic32c/8.3.1/../../../../pic32c/lib/thumb/v6-m/nofp\libg-musl.a(__errno_location.o)
 .text          0x0000000000000000        0x0 c:/program files/microchip/xc32/v4.60/bin/bin/../../lib/gcc/pic32c/8.3.1/../../../../pic32c/lib/thumb/v6-m/nofp\libg-musl.a(libc.o)
 .data          0x0000000000000000        0x0 c:/program files/microchip/xc32/v4.60/bin/bin/../../lib/gcc/pic32c/8.3.1/../../../../pic32c/lib/thumb/v6-m/nofp\libg-musl.a(libc.o)
 .xc_stack_usage.hdr
                0x0000000000000000        0xe c:/program files/microchip/xc32/v4.60/bin/bin/../../lib/gcc/pic32c/8.3.1/../../../../pic32c/lib/thumb/v6-m/nofp\libg-musl.a(libc.o)
 .text          0x0000000000000000        0x0 c:/program files/microchip/xc32/v4.60/bin/bin/../../lib/gcc/pic32c/8.3.1/../../../../pic32c/lib/thumb/v6-m/nofp\libg-musl.a(expand_heap.o)
 .data          0x0000000000000000        0x0 c:/program files/microchip/xc32/v4.60/bin/bin/../../lib/gcc/pic32c/8.3.1/../../../../pic32c/lib/thumb/v6-m/nofp\libg-musl.a(expand_heap.o)
 .bss           0x0000000000000000        0x0 c:/program files/microchip/xc32/v4.60/bin/bin/../../lib/gcc/pic32c/8.3.1/../../../../pic32c/lib/thumb/v6-m/nofp\libg-musl.a(expand_heap.o)
 .xc_stack_usage
                0x0000000000000000       0x1b c:/program files/microchip/xc32/v4.60/bin/bin/../../lib/gcc/pic32c/8.3.1/../../../../pic32c/lib/thumb/v6-m/nofp\libg-musl.a(expand_heap.o)
 .xc_stack_usage.hdr
                0x0000000000000000        0xe c:/program files/microchip/xc32/v4.60/bin/bin/../../lib/gcc/pic32c/8.3.1/../../../../pic32c/lib/thumb/v6-m/nofp\libg-musl.a(expand_heap.o)
 .text          0x0000000000000000        0x0 c:/program files/microchip/xc32/v4.60/bin/bin/../../lib/gcc/pic32c/8.3.1/../../../../pic32c/lib/thumb/v6-m/nofp\libg-musl.a(__sio_printf_cdeEfFgGnsu.o)
 .data          0x0000000000000000        0x0 c:/program files/microchip/xc32/v4.60/bin/bin/../../lib/gcc/pic32c/8.3.1/../../../../pic32c/lib/thumb/v6-m/nofp\libg-musl.a(__sio_printf_cdeEfFgGnsu.o)
 .bss           0x0000000000000000        0x0 c:/program files/microchip/xc32/v4.60/bin/bin/../../lib/gcc/pic32c/8.3.1/../../../../pic32c/lib/thumb/v6-m/nofp\libg-musl.a(__sio_printf_cdeEfFgGnsu.o)
 .xc_stack_usage
                0x0000000000000000       0x41 c:/program files/microchip/xc32/v4.60/bin/bin/../../lib/gcc/pic32c/8.3.1/../../../../pic32c/lib/thumb/v6-m/nofp\libg-musl.a(__sio_printf_cdeEfFgGnsu.o)
 .text.__sio_printf_cdeEfFgGnsu
                0x0000000000000000       0x20 c:/program files/microchip/xc32/v4.60/bin/bin/../../lib/gcc/pic32c/8.3.1/../../../../pic32c/lib/thumb/v6-m/nofp\libg-musl.a(__sio_printf_cdeEfFgGnsu.o)
 .xc_stack_usage.hdr
                0x0000000000000000        0xe c:/program files/microchip/xc32/v4.60/bin/bin/../../lib/gcc/pic32c/8.3.1/../../../../pic32c/lib/thumb/v6-m/nofp\libg-musl.a(__sio_printf_cdeEfFgGnsu.o)
 .text          0x0000000000000000        0x0 c:/program files/microchip/xc32/v4.60/bin/bin/../../lib/gcc/pic32c/8.3.1/../../../../pic32c/lib/thumb/v6-m/nofp\libg-musl.a(__sio_sprintf_cdeEfFgGnsu.o)
 .data          0x0000000000000000        0x0 c:/program files/microchip/xc32/v4.60/bin/bin/../../lib/gcc/pic32c/8.3.1/../../../../pic32c/lib/thumb/v6-m/nofp\libg-musl.a(__sio_sprintf_cdeEfFgGnsu.o)
 .bss           0x0000000000000000        0x0 c:/program files/microchip/xc32/v4.60/bin/bin/../../lib/gcc/pic32c/8.3.1/../../../../pic32c/lib/thumb/v6-m/nofp\libg-musl.a(__sio_sprintf_cdeEfFgGnsu.o)
 .xc_stack_usage
                0x0000000000000000       0x43 c:/program files/microchip/xc32/v4.60/bin/bin/../../lib/gcc/pic32c/8.3.1/../../../../pic32c/lib/thumb/v6-m/nofp\libg-musl.a(__sio_sprintf_cdeEfFgGnsu.o)
 .text.__wrap_sprintf
                0x0000000000000000       0x16 c:/program files/microchip/xc32/v4.60/bin/bin/../../lib/gcc/pic32c/8.3.1/../../../../pic32c/lib/thumb/v6-m/nofp\libg-musl.a(__sio_sprintf_cdeEfFgGnsu.o)
 .text.__sio_sprintf_cdeEfFgGnsu
                0x0000000000000000       0x20 c:/program files/microchip/xc32/v4.60/bin/bin/../../lib/gcc/pic32c/8.3.1/../../../../pic32c/lib/thumb/v6-m/nofp\libg-musl.a(__sio_sprintf_cdeEfFgGnsu.o)
 .xc_stack_usage.hdr
                0x0000000000000000        0xe c:/program files/microchip/xc32/v4.60/bin/bin/../../lib/gcc/pic32c/8.3.1/../../../../pic32c/lib/thumb/v6-m/nofp\libg-musl.a(__sio_sprintf_cdeEfFgGnsu.o)
 .debug_info    0x0000000000000000      0x203 c:/program files/microchip/xc32/v4.60/bin/bin/../../lib/gcc/pic32c/8.3.1/../../../../pic32c/lib/thumb/v6-m/nofp\libg-musl.a(__sio_sprintf_cdeEfFgGnsu.o)
 .debug_abbrev  0x0000000000000000      0x12b c:/program files/microchip/xc32/v4.60/bin/bin/../../lib/gcc/pic32c/8.3.1/../../../../pic32c/lib/thumb/v6-m/nofp\libg-musl.a(__sio_sprintf_cdeEfFgGnsu.o)
 .debug_loc     0x0000000000000000       0x86 c:/program files/microchip/xc32/v4.60/bin/bin/../../lib/gcc/pic32c/8.3.1/../../../../pic32c/lib/thumb/v6-m/nofp\libg-musl.a(__sio_sprintf_cdeEfFgGnsu.o)
 .debug_aranges
                0x0000000000000000       0x28 c:/program files/microchip/xc32/v4.60/bin/bin/../../lib/gcc/pic32c/8.3.1/../../../../pic32c/lib/thumb/v6-m/nofp\libg-musl.a(__sio_sprintf_cdeEfFgGnsu.o)
 .debug_ranges  0x0000000000000000       0x18 c:/program files/microchip/xc32/v4.60/bin/bin/../../lib/gcc/pic32c/8.3.1/../../../../pic32c/lib/thumb/v6-m/nofp\libg-musl.a(__sio_sprintf_cdeEfFgGnsu.o)
 .debug_line    0x0000000000000000      0x1af c:/program files/microchip/xc32/v4.60/bin/bin/../../lib/gcc/pic32c/8.3.1/../../../../pic32c/lib/thumb/v6-m/nofp\libg-musl.a(__sio_sprintf_cdeEfFgGnsu.o)
 .debug_str     0x0000000000000000      0x33f c:/program files/microchip/xc32/v4.60/bin/bin/../../lib/gcc/pic32c/8.3.1/../../../../pic32c/lib/thumb/v6-m/nofp\libg-musl.a(__sio_sprintf_cdeEfFgGnsu.o)
 .comment       0x0000000000000000       0x2c c:/program files/microchip/xc32/v4.60/bin/bin/../../lib/gcc/pic32c/8.3.1/../../../../pic32c/lib/thumb/v6-m/nofp\libg-musl.a(__sio_sprintf_cdeEfFgGnsu.o)
 .note.GNU-stack
                0x0000000000000000        0x0 c:/program files/microchip/xc32/v4.60/bin/bin/../../lib/gcc/pic32c/8.3.1/../../../../pic32c/lib/thumb/v6-m/nofp\libg-musl.a(__sio_sprintf_cdeEfFgGnsu.o)
 .debug_frame   0x0000000000000000       0x44 c:/program files/microchip/xc32/v4.60/bin/bin/../../lib/gcc/pic32c/8.3.1/../../../../pic32c/lib/thumb/v6-m/nofp\libg-musl.a(__sio_sprintf_cdeEfFgGnsu.o)
 .ARM.attributes
                0x0000000000000000       0x2e c:/program files/microchip/xc32/v4.60/bin/bin/../../lib/gcc/pic32c/8.3.1/../../../../pic32c/lib/thumb/v6-m/nofp\libg-musl.a(__sio_sprintf_cdeEfFgGnsu.o)
 .text          0x0000000000000000        0x0 c:/program files/microchip/xc32/v4.60/bin/bin/../../lib/gcc/pic32c/8.3.1/../../../../pic32c/lib/thumb/v6-m/nofp\libg-musl.a(__fmt_d.o)
 .data          0x0000000000000000        0x0 c:/program files/microchip/xc32/v4.60/bin/bin/../../lib/gcc/pic32c/8.3.1/../../../../pic32c/lib/thumb/v6-m/nofp\libg-musl.a(__fmt_d.o)
 .bss           0x0000000000000000        0x0 c:/program files/microchip/xc32/v4.60/bin/bin/../../lib/gcc/pic32c/8.3.1/../../../../pic32c/lib/thumb/v6-m/nofp\libg-musl.a(__fmt_d.o)
 .xc_stack_usage
                0x0000000000000000       0x15 c:/program files/microchip/xc32/v4.60/bin/bin/../../lib/gcc/pic32c/8.3.1/../../../../pic32c/lib/thumb/v6-m/nofp\libg-musl.a(__fmt_d.o)
 .xc_stack_usage.hdr
                0x0000000000000000        0xe c:/program files/microchip/xc32/v4.60/bin/bin/../../lib/gcc/pic32c/8.3.1/../../../../pic32c/lib/thumb/v6-m/nofp\libg-musl.a(__fmt_d.o)
 .text          0x0000000000000000        0x0 c:/program files/microchip/xc32/v4.60/bin/bin/../../lib/gcc/pic32c/8.3.1/../../../../pic32c/lib/thumb/v6-m/nofp\libg-musl.a(__fmt_fp.o)
 .data          0x0000000000000000        0x0 c:/program files/microchip/xc32/v4.60/bin/bin/../../lib/gcc/pic32c/8.3.1/../../../../pic32c/lib/thumb/v6-m/nofp\libg-musl.a(__fmt_fp.o)
 .bss           0x0000000000000000        0x0 c:/program files/microchip/xc32/v4.60/bin/bin/../../lib/gcc/pic32c/8.3.1/../../../../pic32c/lib/thumb/v6-m/nofp\libg-musl.a(__fmt_fp.o)
 .xc_stack_usage
                0x0000000000000000       0x16 c:/program files/microchip/xc32/v4.60/bin/bin/../../lib/gcc/pic32c/8.3.1/../../../../pic32c/lib/thumb/v6-m/nofp\libg-musl.a(__fmt_fp.o)
 .xc_stack_usage.hdr
                0x0000000000000000        0xe c:/program files/microchip/xc32/v4.60/bin/bin/../../lib/gcc/pic32c/8.3.1/../../../../pic32c/lib/thumb/v6-m/nofp\libg-musl.a(__fmt_fp.o)
 .text          0x0000000000000000        0x0 c:/program files/microchip/xc32/v4.60/bin/bin/../../lib/gcc/pic32c/8.3.1/../../../../pic32c/lib/thumb/v6-m/nofp\libg-musl.a(__fmt_s.o)
 .data          0x0000000000000000        0x0 c:/program files/microchip/xc32/v4.60/bin/bin/../../lib/gcc/pic32c/8.3.1/../../../../pic32c/lib/thumb/v6-m/nofp\libg-musl.a(__fmt_s.o)
 .bss           0x0000000000000000        0x0 c:/program files/microchip/xc32/v4.60/bin/bin/../../lib/gcc/pic32c/8.3.1/../../../../pic32c/lib/thumb/v6-m/nofp\libg-musl.a(__fmt_s.o)
 .xc_stack_usage
                0x0000000000000000       0x15 c:/program files/microchip/xc32/v4.60/bin/bin/../../lib/gcc/pic32c/8.3.1/../../../../pic32c/lib/thumb/v6-m/nofp\libg-musl.a(__fmt_s.o)
 .xc_stack_usage.hdr
                0x0000000000000000        0xe c:/program files/microchip/xc32/v4.60/bin/bin/../../lib/gcc/pic32c/8.3.1/../../../../pic32c/lib/thumb/v6-m/nofp\libg-musl.a(__fmt_s.o)
 .text          0x0000000000000000        0x0 c:/program files/microchip/xc32/v4.60/bin/bin/../../lib/gcc/pic32c/8.3.1/../../../../pic32c/lib/thumb/v6-m/nofp\libg-musl.a(__fmt_u.o)
 .data          0x0000000000000000        0x0 c:/program files/microchip/xc32/v4.60/bin/bin/../../lib/gcc/pic32c/8.3.1/../../../../pic32c/lib/thumb/v6-m/nofp\libg-musl.a(__fmt_u.o)
 .bss           0x0000000000000000        0x0 c:/program files/microchip/xc32/v4.60/bin/bin/../../lib/gcc/pic32c/8.3.1/../../../../pic32c/lib/thumb/v6-m/nofp\libg-musl.a(__fmt_u.o)
 .xc_stack_usage
                0x0000000000000000       0x15 c:/program files/microchip/xc32/v4.60/bin/bin/../../lib/gcc/pic32c/8.3.1/../../../../pic32c/lib/thumb/v6-m/nofp\libg-musl.a(__fmt_u.o)
 .xc_stack_usage.hdr
                0x0000000000000000        0xe c:/program files/microchip/xc32/v4.60/bin/bin/../../lib/gcc/pic32c/8.3.1/../../../../pic32c/lib/thumb/v6-m/nofp\libg-musl.a(__fmt_u.o)
 .text          0x0000000000000000        0x0 c:/program files/microchip/xc32/v4.60/bin/bin/../../lib/gcc/pic32c/8.3.1/../../../../pic32c/lib/thumb/v6-m/nofp\libg-musl.a(__pop_float.o)
 .data          0x0000000000000000        0x0 c:/program files/microchip/xc32/v4.60/bin/bin/../../lib/gcc/pic32c/8.3.1/../../../../pic32c/lib/thumb/v6-m/nofp\libg-musl.a(__pop_float.o)
 .bss           0x0000000000000000        0x0 c:/program files/microchip/xc32/v4.60/bin/bin/../../lib/gcc/pic32c/8.3.1/../../../../pic32c/lib/thumb/v6-m/nofp\libg-musl.a(__pop_float.o)
 .xc_stack_usage
                0x0000000000000000       0x19 c:/program files/microchip/xc32/v4.60/bin/bin/../../lib/gcc/pic32c/8.3.1/../../../../pic32c/lib/thumb/v6-m/nofp\libg-musl.a(__pop_float.o)
 .xc_stack_usage.hdr
                0x0000000000000000        0xe c:/program files/microchip/xc32/v4.60/bin/bin/../../lib/gcc/pic32c/8.3.1/../../../../pic32c/lib/thumb/v6-m/nofp\libg-musl.a(__pop_float.o)
 .text          0x0000000000000000        0x0 c:/program files/microchip/xc32/v4.60/bin/bin/../../lib/gcc/pic32c/8.3.1/../../../../pic32c/lib/thumb/v6-m/nofp\libg-musl.a(__pop_int.o)
 .data          0x0000000000000000        0x0 c:/program files/microchip/xc32/v4.60/bin/bin/../../lib/gcc/pic32c/8.3.1/../../../../pic32c/lib/thumb/v6-m/nofp\libg-musl.a(__pop_int.o)
 .bss           0x0000000000000000        0x0 c:/program files/microchip/xc32/v4.60/bin/bin/../../lib/gcc/pic32c/8.3.1/../../../../pic32c/lib/thumb/v6-m/nofp\libg-musl.a(__pop_int.o)
 .xc_stack_usage
                0x0000000000000000       0x17 c:/program files/microchip/xc32/v4.60/bin/bin/../../lib/gcc/pic32c/8.3.1/../../../../pic32c/lib/thumb/v6-m/nofp\libg-musl.a(__pop_int.o)
 .xc_stack_usage.hdr
                0x0000000000000000        0xe c:/program files/microchip/xc32/v4.60/bin/bin/../../lib/gcc/pic32c/8.3.1/../../../../pic32c/lib/thumb/v6-m/nofp\libg-musl.a(__pop_int.o)
 .text          0x0000000000000000        0x0 c:/program files/microchip/xc32/v4.60/bin/bin/../../lib/gcc/pic32c/8.3.1/../../../../pic32c/lib/thumb/v6-m/nofp\libg-musl.a(__pop_ptr.o)
 .data          0x0000000000000000        0x0 c:/program files/microchip/xc32/v4.60/bin/bin/../../lib/gcc/pic32c/8.3.1/../../../../pic32c/lib/thumb/v6-m/nofp\libg-musl.a(__pop_ptr.o)
 .bss           0x0000000000000000        0x0 c:/program files/microchip/xc32/v4.60/bin/bin/../../lib/gcc/pic32c/8.3.1/../../../../pic32c/lib/thumb/v6-m/nofp\libg-musl.a(__pop_ptr.o)
 .xc_stack_usage
                0x0000000000000000       0x17 c:/program files/microchip/xc32/v4.60/bin/bin/../../lib/gcc/pic32c/8.3.1/../../../../pic32c/lib/thumb/v6-m/nofp\libg-musl.a(__pop_ptr.o)
 .xc_stack_usage.hdr
                0x0000000000000000        0xe c:/program files/microchip/xc32/v4.60/bin/bin/../../lib/gcc/pic32c/8.3.1/../../../../pic32c/lib/thumb/v6-m/nofp\libg-musl.a(__pop_ptr.o)
 .text          0x0000000000000000        0x0 c:/program files/microchip/xc32/v4.60/bin/bin/../../lib/gcc/pic32c/8.3.1/../../../../pic32c/lib/thumb/v6-m/nofp\libg-musl.a(__printf_core.o)
 .data          0x0000000000000000        0x0 c:/program files/microchip/xc32/v4.60/bin/bin/../../lib/gcc/pic32c/8.3.1/../../../../pic32c/lib/thumb/v6-m/nofp\libg-musl.a(__printf_core.o)
 .bss           0x0000000000000000        0x0 c:/program files/microchip/xc32/v4.60/bin/bin/../../lib/gcc/pic32c/8.3.1/../../../../pic32c/lib/thumb/v6-m/nofp\libg-musl.a(__printf_core.o)
 .xc_stack_usage
                0x0000000000000000       0xaf c:/program files/microchip/xc32/v4.60/bin/bin/../../lib/gcc/pic32c/8.3.1/../../../../pic32c/lib/thumb/v6-m/nofp\libg-musl.a(__printf_core.o)
 .text.__string_out
                0x0000000000000000       0x2a c:/program files/microchip/xc32/v4.60/bin/bin/../../lib/gcc/pic32c/8.3.1/../../../../pic32c/lib/thumb/v6-m/nofp\libg-musl.a(__printf_core.o)
 .text.__dummy_fmts
                0x0000000000000000        0x4 c:/program files/microchip/xc32/v4.60/bin/bin/../../lib/gcc/pic32c/8.3.1/../../../../pic32c/lib/thumb/v6-m/nofp\libg-musl.a(__printf_core.o)
 .xc_stack_usage.hdr
                0x0000000000000000        0xe c:/program files/microchip/xc32/v4.60/bin/bin/../../lib/gcc/pic32c/8.3.1/../../../../pic32c/lib/thumb/v6-m/nofp\libg-musl.a(__printf_core.o)
 .text          0x0000000000000000        0x0 c:/program files/microchip/xc32/v4.60/bin/bin/../../lib/gcc/pic32c/8.3.1/../../../../pic32c/lib/thumb/v6-m/nofp\libg-musl.a(stdin.o)
 .xc_stack_usage
                0x0000000000000000       0x33 c:/program files/microchip/xc32/v4.60/bin/bin/../../lib/gcc/pic32c/8.3.1/../../../../pic32c/lib/thumb/v6-m/nofp\libg-musl.a(stdin.o)
 .xc_stack_usage.hdr
                0x0000000000000000        0xe c:/program files/microchip/xc32/v4.60/bin/bin/../../lib/gcc/pic32c/8.3.1/../../../../pic32c/lib/thumb/v6-m/nofp\libg-musl.a(stdin.o)
 .text          0x0000000000000000        0x0 c:/program files/microchip/xc32/v4.60/bin/bin/../../lib/gcc/pic32c/8.3.1/../../../../pic32c/lib/thumb/v6-m/nofp\libg-musl.a(stdout.o)
 .xc_stack_usage
                0x0000000000000000       0x51 c:/program files/microchip/xc32/v4.60/bin/bin/../../lib/gcc/pic32c/8.3.1/../../../../pic32c/lib/thumb/v6-m/nofp\libg-musl.a(stdout.o)
 .text.__dummy  0x0000000000000000        0x8 c:/program files/microchip/xc32/v4.60/bin/bin/../../lib/gcc/pic32c/8.3.1/../../../../pic32c/lib/thumb/v6-m/nofp\libg-musl.a(stdout.o)
 .xc_stack_usage.hdr
                0x0000000000000000        0xe c:/program files/microchip/xc32/v4.60/bin/bin/../../lib/gcc/pic32c/8.3.1/../../../../pic32c/lib/thumb/v6-m/nofp\libg-musl.a(stdout.o)
 .text          0x0000000000000000        0x0 c:/program files/microchip/xc32/v4.60/bin/bin/../../lib/gcc/pic32c/8.3.1/../../../../pic32c/lib/thumb/v6-m/nofp\libg-musl.a(putchar.o)
 .data          0x0000000000000000        0x0 c:/program files/microchip/xc32/v4.60/bin/bin/../../lib/gcc/pic32c/8.3.1/../../../../pic32c/lib/thumb/v6-m/nofp\libg-musl.a(putchar.o)
 .bss           0x0000000000000000        0x0 c:/program files/microchip/xc32/v4.60/bin/bin/../../lib/gcc/pic32c/8.3.1/../../../../pic32c/lib/thumb/v6-m/nofp\libg-musl.a(putchar.o)
 .xc_stack_usage
                0x0000000000000000       0x15 c:/program files/microchip/xc32/v4.60/bin/bin/../../lib/gcc/pic32c/8.3.1/../../../../pic32c/lib/thumb/v6-m/nofp\libg-musl.a(putchar.o)
 .text.putchar  0x0000000000000000       0x14 c:/program files/microchip/xc32/v4.60/bin/bin/../../lib/gcc/pic32c/8.3.1/../../../../pic32c/lib/thumb/v6-m/nofp\libg-musl.a(putchar.o)
 .xc_stack_usage.hdr
                0x0000000000000000        0xe c:/program files/microchip/xc32/v4.60/bin/bin/../../lib/gcc/pic32c/8.3.1/../../../../pic32c/lib/thumb/v6-m/nofp\libg-musl.a(putchar.o)
 .debug_info    0x0000000000000000       0xd0 c:/program files/microchip/xc32/v4.60/bin/bin/../../lib/gcc/pic32c/8.3.1/../../../../pic32c/lib/thumb/v6-m/nofp\libg-musl.a(putchar.o)
 .debug_abbrev  0x0000000000000000       0xc4 c:/program files/microchip/xc32/v4.60/bin/bin/../../lib/gcc/pic32c/8.3.1/../../../../pic32c/lib/thumb/v6-m/nofp\libg-musl.a(putchar.o)
 .debug_loc     0x0000000000000000       0x45 c:/program files/microchip/xc32/v4.60/bin/bin/../../lib/gcc/pic32c/8.3.1/../../../../pic32c/lib/thumb/v6-m/nofp\libg-musl.a(putchar.o)
 .debug_aranges
                0x0000000000000000       0x20 c:/program files/microchip/xc32/v4.60/bin/bin/../../lib/gcc/pic32c/8.3.1/../../../../pic32c/lib/thumb/v6-m/nofp\libg-musl.a(putchar.o)
 .debug_ranges  0x0000000000000000       0x10 c:/program files/microchip/xc32/v4.60/bin/bin/../../lib/gcc/pic32c/8.3.1/../../../../pic32c/lib/thumb/v6-m/nofp\libg-musl.a(putchar.o)
 .debug_line    0x0000000000000000      0x13a c:/program files/microchip/xc32/v4.60/bin/bin/../../lib/gcc/pic32c/8.3.1/../../../../pic32c/lib/thumb/v6-m/nofp\libg-musl.a(putchar.o)
 .debug_str     0x0000000000000000      0x225 c:/program files/microchip/xc32/v4.60/bin/bin/../../lib/gcc/pic32c/8.3.1/../../../../pic32c/lib/thumb/v6-m/nofp\libg-musl.a(putchar.o)
 .comment       0x0000000000000000       0x2c c:/program files/microchip/xc32/v4.60/bin/bin/../../lib/gcc/pic32c/8.3.1/../../../../pic32c/lib/thumb/v6-m/nofp\libg-musl.a(putchar.o)
 .note.GNU-stack
                0x0000000000000000        0x0 c:/program files/microchip/xc32/v4.60/bin/bin/../../lib/gcc/pic32c/8.3.1/../../../../pic32c/lib/thumb/v6-m/nofp\libg-musl.a(putchar.o)
 .debug_frame   0x0000000000000000       0x28 c:/program files/microchip/xc32/v4.60/bin/bin/../../lib/gcc/pic32c/8.3.1/../../../../pic32c/lib/thumb/v6-m/nofp\libg-musl.a(putchar.o)
 .ARM.attributes
                0x0000000000000000       0x2e c:/program files/microchip/xc32/v4.60/bin/bin/../../lib/gcc/pic32c/8.3.1/../../../../pic32c/lib/thumb/v6-m/nofp\libg-musl.a(putchar.o)
 .text          0x0000000000000000        0x0 c:/program files/microchip/xc32/v4.60/bin/bin/../../lib/gcc/pic32c/8.3.1/../../../../pic32c/lib/thumb/v6-m/nofp\libg-musl.a(puts.o)
 .data          0x0000000000000000        0x0 c:/program files/microchip/xc32/v4.60/bin/bin/../../lib/gcc/pic32c/8.3.1/../../../../pic32c/lib/thumb/v6-m/nofp\libg-musl.a(puts.o)
 .bss           0x0000000000000000        0x0 c:/program files/microchip/xc32/v4.60/bin/bin/../../lib/gcc/pic32c/8.3.1/../../../../pic32c/lib/thumb/v6-m/nofp\libg-musl.a(puts.o)
 .xc_stack_usage
                0x0000000000000000       0x12 c:/program files/microchip/xc32/v4.60/bin/bin/../../lib/gcc/pic32c/8.3.1/../../../../pic32c/lib/thumb/v6-m/nofp\libg-musl.a(puts.o)
 .xc_stack_usage.hdr
                0x0000000000000000        0xe c:/program files/microchip/xc32/v4.60/bin/bin/../../lib/gcc/pic32c/8.3.1/../../../../pic32c/lib/thumb/v6-m/nofp\libg-musl.a(puts.o)
 .text          0x0000000000000000        0x0 c:/program files/microchip/xc32/v4.60/bin/bin/../../lib/gcc/pic32c/8.3.1/../../../../pic32c/lib/thumb/v6-m/nofp\libg-musl.a(setbuf.o)
 .data          0x0000000000000000        0x0 c:/program files/microchip/xc32/v4.60/bin/bin/../../lib/gcc/pic32c/8.3.1/../../../../pic32c/lib/thumb/v6-m/nofp\libg-musl.a(setbuf.o)
 .bss           0x0000000000000000        0x0 c:/program files/microchip/xc32/v4.60/bin/bin/../../lib/gcc/pic32c/8.3.1/../../../../pic32c/lib/thumb/v6-m/nofp\libg-musl.a(setbuf.o)
 .xc_stack_usage
                0x0000000000000000       0x14 c:/program files/microchip/xc32/v4.60/bin/bin/../../lib/gcc/pic32c/8.3.1/../../../../pic32c/lib/thumb/v6-m/nofp\libg-musl.a(setbuf.o)
 .xc_stack_usage.hdr
                0x0000000000000000        0xe c:/program files/microchip/xc32/v4.60/bin/bin/../../lib/gcc/pic32c/8.3.1/../../../../pic32c/lib/thumb/v6-m/nofp\libg-musl.a(setbuf.o)
 .text          0x0000000000000000        0x0 c:/program files/microchip/xc32/v4.60/bin/bin/../../lib/gcc/pic32c/8.3.1/../../../../pic32c/lib/thumb/v6-m/nofp\libg-musl.a(atoi.o)
 .data          0x0000000000000000        0x0 c:/program files/microchip/xc32/v4.60/bin/bin/../../lib/gcc/pic32c/8.3.1/../../../../pic32c/lib/thumb/v6-m/nofp\libg-musl.a(atoi.o)
 .bss           0x0000000000000000        0x0 c:/program files/microchip/xc32/v4.60/bin/bin/../../lib/gcc/pic32c/8.3.1/../../../../pic32c/lib/thumb/v6-m/nofp\libg-musl.a(atoi.o)
 .xc_stack_usage
                0x0000000000000000       0x12 c:/program files/microchip/xc32/v4.60/bin/bin/../../lib/gcc/pic32c/8.3.1/../../../../pic32c/lib/thumb/v6-m/nofp\libg-musl.a(atoi.o)
 .xc_stack_usage.hdr
                0x0000000000000000        0xe c:/program files/microchip/xc32/v4.60/bin/bin/../../lib/gcc/pic32c/8.3.1/../../../../pic32c/lib/thumb/v6-m/nofp\libg-musl.a(atoi.o)
 .text          0x0000000000000000        0x0 c:/program files/microchip/xc32/v4.60/bin/bin/../../lib/gcc/pic32c/8.3.1/../../../../pic32c/lib/thumb/v6-m/nofp\libg-musl.a(gmtime.o)
 .data          0x0000000000000000        0x0 c:/program files/microchip/xc32/v4.60/bin/bin/../../lib/gcc/pic32c/8.3.1/../../../../pic32c/lib/thumb/v6-m/nofp\libg-musl.a(gmtime.o)
 .xc_stack_usage
                0x0000000000000000       0x14 c:/program files/microchip/xc32/v4.60/bin/bin/../../lib/gcc/pic32c/8.3.1/../../../../pic32c/lib/thumb/v6-m/nofp\libg-musl.a(gmtime.o)
 .xc_stack_usage.hdr
                0x0000000000000000        0xe c:/program files/microchip/xc32/v4.60/bin/bin/../../lib/gcc/pic32c/8.3.1/../../../../pic32c/lib/thumb/v6-m/nofp\libg-musl.a(gmtime.o)
 .text          0x0000000000000000        0x0 c:/program files/microchip/xc32/v4.60/bin/bin/../../lib/gcc/pic32c/8.3.1/../../../../pic32c/lib/thumb/v6-m/nofp\libg-musl.a(gmtime_r.o)
 .data          0x0000000000000000        0x0 c:/program files/microchip/xc32/v4.60/bin/bin/../../lib/gcc/pic32c/8.3.1/../../../../pic32c/lib/thumb/v6-m/nofp\libg-musl.a(gmtime_r.o)
 .bss           0x0000000000000000        0x0 c:/program files/microchip/xc32/v4.60/bin/bin/../../lib/gcc/pic32c/8.3.1/../../../../pic32c/lib/thumb/v6-m/nofp\libg-musl.a(gmtime_r.o)
 .xc_stack_usage
                0x0000000000000000       0x18 c:/program files/microchip/xc32/v4.60/bin/bin/../../lib/gcc/pic32c/8.3.1/../../../../pic32c/lib/thumb/v6-m/nofp\libg-musl.a(gmtime_r.o)
 .xc_stack_usage.hdr
                0x0000000000000000        0xe c:/program files/microchip/xc32/v4.60/bin/bin/../../lib/gcc/pic32c/8.3.1/../../../../pic32c/lib/thumb/v6-m/nofp\libg-musl.a(gmtime_r.o)
 .text          0x0000000000000000        0x0 c:/program files/microchip/xc32/v4.60/bin/bin/../../lib/gcc/pic32c/8.3.1/../../../../pic32c/lib/thumb/v6-m/nofp\libg-musl.a(mktime.o)
 .data          0x0000000000000000        0x0 c:/program files/microchip/xc32/v4.60/bin/bin/../../lib/gcc/pic32c/8.3.1/../../../../pic32c/lib/thumb/v6-m/nofp\libg-musl.a(mktime.o)
 .bss           0x0000000000000000        0x0 c:/program files/microchip/xc32/v4.60/bin/bin/../../lib/gcc/pic32c/8.3.1/../../../../pic32c/lib/thumb/v6-m/nofp\libg-musl.a(mktime.o)
 .xc_stack_usage
                0x0000000000000000       0x14 c:/program files/microchip/xc32/v4.60/bin/bin/../../lib/gcc/pic32c/8.3.1/../../../../pic32c/lib/thumb/v6-m/nofp\libg-musl.a(mktime.o)
 .xc_stack_usage.hdr
                0x0000000000000000        0xe c:/program files/microchip/xc32/v4.60/bin/bin/../../lib/gcc/pic32c/8.3.1/../../../../pic32c/lib/thumb/v6-m/nofp\libg-musl.a(mktime.o)
 .text          0x0000000000000000        0x0 c:/program files/microchip/xc32/v4.60/bin/bin/../../lib/gcc/pic32c/8.3.1/../../../../pic32c/lib/thumb/v6-m/nofp\libg-musl.a(tolower.o)
 .data          0x0000000000000000        0x0 c:/program files/microchip/xc32/v4.60/bin/bin/../../lib/gcc/pic32c/8.3.1/../../../../pic32c/lib/thumb/v6-m/nofp\libg-musl.a(tolower.o)
 .bss           0x0000000000000000        0x0 c:/program files/microchip/xc32/v4.60/bin/bin/../../lib/gcc/pic32c/8.3.1/../../../../pic32c/lib/thumb/v6-m/nofp\libg-musl.a(tolower.o)
 .xc_stack_usage
                0x0000000000000000       0x2e c:/program files/microchip/xc32/v4.60/bin/bin/../../lib/gcc/pic32c/8.3.1/../../../../pic32c/lib/thumb/v6-m/nofp\libg-musl.a(tolower.o)
 .text.__tolower_l
                0x0000000000000000        0x8 c:/program files/microchip/xc32/v4.60/bin/bin/../../lib/gcc/pic32c/8.3.1/../../../../pic32c/lib/thumb/v6-m/nofp\libg-musl.a(tolower.o)
 .xc_stack_usage.hdr
                0x0000000000000000        0xe c:/program files/microchip/xc32/v4.60/bin/bin/../../lib/gcc/pic32c/8.3.1/../../../../pic32c/lib/thumb/v6-m/nofp\libg-musl.a(tolower.o)
 .text          0x0000000000000000        0x0 c:/program files/microchip/xc32/v4.60/bin/bin/../../lib/gcc/pic32c/8.3.1/../../../../pic32c/lib/thumb/v6-m/nofp\libg-musl.a(__environ.o)
 .data          0x0000000000000000        0x0 c:/program files/microchip/xc32/v4.60/bin/bin/../../lib/gcc/pic32c/8.3.1/../../../../pic32c/lib/thumb/v6-m/nofp\libg-musl.a(__environ.o)
 .xc_stack_usage.hdr
                0x0000000000000000        0xe c:/program files/microchip/xc32/v4.60/bin/bin/../../lib/gcc/pic32c/8.3.1/../../../../pic32c/lib/thumb/v6-m/nofp\libg-musl.a(__environ.o)
 .text          0x0000000000000000        0x0 c:/program files/microchip/xc32/v4.60/bin/bin/../../lib/gcc/pic32c/8.3.1/../../../../pic32c/lib/thumb/v6-m/nofp\libg-musl.a(__int_vfprintf.o)
 .data          0x0000000000000000        0x0 c:/program files/microchip/xc32/v4.60/bin/bin/../../lib/gcc/pic32c/8.3.1/../../../../pic32c/lib/thumb/v6-m/nofp\libg-musl.a(__int_vfprintf.o)
 .bss           0x0000000000000000        0x0 c:/program files/microchip/xc32/v4.60/bin/bin/../../lib/gcc/pic32c/8.3.1/../../../../pic32c/lib/thumb/v6-m/nofp\libg-musl.a(__int_vfprintf.o)
 .xc_stack_usage
                0x0000000000000000       0x18 c:/program files/microchip/xc32/v4.60/bin/bin/../../lib/gcc/pic32c/8.3.1/../../../../pic32c/lib/thumb/v6-m/nofp\libg-musl.a(__int_vfprintf.o)
 .xc_stack_usage.hdr
                0x0000000000000000        0xe c:/program files/microchip/xc32/v4.60/bin/bin/../../lib/gcc/pic32c/8.3.1/../../../../pic32c/lib/thumb/v6-m/nofp\libg-musl.a(__int_vfprintf.o)
 .text          0x0000000000000000        0x0 c:/program files/microchip/xc32/v4.60/bin/bin/../../lib/gcc/pic32c/8.3.1/../../../../pic32c/lib/thumb/v6-m/nofp\libg-musl.a(__int_vsprintf.o)
 .data          0x0000000000000000        0x0 c:/program files/microchip/xc32/v4.60/bin/bin/../../lib/gcc/pic32c/8.3.1/../../../../pic32c/lib/thumb/v6-m/nofp\libg-musl.a(__int_vsprintf.o)
 .bss           0x0000000000000000        0x0 c:/program files/microchip/xc32/v4.60/bin/bin/../../lib/gcc/pic32c/8.3.1/../../../../pic32c/lib/thumb/v6-m/nofp\libg-musl.a(__int_vsprintf.o)
 .xc_stack_usage
                0x0000000000000000       0x18 c:/program files/microchip/xc32/v4.60/bin/bin/../../lib/gcc/pic32c/8.3.1/../../../../pic32c/lib/thumb/v6-m/nofp\libg-musl.a(__int_vsprintf.o)
 .text.__vsprintf
                0x0000000000000000       0x14 c:/program files/microchip/xc32/v4.60/bin/bin/../../lib/gcc/pic32c/8.3.1/../../../../pic32c/lib/thumb/v6-m/nofp\libg-musl.a(__int_vsprintf.o)
 .xc_stack_usage.hdr
                0x0000000000000000        0xe c:/program files/microchip/xc32/v4.60/bin/bin/../../lib/gcc/pic32c/8.3.1/../../../../pic32c/lib/thumb/v6-m/nofp\libg-musl.a(__int_vsprintf.o)
 .debug_info    0x0000000000000000      0x13f c:/program files/microchip/xc32/v4.60/bin/bin/../../lib/gcc/pic32c/8.3.1/../../../../pic32c/lib/thumb/v6-m/nofp\libg-musl.a(__int_vsprintf.o)
 .debug_abbrev  0x0000000000000000       0xcb c:/program files/microchip/xc32/v4.60/bin/bin/../../lib/gcc/pic32c/8.3.1/../../../../pic32c/lib/thumb/v6-m/nofp\libg-musl.a(__int_vsprintf.o)
 .debug_loc     0x0000000000000000       0x8c c:/program files/microchip/xc32/v4.60/bin/bin/../../lib/gcc/pic32c/8.3.1/../../../../pic32c/lib/thumb/v6-m/nofp\libg-musl.a(__int_vsprintf.o)
 .debug_aranges
                0x0000000000000000       0x20 c:/program files/microchip/xc32/v4.60/bin/bin/../../lib/gcc/pic32c/8.3.1/../../../../pic32c/lib/thumb/v6-m/nofp\libg-musl.a(__int_vsprintf.o)
 .debug_ranges  0x0000000000000000       0x10 c:/program files/microchip/xc32/v4.60/bin/bin/../../lib/gcc/pic32c/8.3.1/../../../../pic32c/lib/thumb/v6-m/nofp\libg-musl.a(__int_vsprintf.o)
 .debug_line    0x0000000000000000      0x153 c:/program files/microchip/xc32/v4.60/bin/bin/../../lib/gcc/pic32c/8.3.1/../../../../pic32c/lib/thumb/v6-m/nofp\libg-musl.a(__int_vsprintf.o)
 .debug_str     0x0000000000000000      0x2a6 c:/program files/microchip/xc32/v4.60/bin/bin/../../lib/gcc/pic32c/8.3.1/../../../../pic32c/lib/thumb/v6-m/nofp\libg-musl.a(__int_vsprintf.o)
 .comment       0x0000000000000000       0x2c c:/program files/microchip/xc32/v4.60/bin/bin/../../lib/gcc/pic32c/8.3.1/../../../../pic32c/lib/thumb/v6-m/nofp\libg-musl.a(__int_vsprintf.o)
 .note.GNU-stack
                0x0000000000000000        0x0 c:/program files/microchip/xc32/v4.60/bin/bin/../../lib/gcc/pic32c/8.3.1/../../../../pic32c/lib/thumb/v6-m/nofp\libg-musl.a(__int_vsprintf.o)
 .debug_frame   0x0000000000000000       0x28 c:/program files/microchip/xc32/v4.60/bin/bin/../../lib/gcc/pic32c/8.3.1/../../../../pic32c/lib/thumb/v6-m/nofp\libg-musl.a(__int_vsprintf.o)
 .ARM.attributes
                0x0000000000000000       0x2e c:/program files/microchip/xc32/v4.60/bin/bin/../../lib/gcc/pic32c/8.3.1/../../../../pic32c/lib/thumb/v6-m/nofp\libg-musl.a(__int_vsprintf.o)
 .text          0x0000000000000000        0x0 c:/program files/microchip/xc32/v4.60/bin/bin/../../lib/gcc/pic32c/8.3.1/../../../../pic32c/lib/thumb/v6-m/nofp\libg-musl.a(fputs.o)
 .data          0x0000000000000000        0x0 c:/program files/microchip/xc32/v4.60/bin/bin/../../lib/gcc/pic32c/8.3.1/../../../../pic32c/lib/thumb/v6-m/nofp\libg-musl.a(fputs.o)
 .bss           0x0000000000000000        0x0 c:/program files/microchip/xc32/v4.60/bin/bin/../../lib/gcc/pic32c/8.3.1/../../../../pic32c/lib/thumb/v6-m/nofp\libg-musl.a(fputs.o)
 .xc_stack_usage
                0x0000000000000000       0x13 c:/program files/microchip/xc32/v4.60/bin/bin/../../lib/gcc/pic32c/8.3.1/../../../../pic32c/lib/thumb/v6-m/nofp\libg-musl.a(fputs.o)
 .xc_stack_usage.hdr
                0x0000000000000000        0xe c:/program files/microchip/xc32/v4.60/bin/bin/../../lib/gcc/pic32c/8.3.1/../../../../pic32c/lib/thumb/v6-m/nofp\libg-musl.a(fputs.o)
 .text          0x0000000000000000        0x0 c:/program files/microchip/xc32/v4.60/bin/bin/../../lib/gcc/pic32c/8.3.1/../../../../pic32c/lib/thumb/v6-m/nofp\libg-musl.a(__cvt_u.o)
 .data          0x0000000000000000        0x0 c:/program files/microchip/xc32/v4.60/bin/bin/../../lib/gcc/pic32c/8.3.1/../../../../pic32c/lib/thumb/v6-m/nofp\libg-musl.a(__cvt_u.o)
 .bss           0x0000000000000000        0x0 c:/program files/microchip/xc32/v4.60/bin/bin/../../lib/gcc/pic32c/8.3.1/../../../../pic32c/lib/thumb/v6-m/nofp\libg-musl.a(__cvt_u.o)
 .xc_stack_usage
                0x0000000000000000       0x15 c:/program files/microchip/xc32/v4.60/bin/bin/../../lib/gcc/pic32c/8.3.1/../../../../pic32c/lib/thumb/v6-m/nofp\libg-musl.a(__cvt_u.o)
 .xc_stack_usage.hdr
                0x0000000000000000        0xe c:/program files/microchip/xc32/v4.60/bin/bin/../../lib/gcc/pic32c/8.3.1/../../../../pic32c/lib/thumb/v6-m/nofp\libg-musl.a(__cvt_u.o)
 .text          0x0000000000000000        0x0 c:/program files/microchip/xc32/v4.60/bin/bin/../../lib/gcc/pic32c/8.3.1/../../../../pic32c/lib/thumb/v6-m/nofp\libg-musl.a(__io_init_needed.o)
 .data          0x0000000000000000        0x0 c:/program files/microchip/xc32/v4.60/bin/bin/../../lib/gcc/pic32c/8.3.1/../../../../pic32c/lib/thumb/v6-m/nofp\libg-musl.a(__io_init_needed.o)
 .bss           0x0000000000000000        0x0 c:/program files/microchip/xc32/v4.60/bin/bin/../../lib/gcc/pic32c/8.3.1/../../../../pic32c/lib/thumb/v6-m/nofp\libg-musl.a(__io_init_needed.o)
 .xc_stack_usage
                0x0000000000000000       0x40 c:/program files/microchip/xc32/v4.60/bin/bin/../../lib/gcc/pic32c/8.3.1/../../../../pic32c/lib/thumb/v6-m/nofp\libg-musl.a(__io_init_needed.o)
 .xc_stack_usage.hdr
                0x0000000000000000        0xe c:/program files/microchip/xc32/v4.60/bin/bin/../../lib/gcc/pic32c/8.3.1/../../../../pic32c/lib/thumb/v6-m/nofp\libg-musl.a(__io_init_needed.o)
 .debug_info    0x0000000000000000       0xea c:/program files/microchip/xc32/v4.60/bin/bin/../../lib/gcc/pic32c/8.3.1/../../../../pic32c/lib/thumb/v6-m/nofp\libg-musl.a(__io_init_needed.o)
 .debug_abbrev  0x0000000000000000       0x81 c:/program files/microchip/xc32/v4.60/bin/bin/../../lib/gcc/pic32c/8.3.1/../../../../pic32c/lib/thumb/v6-m/nofp\libg-musl.a(__io_init_needed.o)
 .debug_loc     0x0000000000000000       0x40 c:/program files/microchip/xc32/v4.60/bin/bin/../../lib/gcc/pic32c/8.3.1/../../../../pic32c/lib/thumb/v6-m/nofp\libg-musl.a(__io_init_needed.o)
 .debug_aranges
                0x0000000000000000       0x28 c:/program files/microchip/xc32/v4.60/bin/bin/../../lib/gcc/pic32c/8.3.1/../../../../pic32c/lib/thumb/v6-m/nofp\libg-musl.a(__io_init_needed.o)
 .debug_ranges  0x0000000000000000       0x18 c:/program files/microchip/xc32/v4.60/bin/bin/../../lib/gcc/pic32c/8.3.1/../../../../pic32c/lib/thumb/v6-m/nofp\libg-musl.a(__io_init_needed.o)
 .debug_line    0x0000000000000000      0x137 c:/program files/microchip/xc32/v4.60/bin/bin/../../lib/gcc/pic32c/8.3.1/../../../../pic32c/lib/thumb/v6-m/nofp\libg-musl.a(__io_init_needed.o)
 .debug_str     0x0000000000000000      0x2d4 c:/program files/microchip/xc32/v4.60/bin/bin/../../lib/gcc/pic32c/8.3.1/../../../../pic32c/lib/thumb/v6-m/nofp\libg-musl.a(__io_init_needed.o)
 .comment       0x0000000000000000       0x2c c:/program files/microchip/xc32/v4.60/bin/bin/../../lib/gcc/pic32c/8.3.1/../../../../pic32c/lib/thumb/v6-m/nofp\libg-musl.a(__io_init_needed.o)
 .note.GNU-stack
                0x0000000000000000        0x0 c:/program files/microchip/xc32/v4.60/bin/bin/../../lib/gcc/pic32c/8.3.1/../../../../pic32c/lib/thumb/v6-m/nofp\libg-musl.a(__io_init_needed.o)
 .debug_frame   0x0000000000000000       0x40 c:/program files/microchip/xc32/v4.60/bin/bin/../../lib/gcc/pic32c/8.3.1/../../../../pic32c/lib/thumb/v6-m/nofp\libg-musl.a(__io_init_needed.o)
 .ARM.attributes
                0x0000000000000000       0x2e c:/program files/microchip/xc32/v4.60/bin/bin/../../lib/gcc/pic32c/8.3.1/../../../../pic32c/lib/thumb/v6-m/nofp\libg-musl.a(__io_init_needed.o)
 .text          0x0000000000000000        0x0 c:/program files/microchip/xc32/v4.60/bin/bin/../../lib/gcc/pic32c/8.3.1/../../../../pic32c/lib/thumb/v6-m/nofp\libg-musl.a(__io_rw_needed.o)
 .data          0x0000000000000000        0x0 c:/program files/microchip/xc32/v4.60/bin/bin/../../lib/gcc/pic32c/8.3.1/../../../../pic32c/lib/thumb/v6-m/nofp\libg-musl.a(__io_rw_needed.o)
 .bss           0x0000000000000000        0x0 c:/program files/microchip/xc32/v4.60/bin/bin/../../lib/gcc/pic32c/8.3.1/../../../../pic32c/lib/thumb/v6-m/nofp\libg-musl.a(__io_rw_needed.o)
 .xc_stack_usage
                0x0000000000000000       0x1c c:/program files/microchip/xc32/v4.60/bin/bin/../../lib/gcc/pic32c/8.3.1/../../../../pic32c/lib/thumb/v6-m/nofp\libg-musl.a(__io_rw_needed.o)
 .xc_stack_usage.hdr
                0x0000000000000000        0xe c:/program files/microchip/xc32/v4.60/bin/bin/../../lib/gcc/pic32c/8.3.1/../../../../pic32c/lib/thumb/v6-m/nofp\libg-musl.a(__io_rw_needed.o)
 .debug_info    0x0000000000000000       0xfd c:/program files/microchip/xc32/v4.60/bin/bin/../../lib/gcc/pic32c/8.3.1/../../../../pic32c/lib/thumb/v6-m/nofp\libg-musl.a(__io_rw_needed.o)
 .debug_abbrev  0x0000000000000000       0x67 c:/program files/microchip/xc32/v4.60/bin/bin/../../lib/gcc/pic32c/8.3.1/../../../../pic32c/lib/thumb/v6-m/nofp\libg-musl.a(__io_rw_needed.o)
 .debug_loc     0x0000000000000000       0x20 c:/program files/microchip/xc32/v4.60/bin/bin/../../lib/gcc/pic32c/8.3.1/../../../../pic32c/lib/thumb/v6-m/nofp\libg-musl.a(__io_rw_needed.o)
 .debug_aranges
                0x0000000000000000       0x20 c:/program files/microchip/xc32/v4.60/bin/bin/../../lib/gcc/pic32c/8.3.1/../../../../pic32c/lib/thumb/v6-m/nofp\libg-musl.a(__io_rw_needed.o)
 .debug_ranges  0x0000000000000000       0x10 c:/program files/microchip/xc32/v4.60/bin/bin/../../lib/gcc/pic32c/8.3.1/../../../../pic32c/lib/thumb/v6-m/nofp\libg-musl.a(__io_rw_needed.o)
 .debug_line    0x0000000000000000      0x12d c:/program files/microchip/xc32/v4.60/bin/bin/../../lib/gcc/pic32c/8.3.1/../../../../pic32c/lib/thumb/v6-m/nofp\libg-musl.a(__io_rw_needed.o)
 .debug_str     0x0000000000000000      0x2e3 c:/program files/microchip/xc32/v4.60/bin/bin/../../lib/gcc/pic32c/8.3.1/../../../../pic32c/lib/thumb/v6-m/nofp\libg-musl.a(__io_rw_needed.o)
 .comment       0x0000000000000000       0x2c c:/program files/microchip/xc32/v4.60/bin/bin/../../lib/gcc/pic32c/8.3.1/../../../../pic32c/lib/thumb/v6-m/nofp\libg-musl.a(__io_rw_needed.o)
 .note.GNU-stack
                0x0000000000000000        0x0 c:/program files/microchip/xc32/v4.60/bin/bin/../../lib/gcc/pic32c/8.3.1/../../../../pic32c/lib/thumb/v6-m/nofp\libg-musl.a(__io_rw_needed.o)
 .debug_frame   0x0000000000000000       0x28 c:/program files/microchip/xc32/v4.60/bin/bin/../../lib/gcc/pic32c/8.3.1/../../../../pic32c/lib/thumb/v6-m/nofp\libg-musl.a(__io_rw_needed.o)
 .ARM.attributes
                0x0000000000000000       0x2e c:/program files/microchip/xc32/v4.60/bin/bin/../../lib/gcc/pic32c/8.3.1/../../../../pic32c/lib/thumb/v6-m/nofp\libg-musl.a(__io_rw_needed.o)
 .text          0x0000000000000000        0x0 c:/program files/microchip/xc32/v4.60/bin/bin/../../lib/gcc/pic32c/8.3.1/../../../../pic32c/lib/thumb/v6-m/nofp\libg-musl.a(__stdio_read.o)
 .data          0x0000000000000000        0x0 c:/program files/microchip/xc32/v4.60/bin/bin/../../lib/gcc/pic32c/8.3.1/../../../../pic32c/lib/thumb/v6-m/nofp\libg-musl.a(__stdio_read.o)
 .bss           0x0000000000000000        0x0 c:/program files/microchip/xc32/v4.60/bin/bin/../../lib/gcc/pic32c/8.3.1/../../../../pic32c/lib/thumb/v6-m/nofp\libg-musl.a(__stdio_read.o)
 .xc_stack_usage
                0x0000000000000000       0x1a c:/program files/microchip/xc32/v4.60/bin/bin/../../lib/gcc/pic32c/8.3.1/../../../../pic32c/lib/thumb/v6-m/nofp\libg-musl.a(__stdio_read.o)
 .xc_stack_usage.hdr
                0x0000000000000000        0xe c:/program files/microchip/xc32/v4.60/bin/bin/../../lib/gcc/pic32c/8.3.1/../../../../pic32c/lib/thumb/v6-m/nofp\libg-musl.a(__stdio_read.o)
 .text          0x0000000000000000        0x0 c:/program files/microchip/xc32/v4.60/bin/bin/../../lib/gcc/pic32c/8.3.1/../../../../pic32c/lib/thumb/v6-m/nofp\libg-musl.a(__towrite_rw.o)
 .data          0x0000000000000000        0x0 c:/program files/microchip/xc32/v4.60/bin/bin/../../lib/gcc/pic32c/8.3.1/../../../../pic32c/lib/thumb/v6-m/nofp\libg-musl.a(__towrite_rw.o)
 .bss           0x0000000000000000        0x0 c:/program files/microchip/xc32/v4.60/bin/bin/../../lib/gcc/pic32c/8.3.1/../../../../pic32c/lib/thumb/v6-m/nofp\libg-musl.a(__towrite_rw.o)
 .xc_stack_usage
                0x0000000000000000       0x1a c:/program files/microchip/xc32/v4.60/bin/bin/../../lib/gcc/pic32c/8.3.1/../../../../pic32c/lib/thumb/v6-m/nofp\libg-musl.a(__towrite_rw.o)
 .xc_stack_usage.hdr
                0x0000000000000000        0xe c:/program files/microchip/xc32/v4.60/bin/bin/../../lib/gcc/pic32c/8.3.1/../../../../pic32c/lib/thumb/v6-m/nofp\libg-musl.a(__towrite_rw.o)
 .text          0x0000000000000000        0x0 c:/program files/microchip/xc32/v4.60/bin/bin/../../lib/gcc/pic32c/8.3.1/../../../../pic32c/lib/thumb/v6-m/nofp\libg-musl.a(fwrite.o)
 .data          0x0000000000000000        0x0 c:/program files/microchip/xc32/v4.60/bin/bin/../../lib/gcc/pic32c/8.3.1/../../../../pic32c/lib/thumb/v6-m/nofp\libg-musl.a(fwrite.o)
 .bss           0x0000000000000000        0x0 c:/program files/microchip/xc32/v4.60/bin/bin/../../lib/gcc/pic32c/8.3.1/../../../../pic32c/lib/thumb/v6-m/nofp\libg-musl.a(fwrite.o)
 .xc_stack_usage
                0x0000000000000000       0x2e c:/program files/microchip/xc32/v4.60/bin/bin/../../lib/gcc/pic32c/8.3.1/../../../../pic32c/lib/thumb/v6-m/nofp\libg-musl.a(fwrite.o)
 .text.__fwrite_min
                0x0000000000000000        0xa c:/program files/microchip/xc32/v4.60/bin/bin/../../lib/gcc/pic32c/8.3.1/../../../../pic32c/lib/thumb/v6-m/nofp\libg-musl.a(fwrite.o)
 .xc_stack_usage.hdr
                0x0000000000000000        0xe c:/program files/microchip/xc32/v4.60/bin/bin/../../lib/gcc/pic32c/8.3.1/../../../../pic32c/lib/thumb/v6-m/nofp\libg-musl.a(fwrite.o)
 .text          0x0000000000000000        0x0 c:/program files/microchip/xc32/v4.60/bin/bin/../../lib/gcc/pic32c/8.3.1/../../../../pic32c/lib/thumb/v6-m/nofp\libg-musl.a(putc.o)
 .data          0x0000000000000000        0x0 c:/program files/microchip/xc32/v4.60/bin/bin/../../lib/gcc/pic32c/8.3.1/../../../../pic32c/lib/thumb/v6-m/nofp\libg-musl.a(putc.o)
 .bss           0x0000000000000000        0x0 c:/program files/microchip/xc32/v4.60/bin/bin/../../lib/gcc/pic32c/8.3.1/../../../../pic32c/lib/thumb/v6-m/nofp\libg-musl.a(putc.o)
 .xc_stack_usage
                0x0000000000000000       0x4f c:/program files/microchip/xc32/v4.60/bin/bin/../../lib/gcc/pic32c/8.3.1/../../../../pic32c/lib/thumb/v6-m/nofp\libg-musl.a(putc.o)
 .xc_stack_usage.hdr
                0x0000000000000000        0xe c:/program files/microchip/xc32/v4.60/bin/bin/../../lib/gcc/pic32c/8.3.1/../../../../pic32c/lib/thumb/v6-m/nofp\libg-musl.a(putc.o)
 .text          0x0000000000000000        0x0 c:/program files/microchip/xc32/v4.60/bin/bin/../../lib/gcc/pic32c/8.3.1/../../../../pic32c/lib/thumb/v6-m/nofp\libg-musl.a(setvbuf.o)
 .data          0x0000000000000000        0x0 c:/program files/microchip/xc32/v4.60/bin/bin/../../lib/gcc/pic32c/8.3.1/../../../../pic32c/lib/thumb/v6-m/nofp\libg-musl.a(setvbuf.o)
 .bss           0x0000000000000000        0x0 c:/program files/microchip/xc32/v4.60/bin/bin/../../lib/gcc/pic32c/8.3.1/../../../../pic32c/lib/thumb/v6-m/nofp\libg-musl.a(setvbuf.o)
 .xc_stack_usage
                0x0000000000000000       0x36 c:/program files/microchip/xc32/v4.60/bin/bin/../../lib/gcc/pic32c/8.3.1/../../../../pic32c/lib/thumb/v6-m/nofp\libg-musl.a(setvbuf.o)
 .xc_stack_usage.hdr
                0x0000000000000000        0xe c:/program files/microchip/xc32/v4.60/bin/bin/../../lib/gcc/pic32c/8.3.1/../../../../pic32c/lib/thumb/v6-m/nofp\libg-musl.a(setvbuf.o)
 .text          0x0000000000000000        0x0 c:/program files/microchip/xc32/v4.60/bin/bin/../../lib/gcc/pic32c/8.3.1/../../../../pic32c/lib/thumb/v6-m/nofp\libg-musl.a(__tm_to_secs.o)
 .data          0x0000000000000000        0x0 c:/program files/microchip/xc32/v4.60/bin/bin/../../lib/gcc/pic32c/8.3.1/../../../../pic32c/lib/thumb/v6-m/nofp\libg-musl.a(__tm_to_secs.o)
 .bss           0x0000000000000000        0x0 c:/program files/microchip/xc32/v4.60/bin/bin/../../lib/gcc/pic32c/8.3.1/../../../../pic32c/lib/thumb/v6-m/nofp\libg-musl.a(__tm_to_secs.o)
 .xc_stack_usage
                0x0000000000000000       0x1a c:/program files/microchip/xc32/v4.60/bin/bin/../../lib/gcc/pic32c/8.3.1/../../../../pic32c/lib/thumb/v6-m/nofp\libg-musl.a(__tm_to_secs.o)
 .xc_stack_usage.hdr
                0x0000000000000000        0xe c:/program files/microchip/xc32/v4.60/bin/bin/../../lib/gcc/pic32c/8.3.1/../../../../pic32c/lib/thumb/v6-m/nofp\libg-musl.a(__tm_to_secs.o)
 .text          0x0000000000000000        0x0 c:/program files/microchip/xc32/v4.60/bin/bin/../../lib/gcc/pic32c/8.3.1/../../../../pic32c/lib/thumb/v6-m/nofp\libg-musl.a(__year_to_secs.o)
 .data          0x0000000000000000        0x0 c:/program files/microchip/xc32/v4.60/bin/bin/../../lib/gcc/pic32c/8.3.1/../../../../pic32c/lib/thumb/v6-m/nofp\libg-musl.a(__year_to_secs.o)
 .bss           0x0000000000000000        0x0 c:/program files/microchip/xc32/v4.60/bin/bin/../../lib/gcc/pic32c/8.3.1/../../../../pic32c/lib/thumb/v6-m/nofp\libg-musl.a(__year_to_secs.o)
 .xc_stack_usage
                0x0000000000000000       0x1c c:/program files/microchip/xc32/v4.60/bin/bin/../../lib/gcc/pic32c/8.3.1/../../../../pic32c/lib/thumb/v6-m/nofp\libg-musl.a(__year_to_secs.o)
 .xc_stack_usage.hdr
                0x0000000000000000        0xe c:/program files/microchip/xc32/v4.60/bin/bin/../../lib/gcc/pic32c/8.3.1/../../../../pic32c/lib/thumb/v6-m/nofp\libg-musl.a(__year_to_secs.o)
 .text          0x0000000000000000        0x0 c:/program files/microchip/xc32/v4.60/bin/bin/../../lib/gcc/pic32c/8.3.1/../../../../pic32c/lib/thumb/v6-m/nofp\libg-musl.a(__secs_to_tm.o)
 .data          0x0000000000000000        0x0 c:/program files/microchip/xc32/v4.60/bin/bin/../../lib/gcc/pic32c/8.3.1/../../../../pic32c/lib/thumb/v6-m/nofp\libg-musl.a(__secs_to_tm.o)
 .bss           0x0000000000000000        0x0 c:/program files/microchip/xc32/v4.60/bin/bin/../../lib/gcc/pic32c/8.3.1/../../../../pic32c/lib/thumb/v6-m/nofp\libg-musl.a(__secs_to_tm.o)
 .xc_stack_usage
                0x0000000000000000       0x1a c:/program files/microchip/xc32/v4.60/bin/bin/../../lib/gcc/pic32c/8.3.1/../../../../pic32c/lib/thumb/v6-m/nofp\libg-musl.a(__secs_to_tm.o)
 .xc_stack_usage.hdr
                0x0000000000000000        0xe c:/program files/microchip/xc32/v4.60/bin/bin/../../lib/gcc/pic32c/8.3.1/../../../../pic32c/lib/thumb/v6-m/nofp\libg-musl.a(__secs_to_tm.o)
 .text          0x0000000000000000        0x0 c:/program files/microchip/xc32/v4.60/bin/bin/../../lib/gcc/pic32c/8.3.1/../../../../pic32c/lib/thumb/v6-m/nofp\libg-musl.a(readv.o)
 .data          0x0000000000000000        0x0 c:/program files/microchip/xc32/v4.60/bin/bin/../../lib/gcc/pic32c/8.3.1/../../../../pic32c/lib/thumb/v6-m/nofp\libg-musl.a(readv.o)
 .bss           0x0000000000000000        0x0 c:/program files/microchip/xc32/v4.60/bin/bin/../../lib/gcc/pic32c/8.3.1/../../../../pic32c/lib/thumb/v6-m/nofp\libg-musl.a(readv.o)
 .xc_stack_usage
                0x0000000000000000       0x15 c:/program files/microchip/xc32/v4.60/bin/bin/../../lib/gcc/pic32c/8.3.1/../../../../pic32c/lib/thumb/v6-m/nofp\libg-musl.a(readv.o)
 .xc_stack_usage.hdr
                0x0000000000000000        0xe c:/program files/microchip/xc32/v4.60/bin/bin/../../lib/gcc/pic32c/8.3.1/../../../../pic32c/lib/thumb/v6-m/nofp\libg-musl.a(readv.o)
 .text          0x0000000000000000        0x0 c:/program files/microchip/xc32/v4.60/bin/bin/../../lib/gcc/pic32c/8.3.1/../../../../pic32c/lib/thumb/v6-m/nofp\libg-musl.a(__int_vsnprintf.o)
 .data          0x0000000000000000        0x0 c:/program files/microchip/xc32/v4.60/bin/bin/../../lib/gcc/pic32c/8.3.1/../../../../pic32c/lib/thumb/v6-m/nofp\libg-musl.a(__int_vsnprintf.o)
 .bss           0x0000000000000000        0x0 c:/program files/microchip/xc32/v4.60/bin/bin/../../lib/gcc/pic32c/8.3.1/../../../../pic32c/lib/thumb/v6-m/nofp\libg-musl.a(__int_vsnprintf.o)
 .xc_stack_usage
                0x0000000000000000       0x19 c:/program files/microchip/xc32/v4.60/bin/bin/../../lib/gcc/pic32c/8.3.1/../../../../pic32c/lib/thumb/v6-m/nofp\libg-musl.a(__int_vsnprintf.o)
 .text.__vsnprintf
                0x0000000000000000       0x50 c:/program files/microchip/xc32/v4.60/bin/bin/../../lib/gcc/pic32c/8.3.1/../../../../pic32c/lib/thumb/v6-m/nofp\libg-musl.a(__int_vsnprintf.o)
 .xc_stack_usage.hdr
                0x0000000000000000        0xe c:/program files/microchip/xc32/v4.60/bin/bin/../../lib/gcc/pic32c/8.3.1/../../../../pic32c/lib/thumb/v6-m/nofp\libg-musl.a(__int_vsnprintf.o)
 .debug_info    0x0000000000000000      0x21a c:/program files/microchip/xc32/v4.60/bin/bin/../../lib/gcc/pic32c/8.3.1/../../../../pic32c/lib/thumb/v6-m/nofp\libg-musl.a(__int_vsnprintf.o)
 .debug_abbrev  0x0000000000000000      0x154 c:/program files/microchip/xc32/v4.60/bin/bin/../../lib/gcc/pic32c/8.3.1/../../../../pic32c/lib/thumb/v6-m/nofp\libg-musl.a(__int_vsnprintf.o)
 .debug_loc     0x0000000000000000      0x102 c:/program files/microchip/xc32/v4.60/bin/bin/../../lib/gcc/pic32c/8.3.1/../../../../pic32c/lib/thumb/v6-m/nofp\libg-musl.a(__int_vsnprintf.o)
 .debug_aranges
                0x0000000000000000       0x20 c:/program files/microchip/xc32/v4.60/bin/bin/../../lib/gcc/pic32c/8.3.1/../../../../pic32c/lib/thumb/v6-m/nofp\libg-musl.a(__int_vsnprintf.o)
 .debug_ranges  0x0000000000000000       0x10 c:/program files/microchip/xc32/v4.60/bin/bin/../../lib/gcc/pic32c/8.3.1/../../../../pic32c/lib/thumb/v6-m/nofp\libg-musl.a(__int_vsnprintf.o)
 .debug_line    0x0000000000000000      0x1c7 c:/program files/microchip/xc32/v4.60/bin/bin/../../lib/gcc/pic32c/8.3.1/../../../../pic32c/lib/thumb/v6-m/nofp\libg-musl.a(__int_vsnprintf.o)
 .debug_str     0x0000000000000000      0x2f4 c:/program files/microchip/xc32/v4.60/bin/bin/../../lib/gcc/pic32c/8.3.1/../../../../pic32c/lib/thumb/v6-m/nofp\libg-musl.a(__int_vsnprintf.o)
 .comment       0x0000000000000000       0x2c c:/program files/microchip/xc32/v4.60/bin/bin/../../lib/gcc/pic32c/8.3.1/../../../../pic32c/lib/thumb/v6-m/nofp\libg-musl.a(__int_vsnprintf.o)
 .note.GNU-stack
                0x0000000000000000        0x0 c:/program files/microchip/xc32/v4.60/bin/bin/../../lib/gcc/pic32c/8.3.1/../../../../pic32c/lib/thumb/v6-m/nofp\libg-musl.a(__int_vsnprintf.o)
 .debug_frame   0x0000000000000000       0x2c c:/program files/microchip/xc32/v4.60/bin/bin/../../lib/gcc/pic32c/8.3.1/../../../../pic32c/lib/thumb/v6-m/nofp\libg-musl.a(__int_vsnprintf.o)
 .ARM.attributes
                0x0000000000000000       0x2e c:/program files/microchip/xc32/v4.60/bin/bin/../../lib/gcc/pic32c/8.3.1/../../../../pic32c/lib/thumb/v6-m/nofp\libg-musl.a(__int_vsnprintf.o)
 .text          0x0000000000000000        0x0 c:/program files/microchip/xc32/v4.60/bin/bin/../../lib/gcc/pic32c/8.3.1/../../../../pic32c/lib/thumb/v6-m/nofp\libg-musl.a(__fopen_rw.o)
 .data          0x0000000000000000        0x0 c:/program files/microchip/xc32/v4.60/bin/bin/../../lib/gcc/pic32c/8.3.1/../../../../pic32c/lib/thumb/v6-m/nofp\libg-musl.a(__fopen_rw.o)
 .bss           0x0000000000000000        0x0 c:/program files/microchip/xc32/v4.60/bin/bin/../../lib/gcc/pic32c/8.3.1/../../../../pic32c/lib/thumb/v6-m/nofp\libg-musl.a(__fopen_rw.o)
 .xc_stack_usage
                0x0000000000000000       0x18 c:/program files/microchip/xc32/v4.60/bin/bin/../../lib/gcc/pic32c/8.3.1/../../../../pic32c/lib/thumb/v6-m/nofp\libg-musl.a(__fopen_rw.o)
 .text.__fopen_rw
                0x0000000000000000       0x4c c:/program files/microchip/xc32/v4.60/bin/bin/../../lib/gcc/pic32c/8.3.1/../../../../pic32c/lib/thumb/v6-m/nofp\libg-musl.a(__fopen_rw.o)
 .xc_stack_usage.hdr
                0x0000000000000000        0xe c:/program files/microchip/xc32/v4.60/bin/bin/../../lib/gcc/pic32c/8.3.1/../../../../pic32c/lib/thumb/v6-m/nofp\libg-musl.a(__fopen_rw.o)
 .debug_info    0x0000000000000000      0x3dc c:/program files/microchip/xc32/v4.60/bin/bin/../../lib/gcc/pic32c/8.3.1/../../../../pic32c/lib/thumb/v6-m/nofp\libg-musl.a(__fopen_rw.o)
 .debug_abbrev  0x0000000000000000      0x12c c:/program files/microchip/xc32/v4.60/bin/bin/../../lib/gcc/pic32c/8.3.1/../../../../pic32c/lib/thumb/v6-m/nofp\libg-musl.a(__fopen_rw.o)
 .debug_loc     0x0000000000000000       0x4f c:/program files/microchip/xc32/v4.60/bin/bin/../../lib/gcc/pic32c/8.3.1/../../../../pic32c/lib/thumb/v6-m/nofp\libg-musl.a(__fopen_rw.o)
 .debug_aranges
                0x0000000000000000       0x20 c:/program files/microchip/xc32/v4.60/bin/bin/../../lib/gcc/pic32c/8.3.1/../../../../pic32c/lib/thumb/v6-m/nofp\libg-musl.a(__fopen_rw.o)
 .debug_ranges  0x0000000000000000       0x10 c:/program files/microchip/xc32/v4.60/bin/bin/../../lib/gcc/pic32c/8.3.1/../../../../pic32c/lib/thumb/v6-m/nofp\libg-musl.a(__fopen_rw.o)
 .debug_line    0x0000000000000000      0x28e c:/program files/microchip/xc32/v4.60/bin/bin/../../lib/gcc/pic32c/8.3.1/../../../../pic32c/lib/thumb/v6-m/nofp\libg-musl.a(__fopen_rw.o)
 .debug_str     0x0000000000000000      0x355 c:/program files/microchip/xc32/v4.60/bin/bin/../../lib/gcc/pic32c/8.3.1/../../../../pic32c/lib/thumb/v6-m/nofp\libg-musl.a(__fopen_rw.o)
 .comment       0x0000000000000000       0x2c c:/program files/microchip/xc32/v4.60/bin/bin/../../lib/gcc/pic32c/8.3.1/../../../../pic32c/lib/thumb/v6-m/nofp\libg-musl.a(__fopen_rw.o)
 .note.GNU-stack
                0x0000000000000000        0x0 c:/program files/microchip/xc32/v4.60/bin/bin/../../lib/gcc/pic32c/8.3.1/../../../../pic32c/lib/thumb/v6-m/nofp\libg-musl.a(__fopen_rw.o)
 .debug_frame   0x0000000000000000       0x28 c:/program files/microchip/xc32/v4.60/bin/bin/../../lib/gcc/pic32c/8.3.1/../../../../pic32c/lib/thumb/v6-m/nofp\libg-musl.a(__fopen_rw.o)
 .ARM.attributes
                0x0000000000000000       0x2e c:/program files/microchip/xc32/v4.60/bin/bin/../../lib/gcc/pic32c/8.3.1/../../../../pic32c/lib/thumb/v6-m/nofp\libg-musl.a(__fopen_rw.o)
 .text          0x0000000000000000        0x0 c:/program files/microchip/xc32/v4.60/bin/bin/../../lib/gcc/pic32c/8.3.1/../../../../pic32c/lib/thumb/v6-m/nofp\libg-musl.a(__ftello_rw.o)
 .data          0x0000000000000000        0x0 c:/program files/microchip/xc32/v4.60/bin/bin/../../lib/gcc/pic32c/8.3.1/../../../../pic32c/lib/thumb/v6-m/nofp\libg-musl.a(__ftello_rw.o)
 .bss           0x0000000000000000        0x0 c:/program files/microchip/xc32/v4.60/bin/bin/../../lib/gcc/pic32c/8.3.1/../../../../pic32c/lib/thumb/v6-m/nofp\libg-musl.a(__ftello_rw.o)
 .xc_stack_usage
                0x0000000000000000       0x1d c:/program files/microchip/xc32/v4.60/bin/bin/../../lib/gcc/pic32c/8.3.1/../../../../pic32c/lib/thumb/v6-m/nofp\libg-musl.a(__ftello_rw.o)
 .text.__ftello_adj_rw
                0x0000000000000000       0x28 c:/program files/microchip/xc32/v4.60/bin/bin/../../lib/gcc/pic32c/8.3.1/../../../../pic32c/lib/thumb/v6-m/nofp\libg-musl.a(__ftello_rw.o)
 .xc_stack_usage.hdr
                0x0000000000000000        0xe c:/program files/microchip/xc32/v4.60/bin/bin/../../lib/gcc/pic32c/8.3.1/../../../../pic32c/lib/thumb/v6-m/nofp\libg-musl.a(__ftello_rw.o)
 .debug_info    0x0000000000000000      0x34a c:/program files/microchip/xc32/v4.60/bin/bin/../../lib/gcc/pic32c/8.3.1/../../../../pic32c/lib/thumb/v6-m/nofp\libg-musl.a(__ftello_rw.o)
 .debug_abbrev  0x0000000000000000      0x10b c:/program files/microchip/xc32/v4.60/bin/bin/../../lib/gcc/pic32c/8.3.1/../../../../pic32c/lib/thumb/v6-m/nofp\libg-musl.a(__ftello_rw.o)
 .debug_loc     0x0000000000000000       0x45 c:/program files/microchip/xc32/v4.60/bin/bin/../../lib/gcc/pic32c/8.3.1/../../../../pic32c/lib/thumb/v6-m/nofp\libg-musl.a(__ftello_rw.o)
 .debug_aranges
                0x0000000000000000       0x20 c:/program files/microchip/xc32/v4.60/bin/bin/../../lib/gcc/pic32c/8.3.1/../../../../pic32c/lib/thumb/v6-m/nofp\libg-musl.a(__ftello_rw.o)
 .debug_ranges  0x0000000000000000       0x10 c:/program files/microchip/xc32/v4.60/bin/bin/../../lib/gcc/pic32c/8.3.1/../../../../pic32c/lib/thumb/v6-m/nofp\libg-musl.a(__ftello_rw.o)
 .debug_line    0x0000000000000000      0x1d2 c:/program files/microchip/xc32/v4.60/bin/bin/../../lib/gcc/pic32c/8.3.1/../../../../pic32c/lib/thumb/v6-m/nofp\libg-musl.a(__ftello_rw.o)
 .debug_str     0x0000000000000000      0x33f c:/program files/microchip/xc32/v4.60/bin/bin/../../lib/gcc/pic32c/8.3.1/../../../../pic32c/lib/thumb/v6-m/nofp\libg-musl.a(__ftello_rw.o)
 .comment       0x0000000000000000       0x2c c:/program files/microchip/xc32/v4.60/bin/bin/../../lib/gcc/pic32c/8.3.1/../../../../pic32c/lib/thumb/v6-m/nofp\libg-musl.a(__ftello_rw.o)
 .note.GNU-stack
                0x0000000000000000        0x0 c:/program files/microchip/xc32/v4.60/bin/bin/../../lib/gcc/pic32c/8.3.1/../../../../pic32c/lib/thumb/v6-m/nofp\libg-musl.a(__ftello_rw.o)
 .debug_frame   0x0000000000000000       0x2c c:/program files/microchip/xc32/v4.60/bin/bin/../../lib/gcc/pic32c/8.3.1/../../../../pic32c/lib/thumb/v6-m/nofp\libg-musl.a(__ftello_rw.o)
 .ARM.attributes
                0x0000000000000000       0x2e c:/program files/microchip/xc32/v4.60/bin/bin/../../lib/gcc/pic32c/8.3.1/../../../../pic32c/lib/thumb/v6-m/nofp\libg-musl.a(__ftello_rw.o)
 .text          0x0000000000000000        0x0 c:/program files/microchip/xc32/v4.60/bin/bin/../../lib/gcc/pic32c/8.3.1/../../../../pic32c/lib/thumb/v6-m/nofp\libg-musl.a(__init_stdio.o)
 .data          0x0000000000000000        0x0 c:/program files/microchip/xc32/v4.60/bin/bin/../../lib/gcc/pic32c/8.3.1/../../../../pic32c/lib/thumb/v6-m/nofp\libg-musl.a(__init_stdio.o)
 .bss           0x0000000000000000        0x0 c:/program files/microchip/xc32/v4.60/bin/bin/../../lib/gcc/pic32c/8.3.1/../../../../pic32c/lib/thumb/v6-m/nofp\libg-musl.a(__init_stdio.o)
 .xc_stack_usage
                0x0000000000000000       0x2f c:/program files/microchip/xc32/v4.60/bin/bin/../../lib/gcc/pic32c/8.3.1/../../../../pic32c/lib/thumb/v6-m/nofp\libg-musl.a(__init_stdio.o)
 .xc_stack_usage.hdr
                0x0000000000000000        0xe c:/program files/microchip/xc32/v4.60/bin/bin/../../lib/gcc/pic32c/8.3.1/../../../../pic32c/lib/thumb/v6-m/nofp\libg-musl.a(__init_stdio.o)
 .text          0x0000000000000000        0x0 c:/program files/microchip/xc32/v4.60/bin/bin/../../lib/gcc/pic32c/8.3.1/../../../../pic32c/lib/thumb/v6-m/nofp\libg-musl.a(__io_buf_needed.o)
 .data          0x0000000000000000        0x0 c:/program files/microchip/xc32/v4.60/bin/bin/../../lib/gcc/pic32c/8.3.1/../../../../pic32c/lib/thumb/v6-m/nofp\libg-musl.a(__io_buf_needed.o)
 .bss           0x0000000000000000        0x0 c:/program files/microchip/xc32/v4.60/bin/bin/../../lib/gcc/pic32c/8.3.1/../../../../pic32c/lib/thumb/v6-m/nofp\libg-musl.a(__io_buf_needed.o)
 .xc_stack_usage
                0x0000000000000000       0x1d c:/program files/microchip/xc32/v4.60/bin/bin/../../lib/gcc/pic32c/8.3.1/../../../../pic32c/lib/thumb/v6-m/nofp\libg-musl.a(__io_buf_needed.o)
 .xc_stack_usage.hdr
                0x0000000000000000        0xe c:/program files/microchip/xc32/v4.60/bin/bin/../../lib/gcc/pic32c/8.3.1/../../../../pic32c/lib/thumb/v6-m/nofp\libg-musl.a(__io_buf_needed.o)
 .debug_info    0x0000000000000000      0x142 c:/program files/microchip/xc32/v4.60/bin/bin/../../lib/gcc/pic32c/8.3.1/../../../../pic32c/lib/thumb/v6-m/nofp\libg-musl.a(__io_buf_needed.o)
 .debug_abbrev  0x0000000000000000       0x67 c:/program files/microchip/xc32/v4.60/bin/bin/../../lib/gcc/pic32c/8.3.1/../../../../pic32c/lib/thumb/v6-m/nofp\libg-musl.a(__io_buf_needed.o)
 .debug_loc     0x0000000000000000       0x20 c:/program files/microchip/xc32/v4.60/bin/bin/../../lib/gcc/pic32c/8.3.1/../../../../pic32c/lib/thumb/v6-m/nofp\libg-musl.a(__io_buf_needed.o)
 .debug_aranges
                0x0000000000000000       0x20 c:/program files/microchip/xc32/v4.60/bin/bin/../../lib/gcc/pic32c/8.3.1/../../../../pic32c/lib/thumb/v6-m/nofp\libg-musl.a(__io_buf_needed.o)
 .debug_ranges  0x0000000000000000       0x10 c:/program files/microchip/xc32/v4.60/bin/bin/../../lib/gcc/pic32c/8.3.1/../../../../pic32c/lib/thumb/v6-m/nofp\libg-musl.a(__io_buf_needed.o)
 .debug_line    0x0000000000000000      0x131 c:/program files/microchip/xc32/v4.60/bin/bin/../../lib/gcc/pic32c/8.3.1/../../../../pic32c/lib/thumb/v6-m/nofp\libg-musl.a(__io_buf_needed.o)
 .debug_str     0x0000000000000000      0x30f c:/program files/microchip/xc32/v4.60/bin/bin/../../lib/gcc/pic32c/8.3.1/../../../../pic32c/lib/thumb/v6-m/nofp\libg-musl.a(__io_buf_needed.o)
 .comment       0x0000000000000000       0x2c c:/program files/microchip/xc32/v4.60/bin/bin/../../lib/gcc/pic32c/8.3.1/../../../../pic32c/lib/thumb/v6-m/nofp\libg-musl.a(__io_buf_needed.o)
 .note.GNU-stack
                0x0000000000000000        0x0 c:/program files/microchip/xc32/v4.60/bin/bin/../../lib/gcc/pic32c/8.3.1/../../../../pic32c/lib/thumb/v6-m/nofp\libg-musl.a(__io_buf_needed.o)
 .debug_frame   0x0000000000000000       0x28 c:/program files/microchip/xc32/v4.60/bin/bin/../../lib/gcc/pic32c/8.3.1/../../../../pic32c/lib/thumb/v6-m/nofp\libg-musl.a(__io_buf_needed.o)
 .ARM.attributes
                0x0000000000000000       0x2e c:/program files/microchip/xc32/v4.60/bin/bin/../../lib/gcc/pic32c/8.3.1/../../../../pic32c/lib/thumb/v6-m/nofp\libg-musl.a(__io_buf_needed.o)
 .text          0x0000000000000000        0x0 c:/program files/microchip/xc32/v4.60/bin/bin/../../lib/gcc/pic32c/8.3.1/../../../../pic32c/lib/thumb/v6-m/nofp\libg-musl.a(__io_file_needed.o)
 .data          0x0000000000000000        0x0 c:/program files/microchip/xc32/v4.60/bin/bin/../../lib/gcc/pic32c/8.3.1/../../../../pic32c/lib/thumb/v6-m/nofp\libg-musl.a(__io_file_needed.o)
 .bss           0x0000000000000000        0x0 c:/program files/microchip/xc32/v4.60/bin/bin/../../lib/gcc/pic32c/8.3.1/../../../../pic32c/lib/thumb/v6-m/nofp\libg-musl.a(__io_file_needed.o)
 .xc_stack_usage
                0x0000000000000000       0x1e c:/program files/microchip/xc32/v4.60/bin/bin/../../lib/gcc/pic32c/8.3.1/../../../../pic32c/lib/thumb/v6-m/nofp\libg-musl.a(__io_file_needed.o)
 .xc_stack_usage.hdr
                0x0000000000000000        0xe c:/program files/microchip/xc32/v4.60/bin/bin/../../lib/gcc/pic32c/8.3.1/../../../../pic32c/lib/thumb/v6-m/nofp\libg-musl.a(__io_file_needed.o)
 .debug_info    0x0000000000000000       0xb8 c:/program files/microchip/xc32/v4.60/bin/bin/../../lib/gcc/pic32c/8.3.1/../../../../pic32c/lib/thumb/v6-m/nofp\libg-musl.a(__io_file_needed.o)
 .debug_abbrev  0x0000000000000000       0x67 c:/program files/microchip/xc32/v4.60/bin/bin/../../lib/gcc/pic32c/8.3.1/../../../../pic32c/lib/thumb/v6-m/nofp\libg-musl.a(__io_file_needed.o)
 .debug_loc     0x0000000000000000       0x20 c:/program files/microchip/xc32/v4.60/bin/bin/../../lib/gcc/pic32c/8.3.1/../../../../pic32c/lib/thumb/v6-m/nofp\libg-musl.a(__io_file_needed.o)
 .debug_aranges
                0x0000000000000000       0x20 c:/program files/microchip/xc32/v4.60/bin/bin/../../lib/gcc/pic32c/8.3.1/../../../../pic32c/lib/thumb/v6-m/nofp\libg-musl.a(__io_file_needed.o)
 .debug_ranges  0x0000000000000000       0x10 c:/program files/microchip/xc32/v4.60/bin/bin/../../lib/gcc/pic32c/8.3.1/../../../../pic32c/lib/thumb/v6-m/nofp\libg-musl.a(__io_file_needed.o)
 .debug_line    0x0000000000000000       0xb6 c:/program files/microchip/xc32/v4.60/bin/bin/../../lib/gcc/pic32c/8.3.1/../../../../pic32c/lib/thumb/v6-m/nofp\libg-musl.a(__io_file_needed.o)
 .debug_str     0x0000000000000000      0x2a7 c:/program files/microchip/xc32/v4.60/bin/bin/../../lib/gcc/pic32c/8.3.1/../../../../pic32c/lib/thumb/v6-m/nofp\libg-musl.a(__io_file_needed.o)
 .comment       0x0000000000000000       0x2c c:/program files/microchip/xc32/v4.60/bin/bin/../../lib/gcc/pic32c/8.3.1/../../../../pic32c/lib/thumb/v6-m/nofp\libg-musl.a(__io_file_needed.o)
 .note.GNU-stack
                0x0000000000000000        0x0 c:/program files/microchip/xc32/v4.60/bin/bin/../../lib/gcc/pic32c/8.3.1/../../../../pic32c/lib/thumb/v6-m/nofp\libg-musl.a(__io_file_needed.o)
 .debug_frame   0x0000000000000000       0x28 c:/program files/microchip/xc32/v4.60/bin/bin/../../lib/gcc/pic32c/8.3.1/../../../../pic32c/lib/thumb/v6-m/nofp\libg-musl.a(__io_file_needed.o)
 .ARM.attributes
                0x0000000000000000       0x2e c:/program files/microchip/xc32/v4.60/bin/bin/../../lib/gcc/pic32c/8.3.1/../../../../pic32c/lib/thumb/v6-m/nofp\libg-musl.a(__io_file_needed.o)
 .text          0x0000000000000000        0x0 c:/program files/microchip/xc32/v4.60/bin/bin/../../lib/gcc/pic32c/8.3.1/../../../../pic32c/lib/thumb/v6-m/nofp\libg-musl.a(__io_std_needed.o)
 .data          0x0000000000000000        0x0 c:/program files/microchip/xc32/v4.60/bin/bin/../../lib/gcc/pic32c/8.3.1/../../../../pic32c/lib/thumb/v6-m/nofp\libg-musl.a(__io_std_needed.o)
 .bss           0x0000000000000000        0x0 c:/program files/microchip/xc32/v4.60/bin/bin/../../lib/gcc/pic32c/8.3.1/../../../../pic32c/lib/thumb/v6-m/nofp\libg-musl.a(__io_std_needed.o)
 .xc_stack_usage
                0x0000000000000000       0x1d c:/program files/microchip/xc32/v4.60/bin/bin/../../lib/gcc/pic32c/8.3.1/../../../../pic32c/lib/thumb/v6-m/nofp\libg-musl.a(__io_std_needed.o)
 .xc_stack_usage.hdr
                0x0000000000000000        0xe c:/program files/microchip/xc32/v4.60/bin/bin/../../lib/gcc/pic32c/8.3.1/../../../../pic32c/lib/thumb/v6-m/nofp\libg-musl.a(__io_std_needed.o)
 .debug_info    0x0000000000000000      0x12b c:/program files/microchip/xc32/v4.60/bin/bin/../../lib/gcc/pic32c/8.3.1/../../../../pic32c/lib/thumb/v6-m/nofp\libg-musl.a(__io_std_needed.o)
 .debug_abbrev  0x0000000000000000       0x67 c:/program files/microchip/xc32/v4.60/bin/bin/../../lib/gcc/pic32c/8.3.1/../../../../pic32c/lib/thumb/v6-m/nofp\libg-musl.a(__io_std_needed.o)
 .debug_loc     0x0000000000000000       0x20 c:/program files/microchip/xc32/v4.60/bin/bin/../../lib/gcc/pic32c/8.3.1/../../../../pic32c/lib/thumb/v6-m/nofp\libg-musl.a(__io_std_needed.o)
 .debug_aranges
                0x0000000000000000       0x20 c:/program files/microchip/xc32/v4.60/bin/bin/../../lib/gcc/pic32c/8.3.1/../../../../pic32c/lib/thumb/v6-m/nofp\libg-musl.a(__io_std_needed.o)
 .debug_ranges  0x0000000000000000       0x10 c:/program files/microchip/xc32/v4.60/bin/bin/../../lib/gcc/pic32c/8.3.1/../../../../pic32c/lib/thumb/v6-m/nofp\libg-musl.a(__io_std_needed.o)
 .debug_line    0x0000000000000000      0x130 c:/program files/microchip/xc32/v4.60/bin/bin/../../lib/gcc/pic32c/8.3.1/../../../../pic32c/lib/thumb/v6-m/nofp\libg-musl.a(__io_std_needed.o)
 .debug_str     0x0000000000000000      0x303 c:/program files/microchip/xc32/v4.60/bin/bin/../../lib/gcc/pic32c/8.3.1/../../../../pic32c/lib/thumb/v6-m/nofp\libg-musl.a(__io_std_needed.o)
 .comment       0x0000000000000000       0x2c c:/program files/microchip/xc32/v4.60/bin/bin/../../lib/gcc/pic32c/8.3.1/../../../../pic32c/lib/thumb/v6-m/nofp\libg-musl.a(__io_std_needed.o)
 .note.GNU-stack
                0x0000000000000000        0x0 c:/program files/microchip/xc32/v4.60/bin/bin/../../lib/gcc/pic32c/8.3.1/../../../../pic32c/lib/thumb/v6-m/nofp\libg-musl.a(__io_std_needed.o)
 .debug_frame   0x0000000000000000       0x28 c:/program files/microchip/xc32/v4.60/bin/bin/../../lib/gcc/pic32c/8.3.1/../../../../pic32c/lib/thumb/v6-m/nofp\libg-musl.a(__io_std_needed.o)
 .ARM.attributes
                0x0000000000000000       0x2e c:/program files/microchip/xc32/v4.60/bin/bin/../../lib/gcc/pic32c/8.3.1/../../../../pic32c/lib/thumb/v6-m/nofp\libg-musl.a(__io_std_needed.o)
 .text          0x0000000000000000        0x0 c:/program files/microchip/xc32/v4.60/bin/bin/../../lib/gcc/pic32c/8.3.1/../../../../pic32c/lib/thumb/v6-m/nofp\libg-musl.a(__out.o)
 .data          0x0000000000000000        0x0 c:/program files/microchip/xc32/v4.60/bin/bin/../../lib/gcc/pic32c/8.3.1/../../../../pic32c/lib/thumb/v6-m/nofp\libg-musl.a(__out.o)
 .bss           0x0000000000000000        0x0 c:/program files/microchip/xc32/v4.60/bin/bin/../../lib/gcc/pic32c/8.3.1/../../../../pic32c/lib/thumb/v6-m/nofp\libg-musl.a(__out.o)
 .xc_stack_usage
                0x0000000000000000       0x2d c:/program files/microchip/xc32/v4.60/bin/bin/../../lib/gcc/pic32c/8.3.1/../../../../pic32c/lib/thumb/v6-m/nofp\libg-musl.a(__out.o)
 .xc_stack_usage.hdr
                0x0000000000000000        0xe c:/program files/microchip/xc32/v4.60/bin/bin/../../lib/gcc/pic32c/8.3.1/../../../../pic32c/lib/thumb/v6-m/nofp\libg-musl.a(__out.o)
 .text          0x0000000000000000        0x0 c:/program files/microchip/xc32/v4.60/bin/bin/../../lib/gcc/pic32c/8.3.1/../../../../pic32c/lib/thumb/v6-m/nofp\libg-musl.a(__putc.o)
 .data          0x0000000000000000        0x0 c:/program files/microchip/xc32/v4.60/bin/bin/../../lib/gcc/pic32c/8.3.1/../../../../pic32c/lib/thumb/v6-m/nofp\libg-musl.a(__putc.o)
 .bss           0x0000000000000000        0x0 c:/program files/microchip/xc32/v4.60/bin/bin/../../lib/gcc/pic32c/8.3.1/../../../../pic32c/lib/thumb/v6-m/nofp\libg-musl.a(__putc.o)
 .xc_stack_usage
                0x0000000000000000       0x14 c:/program files/microchip/xc32/v4.60/bin/bin/../../lib/gcc/pic32c/8.3.1/../../../../pic32c/lib/thumb/v6-m/nofp\libg-musl.a(__putc.o)
 .xc_stack_usage.hdr
                0x0000000000000000        0xe c:/program files/microchip/xc32/v4.60/bin/bin/../../lib/gcc/pic32c/8.3.1/../../../../pic32c/lib/thumb/v6-m/nofp\libg-musl.a(__putc.o)
 .text          0x0000000000000000        0x0 c:/program files/microchip/xc32/v4.60/bin/bin/../../lib/gcc/pic32c/8.3.1/../../../../pic32c/lib/thumb/v6-m/nofp\libg-musl.a(__stderr.o)
 .data          0x0000000000000000       0x60 c:/program files/microchip/xc32/v4.60/bin/bin/../../lib/gcc/pic32c/8.3.1/../../../../pic32c/lib/thumb/v6-m/nofp\libg-musl.a(__stderr.o)
 .bss           0x0000000000000000        0x0 c:/program files/microchip/xc32/v4.60/bin/bin/../../lib/gcc/pic32c/8.3.1/../../../../pic32c/lib/thumb/v6-m/nofp\libg-musl.a(__stderr.o)
 .xc_stack_usage
                0x0000000000000000       0x50 c:/program files/microchip/xc32/v4.60/bin/bin/../../lib/gcc/pic32c/8.3.1/../../../../pic32c/lib/thumb/v6-m/nofp\libg-musl.a(__stderr.o)
 .text.__get_stderr
                0x0000000000000000        0x8 c:/program files/microchip/xc32/v4.60/bin/bin/../../lib/gcc/pic32c/8.3.1/../../../../pic32c/lib/thumb/v6-m/nofp\libg-musl.a(__stderr.o)
 .xc_stack_usage.hdr
                0x0000000000000000        0xe c:/program files/microchip/xc32/v4.60/bin/bin/../../lib/gcc/pic32c/8.3.1/../../../../pic32c/lib/thumb/v6-m/nofp\libg-musl.a(__stderr.o)
 .text          0x0000000000000000        0x0 c:/program files/microchip/xc32/v4.60/bin/bin/../../lib/gcc/pic32c/8.3.1/../../../../pic32c/lib/thumb/v6-m/nofp\libg-musl.a(__stdio_close.o)
 .data          0x0000000000000000        0x0 c:/program files/microchip/xc32/v4.60/bin/bin/../../lib/gcc/pic32c/8.3.1/../../../../pic32c/lib/thumb/v6-m/nofp\libg-musl.a(__stdio_close.o)
 .bss           0x0000000000000000        0x0 c:/program files/microchip/xc32/v4.60/bin/bin/../../lib/gcc/pic32c/8.3.1/../../../../pic32c/lib/thumb/v6-m/nofp\libg-musl.a(__stdio_close.o)
 .xc_stack_usage
                0x0000000000000000       0x39 c:/program files/microchip/xc32/v4.60/bin/bin/../../lib/gcc/pic32c/8.3.1/../../../../pic32c/lib/thumb/v6-m/nofp\libg-musl.a(__stdio_close.o)
 .text.__stdio_close
                0x0000000000000000       0x44 c:/program files/microchip/xc32/v4.60/bin/bin/../../lib/gcc/pic32c/8.3.1/../../../../pic32c/lib/thumb/v6-m/nofp\libg-musl.a(__stdio_close.o)
 .xc_stack_usage.hdr
                0x0000000000000000        0xe c:/program files/microchip/xc32/v4.60/bin/bin/../../lib/gcc/pic32c/8.3.1/../../../../pic32c/lib/thumb/v6-m/nofp\libg-musl.a(__stdio_close.o)
 .text          0x0000000000000000        0x0 c:/program files/microchip/xc32/v4.60/bin/bin/../../lib/gcc/pic32c/8.3.1/../../../../pic32c/lib/thumb/v6-m/nofp\libg-musl.a(__stdio_exit.o)
 .data          0x0000000000000000        0x0 c:/program files/microchip/xc32/v4.60/bin/bin/../../lib/gcc/pic32c/8.3.1/../../../../pic32c/lib/thumb/v6-m/nofp\libg-musl.a(__stdio_exit.o)
 .bss           0x0000000000000000        0x4 c:/program files/microchip/xc32/v4.60/bin/bin/../../lib/gcc/pic32c/8.3.1/../../../../pic32c/lib/thumb/v6-m/nofp\libg-musl.a(__stdio_exit.o)
 .xc_stack_usage
                0x0000000000000000       0x45 c:/program files/microchip/xc32/v4.60/bin/bin/../../lib/gcc/pic32c/8.3.1/../../../../pic32c/lib/thumb/v6-m/nofp\libg-musl.a(__stdio_exit.o)
 .text.__dummy  0x0000000000000000        0x2 c:/program files/microchip/xc32/v4.60/bin/bin/../../lib/gcc/pic32c/8.3.1/../../../../pic32c/lib/thumb/v6-m/nofp\libg-musl.a(__stdio_exit.o)
 .text.__dummy1
                0x0000000000000000        0x4 c:/program files/microchip/xc32/v4.60/bin/bin/../../lib/gcc/pic32c/8.3.1/../../../../pic32c/lib/thumb/v6-m/nofp\libg-musl.a(__stdio_exit.o)
 .text.__stdio_exit
                0x0000000000000000       0x34 c:/program files/microchip/xc32/v4.60/bin/bin/../../lib/gcc/pic32c/8.3.1/../../../../pic32c/lib/thumb/v6-m/nofp\libg-musl.a(__stdio_exit.o)
 .xc_stack_usage.hdr
                0x0000000000000000        0xe c:/program files/microchip/xc32/v4.60/bin/bin/../../lib/gcc/pic32c/8.3.1/../../../../pic32c/lib/thumb/v6-m/nofp\libg-musl.a(__stdio_exit.o)
 .debug_info    0x0000000000000000      0x2dd c:/program files/microchip/xc32/v4.60/bin/bin/../../lib/gcc/pic32c/8.3.1/../../../../pic32c/lib/thumb/v6-m/nofp\libg-musl.a(__stdio_exit.o)
 .debug_abbrev  0x0000000000000000      0x173 c:/program files/microchip/xc32/v4.60/bin/bin/../../lib/gcc/pic32c/8.3.1/../../../../pic32c/lib/thumb/v6-m/nofp\libg-musl.a(__stdio_exit.o)
 .debug_loc     0x0000000000000000       0x45 c:/program files/microchip/xc32/v4.60/bin/bin/../../lib/gcc/pic32c/8.3.1/../../../../pic32c/lib/thumb/v6-m/nofp\libg-musl.a(__stdio_exit.o)
 .debug_aranges
                0x0000000000000000       0x30 c:/program files/microchip/xc32/v4.60/bin/bin/../../lib/gcc/pic32c/8.3.1/../../../../pic32c/lib/thumb/v6-m/nofp\libg-musl.a(__stdio_exit.o)
 .debug_ranges  0x0000000000000000       0x20 c:/program files/microchip/xc32/v4.60/bin/bin/../../lib/gcc/pic32c/8.3.1/../../../../pic32c/lib/thumb/v6-m/nofp\libg-musl.a(__stdio_exit.o)
 .debug_line    0x0000000000000000      0x178 c:/program files/microchip/xc32/v4.60/bin/bin/../../lib/gcc/pic32c/8.3.1/../../../../pic32c/lib/thumb/v6-m/nofp\libg-musl.a(__stdio_exit.o)
 .debug_str     0x0000000000000000      0x32c c:/program files/microchip/xc32/v4.60/bin/bin/../../lib/gcc/pic32c/8.3.1/../../../../pic32c/lib/thumb/v6-m/nofp\libg-musl.a(__stdio_exit.o)
 .comment       0x0000000000000000       0x2c c:/program files/microchip/xc32/v4.60/bin/bin/../../lib/gcc/pic32c/8.3.1/../../../../pic32c/lib/thumb/v6-m/nofp\libg-musl.a(__stdio_exit.o)
 .note.GNU-stack
                0x0000000000000000        0x0 c:/program files/microchip/xc32/v4.60/bin/bin/../../lib/gcc/pic32c/8.3.1/../../../../pic32c/lib/thumb/v6-m/nofp\libg-musl.a(__stdio_exit.o)
 .debug_frame   0x0000000000000000       0x48 c:/program files/microchip/xc32/v4.60/bin/bin/../../lib/gcc/pic32c/8.3.1/../../../../pic32c/lib/thumb/v6-m/nofp\libg-musl.a(__stdio_exit.o)
 .ARM.attributes
                0x0000000000000000       0x2e c:/program files/microchip/xc32/v4.60/bin/bin/../../lib/gcc/pic32c/8.3.1/../../../../pic32c/lib/thumb/v6-m/nofp\libg-musl.a(__stdio_exit.o)
 .text          0x0000000000000000        0x0 c:/program files/microchip/xc32/v4.60/bin/bin/../../lib/gcc/pic32c/8.3.1/../../../../pic32c/lib/thumb/v6-m/nofp\libg-musl.a(__stdio_write.o)
 .data          0x0000000000000000        0x0 c:/program files/microchip/xc32/v4.60/bin/bin/../../lib/gcc/pic32c/8.3.1/../../../../pic32c/lib/thumb/v6-m/nofp\libg-musl.a(__stdio_write.o)
 .bss           0x0000000000000000        0x0 c:/program files/microchip/xc32/v4.60/bin/bin/../../lib/gcc/pic32c/8.3.1/../../../../pic32c/lib/thumb/v6-m/nofp\libg-musl.a(__stdio_write.o)
 .xc_stack_usage
                0x0000000000000000       0x42 c:/program files/microchip/xc32/v4.60/bin/bin/../../lib/gcc/pic32c/8.3.1/../../../../pic32c/lib/thumb/v6-m/nofp\libg-musl.a(__stdio_write.o)
 .xc_stack_usage.hdr
                0x0000000000000000        0xe c:/program files/microchip/xc32/v4.60/bin/bin/../../lib/gcc/pic32c/8.3.1/../../../../pic32c/lib/thumb/v6-m/nofp\libg-musl.a(__stdio_write.o)
 .text          0x0000000000000000        0x0 c:/program files/microchip/xc32/v4.60/bin/bin/../../lib/gcc/pic32c/8.3.1/../../../../pic32c/lib/thumb/v6-m/nofp\libg-musl.a(__stdout.o)
 .bss           0x0000000000000000        0x0 c:/program files/microchip/xc32/v4.60/bin/bin/../../lib/gcc/pic32c/8.3.1/../../../../pic32c/lib/thumb/v6-m/nofp\libg-musl.a(__stdout.o)
 .xc_stack_usage
                0x0000000000000000       0x50 c:/program files/microchip/xc32/v4.60/bin/bin/../../lib/gcc/pic32c/8.3.1/../../../../pic32c/lib/thumb/v6-m/nofp\libg-musl.a(__stdout.o)
 .text.__dummy  0x0000000000000000        0x2 c:/program files/microchip/xc32/v4.60/bin/bin/../../lib/gcc/pic32c/8.3.1/../../../../pic32c/lib/thumb/v6-m/nofp\libg-musl.a(__stdout.o)
 .xc_stack_usage.hdr
                0x0000000000000000        0xe c:/program files/microchip/xc32/v4.60/bin/bin/../../lib/gcc/pic32c/8.3.1/../../../../pic32c/lib/thumb/v6-m/nofp\libg-musl.a(__stdout.o)
 .text          0x0000000000000000        0x0 c:/program files/microchip/xc32/v4.60/bin/bin/../../lib/gcc/pic32c/8.3.1/../../../../pic32c/lib/thumb/v6-m/nofp\libg-musl.a(__towrite.o)
 .data          0x0000000000000000        0x0 c:/program files/microchip/xc32/v4.60/bin/bin/../../lib/gcc/pic32c/8.3.1/../../../../pic32c/lib/thumb/v6-m/nofp\libg-musl.a(__towrite.o)
 .bss           0x0000000000000000        0x0 c:/program files/microchip/xc32/v4.60/bin/bin/../../lib/gcc/pic32c/8.3.1/../../../../pic32c/lib/thumb/v6-m/nofp\libg-musl.a(__towrite.o)
 .xc_stack_usage
                0x0000000000000000       0x2c c:/program files/microchip/xc32/v4.60/bin/bin/../../lib/gcc/pic32c/8.3.1/../../../../pic32c/lib/thumb/v6-m/nofp\libg-musl.a(__towrite.o)
 .text.__dummy  0x0000000000000000        0x4 c:/program files/microchip/xc32/v4.60/bin/bin/../../lib/gcc/pic32c/8.3.1/../../../../pic32c/lib/thumb/v6-m/nofp\libg-musl.a(__towrite.o)
 .xc_stack_usage.hdr
                0x0000000000000000        0xe c:/program files/microchip/xc32/v4.60/bin/bin/../../lib/gcc/pic32c/8.3.1/../../../../pic32c/lib/thumb/v6-m/nofp\libg-musl.a(__towrite.o)
 .text          0x0000000000000000        0x0 c:/program files/microchip/xc32/v4.60/bin/bin/../../lib/gcc/pic32c/8.3.1/../../../../pic32c/lib/thumb/v6-m/nofp\libg-musl.a(__month_to_secs.o)
 .data          0x0000000000000000        0x0 c:/program files/microchip/xc32/v4.60/bin/bin/../../lib/gcc/pic32c/8.3.1/../../../../pic32c/lib/thumb/v6-m/nofp\libg-musl.a(__month_to_secs.o)
 .bss           0x0000000000000000        0x0 c:/program files/microchip/xc32/v4.60/bin/bin/../../lib/gcc/pic32c/8.3.1/../../../../pic32c/lib/thumb/v6-m/nofp\libg-musl.a(__month_to_secs.o)
 .xc_stack_usage
                0x0000000000000000       0x1d c:/program files/microchip/xc32/v4.60/bin/bin/../../lib/gcc/pic32c/8.3.1/../../../../pic32c/lib/thumb/v6-m/nofp\libg-musl.a(__month_to_secs.o)
 .xc_stack_usage.hdr
                0x0000000000000000        0xe c:/program files/microchip/xc32/v4.60/bin/bin/../../lib/gcc/pic32c/8.3.1/../../../../pic32c/lib/thumb/v6-m/nofp\libg-musl.a(__month_to_secs.o)
 .text          0x0000000000000000        0x0 c:/program files/microchip/xc32/v4.60/bin/bin/../../lib/gcc/pic32c/8.3.1/../../../../pic32c/lib/thumb/v6-m/nofp\libg-musl.a(writev.o)
 .data          0x0000000000000000        0x0 c:/program files/microchip/xc32/v4.60/bin/bin/../../lib/gcc/pic32c/8.3.1/../../../../pic32c/lib/thumb/v6-m/nofp\libg-musl.a(writev.o)
 .bss           0x0000000000000000        0x0 c:/program files/microchip/xc32/v4.60/bin/bin/../../lib/gcc/pic32c/8.3.1/../../../../pic32c/lib/thumb/v6-m/nofp\libg-musl.a(writev.o)
 .xc_stack_usage
                0x0000000000000000       0x16 c:/program files/microchip/xc32/v4.60/bin/bin/../../lib/gcc/pic32c/8.3.1/../../../../pic32c/lib/thumb/v6-m/nofp\libg-musl.a(writev.o)
 .xc_stack_usage.hdr
                0x0000000000000000        0xe c:/program files/microchip/xc32/v4.60/bin/bin/../../lib/gcc/pic32c/8.3.1/../../../../pic32c/lib/thumb/v6-m/nofp\libg-musl.a(writev.o)
 .text          0x0000000000000000        0x0 c:/program files/microchip/xc32/v4.60/bin/bin/../../lib/gcc/pic32c/8.3.1/../../../../pic32c/lib/thumb/v6-m/nofp\libg-musl.a(__overflow.o)
 .data          0x0000000000000000        0x0 c:/program files/microchip/xc32/v4.60/bin/bin/../../lib/gcc/pic32c/8.3.1/../../../../pic32c/lib/thumb/v6-m/nofp\libg-musl.a(__overflow.o)
 .bss           0x0000000000000000        0x0 c:/program files/microchip/xc32/v4.60/bin/bin/../../lib/gcc/pic32c/8.3.1/../../../../pic32c/lib/thumb/v6-m/nofp\libg-musl.a(__overflow.o)
 .xc_stack_usage
                0x0000000000000000       0x18 c:/program files/microchip/xc32/v4.60/bin/bin/../../lib/gcc/pic32c/8.3.1/../../../../pic32c/lib/thumb/v6-m/nofp\libg-musl.a(__overflow.o)
 .xc_stack_usage.hdr
                0x0000000000000000        0xe c:/program files/microchip/xc32/v4.60/bin/bin/../../lib/gcc/pic32c/8.3.1/../../../../pic32c/lib/thumb/v6-m/nofp\libg-musl.a(__overflow.o)
 .text          0x0000000000000000        0x0 c:/program files/microchip/xc32/v4.60/bin/bin/../../lib/gcc/pic32c/8.3.1/../../../../pic32c/lib/thumb/v6-m/nofp\libg-musl.a(__fclose.o)
 .data          0x0000000000000000        0x0 c:/program files/microchip/xc32/v4.60/bin/bin/../../lib/gcc/pic32c/8.3.1/../../../../pic32c/lib/thumb/v6-m/nofp\libg-musl.a(__fclose.o)
 .bss           0x0000000000000000        0x0 c:/program files/microchip/xc32/v4.60/bin/bin/../../lib/gcc/pic32c/8.3.1/../../../../pic32c/lib/thumb/v6-m/nofp\libg-musl.a(__fclose.o)
 .xc_stack_usage
                0x0000000000000000       0x16 c:/program files/microchip/xc32/v4.60/bin/bin/../../lib/gcc/pic32c/8.3.1/../../../../pic32c/lib/thumb/v6-m/nofp\libg-musl.a(__fclose.o)
 .text.__fclose
                0x0000000000000000       0x12 c:/program files/microchip/xc32/v4.60/bin/bin/../../lib/gcc/pic32c/8.3.1/../../../../pic32c/lib/thumb/v6-m/nofp\libg-musl.a(__fclose.o)
 .xc_stack_usage.hdr
                0x0000000000000000        0xe c:/program files/microchip/xc32/v4.60/bin/bin/../../lib/gcc/pic32c/8.3.1/../../../../pic32c/lib/thumb/v6-m/nofp\libg-musl.a(__fclose.o)
 .debug_info    0x0000000000000000      0x1ba c:/program files/microchip/xc32/v4.60/bin/bin/../../lib/gcc/pic32c/8.3.1/../../../../pic32c/lib/thumb/v6-m/nofp\libg-musl.a(__fclose.o)
 .debug_abbrev  0x0000000000000000       0xdd c:/program files/microchip/xc32/v4.60/bin/bin/../../lib/gcc/pic32c/8.3.1/../../../../pic32c/lib/thumb/v6-m/nofp\libg-musl.a(__fclose.o)
 .debug_loc     0x0000000000000000       0x77 c:/program files/microchip/xc32/v4.60/bin/bin/../../lib/gcc/pic32c/8.3.1/../../../../pic32c/lib/thumb/v6-m/nofp\libg-musl.a(__fclose.o)
 .debug_aranges
                0x0000000000000000       0x20 c:/program files/microchip/xc32/v4.60/bin/bin/../../lib/gcc/pic32c/8.3.1/../../../../pic32c/lib/thumb/v6-m/nofp\libg-musl.a(__fclose.o)
 .debug_ranges  0x0000000000000000       0x10 c:/program files/microchip/xc32/v4.60/bin/bin/../../lib/gcc/pic32c/8.3.1/../../../../pic32c/lib/thumb/v6-m/nofp\libg-musl.a(__fclose.o)
 .debug_line    0x0000000000000000      0x151 c:/program files/microchip/xc32/v4.60/bin/bin/../../lib/gcc/pic32c/8.3.1/../../../../pic32c/lib/thumb/v6-m/nofp\libg-musl.a(__fclose.o)
 .debug_str     0x0000000000000000      0x2c9 c:/program files/microchip/xc32/v4.60/bin/bin/../../lib/gcc/pic32c/8.3.1/../../../../pic32c/lib/thumb/v6-m/nofp\libg-musl.a(__fclose.o)
 .comment       0x0000000000000000       0x2c c:/program files/microchip/xc32/v4.60/bin/bin/../../lib/gcc/pic32c/8.3.1/../../../../pic32c/lib/thumb/v6-m/nofp\libg-musl.a(__fclose.o)
 .note.GNU-stack
                0x0000000000000000        0x0 c:/program files/microchip/xc32/v4.60/bin/bin/../../lib/gcc/pic32c/8.3.1/../../../../pic32c/lib/thumb/v6-m/nofp\libg-musl.a(__fclose.o)
 .debug_frame   0x0000000000000000       0x28 c:/program files/microchip/xc32/v4.60/bin/bin/../../lib/gcc/pic32c/8.3.1/../../../../pic32c/lib/thumb/v6-m/nofp\libg-musl.a(__fclose.o)
 .ARM.attributes
                0x0000000000000000       0x2e c:/program files/microchip/xc32/v4.60/bin/bin/../../lib/gcc/pic32c/8.3.1/../../../../pic32c/lib/thumb/v6-m/nofp\libg-musl.a(__fclose.o)
 .text          0x0000000000000000        0x0 c:/program files/microchip/xc32/v4.60/bin/bin/../../lib/gcc/pic32c/8.3.1/../../../../pic32c/lib/thumb/v6-m/nofp\libg-musl.a(__fopen.o)
 .data          0x0000000000000000        0x0 c:/program files/microchip/xc32/v4.60/bin/bin/../../lib/gcc/pic32c/8.3.1/../../../../pic32c/lib/thumb/v6-m/nofp\libg-musl.a(__fopen.o)
 .bss           0x0000000000000000        0x0 c:/program files/microchip/xc32/v4.60/bin/bin/../../lib/gcc/pic32c/8.3.1/../../../../pic32c/lib/thumb/v6-m/nofp\libg-musl.a(__fopen.o)
 .xc_stack_usage
                0x0000000000000000       0x43 c:/program files/microchip/xc32/v4.60/bin/bin/../../lib/gcc/pic32c/8.3.1/../../../../pic32c/lib/thumb/v6-m/nofp\libg-musl.a(__fopen.o)
 .text.__dummy  0x0000000000000000        0x4 c:/program files/microchip/xc32/v4.60/bin/bin/../../lib/gcc/pic32c/8.3.1/../../../../pic32c/lib/thumb/v6-m/nofp\libg-musl.a(__fopen.o)
 .text.__fopen_std
                0x0000000000000000       0x30 c:/program files/microchip/xc32/v4.60/bin/bin/../../lib/gcc/pic32c/8.3.1/../../../../pic32c/lib/thumb/v6-m/nofp\libg-musl.a(__fopen.o)
 .text.__fopen  0x0000000000000000        0x8 c:/program files/microchip/xc32/v4.60/bin/bin/../../lib/gcc/pic32c/8.3.1/../../../../pic32c/lib/thumb/v6-m/nofp\libg-musl.a(__fopen.o)
 .xc_stack_usage.hdr
                0x0000000000000000        0xe c:/program files/microchip/xc32/v4.60/bin/bin/../../lib/gcc/pic32c/8.3.1/../../../../pic32c/lib/thumb/v6-m/nofp\libg-musl.a(__fopen.o)
 .debug_info    0x0000000000000000      0x2e2 c:/program files/microchip/xc32/v4.60/bin/bin/../../lib/gcc/pic32c/8.3.1/../../../../pic32c/lib/thumb/v6-m/nofp\libg-musl.a(__fopen.o)
 .debug_abbrev  0x0000000000000000      0x17c c:/program files/microchip/xc32/v4.60/bin/bin/../../lib/gcc/pic32c/8.3.1/../../../../pic32c/lib/thumb/v6-m/nofp\libg-musl.a(__fopen.o)
 .debug_loc     0x0000000000000000       0x94 c:/program files/microchip/xc32/v4.60/bin/bin/../../lib/gcc/pic32c/8.3.1/../../../../pic32c/lib/thumb/v6-m/nofp\libg-musl.a(__fopen.o)
 .debug_aranges
                0x0000000000000000       0x30 c:/program files/microchip/xc32/v4.60/bin/bin/../../lib/gcc/pic32c/8.3.1/../../../../pic32c/lib/thumb/v6-m/nofp\libg-musl.a(__fopen.o)
 .debug_ranges  0x0000000000000000       0x20 c:/program files/microchip/xc32/v4.60/bin/bin/../../lib/gcc/pic32c/8.3.1/../../../../pic32c/lib/thumb/v6-m/nofp\libg-musl.a(__fopen.o)
 .debug_line    0x0000000000000000      0x21c c:/program files/microchip/xc32/v4.60/bin/bin/../../lib/gcc/pic32c/8.3.1/../../../../pic32c/lib/thumb/v6-m/nofp\libg-musl.a(__fopen.o)
 .debug_str     0x0000000000000000      0x306 c:/program files/microchip/xc32/v4.60/bin/bin/../../lib/gcc/pic32c/8.3.1/../../../../pic32c/lib/thumb/v6-m/nofp\libg-musl.a(__fopen.o)
 .comment       0x0000000000000000       0x2c c:/program files/microchip/xc32/v4.60/bin/bin/../../lib/gcc/pic32c/8.3.1/../../../../pic32c/lib/thumb/v6-m/nofp\libg-musl.a(__fopen.o)
 .note.GNU-stack
                0x0000000000000000        0x0 c:/program files/microchip/xc32/v4.60/bin/bin/../../lib/gcc/pic32c/8.3.1/../../../../pic32c/lib/thumb/v6-m/nofp\libg-musl.a(__fopen.o)
 .debug_frame   0x0000000000000000       0x50 c:/program files/microchip/xc32/v4.60/bin/bin/../../lib/gcc/pic32c/8.3.1/../../../../pic32c/lib/thumb/v6-m/nofp\libg-musl.a(__fopen.o)
 .ARM.attributes
                0x0000000000000000       0x2e c:/program files/microchip/xc32/v4.60/bin/bin/../../lib/gcc/pic32c/8.3.1/../../../../pic32c/lib/thumb/v6-m/nofp\libg-musl.a(__fopen.o)
 .text          0x0000000000000000        0x0 c:/program files/microchip/xc32/v4.60/bin/bin/../../lib/gcc/pic32c/8.3.1/../../../../pic32c/lib/thumb/v6-m/nofp\libg-musl.a(__fseeko.o)
 .data          0x0000000000000000        0x0 c:/program files/microchip/xc32/v4.60/bin/bin/../../lib/gcc/pic32c/8.3.1/../../../../pic32c/lib/thumb/v6-m/nofp\libg-musl.a(__fseeko.o)
 .bss           0x0000000000000000        0x0 c:/program files/microchip/xc32/v4.60/bin/bin/../../lib/gcc/pic32c/8.3.1/../../../../pic32c/lib/thumb/v6-m/nofp\libg-musl.a(__fseeko.o)
 .xc_stack_usage
                0x0000000000000000       0x16 c:/program files/microchip/xc32/v4.60/bin/bin/../../lib/gcc/pic32c/8.3.1/../../../../pic32c/lib/thumb/v6-m/nofp\libg-musl.a(__fseeko.o)
 .text.__fseeko
                0x0000000000000000        0x8 c:/program files/microchip/xc32/v4.60/bin/bin/../../lib/gcc/pic32c/8.3.1/../../../../pic32c/lib/thumb/v6-m/nofp\libg-musl.a(__fseeko.o)
 .xc_stack_usage.hdr
                0x0000000000000000        0xe c:/program files/microchip/xc32/v4.60/bin/bin/../../lib/gcc/pic32c/8.3.1/../../../../pic32c/lib/thumb/v6-m/nofp\libg-musl.a(__fseeko.o)
 .debug_info    0x0000000000000000      0x26a c:/program files/microchip/xc32/v4.60/bin/bin/../../lib/gcc/pic32c/8.3.1/../../../../pic32c/lib/thumb/v6-m/nofp\libg-musl.a(__fseeko.o)
 .debug_abbrev  0x0000000000000000       0xf8 c:/program files/microchip/xc32/v4.60/bin/bin/../../lib/gcc/pic32c/8.3.1/../../../../pic32c/lib/thumb/v6-m/nofp\libg-musl.a(__fseeko.o)
 .debug_loc     0x0000000000000000       0x8f c:/program files/microchip/xc32/v4.60/bin/bin/../../lib/gcc/pic32c/8.3.1/../../../../pic32c/lib/thumb/v6-m/nofp\libg-musl.a(__fseeko.o)
 .debug_aranges
                0x0000000000000000       0x20 c:/program files/microchip/xc32/v4.60/bin/bin/../../lib/gcc/pic32c/8.3.1/../../../../pic32c/lib/thumb/v6-m/nofp\libg-musl.a(__fseeko.o)
 .debug_ranges  0x0000000000000000       0x10 c:/program files/microchip/xc32/v4.60/bin/bin/../../lib/gcc/pic32c/8.3.1/../../../../pic32c/lib/thumb/v6-m/nofp\libg-musl.a(__fseeko.o)
 .debug_line    0x0000000000000000      0x13f c:/program files/microchip/xc32/v4.60/bin/bin/../../lib/gcc/pic32c/8.3.1/../../../../pic32c/lib/thumb/v6-m/nofp\libg-musl.a(__fseeko.o)
 .debug_str     0x0000000000000000      0x2e6 c:/program files/microchip/xc32/v4.60/bin/bin/../../lib/gcc/pic32c/8.3.1/../../../../pic32c/lib/thumb/v6-m/nofp\libg-musl.a(__fseeko.o)
 .comment       0x0000000000000000       0x2c c:/program files/microchip/xc32/v4.60/bin/bin/../../lib/gcc/pic32c/8.3.1/../../../../pic32c/lib/thumb/v6-m/nofp\libg-musl.a(__fseeko.o)
 .note.GNU-stack
                0x0000000000000000        0x0 c:/program files/microchip/xc32/v4.60/bin/bin/../../lib/gcc/pic32c/8.3.1/../../../../pic32c/lib/thumb/v6-m/nofp\libg-musl.a(__fseeko.o)
 .debug_frame   0x0000000000000000       0x28 c:/program files/microchip/xc32/v4.60/bin/bin/../../lib/gcc/pic32c/8.3.1/../../../../pic32c/lib/thumb/v6-m/nofp\libg-musl.a(__fseeko.o)
 .ARM.attributes
                0x0000000000000000       0x2e c:/program files/microchip/xc32/v4.60/bin/bin/../../lib/gcc/pic32c/8.3.1/../../../../pic32c/lib/thumb/v6-m/nofp\libg-musl.a(__fseeko.o)
 .text          0x0000000000000000        0x0 c:/program files/microchip/xc32/v4.60/bin/bin/../../lib/gcc/pic32c/8.3.1/../../../../pic32c/lib/thumb/v6-m/nofp\libg-musl.a(__ftello.o)
 .data          0x0000000000000000        0x0 c:/program files/microchip/xc32/v4.60/bin/bin/../../lib/gcc/pic32c/8.3.1/../../../../pic32c/lib/thumb/v6-m/nofp\libg-musl.a(__ftello.o)
 .bss           0x0000000000000000        0x0 c:/program files/microchip/xc32/v4.60/bin/bin/../../lib/gcc/pic32c/8.3.1/../../../../pic32c/lib/thumb/v6-m/nofp\libg-musl.a(__ftello.o)
 .xc_stack_usage
                0x0000000000000000       0x2f c:/program files/microchip/xc32/v4.60/bin/bin/../../lib/gcc/pic32c/8.3.1/../../../../pic32c/lib/thumb/v6-m/nofp\libg-musl.a(__ftello.o)
 .text.__dummy  0x0000000000000000       0x1a c:/program files/microchip/xc32/v4.60/bin/bin/../../lib/gcc/pic32c/8.3.1/../../../../pic32c/lib/thumb/v6-m/nofp\libg-musl.a(__ftello.o)
 .text.__ftello_adj
                0x0000000000000000        0x8 c:/program files/microchip/xc32/v4.60/bin/bin/../../lib/gcc/pic32c/8.3.1/../../../../pic32c/lib/thumb/v6-m/nofp\libg-musl.a(__ftello.o)
 .xc_stack_usage.hdr
                0x0000000000000000        0xe c:/program files/microchip/xc32/v4.60/bin/bin/../../lib/gcc/pic32c/8.3.1/../../../../pic32c/lib/thumb/v6-m/nofp\libg-musl.a(__ftello.o)
 .debug_info    0x0000000000000000      0x29a c:/program files/microchip/xc32/v4.60/bin/bin/../../lib/gcc/pic32c/8.3.1/../../../../pic32c/lib/thumb/v6-m/nofp\libg-musl.a(__ftello.o)
 .debug_abbrev  0x0000000000000000      0x100 c:/program files/microchip/xc32/v4.60/bin/bin/../../lib/gcc/pic32c/8.3.1/../../../../pic32c/lib/thumb/v6-m/nofp\libg-musl.a(__ftello.o)
 .debug_loc     0x0000000000000000       0xd4 c:/program files/microchip/xc32/v4.60/bin/bin/../../lib/gcc/pic32c/8.3.1/../../../../pic32c/lib/thumb/v6-m/nofp\libg-musl.a(__ftello.o)
 .debug_aranges
                0x0000000000000000       0x28 c:/program files/microchip/xc32/v4.60/bin/bin/../../lib/gcc/pic32c/8.3.1/../../../../pic32c/lib/thumb/v6-m/nofp\libg-musl.a(__ftello.o)
 .debug_ranges  0x0000000000000000       0x18 c:/program files/microchip/xc32/v4.60/bin/bin/../../lib/gcc/pic32c/8.3.1/../../../../pic32c/lib/thumb/v6-m/nofp\libg-musl.a(__ftello.o)
 .debug_line    0x0000000000000000      0x175 c:/program files/microchip/xc32/v4.60/bin/bin/../../lib/gcc/pic32c/8.3.1/../../../../pic32c/lib/thumb/v6-m/nofp\libg-musl.a(__ftello.o)
 .debug_str     0x0000000000000000      0x2eb c:/program files/microchip/xc32/v4.60/bin/bin/../../lib/gcc/pic32c/8.3.1/../../../../pic32c/lib/thumb/v6-m/nofp\libg-musl.a(__ftello.o)
 .comment       0x0000000000000000       0x2c c:/program files/microchip/xc32/v4.60/bin/bin/../../lib/gcc/pic32c/8.3.1/../../../../pic32c/lib/thumb/v6-m/nofp\libg-musl.a(__ftello.o)
 .note.GNU-stack
                0x0000000000000000        0x0 c:/program files/microchip/xc32/v4.60/bin/bin/../../lib/gcc/pic32c/8.3.1/../../../../pic32c/lib/thumb/v6-m/nofp\libg-musl.a(__ftello.o)
 .debug_frame   0x0000000000000000       0x40 c:/program files/microchip/xc32/v4.60/bin/bin/../../lib/gcc/pic32c/8.3.1/../../../../pic32c/lib/thumb/v6-m/nofp\libg-musl.a(__ftello.o)
 .ARM.attributes
                0x0000000000000000       0x2e c:/program files/microchip/xc32/v4.60/bin/bin/../../lib/gcc/pic32c/8.3.1/../../../../pic32c/lib/thumb/v6-m/nofp\libg-musl.a(__ftello.o)
 .text          0x0000000000000000        0x0 c:/program files/microchip/xc32/v4.60/bin/bin/../../lib/gcc/pic32c/8.3.1/../../../../pic32c/lib/thumb/v6-m/nofp\libg-musl.a(__fwrite.o)
 .data          0x0000000000000000        0x0 c:/program files/microchip/xc32/v4.60/bin/bin/../../lib/gcc/pic32c/8.3.1/../../../../pic32c/lib/thumb/v6-m/nofp\libg-musl.a(__fwrite.o)
 .bss           0x0000000000000000        0x0 c:/program files/microchip/xc32/v4.60/bin/bin/../../lib/gcc/pic32c/8.3.1/../../../../pic32c/lib/thumb/v6-m/nofp\libg-musl.a(__fwrite.o)
 .xc_stack_usage
                0x0000000000000000       0x36 c:/program files/microchip/xc32/v4.60/bin/bin/../../lib/gcc/pic32c/8.3.1/../../../../pic32c/lib/thumb/v6-m/nofp\libg-musl.a(__fwrite.o)
 .xc_stack_usage.hdr
                0x0000000000000000        0xe c:/program files/microchip/xc32/v4.60/bin/bin/../../lib/gcc/pic32c/8.3.1/../../../../pic32c/lib/thumb/v6-m/nofp\libg-musl.a(__fwrite.o)
 .xc_stack_usage.hdr
                0x0000000000000000        0xe c:/program files/microchip/xc32/v4.60/bin/bin/../../lib/gcc/pic32c/8.3.1/../../../../pic32c/lib/thumb/v6-m/nofp\libm-fast-emfloat.a(fma.o)
 .xc_stack_usage
                0x0000000000000000       0x11 c:/program files/microchip/xc32/v4.60/bin/bin/../../lib/gcc/pic32c/8.3.1/../../../../pic32c/lib/thumb/v6-m/nofp\libm-fast-emfloat.a(fma.o)
 .xc_stack_usage.hdr
                0x0000000000000000        0xe c:/program files/microchip/xc32/v4.60/bin/bin/../../lib/gcc/pic32c/8.3.1/../../../../pic32c/lib/thumb/v6-m/nofp\libm-fast-emfloat.a(floor.o)
 .xc_stack_usage
                0x0000000000000000       0x13 c:/program files/microchip/xc32/v4.60/bin/bin/../../lib/gcc/pic32c/8.3.1/../../../../pic32c/lib/thumb/v6-m/nofp\libm-fast-emfloat.a(floor.o)
 .xc_stack_usage.hdr
                0x0000000000000000        0xe c:/program files/microchip/xc32/v4.60/bin/bin/../../lib/gcc/pic32c/8.3.1/../../../../pic32c/lib/thumb/v6-m/nofp\libm-fast-emfloat.a(__aeabi_dcmple.o)
 .xc_stack_usage
                0x0000000000000000       0x1c c:/program files/microchip/xc32/v4.60/bin/bin/../../lib/gcc/pic32c/8.3.1/../../../../pic32c/lib/thumb/v6-m/nofp\libm-fast-emfloat.a(__aeabi_dcmple.o)
 .data          0x0000000000000000        0x0 c:/program files/microchip/xc32/v4.60/bin/bin/../../lib/gcc/pic32c/8.3.1/thumb/v6-m/nofp\libgcc.a(_udivsi3.o)
 .bss           0x0000000000000000        0x0 c:/program files/microchip/xc32/v4.60/bin/bin/../../lib/gcc/pic32c/8.3.1/thumb/v6-m/nofp\libgcc.a(_udivsi3.o)
 .xc_stack_usage.hdr
                0x0000000000000000        0xe c:/program files/microchip/xc32/v4.60/bin/bin/../../lib/gcc/pic32c/8.3.1/thumb/v6-m/nofp\libgcc.a(_udivsi3.o)
 .xc_stack_usage
                0x0000000000000000       0x35 c:/program files/microchip/xc32/v4.60/bin/bin/../../lib/gcc/pic32c/8.3.1/thumb/v6-m/nofp\libgcc.a(_udivsi3.o)
 .data          0x0000000000000000        0x0 c:/program files/microchip/xc32/v4.60/bin/bin/../../lib/gcc/pic32c/8.3.1/thumb/v6-m/nofp\libgcc.a(_divsi3.o)
 .bss           0x0000000000000000        0x0 c:/program files/microchip/xc32/v4.60/bin/bin/../../lib/gcc/pic32c/8.3.1/thumb/v6-m/nofp\libgcc.a(_divsi3.o)
 .xc_stack_usage.hdr
                0x0000000000000000        0xe c:/program files/microchip/xc32/v4.60/bin/bin/../../lib/gcc/pic32c/8.3.1/thumb/v6-m/nofp\libgcc.a(_divsi3.o)
 .xc_stack_usage
                0x0000000000000000       0x33 c:/program files/microchip/xc32/v4.60/bin/bin/../../lib/gcc/pic32c/8.3.1/thumb/v6-m/nofp\libgcc.a(_divsi3.o)
 .data          0x0000000000000000        0x0 c:/program files/microchip/xc32/v4.60/bin/bin/../../lib/gcc/pic32c/8.3.1/thumb/v6-m/nofp\libgcc.a(_dvmd_tls.o)
 .bss           0x0000000000000000        0x0 c:/program files/microchip/xc32/v4.60/bin/bin/../../lib/gcc/pic32c/8.3.1/thumb/v6-m/nofp\libgcc.a(_dvmd_tls.o)
 .xc_stack_usage.hdr
                0x0000000000000000        0xe c:/program files/microchip/xc32/v4.60/bin/bin/../../lib/gcc/pic32c/8.3.1/thumb/v6-m/nofp\libgcc.a(_dvmd_tls.o)
 .xc_stack_usage
                0x0000000000000000       0x36 c:/program files/microchip/xc32/v4.60/bin/bin/../../lib/gcc/pic32c/8.3.1/thumb/v6-m/nofp\libgcc.a(_dvmd_tls.o)
 .data          0x0000000000000000        0x0 c:/program files/microchip/xc32/v4.60/bin/bin/../../lib/gcc/pic32c/8.3.1/thumb/v6-m/nofp\libgcc.a(_aeabi_ldivmod.o)
 .bss           0x0000000000000000        0x0 c:/program files/microchip/xc32/v4.60/bin/bin/../../lib/gcc/pic32c/8.3.1/thumb/v6-m/nofp\libgcc.a(_aeabi_ldivmod.o)
 .xc_stack_usage.hdr
                0x0000000000000000        0xe c:/program files/microchip/xc32/v4.60/bin/bin/../../lib/gcc/pic32c/8.3.1/thumb/v6-m/nofp\libgcc.a(_aeabi_ldivmod.o)
 .xc_stack_usage
                0x0000000000000000       0x1d c:/program files/microchip/xc32/v4.60/bin/bin/../../lib/gcc/pic32c/8.3.1/thumb/v6-m/nofp\libgcc.a(_aeabi_ldivmod.o)
 .data          0x0000000000000000        0x0 c:/program files/microchip/xc32/v4.60/bin/bin/../../lib/gcc/pic32c/8.3.1/thumb/v6-m/nofp\libgcc.a(_aeabi_uldivmod.o)
 .bss           0x0000000000000000        0x0 c:/program files/microchip/xc32/v4.60/bin/bin/../../lib/gcc/pic32c/8.3.1/thumb/v6-m/nofp\libgcc.a(_aeabi_uldivmod.o)
 .xc_stack_usage.hdr
                0x0000000000000000        0xe c:/program files/microchip/xc32/v4.60/bin/bin/../../lib/gcc/pic32c/8.3.1/thumb/v6-m/nofp\libgcc.a(_aeabi_uldivmod.o)
 .xc_stack_usage
                0x0000000000000000       0x1e c:/program files/microchip/xc32/v4.60/bin/bin/../../lib/gcc/pic32c/8.3.1/thumb/v6-m/nofp\libgcc.a(_aeabi_uldivmod.o)
 .data          0x0000000000000000        0x0 c:/program files/microchip/xc32/v4.60/bin/bin/../../lib/gcc/pic32c/8.3.1/thumb/v6-m/nofp\libgcc.a(_muldi3.o)
 .bss           0x0000000000000000        0x0 c:/program files/microchip/xc32/v4.60/bin/bin/../../lib/gcc/pic32c/8.3.1/thumb/v6-m/nofp\libgcc.a(_muldi3.o)
 .xc_stack_usage
                0x0000000000000000       0x16 c:/program files/microchip/xc32/v4.60/bin/bin/../../lib/gcc/pic32c/8.3.1/thumb/v6-m/nofp\libgcc.a(_muldi3.o)
 .xc_stack_usage.hdr
                0x0000000000000000        0xe c:/program files/microchip/xc32/v4.60/bin/bin/../../lib/gcc/pic32c/8.3.1/thumb/v6-m/nofp\libgcc.a(_muldi3.o)
 .data          0x0000000000000000        0x0 c:/program files/microchip/xc32/v4.60/bin/bin/../../lib/gcc/pic32c/8.3.1/thumb/v6-m/nofp\libgcc.a(_udivmoddi4.o)
 .bss           0x0000000000000000        0x0 c:/program files/microchip/xc32/v4.60/bin/bin/../../lib/gcc/pic32c/8.3.1/thumb/v6-m/nofp\libgcc.a(_udivmoddi4.o)
 .xc_stack_usage
                0x0000000000000000       0x1a c:/program files/microchip/xc32/v4.60/bin/bin/../../lib/gcc/pic32c/8.3.1/thumb/v6-m/nofp\libgcc.a(_udivmoddi4.o)
 .ARM.extab     0x0000000000000000        0x0 c:/program files/microchip/xc32/v4.60/bin/bin/../../lib/gcc/pic32c/8.3.1/thumb/v6-m/nofp\libgcc.a(_udivmoddi4.o)
 .xc_stack_usage.hdr
                0x0000000000000000        0xe c:/program files/microchip/xc32/v4.60/bin/bin/../../lib/gcc/pic32c/8.3.1/thumb/v6-m/nofp\libgcc.a(_udivmoddi4.o)
 .data          0x0000000000000000        0x0 c:/program files/microchip/xc32/v4.60/bin/bin/../../lib/gcc/pic32c/8.3.1/thumb/v6-m/nofp\libgcc.a(bpabi.o)
 .bss           0x0000000000000000        0x0 c:/program files/microchip/xc32/v4.60/bin/bin/../../lib/gcc/pic32c/8.3.1/thumb/v6-m/nofp\libgcc.a(bpabi.o)
 .xc_stack_usage
                0x0000000000000000       0x22 c:/program files/microchip/xc32/v4.60/bin/bin/../../lib/gcc/pic32c/8.3.1/thumb/v6-m/nofp\libgcc.a(bpabi.o)
 .xc_stack_usage.hdr
                0x0000000000000000        0xe c:/program files/microchip/xc32/v4.60/bin/bin/../../lib/gcc/pic32c/8.3.1/thumb/v6-m/nofp\libgcc.a(bpabi.o)
 .data          0x0000000000000000        0x0 c:/program files/microchip/xc32/v4.60/bin/bin/../../lib/gcc/pic32c/8.3.1/thumb/v6-m/nofp\libgcc.a(_lshrdi3.o)
 .bss           0x0000000000000000        0x0 c:/program files/microchip/xc32/v4.60/bin/bin/../../lib/gcc/pic32c/8.3.1/thumb/v6-m/nofp\libgcc.a(_lshrdi3.o)
 .xc_stack_usage.hdr
                0x0000000000000000        0xe c:/program files/microchip/xc32/v4.60/bin/bin/../../lib/gcc/pic32c/8.3.1/thumb/v6-m/nofp\libgcc.a(_lshrdi3.o)
 .xc_stack_usage
                0x0000000000000000       0x17 c:/program files/microchip/xc32/v4.60/bin/bin/../../lib/gcc/pic32c/8.3.1/thumb/v6-m/nofp\libgcc.a(_lshrdi3.o)
 .data          0x0000000000000000        0x0 c:/program files/microchip/xc32/v4.60/bin/bin/../../lib/gcc/pic32c/8.3.1/thumb/v6-m/nofp\libgcc.a(_ashldi3.o)
 .bss           0x0000000000000000        0x0 c:/program files/microchip/xc32/v4.60/bin/bin/../../lib/gcc/pic32c/8.3.1/thumb/v6-m/nofp\libgcc.a(_ashldi3.o)
 .xc_stack_usage.hdr
                0x0000000000000000        0xe c:/program files/microchip/xc32/v4.60/bin/bin/../../lib/gcc/pic32c/8.3.1/thumb/v6-m/nofp\libgcc.a(_ashldi3.o)
 .xc_stack_usage
                0x0000000000000000       0x17 c:/program files/microchip/xc32/v4.60/bin/bin/../../lib/gcc/pic32c/8.3.1/thumb/v6-m/nofp\libgcc.a(_ashldi3.o)
 .data          0x0000000000000000        0x0 c:/program files/microchip/xc32/v4.60/bin/bin/../../lib/gcc/pic32c/8.3.1/thumb/v6-m/nofp\libgcc.a(_clzdi2.o)
 .bss           0x0000000000000000        0x0 c:/program files/microchip/xc32/v4.60/bin/bin/../../lib/gcc/pic32c/8.3.1/thumb/v6-m/nofp\libgcc.a(_clzdi2.o)
 .xc_stack_usage.hdr
                0x0000000000000000        0xe c:/program files/microchip/xc32/v4.60/bin/bin/../../lib/gcc/pic32c/8.3.1/thumb/v6-m/nofp\libgcc.a(_clzdi2.o)
 .xc_stack_usage
                0x0000000000000000       0x16 c:/program files/microchip/xc32/v4.60/bin/bin/../../lib/gcc/pic32c/8.3.1/thumb/v6-m/nofp\libgcc.a(_clzdi2.o)
 .data          0x0000000000000000        0x0 c:/program files/microchip/xc32/v4.60/bin/bin/../../lib/gcc/pic32c/8.3.1/thumb/v6-m/nofp\libgcc.a(_divdi3.o)
 .bss           0x0000000000000000        0x0 c:/program files/microchip/xc32/v4.60/bin/bin/../../lib/gcc/pic32c/8.3.1/thumb/v6-m/nofp\libgcc.a(_divdi3.o)
 .xc_stack_usage
                0x0000000000000000       0x16 c:/program files/microchip/xc32/v4.60/bin/bin/../../lib/gcc/pic32c/8.3.1/thumb/v6-m/nofp\libgcc.a(_divdi3.o)
 .ARM.extab     0x0000000000000000        0x0 c:/program files/microchip/xc32/v4.60/bin/bin/../../lib/gcc/pic32c/8.3.1/thumb/v6-m/nofp\libgcc.a(_divdi3.o)
 .xc_stack_usage.hdr
                0x0000000000000000        0xe c:/program files/microchip/xc32/v4.60/bin/bin/../../lib/gcc/pic32c/8.3.1/thumb/v6-m/nofp\libgcc.a(_divdi3.o)
 .data          0x0000000000000000        0x0 c:/program files/microchip/xc32/v4.60/bin/bin/../../lib/gcc/pic32c/8.3.1/thumb/v6-m/nofp\libgcc.a(_clzsi2.o)
 .bss           0x0000000000000000        0x0 c:/program files/microchip/xc32/v4.60/bin/bin/../../lib/gcc/pic32c/8.3.1/thumb/v6-m/nofp\libgcc.a(_clzsi2.o)
 .xc_stack_usage.hdr
                0x0000000000000000        0xe c:/program files/microchip/xc32/v4.60/bin/bin/../../lib/gcc/pic32c/8.3.1/thumb/v6-m/nofp\libgcc.a(_clzsi2.o)
 .xc_stack_usage
                0x0000000000000000       0x16 c:/program files/microchip/xc32/v4.60/bin/bin/../../lib/gcc/pic32c/8.3.1/thumb/v6-m/nofp\libgcc.a(_clzsi2.o)
 .text          0x0000000000000000        0x0 c:/program files/microchip/xc32/v4.60/bin/bin/../../lib/gcc/pic32c/8.3.1/../../../../pic32c/lib/thumb/v6-m/nofp\libpic32c.a(close.o)
 .data          0x0000000000000000        0x0 c:/program files/microchip/xc32/v4.60/bin/bin/../../lib/gcc/pic32c/8.3.1/../../../../pic32c/lib/thumb/v6-m/nofp\libpic32c.a(close.o)
 .bss           0x0000000000000000        0x0 c:/program files/microchip/xc32/v4.60/bin/bin/../../lib/gcc/pic32c/8.3.1/../../../../pic32c/lib/thumb/v6-m/nofp\libpic32c.a(close.o)
 .xc_stack_usage
                0x0000000000000000       0x13 c:/program files/microchip/xc32/v4.60/bin/bin/../../lib/gcc/pic32c/8.3.1/../../../../pic32c/lib/thumb/v6-m/nofp\libpic32c.a(close.o)
 .gnu.warning.closestub
                0x0000000000000000        0x0 c:/program files/microchip/xc32/v4.60/bin/bin/../../lib/gcc/pic32c/8.3.1/../../../../pic32c/lib/thumb/v6-m/nofp\libpic32c.a(close.o)
 .xc_stack_usage.hdr
                0x0000000000000000        0xe c:/program files/microchip/xc32/v4.60/bin/bin/../../lib/gcc/pic32c/8.3.1/../../../../pic32c/lib/thumb/v6-m/nofp\libpic32c.a(close.o)
 .text          0x0000000000000000        0x0 c:/program files/microchip/xc32/v4.60/bin/bin/../../lib/gcc/pic32c/8.3.1/../../../../pic32c/lib/thumb/v6-m/nofp\libpic32c.a(lseek.o)
 .data          0x0000000000000000        0x0 c:/program files/microchip/xc32/v4.60/bin/bin/../../lib/gcc/pic32c/8.3.1/../../../../pic32c/lib/thumb/v6-m/nofp\libpic32c.a(lseek.o)
 .bss           0x0000000000000000        0x0 c:/program files/microchip/xc32/v4.60/bin/bin/../../lib/gcc/pic32c/8.3.1/../../../../pic32c/lib/thumb/v6-m/nofp\libpic32c.a(lseek.o)
 .xc_stack_usage
                0x0000000000000000       0x13 c:/program files/microchip/xc32/v4.60/bin/bin/../../lib/gcc/pic32c/8.3.1/../../../../pic32c/lib/thumb/v6-m/nofp\libpic32c.a(lseek.o)
 .xc_stack_usage.hdr
                0x0000000000000000        0xe c:/program files/microchip/xc32/v4.60/bin/bin/../../lib/gcc/pic32c/8.3.1/../../../../pic32c/lib/thumb/v6-m/nofp\libpic32c.a(lseek.o)
 .text          0x0000000000000000        0x0 c:/program files/microchip/xc32/v4.60/bin/bin/../../lib/gcc/pic32c/8.3.1/../../../../pic32c/lib/thumb/v6-m/nofp\libpic32c.a(sbrk.o)
 .data          0x0000000000000000        0x0 c:/program files/microchip/xc32/v4.60/bin/bin/../../lib/gcc/pic32c/8.3.1/../../../../pic32c/lib/thumb/v6-m/nofp\libpic32c.a(sbrk.o)
 .xc_stack_usage
                0x0000000000000000       0x4d c:/program files/microchip/xc32/v4.60/bin/bin/../../lib/gcc/pic32c/8.3.1/../../../../pic32c/lib/thumb/v6-m/nofp\libpic32c.a(sbrk.o)
 .xc_stack_usage.hdr
                0x0000000000000000        0xe c:/program files/microchip/xc32/v4.60/bin/bin/../../lib/gcc/pic32c/8.3.1/../../../../pic32c/lib/thumb/v6-m/nofp\libpic32c.a(sbrk.o)
 .text          0x0000000000000000        0x0 c:/program files/microchip/xc32/v4.60/bin/bin/../../lib/gcc/pic32c/8.3.1/../../../../pic32c/lib/thumb/v6-m/nofp\libc-size-musl.a(strcpy.o)
 .data          0x0000000000000000        0x0 c:/program files/microchip/xc32/v4.60/bin/bin/../../lib/gcc/pic32c/8.3.1/../../../../pic32c/lib/thumb/v6-m/nofp\libc-size-musl.a(strcpy.o)
 .bss           0x0000000000000000        0x0 c:/program files/microchip/xc32/v4.60/bin/bin/../../lib/gcc/pic32c/8.3.1/../../../../pic32c/lib/thumb/v6-m/nofp\libc-size-musl.a(strcpy.o)
 .xc_stack_usage
                0x0000000000000000       0x14 c:/program files/microchip/xc32/v4.60/bin/bin/../../lib/gcc/pic32c/8.3.1/../../../../pic32c/lib/thumb/v6-m/nofp\libc-size-musl.a(strcpy.o)
 .xc_stack_usage.hdr
                0x0000000000000000        0xe c:/program files/microchip/xc32/v4.60/bin/bin/../../lib/gcc/pic32c/8.3.1/../../../../pic32c/lib/thumb/v6-m/nofp\libc-size-musl.a(strcpy.o)
 .text          0x0000000000000000        0x0 c:/program files/microchip/xc32/v4.60/bin/bin/../../lib/gcc/pic32c/8.3.1/../../../../pic32c/lib/thumb/v6-m/nofp\libc-size-musl.a(stpcpy.o)
 .data          0x0000000000000000        0x0 c:/program files/microchip/xc32/v4.60/bin/bin/../../lib/gcc/pic32c/8.3.1/../../../../pic32c/lib/thumb/v6-m/nofp\libc-size-musl.a(stpcpy.o)
 .bss           0x0000000000000000        0x0 c:/program files/microchip/xc32/v4.60/bin/bin/../../lib/gcc/pic32c/8.3.1/../../../../pic32c/lib/thumb/v6-m/nofp\libc-size-musl.a(stpcpy.o)
 .xc_stack_usage
                0x0000000000000000       0x14 c:/program files/microchip/xc32/v4.60/bin/bin/../../lib/gcc/pic32c/8.3.1/../../../../pic32c/lib/thumb/v6-m/nofp\libc-size-musl.a(stpcpy.o)
 .xc_stack_usage.hdr
                0x0000000000000000        0xe c:/program files/microchip/xc32/v4.60/bin/bin/../../lib/gcc/pic32c/8.3.1/../../../../pic32c/lib/thumb/v6-m/nofp\libc-size-musl.a(stpcpy.o)
 .text          0x0000000000000000        0x0 c:/program files/microchip/xc32/v4.60/bin/bin/../../lib/gcc/pic32c/8.3.1/thumb/v6-m/nofp/crtend.o
 .data          0x0000000000000000        0x0 c:/program files/microchip/xc32/v4.60/bin/bin/../../lib/gcc/pic32c/8.3.1/thumb/v6-m/nofp/crtend.o
 .bss           0x0000000000000000        0x0 c:/program files/microchip/xc32/v4.60/bin/bin/../../lib/gcc/pic32c/8.3.1/thumb/v6-m/nofp/crtend.o
 .eh_frame      0x0000000000000000        0x4 c:/program files/microchip/xc32/v4.60/bin/bin/../../lib/gcc/pic32c/8.3.1/thumb/v6-m/nofp/crtend.o
 .xc_stack_usage.hdr
                0x0000000000000000        0xe c:/program files/microchip/xc32/v4.60/bin/bin/../../lib/gcc/pic32c/8.3.1/thumb/v6-m/nofp/crtend.o
 .comment       0x0000000000000000       0x2c c:/program files/microchip/xc32/v4.60/bin/bin/../../lib/gcc/pic32c/8.3.1/thumb/v6-m/nofp/crtend.o
 .ARM.attributes
                0x0000000000000000       0x2c c:/program files/microchip/xc32/v4.60/bin/bin/../../lib/gcc/pic32c/8.3.1/thumb/v6-m/nofp/crtend.o
 .text          0x0000000000000000        0x0 c:/program files/microchip/xc32/v4.60/bin/bin/../../lib/gcc/pic32c/8.3.1/thumb/v6-m/nofp/crtn.o
 .data          0x0000000000000000        0x0 c:/program files/microchip/xc32/v4.60/bin/bin/../../lib/gcc/pic32c/8.3.1/thumb/v6-m/nofp/crtn.o
 .bss           0x0000000000000000        0x0 c:/program files/microchip/xc32/v4.60/bin/bin/../../lib/gcc/pic32c/8.3.1/thumb/v6-m/nofp/crtn.o
 .xc_stack_usage.hdr
                0x0000000000000000        0xe c:/program files/microchip/xc32/v4.60/bin/bin/../../lib/gcc/pic32c/8.3.1/thumb/v6-m/nofp/crtn.o
 .text          0x0000000000000000        0x0 c:/program files/microchip/xc32/v4.60/bin/bin/../../lib/gcc/pic32c/8.3.1/../../../../pic32c/lib/thumb/v6-m/nofp\libpic32c.a(pic32_data_init_clear.o)
 .data          0x0000000000000000        0x0 c:/program files/microchip/xc32/v4.60/bin/bin/../../lib/gcc/pic32c/8.3.1/../../../../pic32c/lib/thumb/v6-m/nofp\libpic32c.a(pic32_data_init_clear.o)
 .bss           0x0000000000000000        0x0 c:/program files/microchip/xc32/v4.60/bin/bin/../../lib/gcc/pic32c/8.3.1/../../../../pic32c/lib/thumb/v6-m/nofp\libpic32c.a(pic32_data_init_clear.o)
 .xc_stack_usage
                0x0000000000000000       0x1b c:/program files/microchip/xc32/v4.60/bin/bin/../../lib/gcc/pic32c/8.3.1/../../../../pic32c/lib/thumb/v6-m/nofp\libpic32c.a(pic32_data_init_clear.o)
 .xc_stack_usage.hdr
                0x0000000000000000        0xe c:/program files/microchip/xc32/v4.60/bin/bin/../../lib/gcc/pic32c/8.3.1/../../../../pic32c/lib/thumb/v6-m/nofp\libpic32c.a(pic32_data_init_clear.o)
 .text          0x0000000000000000        0x0 c:/program files/microchip/xc32/v4.60/bin/bin/../../lib/gcc/pic32c/8.3.1/../../../../pic32c/lib/thumb/v6-m/nofp\libpic32c.a(pic32_data_init_copy.o)
 .data          0x0000000000000000        0x0 c:/program files/microchip/xc32/v4.60/bin/bin/../../lib/gcc/pic32c/8.3.1/../../../../pic32c/lib/thumb/v6-m/nofp\libpic32c.a(pic32_data_init_copy.o)
 .bss           0x0000000000000000        0x0 c:/program files/microchip/xc32/v4.60/bin/bin/../../lib/gcc/pic32c/8.3.1/../../../../pic32c/lib/thumb/v6-m/nofp\libpic32c.a(pic32_data_init_copy.o)
 .xc_stack_usage
                0x0000000000000000       0x1a c:/program files/microchip/xc32/v4.60/bin/bin/../../lib/gcc/pic32c/8.3.1/../../../../pic32c/lib/thumb/v6-m/nofp\libpic32c.a(pic32_data_init_copy.o)
 .xc_stack_usage.hdr
                0x0000000000000000        0xe c:/program files/microchip/xc32/v4.60/bin/bin/../../lib/gcc/pic32c/8.3.1/../../../../pic32c/lib/thumb/v6-m/nofp\libpic32c.a(pic32_data_init_copy.o)

Memory Configuration

Name             Origin             Length             Attributes
rom              0x0000000000000000 0x0000000000040000 xrl
ram              0x0000000020000000 0x0000000000008000 xw !r
config_00804000  0x0000000000804000 0x0000000000000004
config_00804004  0x0000000000804004 0x0000000000000004
*default*        0x0000000000000000 0xffffffffffffffff

Linker script and memory map

LOAD c:/program files/microchip/xc32/v4.60/bin/bin/../../lib/gcc/pic32c/8.3.1/thumb/v6-m/nofp/crti.o
LOAD c:/program files/microchip/xc32/v4.60/bin/bin/../../lib/gcc/pic32c/8.3.1/thumb/v6-m/nofp/crtbegin.o
LOAD build/SAMD21_IOT_WG_ICM42688/debug/_ext/2048461350/icm42688_sensor.o
LOAD build/SAMD21_IOT_WG_ICM42688/debug/_ext/171618134/sml_recognition_run.o
LOAD build/SAMD21_IOT_WG_ICM42688/debug/_ext/1660664302/drv_spi.o
LOAD build/SAMD21_IOT_WG_ICM42688/debug/_ext/1164161090/wdrv_winc_gpio.o
LOAD build/SAMD21_IOT_WG_ICM42688/debug/_ext/1164161090/wdrv_winc_eint.o
LOAD build/SAMD21_IOT_WG_ICM42688/debug/_ext/101005277/wdrv_winc_spi.o
LOAD build/SAMD21_IOT_WG_ICM42688/debug/_ext/90265895/nm_common.o
LOAD build/SAMD21_IOT_WG_ICM42688/debug/_ext/121554788/m2m_ssl.o
LOAD build/SAMD21_IOT_WG_ICM42688/debug/_ext/121554788/m2m_hif.o
LOAD build/SAMD21_IOT_WG_ICM42688/debug/_ext/121554788/m2m_wifi.o
LOAD build/SAMD21_IOT_WG_ICM42688/debug/_ext/121554788/nmspi.o
LOAD build/SAMD21_IOT_WG_ICM42688/debug/_ext/121554788/nmdrv.o
LOAD build/SAMD21_IOT_WG_ICM42688/debug/_ext/121554788/m2m_periph.o
LOAD build/SAMD21_IOT_WG_ICM42688/debug/_ext/121554788/m2m_ota.o
LOAD build/SAMD21_IOT_WG_ICM42688/debug/_ext/121554788/nmasic.o
LOAD build/SAMD21_IOT_WG_ICM42688/debug/_ext/121554788/nmbus.o
LOAD build/SAMD21_IOT_WG_ICM42688/debug/_ext/548032175/socket.o
LOAD build/SAMD21_IOT_WG_ICM42688/debug/_ext/548032175/inet_addr.o
LOAD build/SAMD21_IOT_WG_ICM42688/debug/_ext/548032175/inet_ntop.o
LOAD build/SAMD21_IOT_WG_ICM42688/debug/_ext/609036575/flexible_flash.o
LOAD build/SAMD21_IOT_WG_ICM42688/debug/_ext/609036575/spi_flash.o
LOAD build/SAMD21_IOT_WG_ICM42688/debug/_ext/1784303044/wdrv_winc_osal.o
LOAD build/SAMD21_IOT_WG_ICM42688/debug/_ext/907429946/wdrv_winc_softap.o
LOAD build/SAMD21_IOT_WG_ICM42688/debug/_ext/907429946/wdrv_winc_bssfind.o
LOAD build/SAMD21_IOT_WG_ICM42688/debug/_ext/907429946/wdrv_winc_sta.o
LOAD build/SAMD21_IOT_WG_ICM42688/debug/_ext/907429946/wdrv_winc_wps.o
LOAD build/SAMD21_IOT_WG_ICM42688/debug/_ext/907429946/wdrv_winc_assoc.o
LOAD build/SAMD21_IOT_WG_ICM42688/debug/_ext/907429946/wdrv_winc_socket.o
LOAD build/SAMD21_IOT_WG_ICM42688/debug/_ext/907429946/wdrv_winc_systime.o
LOAD build/SAMD21_IOT_WG_ICM42688/debug/_ext/907429946/wdrv_winc_enterprise.o
LOAD build/SAMD21_IOT_WG_ICM42688/debug/_ext/907429946/wdrv_winc_nvm.o
LOAD build/SAMD21_IOT_WG_ICM42688/debug/_ext/907429946/wdrv_winc_httpprovctx.o
LOAD build/SAMD21_IOT_WG_ICM42688/debug/_ext/907429946/wdrv_winc_powersave.o
LOAD build/SAMD21_IOT_WG_ICM42688/debug/_ext/907429946/wdrv_winc_authctx.o
LOAD build/SAMD21_IOT_WG_ICM42688/debug/_ext/907429946/wdrv_winc_ssl.o
LOAD build/SAMD21_IOT_WG_ICM42688/debug/_ext/907429946/wdrv_winc_custie.o
LOAD build/SAMD21_IOT_WG_ICM42688/debug/_ext/907429946/wdrv_winc_host_file.o
LOAD build/SAMD21_IOT_WG_ICM42688/debug/_ext/907429946/wdrv_winc.o
LOAD build/SAMD21_IOT_WG_ICM42688/debug/_ext/907429946/wdrv_winc_bssctx.o
LOAD build/SAMD21_IOT_WG_ICM42688/debug/_ext/1750425231/plib_clock.o
LOAD build/SAMD21_IOT_WG_ICM42688/debug/_ext/1580516298/plib_dmac.o
LOAD build/SAMD21_IOT_WG_ICM42688/debug/_ext/503204096/plib_eic.o
LOAD build/SAMD21_IOT_WG_ICM42688/debug/_ext/1752574717/plib_evsys.o
LOAD build/SAMD21_IOT_WG_ICM42688/debug/_ext/1580823105/plib_nvic.o
LOAD build/SAMD21_IOT_WG_ICM42688/debug/_ext/11470383/plib_nvmctrl.o
LOAD build/SAMD21_IOT_WG_ICM42688/debug/_ext/1580876256/plib_port.o
LOAD build/SAMD21_IOT_WG_ICM42688/debug/_ext/1014017276/plib_sercom0_spi_master.o
LOAD build/SAMD21_IOT_WG_ICM42688/debug/_ext/1014017276/plib_sercom2_spi_master.o
LOAD build/SAMD21_IOT_WG_ICM42688/debug/_ext/177673482/plib_sercom5_usart.o
LOAD build/SAMD21_IOT_WG_ICM42688/debug/_ext/223004715/plib_systick.o
LOAD build/SAMD21_IOT_WG_ICM42688/debug/_ext/399410062/plib_tc3.o
LOAD build/SAMD21_IOT_WG_ICM42688/debug/_ext/399410062/plib_tc4.o
LOAD build/SAMD21_IOT_WG_ICM42688/debug/_ext/1357625803/xc32_monitor.o
LOAD build/SAMD21_IOT_WG_ICM42688/debug/_ext/1584719636/sys_dma.o
LOAD build/SAMD21_IOT_WG_ICM42688/debug/_ext/1318297016/sys_int.o
LOAD build/SAMD21_IOT_WG_ICM42688/debug/_ext/386530258/sys_time.o
LOAD build/SAMD21_IOT_WG_ICM42688/debug/_ext/1832905403/initialization.o
LOAD build/SAMD21_IOT_WG_ICM42688/debug/_ext/1832905403/interrupts.o
LOAD build/SAMD21_IOT_WG_ICM42688/debug/_ext/1832905403/exceptions.o
LOAD build/SAMD21_IOT_WG_ICM42688/debug/_ext/1832905403/startup_xc32.o
LOAD build/SAMD21_IOT_WG_ICM42688/debug/_ext/1832905403/libc_syscalls.o
LOAD build/SAMD21_IOT_WG_ICM42688/debug/_ext/1832905403/tasks.o
LOAD build/SAMD21_IOT_WG_ICM42688/debug/_ext/1341251756/Icm426xxDriver_HL.o
LOAD build/SAMD21_IOT_WG_ICM42688/debug/_ext/1341251756/Icm426xxDriver_HL_apex.o
LOAD build/SAMD21_IOT_WG_ICM42688/debug/_ext/1341251756/Icm426xxSelfTest.o
LOAD build/SAMD21_IOT_WG_ICM42688/debug/_ext/1341251756/Icm426xxTransport.o
LOAD build/SAMD21_IOT_WG_ICM42688/debug/_ext/596309756/array_contains.o
LOAD build/SAMD21_IOT_WG_ICM42688/debug/_ext/596309756/calc_area.o
LOAD build/SAMD21_IOT_WG_ICM42688/debug/_ext/596309756/column_to_row_complex.o
LOAD build/SAMD21_IOT_WG_ICM42688/debug/_ext/596309756/crossing_rate.o
LOAD build/SAMD21_IOT_WG_ICM42688/debug/_ext/596309756/dsp_dtw_distance.o
LOAD build/SAMD21_IOT_WG_ICM42688/debug/_ext/596309756/dsp_l1_distance.o
LOAD build/SAMD21_IOT_WG_ICM42688/debug/_ext/596309756/dsp_lsup_distance.o
LOAD build/SAMD21_IOT_WG_ICM42688/debug/_ext/596309756/fftr.o
LOAD build/SAMD21_IOT_WG_ICM42688/debug/_ext/596309756/fftr_utils.o
LOAD build/SAMD21_IOT_WG_ICM42688/debug/_ext/596309756/fg_amplitude_global_p2p_low_frequency.o
LOAD build/SAMD21_IOT_WG_ICM42688/debug/_ext/596309756/fg_amplitude_peak_to_peak.o
LOAD build/SAMD21_IOT_WG_ICM42688/debug/_ext/596309756/fg_area_absolute_area_low_frequency.o
LOAD build/SAMD21_IOT_WG_ICM42688/debug/_ext/596309756/fg_cross_p2p_difference.o
LOAD build/SAMD21_IOT_WG_ICM42688/debug/_ext/596309756/fg_sampling_downsample.o
LOAD build/SAMD21_IOT_WG_ICM42688/debug/_ext/596309756/fg_stats_abs_mean.o
LOAD build/SAMD21_IOT_WG_ICM42688/debug/_ext/596309756/fg_stats_minimum.o
LOAD build/SAMD21_IOT_WG_ICM42688/debug/_ext/596309756/fixlog.o
LOAD build/SAMD21_IOT_WG_ICM42688/debug/_ext/596309756/imfcc.o
LOAD build/SAMD21_IOT_WG_ICM42688/debug/_ext/596309756/kb.o
LOAD build/SAMD21_IOT_WG_ICM42688/debug/_ext/596309756/kb_output.o
LOAD build/SAMD21_IOT_WG_ICM42688/debug/_ext/596309756/kb_pipeline.o
LOAD build/SAMD21_IOT_WG_ICM42688/debug/_ext/596309756/kb_post_processing.o
LOAD build/SAMD21_IOT_WG_ICM42688/debug/_ext/596309756/max_min_high_low_freq.o
LOAD build/SAMD21_IOT_WG_ICM42688/debug/_ext/596309756/ma_symmetric.o
LOAD build/SAMD21_IOT_WG_ICM42688/debug/_ext/596309756/mean.o
LOAD build/SAMD21_IOT_WG_ICM42688/debug/_ext/596309756/pme.o
LOAD build/SAMD21_IOT_WG_ICM42688/debug/_ext/596309756/pme_trained_neurons.o
LOAD build/SAMD21_IOT_WG_ICM42688/debug/_ext/596309756/ratio_diff_impl.o
LOAD build/SAMD21_IOT_WG_ICM42688/debug/_ext/596309756/rb.o
LOAD build/SAMD21_IOT_WG_ICM42688/debug/_ext/596309756/save_sensor_data.o
LOAD build/SAMD21_IOT_WG_ICM42688/debug/_ext/596309756/sf_downsample_by_averaging.o
LOAD build/SAMD21_IOT_WG_ICM42688/debug/_ext/596309756/sf_downsample_by_decimation.o
LOAD build/SAMD21_IOT_WG_ICM42688/debug/_ext/596309756/sg_windowing.o
LOAD build/SAMD21_IOT_WG_ICM42688/debug/_ext/596309756/sortarray.o
LOAD build/SAMD21_IOT_WG_ICM42688/debug/_ext/596309756/sorted_copy.o
LOAD build/SAMD21_IOT_WG_ICM42688/debug/_ext/596309756/stats_percentile_presorted.o
LOAD build/SAMD21_IOT_WG_ICM42688/debug/_ext/596309756/stat_mean.o
LOAD build/SAMD21_IOT_WG_ICM42688/debug/_ext/596309756/stat_moment.o
LOAD build/SAMD21_IOT_WG_ICM42688/debug/_ext/596309756/std.o
LOAD build/SAMD21_IOT_WG_ICM42688/debug/_ext/596309756/st_absolute_average.o
LOAD build/SAMD21_IOT_WG_ICM42688/debug/_ext/596309756/st_average.o
LOAD build/SAMD21_IOT_WG_ICM42688/debug/_ext/596309756/st_high_pass_filter.o
LOAD build/SAMD21_IOT_WG_ICM42688/debug/_ext/596309756/st_moving_average.o
LOAD build/SAMD21_IOT_WG_ICM42688/debug/_ext/596309756/sum.o
LOAD build/SAMD21_IOT_WG_ICM42688/debug/_ext/596309756/tr_min_max_scale.o
LOAD build/SAMD21_IOT_WG_ICM42688/debug/_ext/596309756/utils_array.o
LOAD build/SAMD21_IOT_WG_ICM42688/debug/_ext/596309756/utils_array_max_uint8.o
LOAD build/SAMD21_IOT_WG_ICM42688/debug/_ext/596309756/utils_bitwise_abs_val.o
LOAD build/SAMD21_IOT_WG_ICM42688/debug/_ext/596309756/utils_buffer_absmean.o
LOAD build/SAMD21_IOT_WG_ICM42688/debug/_ext/596309756/utils_buffer_abssum.o
LOAD build/SAMD21_IOT_WG_ICM42688/debug/_ext/596309756/utils_buffer_abs_max.o
LOAD build/SAMD21_IOT_WG_ICM42688/debug/_ext/596309756/utils_buffer_argmax.o
LOAD build/SAMD21_IOT_WG_ICM42688/debug/_ext/596309756/utils_buffer_autoscale.o
LOAD build/SAMD21_IOT_WG_ICM42688/debug/_ext/596309756/utils_buffer_cumsum.o
LOAD build/SAMD21_IOT_WG_ICM42688/debug/_ext/596309756/utils_buffer_max.o
LOAD build/SAMD21_IOT_WG_ICM42688/debug/_ext/596309756/utils_buffer_mean.o
LOAD build/SAMD21_IOT_WG_ICM42688/debug/_ext/596309756/utils_buffer_median.o
LOAD build/SAMD21_IOT_WG_ICM42688/debug/_ext/596309756/utils_buffer_min.o
LOAD build/SAMD21_IOT_WG_ICM42688/debug/_ext/596309756/utils_buffer_min_max.o
LOAD build/SAMD21_IOT_WG_ICM42688/debug/_ext/596309756/utils_buffer_pass_threshold.o
LOAD build/SAMD21_IOT_WG_ICM42688/debug/_ext/596309756/utils_buffer_std.o
LOAD build/SAMD21_IOT_WG_ICM42688/debug/_ext/596309756/utils_buffer_variance.o
LOAD build/SAMD21_IOT_WG_ICM42688/debug/_ext/596309756/utils_model_crossing_rate.o
LOAD build/SAMD21_IOT_WG_ICM42688/debug/_ext/596309756/utils_model_cross_column.o
LOAD build/SAMD21_IOT_WG_ICM42688/debug/_ext/596309756/utils_model_cross_difference.o
LOAD build/SAMD21_IOT_WG_ICM42688/debug/_ext/596309756/utils_model_mean_crossing_rate.o
LOAD build/SAMD21_IOT_WG_ICM42688/debug/_ext/596309756/utils_model_pct_time_over_sigma.o
LOAD build/SAMD21_IOT_WG_ICM42688/debug/_ext/596309756/utils_model_pct_time_over_threshold.o
LOAD build/SAMD21_IOT_WG_ICM42688/debug/_ext/596309756/utils_model_stats_max_min.o
LOAD build/SAMD21_IOT_WG_ICM42688/debug/_ext/596309756/utils_model_total_area.o
LOAD build/SAMD21_IOT_WG_ICM42688/debug/_ext/596309756/utils_model_total_energy.o
LOAD build/SAMD21_IOT_WG_ICM42688/debug/_ext/596309756/utils_tr_sensor.o
LOAD build/SAMD21_IOT_WG_ICM42688/debug/_ext/299863938/ssi_comms.o
LOAD build/SAMD21_IOT_WG_ICM42688/debug/_ext/1360937237/main.o
LOAD build/SAMD21_IOT_WG_ICM42688/debug/_ext/1360937237/ringbuffer.o
LOAD build/SAMD21_IOT_WG_ICM42688/debug/_ext/1360937237/app.o
LOAD build/SAMD21_IOT_WG_ICM42688/debug/_ext/1360937237/ws2812.o
LOAD build/SAMD21_IOT_WG_ICM42688/debug/_ext/1360937237/winc1500_udp_client.o
                0x0000000000000001                __MPLAB_BUILD = 0x1
                0x0000000000040000                __rom_end = (ORIGIN (rom) + LENGTH (rom))
                0x0000000020008000                __ram_end = (ORIGIN (ram) + LENGTH (ram))

.config_00804000
                0x0000000000804000        0x4
 *(.config_00804000)
 .config_00804000
                0x0000000000804000        0x4 build/SAMD21_IOT_WG_ICM42688/debug/_ext/1832905403/initialization.o
                0x0000000000804000                __config_00804000

.config_00804004
                0x0000000000804004        0x4
 *(.config_00804004)
 .config_00804004
                0x0000000000804004        0x4 build/SAMD21_IOT_WG_ICM42688/debug/_ext/1832905403/initialization.o
                0x0000000000804004                __config_00804004

.vectors        0x0000000000000000       0xb0
                0x0000000000000000                . = ALIGN (0x4)
                0x0000000000000000                _sfixed = .
 *(.vectors .vectors.* .vectors_default .vectors_default.*)
 .vectors       0x0000000000000000       0xb0 build/SAMD21_IOT_WG_ICM42688/debug/_ext/1832905403/interrupts.o
                0x0000000000000000                exception_table
 *(.isr_vector)
 *(.reset*)
 *(.after_vectors)

.text           0x00000000000000b0       0x20
                0x00000000000000b0                . = ALIGN (0x4)
 *(.glue_7t)
 .glue_7t       0x00000000000000b0        0x0 linker stubs
 *(.glue_7)
 .glue_7        0x00000000000000b0        0x0 linker stubs
 *(.gnu.linkonce.r.*)
 *(.ARM.extab* .gnu.linkonce.armextab.*)
                0x00000000000000b0                . = ALIGN (0x4)
 *(.init)
 .init          0x00000000000000b0        0x4 c:/program files/microchip/xc32/v4.60/bin/bin/../../lib/gcc/pic32c/8.3.1/thumb/v6-m/nofp/crti.o
                0x00000000000000b0                _init
 .init          0x00000000000000b4        0x8 c:/program files/microchip/xc32/v4.60/bin/bin/../../lib/gcc/pic32c/8.3.1/thumb/v6-m/nofp/crtn.o
                0x00000000000000bc                . = ALIGN (0x4)
                0x00000000000000bc                __preinit_array_start = .
 *(.preinit_array)
                0x00000000000000bc                __preinit_array_end = .
                0x00000000000000bc                . = ALIGN (0x4)
                0x00000000000000bc                __init_array_start = .
 *(SORT_BY_NAME(.init_array.*))
 *(.init_array)
 .init_array    0x00000000000000bc        0x4 c:/program files/microchip/xc32/v4.60/bin/bin/../../lib/gcc/pic32c/8.3.1/thumb/v6-m/nofp/crtbegin.o
                0x00000000000000c0                __init_array_end = .
                0x00000000000000c0                . = ALIGN (0x4)
 *crtbegin.o(.ctors)
 *(EXCLUDE_FILE(*crtend.o) .ctors)
 *(SORT_BY_NAME(.ctors.*))
 *crtend.o(.ctors)
                0x00000000000000c0                . = ALIGN (0x4)
 *(.fini)
 .fini          0x00000000000000c0        0x4 c:/program files/microchip/xc32/v4.60/bin/bin/../../lib/gcc/pic32c/8.3.1/thumb/v6-m/nofp/crti.o
                0x00000000000000c0                _fini
 .fini          0x00000000000000c4        0x8 c:/program files/microchip/xc32/v4.60/bin/bin/../../lib/gcc/pic32c/8.3.1/thumb/v6-m/nofp/crtn.o
                0x00000000000000cc                . = ALIGN (0x4)
                0x00000000000000cc                __fini_array_start = .
 *(.fini_array)
 .fini_array    0x00000000000000cc        0x4 c:/program files/microchip/xc32/v4.60/bin/bin/../../lib/gcc/pic32c/8.3.1/thumb/v6-m/nofp/crtbegin.o
 *(SORT_BY_NAME(.fini_array.*))
                0x00000000000000d0                __fini_array_end = .
 *crtbegin.o(.dtors)
 *(EXCLUDE_FILE(*crtend.o) .dtors)
 *(SORT_BY_NAME(.dtors.*))
 *crtend.o(.dtors)
                0x00000000000000d0                . = ALIGN (0x4)
                0x00000000000000d0                _efixed = .
                [!provide]                        PROVIDE (__exidx_start = .)

.ARM.exidx      0x00000000000000d0       0x10
 *(.ARM.exidx* .gnu.linkonce.armexidx.*)
 .ARM.exidx     0x00000000000000d8        0x8 c:/program files/microchip/xc32/v4.60/bin/bin/../../lib/gcc/pic32c/8.3.1/thumb/v6-m/nofp\libgcc.a(_udivmoddi4.o)
 .ARM.exidx     0x00000000000000d0        0x8 c:/program files/microchip/xc32/v4.60/bin/bin/../../lib/gcc/pic32c/8.3.1/thumb/v6-m/nofp\libgcc.a(_divdi3.o)
                [!provide]                        PROVIDE (__exidx_end = .)
                0x00000000000000e0                . = ALIGN (0x4)
                0x00000000000000e0                _etext = .

.bss            0x0000000020000000        0x0
                0x0000000020000000                . = ALIGN (0x4)
                0x0000000020000000                __bss_start__ = .
                0x0000000020000000                _sbss = .
                0x0000000020000000                _szero = .
 *(COMMON)
                0x0000000020000000                . = ALIGN (0x4)
                0x0000000020000000                __bss_end__ = .
                0x0000000020000000                _ebss = .
                0x0000000020000000                _ezero = .
                0x0000000020000000                . = ALIGN (0x4)
                0x0000000020000000                _end = .
                0x0000000020007fff                _ram_end_ = ((ORIGIN (ram) + LENGTH (ram)) - 0x1)
                0x0000000000000001                __ICD2RAM = 0x1
                0x0000000000000001                __MPLAB_DEBUG = 0x1
                0x0000000000000001                __DEBUG = 0x1
                0x0000000000000200                _min_heap_size = 0x200
START GROUP
LOAD c:/program files/microchip/xc32/v4.60/bin/bin/../../lib/gcc/pic32c/8.3.1/../../../../pic32c/lib/thumb/v6-m/nofp\libpic32c.a
LOAD c:/program files/microchip/xc32/v4.60/bin/bin/../../lib/gcc/pic32c/8.3.1/../../../../pic32c/lib/thumb/v6-m/nofp\libc-size-musl.a
LOAD c:/program files/microchip/xc32/v4.60/bin/bin/../../lib/gcc/pic32c/8.3.1/../../../../pic32c/lib/thumb/v6-m/nofp\liblmalloc-musl.a
LOAD c:/program files/microchip/xc32/v4.60/bin/bin/../../lib/gcc/pic32c/8.3.1/../../../../pic32c/lib/thumb/v6-m/nofp\libm-fast-emfloat.a
LOAD c:/program files/microchip/xc32/v4.60/bin/bin/../../lib/gcc/pic32c/8.3.1/../../../../pic32c/lib/thumb/v6-m/nofp\libm-musl.a
LOAD c:/program files/microchip/xc32/v4.60/bin/bin/../../lib/gcc/pic32c/8.3.1/../../../../pic32c/lib/thumb/v6-m/nofp\libg-musl.a
LOAD c:/program files/microchip/xc32/v4.60/bin/bin/../../lib/gcc/pic32c/8.3.1/../../../../pic32c/lib/thumb/v6-m/nofp\libc-musl.a
LOAD c:/program files/microchip/xc32/v4.60/bin/bin/../../lib/gcc/pic32c/8.3.1/../../../../pic32c/lib/thumb/v6-m/nofp\libm-fast-emfloat.a
LOAD c:/program files/microchip/xc32/v4.60/bin/bin/../../lib/gcc/pic32c/8.3.1/../../../../pic32c/lib/thumb/v6-m/nofp\libm-musl.a
LOAD c:/program files/microchip/xc32/v4.60/bin/bin/../../lib/gcc/pic32c/8.3.1/thumb/v6-m/nofp\libgcc.a
END GROUP
LOAD c:/program files/microchip/xc32/v4.60/bin/bin/../../lib/gcc/pic32c/8.3.1/thumb/v6-m/nofp/crtend.o
LOAD c:/program files/microchip/xc32/v4.60/bin/bin/../../lib/gcc/pic32c/8.3.1/thumb/v6-m/nofp/crtn.o
OUTPUT(dist/SAMD21_IOT_WG_ICM42688/debug/samd21_iot_wand.X.debug.elf elf32-littlearm)
LOAD data_init
LOAD stack

.ARM.attributes
                0x0000000000000000       0x2a
 .ARM.attributes
                0x0000000000000000       0x1e c:/program files/microchip/xc32/v4.60/bin/bin/../../lib/gcc/pic32c/8.3.1/thumb/v6-m/nofp/crti.o
 .ARM.attributes
                0x000000000000001e       0x2c c:/program files/microchip/xc32/v4.60/bin/bin/../../lib/gcc/pic32c/8.3.1/thumb/v6-m/nofp/crtbegin.o
 .ARM.attributes
                0x000000000000004a       0x2c build/SAMD21_IOT_WG_ICM42688/debug/_ext/2048461350/icm42688_sensor.o
 .ARM.attributes
                0x0000000000000076       0x2c build/SAMD21_IOT_WG_ICM42688/debug/_ext/1660664302/drv_spi.o
 .ARM.attributes
                0x00000000000000a2       0x2c build/SAMD21_IOT_WG_ICM42688/debug/_ext/1164161090/wdrv_winc_gpio.o
 .ARM.attributes
                0x00000000000000ce       0x2c build/SAMD21_IOT_WG_ICM42688/debug/_ext/1164161090/wdrv_winc_eint.o
 .ARM.attributes
                0x00000000000000fa       0x2c build/SAMD21_IOT_WG_ICM42688/debug/_ext/101005277/wdrv_winc_spi.o
 .ARM.attributes
                0x0000000000000126       0x2c build/SAMD21_IOT_WG_ICM42688/debug/_ext/90265895/nm_common.o
 .ARM.attributes
                0x0000000000000152       0x2c build/SAMD21_IOT_WG_ICM42688/debug/_ext/121554788/m2m_ssl.o
 .ARM.attributes
                0x000000000000017e       0x2c build/SAMD21_IOT_WG_ICM42688/debug/_ext/121554788/m2m_hif.o
 .ARM.attributes
                0x00000000000001aa       0x2c build/SAMD21_IOT_WG_ICM42688/debug/_ext/121554788/m2m_wifi.o
 .ARM.attributes
                0x00000000000001d6       0x2c build/SAMD21_IOT_WG_ICM42688/debug/_ext/121554788/nmspi.o
 .ARM.attributes
                0x0000000000000202       0x2c build/SAMD21_IOT_WG_ICM42688/debug/_ext/121554788/nmdrv.o
 .ARM.attributes
                0x000000000000022e       0x2c build/SAMD21_IOT_WG_ICM42688/debug/_ext/121554788/m2m_ota.o
 .ARM.attributes
                0x000000000000025a       0x2c build/SAMD21_IOT_WG_ICM42688/debug/_ext/121554788/nmasic.o
 .ARM.attributes
                0x0000000000000286       0x2c build/SAMD21_IOT_WG_ICM42688/debug/_ext/121554788/nmbus.o
 .ARM.attributes
                0x00000000000002b2       0x2c build/SAMD21_IOT_WG_ICM42688/debug/_ext/548032175/socket.o
 .ARM.attributes
                0x00000000000002de       0x2c build/SAMD21_IOT_WG_ICM42688/debug/_ext/548032175/inet_addr.o
 .ARM.attributes
                0x000000000000030a       0x2c build/SAMD21_IOT_WG_ICM42688/debug/_ext/548032175/inet_ntop.o
 .ARM.attributes
                0x0000000000000336       0x2c build/SAMD21_IOT_WG_ICM42688/debug/_ext/609036575/flexible_flash.o
 .ARM.attributes
                0x0000000000000362       0x2c build/SAMD21_IOT_WG_ICM42688/debug/_ext/609036575/spi_flash.o
 .ARM.attributes
                0x000000000000038e       0x2c build/SAMD21_IOT_WG_ICM42688/debug/_ext/1784303044/wdrv_winc_osal.o
 .ARM.attributes
                0x00000000000003ba       0x2c build/SAMD21_IOT_WG_ICM42688/debug/_ext/907429946/wdrv_winc_sta.o
 .ARM.attributes
                0x00000000000003e6       0x2c build/SAMD21_IOT_WG_ICM42688/debug/_ext/907429946/wdrv_winc_socket.o
 .ARM.attributes
                0x0000000000000412       0x2c build/SAMD21_IOT_WG_ICM42688/debug/_ext/907429946/wdrv_winc_systime.o
 .ARM.attributes
                0x000000000000043e       0x2c build/SAMD21_IOT_WG_ICM42688/debug/_ext/907429946/wdrv_winc_authctx.o
 .ARM.attributes
                0x000000000000046a       0x2c build/SAMD21_IOT_WG_ICM42688/debug/_ext/907429946/wdrv_winc_host_file.o
 .ARM.attributes
                0x0000000000000496       0x2c build/SAMD21_IOT_WG_ICM42688/debug/_ext/907429946/wdrv_winc.o
 .ARM.attributes
                0x00000000000004c2       0x2c build/SAMD21_IOT_WG_ICM42688/debug/_ext/907429946/wdrv_winc_bssctx.o
 .ARM.attributes
                0x00000000000004ee       0x2c build/SAMD21_IOT_WG_ICM42688/debug/_ext/1750425231/plib_clock.o
 .ARM.attributes
                0x000000000000051a       0x2c build/SAMD21_IOT_WG_ICM42688/debug/_ext/1580516298/plib_dmac.o
 .ARM.attributes
                0x0000000000000546       0x2c build/SAMD21_IOT_WG_ICM42688/debug/_ext/503204096/plib_eic.o
 .ARM.attributes
                0x0000000000000572       0x2c build/SAMD21_IOT_WG_ICM42688/debug/_ext/1580823105/plib_nvic.o
 .ARM.attributes
                0x000000000000059e       0x2c build/SAMD21_IOT_WG_ICM42688/debug/_ext/11470383/plib_nvmctrl.o
 .ARM.attributes
                0x00000000000005ca       0x2c build/SAMD21_IOT_WG_ICM42688/debug/_ext/1580876256/plib_port.o
 .ARM.attributes
                0x00000000000005f6       0x2c build/SAMD21_IOT_WG_ICM42688/debug/_ext/1014017276/plib_sercom0_spi_master.o
 .ARM.attributes
                0x0000000000000622       0x2c build/SAMD21_IOT_WG_ICM42688/debug/_ext/1014017276/plib_sercom2_spi_master.o
 .ARM.attributes
                0x000000000000064e       0x2c build/SAMD21_IOT_WG_ICM42688/debug/_ext/177673482/plib_sercom5_usart.o
 .ARM.attributes
                0x000000000000067a       0x2c build/SAMD21_IOT_WG_ICM42688/debug/_ext/223004715/plib_systick.o
 .ARM.attributes
                0x00000000000006a6       0x2c build/SAMD21_IOT_WG_ICM42688/debug/_ext/399410062/plib_tc3.o
 .ARM.attributes
                0x00000000000006d2       0x2c build/SAMD21_IOT_WG_ICM42688/debug/_ext/399410062/plib_tc4.o
 .ARM.attributes
                0x00000000000006fe       0x2c build/SAMD21_IOT_WG_ICM42688/debug/_ext/1357625803/xc32_monitor.o
 .ARM.attributes
                0x000000000000072a       0x2c build/SAMD21_IOT_WG_ICM42688/debug/_ext/1584719636/sys_dma.o
 .ARM.attributes
                0x0000000000000756       0x2c build/SAMD21_IOT_WG_ICM42688/debug/_ext/1318297016/sys_int.o
 .ARM.attributes
                0x0000000000000782       0x2c build/SAMD21_IOT_WG_ICM42688/debug/_ext/386530258/sys_time.o
 .ARM.attributes
                0x00000000000007ae       0x2c build/SAMD21_IOT_WG_ICM42688/debug/_ext/1832905403/initialization.o
 .ARM.attributes
                0x00000000000007da       0x2c build/SAMD21_IOT_WG_ICM42688/debug/_ext/1832905403/interrupts.o
 .ARM.attributes
                0x0000000000000806       0x2c build/SAMD21_IOT_WG_ICM42688/debug/_ext/1832905403/exceptions.o
 .ARM.attributes
                0x0000000000000832       0x2c build/SAMD21_IOT_WG_ICM42688/debug/_ext/1832905403/startup_xc32.o
 .ARM.attributes
                0x000000000000085e       0x2c build/SAMD21_IOT_WG_ICM42688/debug/_ext/1832905403/tasks.o
 .ARM.attributes
                0x000000000000088a       0x2c build/SAMD21_IOT_WG_ICM42688/debug/_ext/1341251756/Icm426xxDriver_HL.o
 .ARM.attributes
                0x00000000000008b6       0x2c build/SAMD21_IOT_WG_ICM42688/debug/_ext/1341251756/Icm426xxTransport.o
 .ARM.attributes
                0x00000000000008e2       0x2c build/SAMD21_IOT_WG_ICM42688/debug/_ext/1360937237/main.o
 .ARM.attributes
                0x000000000000090e       0x2c build/SAMD21_IOT_WG_ICM42688/debug/_ext/1360937237/ringbuffer.o
 .ARM.attributes
                0x000000000000093a       0x2c build/SAMD21_IOT_WG_ICM42688/debug/_ext/1360937237/app.o
 .ARM.attributes
                0x0000000000000966       0x2c build/SAMD21_IOT_WG_ICM42688/debug/_ext/1360937237/ws2812.o
 .ARM.attributes
                0x0000000000000992       0x2c build/SAMD21_IOT_WG_ICM42688/debug/_ext/1360937237/winc1500_udp_client.o
 .ARM.attributes
                0x00000000000009be       0x2c c:/program files/microchip/xc32/v4.60/bin/bin/../../lib/gcc/pic32c/8.3.1/../../../../pic32c/lib/thumb/v6-m/nofp\libpic32c.a(data_init.o)
 .ARM.attributes
                0x00000000000009ea       0x2e c:/program files/microchip/xc32/v4.60/bin/bin/../../lib/gcc/pic32c/8.3.1/../../../../pic32c/lib/thumb/v6-m/nofp\libc-size-musl.a(memcpy.o)
 .ARM.attributes
                0x0000000000000a18       0x2e c:/program files/microchip/xc32/v4.60/bin/bin/../../lib/gcc/pic32c/8.3.1/../../../../pic32c/lib/thumb/v6-m/nofp\libc-size-musl.a(memset.o)
 .ARM.attributes
                0x0000000000000a46       0x2e c:/program files/microchip/xc32/v4.60/bin/bin/../../lib/gcc/pic32c/8.3.1/../../../../pic32c/lib/thumb/v6-m/nofp\libc-size-musl.a(strlen.o)
 .ARM.attributes
                0x0000000000000a74       0x2e c:/program files/microchip/xc32/v4.60/bin/bin/../../lib/gcc/pic32c/8.3.1/../../../../pic32c/lib/thumb/v6-m/nofp\libc-size-musl.a(strchr.o)
 .ARM.attributes
                0x0000000000000aa2       0x2e c:/program files/microchip/xc32/v4.60/bin/bin/../../lib/gcc/pic32c/8.3.1/../../../../pic32c/lib/thumb/v6-m/nofp\libc-size-musl.a(strchrnul.o)
 .ARM.attributes
                0x0000000000000ad0       0x2e c:/program files/microchip/xc32/v4.60/bin/bin/../../lib/gcc/pic32c/8.3.1/../../../../pic32c/lib/thumb/v6-m/nofp\libc-size-musl.a(strnlen.o)
 .ARM.attributes
                0x0000000000000afe       0x2e c:/program files/microchip/xc32/v4.60/bin/bin/../../lib/gcc/pic32c/8.3.1/../../../../pic32c/lib/thumb/v6-m/nofp\libc-size-musl.a(memchr.o)
 .ARM.attributes
                0x0000000000000b2c       0x2e c:/program files/microchip/xc32/v4.60/bin/bin/../../lib/gcc/pic32c/8.3.1/../../../../pic32c/lib/thumb/v6-m/nofp\liblmalloc-musl.a(lite_calloc.o)
 .ARM.attributes
                0x0000000000000b5a       0x2e c:/program files/microchip/xc32/v4.60/bin/bin/../../lib/gcc/pic32c/8.3.1/../../../../pic32c/lib/thumb/v6-m/nofp\liblmalloc-musl.a(lite_free.o)
 .ARM.attributes
                0x0000000000000b88       0x2e c:/program files/microchip/xc32/v4.60/bin/bin/../../lib/gcc/pic32c/8.3.1/../../../../pic32c/lib/thumb/v6-m/nofp\liblmalloc-musl.a(lite_malloc.o)
 .ARM.attributes
                0x0000000000000bb6       0x1c c:/program files/microchip/xc32/v4.60/bin/bin/../../lib/gcc/pic32c/8.3.1/../../../../pic32c/lib/thumb/v6-m/nofp\libm-fast-emfloat.a(__aeabi_dadd.o)
 .ARM.attributes
                0x0000000000000bd2       0x1c c:/program files/microchip/xc32/v4.60/bin/bin/../../lib/gcc/pic32c/8.3.1/../../../../pic32c/lib/thumb/v6-m/nofp\libm-fast-emfloat.a(__aeabi_dmul_aux.o)
 .ARM.attributes
                0x0000000000000bee       0x1c c:/program files/microchip/xc32/v4.60/bin/bin/../../lib/gcc/pic32c/8.3.1/../../../../pic32c/lib/thumb/v6-m/nofp\libm-fast-emfloat.a(__aeabi_ddiv.o)
 .ARM.attributes
                0x0000000000000c0a       0x1c c:/program files/microchip/xc32/v4.60/bin/bin/../../lib/gcc/pic32c/8.3.1/../../../../pic32c/lib/thumb/v6-m/nofp\libm-fast-emfloat.a(__aeabi_dcmpeq.o)
 .ARM.attributes
                0x0000000000000c26       0x1c c:/program files/microchip/xc32/v4.60/bin/bin/../../lib/gcc/pic32c/8.3.1/../../../../pic32c/lib/thumb/v6-m/nofp\libm-fast-emfloat.a(__aeabi_dcmpgt.o)
 .ARM.attributes
                0x0000000000000c42       0x1c c:/program files/microchip/xc32/v4.60/bin/bin/../../lib/gcc/pic32c/8.3.1/../../../../pic32c/lib/thumb/v6-m/nofp\libm-fast-emfloat.a(__aeabi_dcmplt.o)
 .ARM.attributes
                0x0000000000000c5e       0x1c c:/program files/microchip/xc32/v4.60/bin/bin/../../lib/gcc/pic32c/8.3.1/../../../../pic32c/lib/thumb/v6-m/nofp\libm-fast-emfloat.a(__aeabi_d2iz.o)
 .ARM.attributes
                0x0000000000000c7a       0x1c c:/program files/microchip/xc32/v4.60/bin/bin/../../lib/gcc/pic32c/8.3.1/../../../../pic32c/lib/thumb/v6-m/nofp\libm-fast-emfloat.a(__aeabi_d2uiz.o)
 .ARM.attributes
                0x0000000000000c96       0x2e c:/program files/microchip/xc32/v4.60/bin/bin/../../lib/gcc/pic32c/8.3.1/../../../../pic32c/lib/thumb/v6-m/nofp\libg-musl.a(__libc_start_main.o)
 .ARM.attributes
                0x0000000000000cc4       0x2e c:/program files/microchip/xc32/v4.60/bin/bin/../../lib/gcc/pic32c/8.3.1/../../../../pic32c/lib/thumb/v6-m/nofp\libg-musl.a(__errno_location.o)
 .ARM.attributes
                0x0000000000000cf2       0x2e c:/program files/microchip/xc32/v4.60/bin/bin/../../lib/gcc/pic32c/8.3.1/../../../../pic32c/lib/thumb/v6-m/nofp\libg-musl.a(libc.o)
 .ARM.attributes
                0x0000000000000d20       0x2e c:/program files/microchip/xc32/v4.60/bin/bin/../../lib/gcc/pic32c/8.3.1/../../../../pic32c/lib/thumb/v6-m/nofp\libg-musl.a(expand_heap.o)
 .ARM.attributes
                0x0000000000000d4e       0x2e c:/program files/microchip/xc32/v4.60/bin/bin/../../lib/gcc/pic32c/8.3.1/../../../../pic32c/lib/thumb/v6-m/nofp\libg-musl.a(__sio_printf_cdeEfFgGnsu.o)
 .ARM.attributes
                0x0000000000000d7c       0x2e c:/program files/microchip/xc32/v4.60/bin/bin/../../lib/gcc/pic32c/8.3.1/../../../../pic32c/lib/thumb/v6-m/nofp\libg-musl.a(__fmt_d.o)
 .ARM.attributes
                0x0000000000000daa       0x2e c:/program files/microchip/xc32/v4.60/bin/bin/../../lib/gcc/pic32c/8.3.1/../../../../pic32c/lib/thumb/v6-m/nofp\libg-musl.a(__fmt_fp.o)
 .ARM.attributes
                0x0000000000000dd8       0x2e c:/program files/microchip/xc32/v4.60/bin/bin/../../lib/gcc/pic32c/8.3.1/../../../../pic32c/lib/thumb/v6-m/nofp\libg-musl.a(__fmt_s.o)
 .ARM.attributes
                0x0000000000000e06       0x2e c:/program files/microchip/xc32/v4.60/bin/bin/../../lib/gcc/pic32c/8.3.1/../../../../pic32c/lib/thumb/v6-m/nofp\libg-musl.a(__fmt_u.o)
 .ARM.attributes
                0x0000000000000e34       0x2e c:/program files/microchip/xc32/v4.60/bin/bin/../../lib/gcc/pic32c/8.3.1/../../../../pic32c/lib/thumb/v6-m/nofp\libg-musl.a(__pop_float.o)
 .ARM.attributes
                0x0000000000000e62       0x2e c:/program files/microchip/xc32/v4.60/bin/bin/../../lib/gcc/pic32c/8.3.1/../../../../pic32c/lib/thumb/v6-m/nofp\libg-musl.a(__pop_int.o)
 .ARM.attributes
                0x0000000000000e90       0x2e c:/program files/microchip/xc32/v4.60/bin/bin/../../lib/gcc/pic32c/8.3.1/../../../../pic32c/lib/thumb/v6-m/nofp\libg-musl.a(__pop_ptr.o)
 .ARM.attributes
                0x0000000000000ebe       0x2e c:/program files/microchip/xc32/v4.60/bin/bin/../../lib/gcc/pic32c/8.3.1/../../../../pic32c/lib/thumb/v6-m/nofp\libg-musl.a(__printf_core.o)
 .ARM.attributes
                0x0000000000000eec       0x2e c:/program files/microchip/xc32/v4.60/bin/bin/../../lib/gcc/pic32c/8.3.1/../../../../pic32c/lib/thumb/v6-m/nofp\libg-musl.a(stdin.o)
 .ARM.attributes
                0x0000000000000f1a       0x2e c:/program files/microchip/xc32/v4.60/bin/bin/../../lib/gcc/pic32c/8.3.1/../../../../pic32c/lib/thumb/v6-m/nofp\libg-musl.a(stdout.o)
 .ARM.attributes
                0x0000000000000f48       0x2e c:/program files/microchip/xc32/v4.60/bin/bin/../../lib/gcc/pic32c/8.3.1/../../../../pic32c/lib/thumb/v6-m/nofp\libg-musl.a(puts.o)
 .ARM.attributes
                0x0000000000000f76       0x2e c:/program files/microchip/xc32/v4.60/bin/bin/../../lib/gcc/pic32c/8.3.1/../../../../pic32c/lib/thumb/v6-m/nofp\libg-musl.a(setbuf.o)
 .ARM.attributes
                0x0000000000000fa4       0x2e c:/program files/microchip/xc32/v4.60/bin/bin/../../lib/gcc/pic32c/8.3.1/../../../../pic32c/lib/thumb/v6-m/nofp\libg-musl.a(atoi.o)
 .ARM.attributes
                0x0000000000000fd2       0x2e c:/program files/microchip/xc32/v4.60/bin/bin/../../lib/gcc/pic32c/8.3.1/../../../../pic32c/lib/thumb/v6-m/nofp\libg-musl.a(gmtime.o)
 .ARM.attributes
                0x0000000000001000       0x2e c:/program files/microchip/xc32/v4.60/bin/bin/../../lib/gcc/pic32c/8.3.1/../../../../pic32c/lib/thumb/v6-m/nofp\libg-musl.a(gmtime_r.o)
 .ARM.attributes
                0x000000000000102e       0x2e c:/program files/microchip/xc32/v4.60/bin/bin/../../lib/gcc/pic32c/8.3.1/../../../../pic32c/lib/thumb/v6-m/nofp\libg-musl.a(mktime.o)
 .ARM.attributes
                0x000000000000105c       0x2e c:/program files/microchip/xc32/v4.60/bin/bin/../../lib/gcc/pic32c/8.3.1/../../../../pic32c/lib/thumb/v6-m/nofp\libg-musl.a(tolower.o)
 .ARM.attributes
                0x000000000000108a       0x2e c:/program files/microchip/xc32/v4.60/bin/bin/../../lib/gcc/pic32c/8.3.1/../../../../pic32c/lib/thumb/v6-m/nofp\libg-musl.a(__environ.o)
 .ARM.attributes
                0x00000000000010b8       0x2e c:/program files/microchip/xc32/v4.60/bin/bin/../../lib/gcc/pic32c/8.3.1/../../../../pic32c/lib/thumb/v6-m/nofp\libg-musl.a(__int_vfprintf.o)
 .ARM.attributes
                0x00000000000010e6       0x2e c:/program files/microchip/xc32/v4.60/bin/bin/../../lib/gcc/pic32c/8.3.1/../../../../pic32c/lib/thumb/v6-m/nofp\libg-musl.a(fputs.o)
 .ARM.attributes
                0x0000000000001114       0x2e c:/program files/microchip/xc32/v4.60/bin/bin/../../lib/gcc/pic32c/8.3.1/../../../../pic32c/lib/thumb/v6-m/nofp\libg-musl.a(__cvt_u.o)
 .ARM.attributes
                0x0000000000001142       0x2e c:/program files/microchip/xc32/v4.60/bin/bin/../../lib/gcc/pic32c/8.3.1/../../../../pic32c/lib/thumb/v6-m/nofp\libg-musl.a(__stdio_read.o)
 .ARM.attributes
                0x0000000000001170       0x2e c:/program files/microchip/xc32/v4.60/bin/bin/../../lib/gcc/pic32c/8.3.1/../../../../pic32c/lib/thumb/v6-m/nofp\libg-musl.a(__towrite_rw.o)
 .ARM.attributes
                0x000000000000119e       0x2e c:/program files/microchip/xc32/v4.60/bin/bin/../../lib/gcc/pic32c/8.3.1/../../../../pic32c/lib/thumb/v6-m/nofp\libg-musl.a(fwrite.o)
 .ARM.attributes
                0x00000000000011cc       0x2e c:/program files/microchip/xc32/v4.60/bin/bin/../../lib/gcc/pic32c/8.3.1/../../../../pic32c/lib/thumb/v6-m/nofp\libg-musl.a(putc.o)
 .ARM.attributes
                0x00000000000011fa       0x2e c:/program files/microchip/xc32/v4.60/bin/bin/../../lib/gcc/pic32c/8.3.1/../../../../pic32c/lib/thumb/v6-m/nofp\libg-musl.a(setvbuf.o)
 .ARM.attributes
                0x0000000000001228       0x2e c:/program files/microchip/xc32/v4.60/bin/bin/../../lib/gcc/pic32c/8.3.1/../../../../pic32c/lib/thumb/v6-m/nofp\libg-musl.a(__tm_to_secs.o)
 .ARM.attributes
                0x0000000000001256       0x2e c:/program files/microchip/xc32/v4.60/bin/bin/../../lib/gcc/pic32c/8.3.1/../../../../pic32c/lib/thumb/v6-m/nofp\libg-musl.a(__year_to_secs.o)
 .ARM.attributes
                0x0000000000001284       0x2e c:/program files/microchip/xc32/v4.60/bin/bin/../../lib/gcc/pic32c/8.3.1/../../../../pic32c/lib/thumb/v6-m/nofp\libg-musl.a(__secs_to_tm.o)
 .ARM.attributes
                0x00000000000012b2       0x2e c:/program files/microchip/xc32/v4.60/bin/bin/../../lib/gcc/pic32c/8.3.1/../../../../pic32c/lib/thumb/v6-m/nofp\libg-musl.a(readv.o)
 .ARM.attributes
                0x00000000000012e0       0x2e c:/program files/microchip/xc32/v4.60/bin/bin/../../lib/gcc/pic32c/8.3.1/../../../../pic32c/lib/thumb/v6-m/nofp\libg-musl.a(__init_stdio.o)
 .ARM.attributes
                0x000000000000130e       0x2e c:/program files/microchip/xc32/v4.60/bin/bin/../../lib/gcc/pic32c/8.3.1/../../../../pic32c/lib/thumb/v6-m/nofp\libg-musl.a(__out.o)
 .ARM.attributes
                0x000000000000133c       0x2e c:/program files/microchip/xc32/v4.60/bin/bin/../../lib/gcc/pic32c/8.3.1/../../../../pic32c/lib/thumb/v6-m/nofp\libg-musl.a(__putc.o)
 .ARM.attributes
                0x000000000000136a       0x2e c:/program files/microchip/xc32/v4.60/bin/bin/../../lib/gcc/pic32c/8.3.1/../../../../pic32c/lib/thumb/v6-m/nofp\libg-musl.a(__stderr.o)
 .ARM.attributes
                0x0000000000001398       0x2e c:/program files/microchip/xc32/v4.60/bin/bin/../../lib/gcc/pic32c/8.3.1/../../../../pic32c/lib/thumb/v6-m/nofp\libg-musl.a(__stdio_close.o)
 .ARM.attributes
                0x00000000000013c6       0x2e c:/program files/microchip/xc32/v4.60/bin/bin/../../lib/gcc/pic32c/8.3.1/../../../../pic32c/lib/thumb/v6-m/nofp\libg-musl.a(__stdio_write.o)
 .ARM.attributes
                0x00000000000013f4       0x2e c:/program files/microchip/xc32/v4.60/bin/bin/../../lib/gcc/pic32c/8.3.1/../../../../pic32c/lib/thumb/v6-m/nofp\libg-musl.a(__stdout.o)
 .ARM.attributes
                0x0000000000001422       0x2e c:/program files/microchip/xc32/v4.60/bin/bin/../../lib/gcc/pic32c/8.3.1/../../../../pic32c/lib/thumb/v6-m/nofp\libg-musl.a(__towrite.o)
 .ARM.attributes
                0x0000000000001450       0x2e c:/program files/microchip/xc32/v4.60/bin/bin/../../lib/gcc/pic32c/8.3.1/../../../../pic32c/lib/thumb/v6-m/nofp\libg-musl.a(__month_to_secs.o)
 .ARM.attributes
                0x000000000000147e       0x2e c:/program files/microchip/xc32/v4.60/bin/bin/../../lib/gcc/pic32c/8.3.1/../../../../pic32c/lib/thumb/v6-m/nofp\libg-musl.a(writev.o)
 .ARM.attributes
                0x00000000000014ac       0x2e c:/program files/microchip/xc32/v4.60/bin/bin/../../lib/gcc/pic32c/8.3.1/../../../../pic32c/lib/thumb/v6-m/nofp\libg-musl.a(__overflow.o)
 .ARM.attributes
                0x00000000000014da       0x2e c:/program files/microchip/xc32/v4.60/bin/bin/../../lib/gcc/pic32c/8.3.1/../../../../pic32c/lib/thumb/v6-m/nofp\libg-musl.a(__fwrite.o)
 .ARM.attributes
                0x0000000000001508       0x2c c:/program files/microchip/xc32/v4.60/bin/bin/../../lib/gcc/pic32c/8.3.1/../../../../pic32c/lib/thumb/v6-m/nofp\libm-fast-emfloat.a(fma.o)
 .ARM.attributes
                0x0000000000001534       0x2c c:/program files/microchip/xc32/v4.60/bin/bin/../../lib/gcc/pic32c/8.3.1/../../../../pic32c/lib/thumb/v6-m/nofp\libm-fast-emfloat.a(floor.o)
 .ARM.attributes
                0x0000000000001560       0x1c c:/program files/microchip/xc32/v4.60/bin/bin/../../lib/gcc/pic32c/8.3.1/../../../../pic32c/lib/thumb/v6-m/nofp\libm-fast-emfloat.a(__aeabi_dcmple.o)
 .ARM.attributes
                0x000000000000157c       0x1e c:/program files/microchip/xc32/v4.60/bin/bin/../../lib/gcc/pic32c/8.3.1/thumb/v6-m/nofp\libgcc.a(_udivsi3.o)
 .ARM.attributes
                0x000000000000159a       0x1e c:/program files/microchip/xc32/v4.60/bin/bin/../../lib/gcc/pic32c/8.3.1/thumb/v6-m/nofp\libgcc.a(_divsi3.o)
 .ARM.attributes
                0x00000000000015b8       0x1e c:/program files/microchip/xc32/v4.60/bin/bin/../../lib/gcc/pic32c/8.3.1/thumb/v6-m/nofp\libgcc.a(_dvmd_tls.o)
 .ARM.attributes
                0x00000000000015d6       0x1e c:/program files/microchip/xc32/v4.60/bin/bin/../../lib/gcc/pic32c/8.3.1/thumb/v6-m/nofp\libgcc.a(_aeabi_ldivmod.o)
 .ARM.attributes
                0x00000000000015f4       0x1e c:/program files/microchip/xc32/v4.60/bin/bin/../../lib/gcc/pic32c/8.3.1/thumb/v6-m/nofp\libgcc.a(_aeabi_uldivmod.o)
 .ARM.attributes
                0x0000000000001612       0x2c c:/program files/microchip/xc32/v4.60/bin/bin/../../lib/gcc/pic32c/8.3.1/thumb/v6-m/nofp\libgcc.a(_muldi3.o)
 .ARM.attributes
                0x000000000000163e       0x2c c:/program files/microchip/xc32/v4.60/bin/bin/../../lib/gcc/pic32c/8.3.1/thumb/v6-m/nofp\libgcc.a(_udivmoddi4.o)
 .ARM.attributes
                0x000000000000166a       0x2c c:/program files/microchip/xc32/v4.60/bin/bin/../../lib/gcc/pic32c/8.3.1/thumb/v6-m/nofp\libgcc.a(bpabi.o)
 .ARM.attributes
                0x0000000000001696       0x1e c:/program files/microchip/xc32/v4.60/bin/bin/../../lib/gcc/pic32c/8.3.1/thumb/v6-m/nofp\libgcc.a(_lshrdi3.o)
 .ARM.attributes
                0x00000000000016b4       0x1e c:/program files/microchip/xc32/v4.60/bin/bin/../../lib/gcc/pic32c/8.3.1/thumb/v6-m/nofp\libgcc.a(_ashldi3.o)
 .ARM.attributes
                0x00000000000016d2       0x1e c:/program files/microchip/xc32/v4.60/bin/bin/../../lib/gcc/pic32c/8.3.1/thumb/v6-m/nofp\libgcc.a(_clzdi2.o)
 .ARM.attributes
                0x00000000000016f0       0x2c c:/program files/microchip/xc32/v4.60/bin/bin/../../lib/gcc/pic32c/8.3.1/thumb/v6-m/nofp\libgcc.a(_divdi3.o)
 .ARM.attributes
                0x000000000000171c       0x1e c:/program files/microchip/xc32/v4.60/bin/bin/../../lib/gcc/pic32c/8.3.1/thumb/v6-m/nofp\libgcc.a(_clzsi2.o)
 .ARM.attributes
                0x000000000000173a       0x2c c:/program files/microchip/xc32/v4.60/bin/bin/../../lib/gcc/pic32c/8.3.1/../../../../pic32c/lib/thumb/v6-m/nofp\libpic32c.a(close.o)
 .ARM.attributes
                0x0000000000001766       0x2c c:/program files/microchip/xc32/v4.60/bin/bin/../../lib/gcc/pic32c/8.3.1/../../../../pic32c/lib/thumb/v6-m/nofp\libpic32c.a(lseek.o)
 .ARM.attributes
                0x0000000000001792       0x2c c:/program files/microchip/xc32/v4.60/bin/bin/../../lib/gcc/pic32c/8.3.1/../../../../pic32c/lib/thumb/v6-m/nofp\libpic32c.a(sbrk.o)
 .ARM.attributes
                0x00000000000017be       0x2e c:/program files/microchip/xc32/v4.60/bin/bin/../../lib/gcc/pic32c/8.3.1/../../../../pic32c/lib/thumb/v6-m/nofp\libc-size-musl.a(strcpy.o)
 .ARM.attributes
                0x00000000000017ec       0x2e c:/program files/microchip/xc32/v4.60/bin/bin/../../lib/gcc/pic32c/8.3.1/../../../../pic32c/lib/thumb/v6-m/nofp\libc-size-musl.a(stpcpy.o)
 .ARM.attributes
                0x000000000000181a       0x1e c:/program files/microchip/xc32/v4.60/bin/bin/../../lib/gcc/pic32c/8.3.1/thumb/v6-m/nofp/crtn.o
 .ARM.attributes
                0x0000000000001838       0x2c c:/program files/microchip/xc32/v4.60/bin/bin/../../lib/gcc/pic32c/8.3.1/../../../../pic32c/lib/thumb/v6-m/nofp\libpic32c.a(pic32_data_init_clear.o)
 .ARM.attributes
                0x0000000000001864       0x2c c:/program files/microchip/xc32/v4.60/bin/bin/../../lib/gcc/pic32c/8.3.1/../../../../pic32c/lib/thumb/v6-m/nofp\libpic32c.a(pic32_data_init_copy.o)

.comment        0x0000000000000000       0x2b
 .comment       0x0000000000000000       0x2b c:/program files/microchip/xc32/v4.60/bin/bin/../../lib/gcc/pic32c/8.3.1/thumb/v6-m/nofp/crtbegin.o
                                         0x2c (size before relaxing)
 .comment       0x000000000000002b       0x2c build/SAMD21_IOT_WG_ICM42688/debug/_ext/2048461350/icm42688_sensor.o
 .comment       0x000000000000002b       0x2c build/SAMD21_IOT_WG_ICM42688/debug/_ext/1660664302/drv_spi.o
 .comment       0x000000000000002b       0x2c build/SAMD21_IOT_WG_ICM42688/debug/_ext/1164161090/wdrv_winc_gpio.o
 .comment       0x000000000000002b       0x2c build/SAMD21_IOT_WG_ICM42688/debug/_ext/1164161090/wdrv_winc_eint.o
 .comment       0x000000000000002b       0x2c build/SAMD21_IOT_WG_ICM42688/debug/_ext/101005277/wdrv_winc_spi.o
 .comment       0x000000000000002b       0x2c build/SAMD21_IOT_WG_ICM42688/debug/_ext/90265895/nm_common.o
 .comment       0x000000000000002b       0x2c build/SAMD21_IOT_WG_ICM42688/debug/_ext/121554788/m2m_ssl.o
 .comment       0x000000000000002b       0x2c build/SAMD21_IOT_WG_ICM42688/debug/_ext/121554788/m2m_hif.o
 .comment       0x000000000000002b       0x2c build/SAMD21_IOT_WG_ICM42688/debug/_ext/121554788/m2m_wifi.o
 .comment       0x000000000000002b       0x2c build/SAMD21_IOT_WG_ICM42688/debug/_ext/121554788/nmspi.o
 .comment       0x000000000000002b       0x2c build/SAMD21_IOT_WG_ICM42688/debug/_ext/121554788/nmdrv.o
 .comment       0x000000000000002b       0x2c build/SAMD21_IOT_WG_ICM42688/debug/_ext/121554788/m2m_ota.o
 .comment       0x000000000000002b       0x2c build/SAMD21_IOT_WG_ICM42688/debug/_ext/121554788/nmasic.o
 .comment       0x000000000000002b       0x2c build/SAMD21_IOT_WG_ICM42688/debug/_ext/121554788/nmbus.o
 .comment       0x000000000000002b       0x2c build/SAMD21_IOT_WG_ICM42688/debug/_ext/548032175/socket.o
 .comment       0x000000000000002b       0x2c build/SAMD21_IOT_WG_ICM42688/debug/_ext/548032175/inet_addr.o
 .comment       0x000000000000002b       0x2c build/SAMD21_IOT_WG_ICM42688/debug/_ext/548032175/inet_ntop.o
 .comment       0x000000000000002b       0x2c build/SAMD21_IOT_WG_ICM42688/debug/_ext/609036575/flexible_flash.o
 .comment       0x000000000000002b       0x2c build/SAMD21_IOT_WG_ICM42688/debug/_ext/609036575/spi_flash.o
 .comment       0x000000000000002b       0x2c build/SAMD21_IOT_WG_ICM42688/debug/_ext/1784303044/wdrv_winc_osal.o
 .comment       0x000000000000002b       0x2c build/SAMD21_IOT_WG_ICM42688/debug/_ext/907429946/wdrv_winc_sta.o
 .comment       0x000000000000002b       0x2c build/SAMD21_IOT_WG_ICM42688/debug/_ext/907429946/wdrv_winc_socket.o
 .comment       0x000000000000002b       0x2c build/SAMD21_IOT_WG_ICM42688/debug/_ext/907429946/wdrv_winc_systime.o
 .comment       0x000000000000002b       0x2c build/SAMD21_IOT_WG_ICM42688/debug/_ext/907429946/wdrv_winc_authctx.o
 .comment       0x000000000000002b       0x2c build/SAMD21_IOT_WG_ICM42688/debug/_ext/907429946/wdrv_winc_host_file.o
 .comment       0x000000000000002b       0x2c build/SAMD21_IOT_WG_ICM42688/debug/_ext/907429946/wdrv_winc.o
 .comment       0x000000000000002b       0x2c build/SAMD21_IOT_WG_ICM42688/debug/_ext/907429946/wdrv_winc_bssctx.o
 .comment       0x000000000000002b       0x2c build/SAMD21_IOT_WG_ICM42688/debug/_ext/1750425231/plib_clock.o
 .comment       0x000000000000002b       0x2c build/SAMD21_IOT_WG_ICM42688/debug/_ext/1580516298/plib_dmac.o
 .comment       0x000000000000002b       0x2c build/SAMD21_IOT_WG_ICM42688/debug/_ext/503204096/plib_eic.o
 .comment       0x000000000000002b       0x2c build/SAMD21_IOT_WG_ICM42688/debug/_ext/1580823105/plib_nvic.o
 .comment       0x000000000000002b       0x2c build/SAMD21_IOT_WG_ICM42688/debug/_ext/11470383/plib_nvmctrl.o
 .comment       0x000000000000002b       0x2c build/SAMD21_IOT_WG_ICM42688/debug/_ext/1580876256/plib_port.o
 .comment       0x000000000000002b       0x2c build/SAMD21_IOT_WG_ICM42688/debug/_ext/1014017276/plib_sercom0_spi_master.o
 .comment       0x000000000000002b       0x2c build/SAMD21_IOT_WG_ICM42688/debug/_ext/1014017276/plib_sercom2_spi_master.o
 .comment       0x000000000000002b       0x2c build/SAMD21_IOT_WG_ICM42688/debug/_ext/177673482/plib_sercom5_usart.o
 .comment       0x000000000000002b       0x2c build/SAMD21_IOT_WG_ICM42688/debug/_ext/223004715/plib_systick.o
 .comment       0x000000000000002b       0x2c build/SAMD21_IOT_WG_ICM42688/debug/_ext/399410062/plib_tc3.o
 .comment       0x000000000000002b       0x2c build/SAMD21_IOT_WG_ICM42688/debug/_ext/399410062/plib_tc4.o
 .comment       0x000000000000002b       0x2c build/SAMD21_IOT_WG_ICM42688/debug/_ext/1357625803/xc32_monitor.o
 .comment       0x000000000000002b       0x2c build/SAMD21_IOT_WG_ICM42688/debug/_ext/1584719636/sys_dma.o
 .comment       0x000000000000002b       0x2c build/SAMD21_IOT_WG_ICM42688/debug/_ext/1318297016/sys_int.o
 .comment       0x000000000000002b       0x2c build/SAMD21_IOT_WG_ICM42688/debug/_ext/386530258/sys_time.o
 .comment       0x000000000000002b       0x2c build/SAMD21_IOT_WG_ICM42688/debug/_ext/1832905403/initialization.o
 .comment       0x000000000000002b       0x2c build/SAMD21_IOT_WG_ICM42688/debug/_ext/1832905403/interrupts.o
 .comment       0x000000000000002b       0x2c build/SAMD21_IOT_WG_ICM42688/debug/_ext/1832905403/exceptions.o
 .comment       0x000000000000002b       0x2c build/SAMD21_IOT_WG_ICM42688/debug/_ext/1832905403/startup_xc32.o
 .comment       0x000000000000002b       0x2c build/SAMD21_IOT_WG_ICM42688/debug/_ext/1832905403/tasks.o
 .comment       0x000000000000002b       0x2c build/SAMD21_IOT_WG_ICM42688/debug/_ext/1341251756/Icm426xxDriver_HL.o
 .comment       0x000000000000002b       0x2c build/SAMD21_IOT_WG_ICM42688/debug/_ext/1341251756/Icm426xxTransport.o
 .comment       0x000000000000002b       0x2c build/SAMD21_IOT_WG_ICM42688/debug/_ext/1360937237/main.o
 .comment       0x000000000000002b       0x2c build/SAMD21_IOT_WG_ICM42688/debug/_ext/1360937237/ringbuffer.o
 .comment       0x000000000000002b       0x2c build/SAMD21_IOT_WG_ICM42688/debug/_ext/1360937237/app.o
 .comment       0x000000000000002b       0x2c build/SAMD21_IOT_WG_ICM42688/debug/_ext/1360937237/ws2812.o
 .comment       0x000000000000002b       0x2c build/SAMD21_IOT_WG_ICM42688/debug/_ext/1360937237/winc1500_udp_client.o
 .comment       0x000000000000002b       0x2c c:/program files/microchip/xc32/v4.60/bin/bin/../../lib/gcc/pic32c/8.3.1/../../../../pic32c/lib/thumb/v6-m/nofp\libpic32c.a(data_init.o)
 .comment       0x000000000000002b       0x2c c:/program files/microchip/xc32/v4.60/bin/bin/../../lib/gcc/pic32c/8.3.1/../../../../pic32c/lib/thumb/v6-m/nofp\libc-size-musl.a(memcpy.o)
 .comment       0x000000000000002b       0x2c c:/program files/microchip/xc32/v4.60/bin/bin/../../lib/gcc/pic32c/8.3.1/../../../../pic32c/lib/thumb/v6-m/nofp\libc-size-musl.a(memset.o)
 .comment       0x000000000000002b       0x2c c:/program files/microchip/xc32/v4.60/bin/bin/../../lib/gcc/pic32c/8.3.1/../../../../pic32c/lib/thumb/v6-m/nofp\libc-size-musl.a(strlen.o)
 .comment       0x000000000000002b       0x2c c:/program files/microchip/xc32/v4.60/bin/bin/../../lib/gcc/pic32c/8.3.1/../../../../pic32c/lib/thumb/v6-m/nofp\libc-size-musl.a(strchr.o)
 .comment       0x000000000000002b       0x2c c:/program files/microchip/xc32/v4.60/bin/bin/../../lib/gcc/pic32c/8.3.1/../../../../pic32c/lib/thumb/v6-m/nofp\libc-size-musl.a(strchrnul.o)
 .comment       0x000000000000002b       0x2c c:/program files/microchip/xc32/v4.60/bin/bin/../../lib/gcc/pic32c/8.3.1/../../../../pic32c/lib/thumb/v6-m/nofp\libc-size-musl.a(strnlen.o)
 .comment       0x000000000000002b       0x2c c:/program files/microchip/xc32/v4.60/bin/bin/../../lib/gcc/pic32c/8.3.1/../../../../pic32c/lib/thumb/v6-m/nofp\libc-size-musl.a(memchr.o)
 .comment       0x000000000000002b       0x2c c:/program files/microchip/xc32/v4.60/bin/bin/../../lib/gcc/pic32c/8.3.1/../../../../pic32c/lib/thumb/v6-m/nofp\liblmalloc-musl.a(lite_calloc.o)
 .comment       0x000000000000002b       0x2c c:/program files/microchip/xc32/v4.60/bin/bin/../../lib/gcc/pic32c/8.3.1/../../../../pic32c/lib/thumb/v6-m/nofp\liblmalloc-musl.a(lite_free.o)
 .comment       0x000000000000002b       0x2c c:/program files/microchip/xc32/v4.60/bin/bin/../../lib/gcc/pic32c/8.3.1/../../../../pic32c/lib/thumb/v6-m/nofp\liblmalloc-musl.a(lite_malloc.o)
 .comment       0x000000000000002b       0x2c c:/program files/microchip/xc32/v4.60/bin/bin/../../lib/gcc/pic32c/8.3.1/../../../../pic32c/lib/thumb/v6-m/nofp\libg-musl.a(__libc_start_main.o)
 .comment       0x000000000000002b       0x2c c:/program files/microchip/xc32/v4.60/bin/bin/../../lib/gcc/pic32c/8.3.1/../../../../pic32c/lib/thumb/v6-m/nofp\libg-musl.a(__errno_location.o)
 .comment       0x000000000000002b       0x2c c:/program files/microchip/xc32/v4.60/bin/bin/../../lib/gcc/pic32c/8.3.1/../../../../pic32c/lib/thumb/v6-m/nofp\libg-musl.a(libc.o)
 .comment       0x000000000000002b       0x2c c:/program files/microchip/xc32/v4.60/bin/bin/../../lib/gcc/pic32c/8.3.1/../../../../pic32c/lib/thumb/v6-m/nofp\libg-musl.a(expand_heap.o)
 .comment       0x000000000000002b       0x2c c:/program files/microchip/xc32/v4.60/bin/bin/../../lib/gcc/pic32c/8.3.1/../../../../pic32c/lib/thumb/v6-m/nofp\libg-musl.a(__sio_printf_cdeEfFgGnsu.o)
 .comment       0x000000000000002b       0x2c c:/program files/microchip/xc32/v4.60/bin/bin/../../lib/gcc/pic32c/8.3.1/../../../../pic32c/lib/thumb/v6-m/nofp\libg-musl.a(__fmt_d.o)
 .comment       0x000000000000002b       0x2c c:/program files/microchip/xc32/v4.60/bin/bin/../../lib/gcc/pic32c/8.3.1/../../../../pic32c/lib/thumb/v6-m/nofp\libg-musl.a(__fmt_fp.o)
 .comment       0x000000000000002b       0x2c c:/program files/microchip/xc32/v4.60/bin/bin/../../lib/gcc/pic32c/8.3.1/../../../../pic32c/lib/thumb/v6-m/nofp\libg-musl.a(__fmt_s.o)
 .comment       0x000000000000002b       0x2c c:/program files/microchip/xc32/v4.60/bin/bin/../../lib/gcc/pic32c/8.3.1/../../../../pic32c/lib/thumb/v6-m/nofp\libg-musl.a(__fmt_u.o)
 .comment       0x000000000000002b       0x2c c:/program files/microchip/xc32/v4.60/bin/bin/../../lib/gcc/pic32c/8.3.1/../../../../pic32c/lib/thumb/v6-m/nofp\libg-musl.a(__pop_float.o)
 .comment       0x000000000000002b       0x2c c:/program files/microchip/xc32/v4.60/bin/bin/../../lib/gcc/pic32c/8.3.1/../../../../pic32c/lib/thumb/v6-m/nofp\libg-musl.a(__pop_int.o)
 .comment       0x000000000000002b       0x2c c:/program files/microchip/xc32/v4.60/bin/bin/../../lib/gcc/pic32c/8.3.1/../../../../pic32c/lib/thumb/v6-m/nofp\libg-musl.a(__pop_ptr.o)
 .comment       0x000000000000002b       0x2c c:/program files/microchip/xc32/v4.60/bin/bin/../../lib/gcc/pic32c/8.3.1/../../../../pic32c/lib/thumb/v6-m/nofp\libg-musl.a(__printf_core.o)
 .comment       0x000000000000002b       0x2c c:/program files/microchip/xc32/v4.60/bin/bin/../../lib/gcc/pic32c/8.3.1/../../../../pic32c/lib/thumb/v6-m/nofp\libg-musl.a(stdin.o)
 .comment       0x000000000000002b       0x2c c:/program files/microchip/xc32/v4.60/bin/bin/../../lib/gcc/pic32c/8.3.1/../../../../pic32c/lib/thumb/v6-m/nofp\libg-musl.a(stdout.o)
 .comment       0x000000000000002b       0x2c c:/program files/microchip/xc32/v4.60/bin/bin/../../lib/gcc/pic32c/8.3.1/../../../../pic32c/lib/thumb/v6-m/nofp\libg-musl.a(puts.o)
 .comment       0x000000000000002b       0x2c c:/program files/microchip/xc32/v4.60/bin/bin/../../lib/gcc/pic32c/8.3.1/../../../../pic32c/lib/thumb/v6-m/nofp\libg-musl.a(setbuf.o)
 .comment       0x000000000000002b       0x2c c:/program files/microchip/xc32/v4.60/bin/bin/../../lib/gcc/pic32c/8.3.1/../../../../pic32c/lib/thumb/v6-m/nofp\libg-musl.a(atoi.o)
 .comment       0x000000000000002b       0x2c c:/program files/microchip/xc32/v4.60/bin/bin/../../lib/gcc/pic32c/8.3.1/../../../../pic32c/lib/thumb/v6-m/nofp\libg-musl.a(gmtime.o)
 .comment       0x000000000000002b       0x2c c:/program files/microchip/xc32/v4.60/bin/bin/../../lib/gcc/pic32c/8.3.1/../../../../pic32c/lib/thumb/v6-m/nofp\libg-musl.a(gmtime_r.o)
 .comment       0x000000000000002b       0x2c c:/program files/microchip/xc32/v4.60/bin/bin/../../lib/gcc/pic32c/8.3.1/../../../../pic32c/lib/thumb/v6-m/nofp\libg-musl.a(mktime.o)
 .comment       0x000000000000002b       0x2c c:/program files/microchip/xc32/v4.60/bin/bin/../../lib/gcc/pic32c/8.3.1/../../../../pic32c/lib/thumb/v6-m/nofp\libg-musl.a(tolower.o)
 .comment       0x000000000000002b       0x2c c:/program files/microchip/xc32/v4.60/bin/bin/../../lib/gcc/pic32c/8.3.1/../../../../pic32c/lib/thumb/v6-m/nofp\libg-musl.a(__environ.o)
 .comment       0x000000000000002b       0x2c c:/program files/microchip/xc32/v4.60/bin/bin/../../lib/gcc/pic32c/8.3.1/../../../../pic32c/lib/thumb/v6-m/nofp\libg-musl.a(__int_vfprintf.o)
 .comment       0x000000000000002b       0x2c c:/program files/microchip/xc32/v4.60/bin/bin/../../lib/gcc/pic32c/8.3.1/../../../../pic32c/lib/thumb/v6-m/nofp\libg-musl.a(fputs.o)
 .comment       0x000000000000002b       0x2c c:/program files/microchip/xc32/v4.60/bin/bin/../../lib/gcc/pic32c/8.3.1/../../../../pic32c/lib/thumb/v6-m/nofp\libg-musl.a(__cvt_u.o)
 .comment       0x000000000000002b       0x2c c:/program files/microchip/xc32/v4.60/bin/bin/../../lib/gcc/pic32c/8.3.1/../../../../pic32c/lib/thumb/v6-m/nofp\libg-musl.a(__stdio_read.o)
 .comment       0x000000000000002b       0x2c c:/program files/microchip/xc32/v4.60/bin/bin/../../lib/gcc/pic32c/8.3.1/../../../../pic32c/lib/thumb/v6-m/nofp\libg-musl.a(__towrite_rw.o)
 .comment       0x000000000000002b       0x2c c:/program files/microchip/xc32/v4.60/bin/bin/../../lib/gcc/pic32c/8.3.1/../../../../pic32c/lib/thumb/v6-m/nofp\libg-musl.a(fwrite.o)
 .comment       0x000000000000002b       0x2c c:/program files/microchip/xc32/v4.60/bin/bin/../../lib/gcc/pic32c/8.3.1/../../../../pic32c/lib/thumb/v6-m/nofp\libg-musl.a(putc.o)
 .comment       0x000000000000002b       0x2c c:/program files/microchip/xc32/v4.60/bin/bin/../../lib/gcc/pic32c/8.3.1/../../../../pic32c/lib/thumb/v6-m/nofp\libg-musl.a(setvbuf.o)
 .comment       0x000000000000002b       0x2c c:/program files/microchip/xc32/v4.60/bin/bin/../../lib/gcc/pic32c/8.3.1/../../../../pic32c/lib/thumb/v6-m/nofp\libg-musl.a(__tm_to_secs.o)
 .comment       0x000000000000002b       0x2c c:/program files/microchip/xc32/v4.60/bin/bin/../../lib/gcc/pic32c/8.3.1/../../../../pic32c/lib/thumb/v6-m/nofp\libg-musl.a(__year_to_secs.o)
 .comment       0x000000000000002b       0x2c c:/program files/microchip/xc32/v4.60/bin/bin/../../lib/gcc/pic32c/8.3.1/../../../../pic32c/lib/thumb/v6-m/nofp\libg-musl.a(__secs_to_tm.o)
 .comment       0x000000000000002b       0x2c c:/program files/microchip/xc32/v4.60/bin/bin/../../lib/gcc/pic32c/8.3.1/../../../../pic32c/lib/thumb/v6-m/nofp\libg-musl.a(readv.o)
 .comment       0x000000000000002b       0x2c c:/program files/microchip/xc32/v4.60/bin/bin/../../lib/gcc/pic32c/8.3.1/../../../../pic32c/lib/thumb/v6-m/nofp\libg-musl.a(__init_stdio.o)
 .comment       0x000000000000002b       0x2c c:/program files/microchip/xc32/v4.60/bin/bin/../../lib/gcc/pic32c/8.3.1/../../../../pic32c/lib/thumb/v6-m/nofp\libg-musl.a(__out.o)
 .comment       0x000000000000002b       0x2c c:/program files/microchip/xc32/v4.60/bin/bin/../../lib/gcc/pic32c/8.3.1/../../../../pic32c/lib/thumb/v6-m/nofp\libg-musl.a(__putc.o)
 .comment       0x000000000000002b       0x2c c:/program files/microchip/xc32/v4.60/bin/bin/../../lib/gcc/pic32c/8.3.1/../../../../pic32c/lib/thumb/v6-m/nofp\libg-musl.a(__stderr.o)
 .comment       0x000000000000002b       0x2c c:/program files/microchip/xc32/v4.60/bin/bin/../../lib/gcc/pic32c/8.3.1/../../../../pic32c/lib/thumb/v6-m/nofp\libg-musl.a(__stdio_close.o)
 .comment       0x000000000000002b       0x2c c:/program files/microchip/xc32/v4.60/bin/bin/../../lib/gcc/pic32c/8.3.1/../../../../pic32c/lib/thumb/v6-m/nofp\libg-musl.a(__stdio_write.o)
 .comment       0x000000000000002b       0x2c c:/program files/microchip/xc32/v4.60/bin/bin/../../lib/gcc/pic32c/8.3.1/../../../../pic32c/lib/thumb/v6-m/nofp\libg-musl.a(__stdout.o)
 .comment       0x000000000000002b       0x2c c:/program files/microchip/xc32/v4.60/bin/bin/../../lib/gcc/pic32c/8.3.1/../../../../pic32c/lib/thumb/v6-m/nofp\libg-musl.a(__towrite.o)
 .comment       0x000000000000002b       0x2c c:/program files/microchip/xc32/v4.60/bin/bin/../../lib/gcc/pic32c/8.3.1/../../../../pic32c/lib/thumb/v6-m/nofp\libg-musl.a(__month_to_secs.o)
 .comment       0x000000000000002b       0x2c c:/program files/microchip/xc32/v4.60/bin/bin/../../lib/gcc/pic32c/8.3.1/../../../../pic32c/lib/thumb/v6-m/nofp\libg-musl.a(writev.o)
 .comment       0x000000000000002b       0x2c c:/program files/microchip/xc32/v4.60/bin/bin/../../lib/gcc/pic32c/8.3.1/../../../../pic32c/lib/thumb/v6-m/nofp\libg-musl.a(__overflow.o)
 .comment       0x000000000000002b       0x2c c:/program files/microchip/xc32/v4.60/bin/bin/../../lib/gcc/pic32c/8.3.1/../../../../pic32c/lib/thumb/v6-m/nofp\libg-musl.a(__fwrite.o)
 .comment       0x000000000000002b       0x2c c:/program files/microchip/xc32/v4.60/bin/bin/../../lib/gcc/pic32c/8.3.1/../../../../pic32c/lib/thumb/v6-m/nofp\libm-fast-emfloat.a(fma.o)
 .comment       0x000000000000002b       0x2c c:/program files/microchip/xc32/v4.60/bin/bin/../../lib/gcc/pic32c/8.3.1/../../../../pic32c/lib/thumb/v6-m/nofp\libm-fast-emfloat.a(floor.o)
 .comment       0x000000000000002b       0x2c c:/program files/microchip/xc32/v4.60/bin/bin/../../lib/gcc/pic32c/8.3.1/thumb/v6-m/nofp\libgcc.a(_muldi3.o)
 .comment       0x000000000000002b       0x2c c:/program files/microchip/xc32/v4.60/bin/bin/../../lib/gcc/pic32c/8.3.1/thumb/v6-m/nofp\libgcc.a(_udivmoddi4.o)
 .comment       0x000000000000002b       0x2c c:/program files/microchip/xc32/v4.60/bin/bin/../../lib/gcc/pic32c/8.3.1/thumb/v6-m/nofp\libgcc.a(bpabi.o)
 .comment       0x000000000000002b       0x2c c:/program files/microchip/xc32/v4.60/bin/bin/../../lib/gcc/pic32c/8.3.1/thumb/v6-m/nofp\libgcc.a(_divdi3.o)
 .comment       0x000000000000002b       0x2c c:/program files/microchip/xc32/v4.60/bin/bin/../../lib/gcc/pic32c/8.3.1/../../../../pic32c/lib/thumb/v6-m/nofp\libpic32c.a(close.o)
 .comment       0x000000000000002b       0x2c c:/program files/microchip/xc32/v4.60/bin/bin/../../lib/gcc/pic32c/8.3.1/../../../../pic32c/lib/thumb/v6-m/nofp\libpic32c.a(lseek.o)
 .comment       0x000000000000002b       0x2c c:/program files/microchip/xc32/v4.60/bin/bin/../../lib/gcc/pic32c/8.3.1/../../../../pic32c/lib/thumb/v6-m/nofp\libpic32c.a(sbrk.o)
 .comment       0x000000000000002b       0x2c c:/program files/microchip/xc32/v4.60/bin/bin/../../lib/gcc/pic32c/8.3.1/../../../../pic32c/lib/thumb/v6-m/nofp\libc-size-musl.a(strcpy.o)
 .comment       0x000000000000002b       0x2c c:/program files/microchip/xc32/v4.60/bin/bin/../../lib/gcc/pic32c/8.3.1/../../../../pic32c/lib/thumb/v6-m/nofp\libc-size-musl.a(stpcpy.o)
 .comment       0x000000000000002b       0x2c c:/program files/microchip/xc32/v4.60/bin/bin/../../lib/gcc/pic32c/8.3.1/../../../../pic32c/lib/thumb/v6-m/nofp\libpic32c.a(pic32_data_init_clear.o)
 .comment       0x000000000000002b       0x2c c:/program files/microchip/xc32/v4.60/bin/bin/../../lib/gcc/pic32c/8.3.1/../../../../pic32c/lib/thumb/v6-m/nofp\libpic32c.a(pic32_data_init_copy.o)

.debug_info     0x0000000000000000    0x40297
 .debug_info    0x0000000000000000      0xe30 build/SAMD21_IOT_WG_ICM42688/debug/_ext/2048461350/icm42688_sensor.o
 .debug_info    0x0000000000000e30     0x2c78 build/SAMD21_IOT_WG_ICM42688/debug/_ext/1660664302/drv_spi.o
 .debug_info    0x0000000000003aa8      0x2ac build/SAMD21_IOT_WG_ICM42688/debug/_ext/1164161090/wdrv_winc_gpio.o
 .debug_info    0x0000000000003d54      0x17a build/SAMD21_IOT_WG_ICM42688/debug/_ext/1164161090/wdrv_winc_eint.o
 .debug_info    0x0000000000003ece      0xf98 build/SAMD21_IOT_WG_ICM42688/debug/_ext/101005277/wdrv_winc_spi.o
 .debug_info    0x0000000000004e66      0x210 build/SAMD21_IOT_WG_ICM42688/debug/_ext/90265895/nm_common.o
 .debug_info    0x0000000000005076      0xdfd build/SAMD21_IOT_WG_ICM42688/debug/_ext/121554788/m2m_ssl.o
 .debug_info    0x0000000000005e73     0x1333 build/SAMD21_IOT_WG_ICM42688/debug/_ext/121554788/m2m_hif.o
 .debug_info    0x00000000000071a6     0x55b0 build/SAMD21_IOT_WG_ICM42688/debug/_ext/121554788/m2m_wifi.o
 .debug_info    0x000000000000c756     0x18ce build/SAMD21_IOT_WG_ICM42688/debug/_ext/121554788/nmspi.o
 .debug_info    0x000000000000e024      0x904 build/SAMD21_IOT_WG_ICM42688/debug/_ext/121554788/nmdrv.o
 .debug_info    0x000000000000e928     0x144b build/SAMD21_IOT_WG_ICM42688/debug/_ext/121554788/m2m_ota.o
 .debug_info    0x000000000000fd73     0x1121 build/SAMD21_IOT_WG_ICM42688/debug/_ext/121554788/nmasic.o
 .debug_info    0x0000000000010e94      0x6d7 build/SAMD21_IOT_WG_ICM42688/debug/_ext/121554788/nmbus.o
 .debug_info    0x000000000001156b     0x2662 build/SAMD21_IOT_WG_ICM42688/debug/_ext/548032175/socket.o
 .debug_info    0x0000000000013bcd      0x14f build/SAMD21_IOT_WG_ICM42688/debug/_ext/548032175/inet_addr.o
 .debug_info    0x0000000000013d1c      0x1dd build/SAMD21_IOT_WG_ICM42688/debug/_ext/548032175/inet_ntop.o
 .debug_info    0x0000000000013ef9      0x1e6 build/SAMD21_IOT_WG_ICM42688/debug/_ext/609036575/flexible_flash.o
 .debug_info    0x00000000000140df     0x12b9 build/SAMD21_IOT_WG_ICM42688/debug/_ext/609036575/spi_flash.o
 .debug_info    0x0000000000015398      0x148 build/SAMD21_IOT_WG_ICM42688/debug/_ext/1784303044/wdrv_winc_osal.o
 .debug_info    0x00000000000154e0     0x1916 build/SAMD21_IOT_WG_ICM42688/debug/_ext/907429946/wdrv_winc_sta.o
 .debug_info    0x0000000000016df6     0x1c03 build/SAMD21_IOT_WG_ICM42688/debug/_ext/907429946/wdrv_winc_socket.o
 .debug_info    0x00000000000189f9     0x154a build/SAMD21_IOT_WG_ICM42688/debug/_ext/907429946/wdrv_winc_systime.o
 .debug_info    0x0000000000019f43      0xc2e build/SAMD21_IOT_WG_ICM42688/debug/_ext/907429946/wdrv_winc_authctx.o
 .debug_info    0x000000000001ab71     0x2649 build/SAMD21_IOT_WG_ICM42688/debug/_ext/907429946/wdrv_winc_host_file.o
 .debug_info    0x000000000001d1ba     0x49d4 build/SAMD21_IOT_WG_ICM42688/debug/_ext/907429946/wdrv_winc.o
 .debug_info    0x0000000000021b8e      0x677 build/SAMD21_IOT_WG_ICM42688/debug/_ext/907429946/wdrv_winc_bssctx.o
 .debug_info    0x0000000000022205      0x5b8 build/SAMD21_IOT_WG_ICM42688/debug/_ext/1750425231/plib_clock.o
 .debug_info    0x00000000000227bd      0xc0f build/SAMD21_IOT_WG_ICM42688/debug/_ext/1580516298/plib_dmac.o
 .debug_info    0x00000000000233cc      0x34d build/SAMD21_IOT_WG_ICM42688/debug/_ext/503204096/plib_eic.o
 .debug_info    0x0000000000023719      0xa46 build/SAMD21_IOT_WG_ICM42688/debug/_ext/1580823105/plib_nvic.o
 .debug_info    0x000000000002415f      0x59c build/SAMD21_IOT_WG_ICM42688/debug/_ext/11470383/plib_nvmctrl.o
 .debug_info    0x00000000000246fb      0x6a3 build/SAMD21_IOT_WG_ICM42688/debug/_ext/1580876256/plib_port.o
 .debug_info    0x0000000000024d9e      0xe88 build/SAMD21_IOT_WG_ICM42688/debug/_ext/1014017276/plib_sercom0_spi_master.o
 .debug_info    0x0000000000025c26      0xf98 build/SAMD21_IOT_WG_ICM42688/debug/_ext/1014017276/plib_sercom2_spi_master.o
 .debug_info    0x0000000000026bbe      0xf59 build/SAMD21_IOT_WG_ICM42688/debug/_ext/177673482/plib_sercom5_usart.o
 .debug_info    0x0000000000027b17      0x336 build/SAMD21_IOT_WG_ICM42688/debug/_ext/223004715/plib_systick.o
 .debug_info    0x0000000000027e4d      0x770 build/SAMD21_IOT_WG_ICM42688/debug/_ext/399410062/plib_tc3.o
 .debug_info    0x00000000000285bd      0x799 build/SAMD21_IOT_WG_ICM42688/debug/_ext/399410062/plib_tc4.o
 .debug_info    0x0000000000028d56      0x1e4 build/SAMD21_IOT_WG_ICM42688/debug/_ext/1357625803/xc32_monitor.o
 .debug_info    0x0000000000028f3a      0x2e6 build/SAMD21_IOT_WG_ICM42688/debug/_ext/1584719636/sys_dma.o
 .debug_info    0x0000000000029220      0x556 build/SAMD21_IOT_WG_ICM42688/debug/_ext/1318297016/sys_int.o
 .debug_info    0x0000000000029776     0x2299 build/SAMD21_IOT_WG_ICM42688/debug/_ext/386530258/sys_time.o
 .debug_info    0x000000000002ba0f     0x1a6a build/SAMD21_IOT_WG_ICM42688/debug/_ext/1832905403/initialization.o
 .debug_info    0x000000000002d479      0x3e1 build/SAMD21_IOT_WG_ICM42688/debug/_ext/1832905403/interrupts.o
 .debug_info    0x000000000002d85a       0xb0 build/SAMD21_IOT_WG_ICM42688/debug/_ext/1832905403/exceptions.o
 .debug_info    0x000000000002d90a      0x205 build/SAMD21_IOT_WG_ICM42688/debug/_ext/1832905403/startup_xc32.o
 .debug_info    0x000000000002db0f       0xc7 build/SAMD21_IOT_WG_ICM42688/debug/_ext/1832905403/tasks.o
 .debug_info    0x000000000002dbd6     0x529a build/SAMD21_IOT_WG_ICM42688/debug/_ext/1341251756/Icm426xxDriver_HL.o
 .debug_info    0x0000000000032e70      0x6c6 build/SAMD21_IOT_WG_ICM42688/debug/_ext/1341251756/Icm426xxTransport.o
 .debug_info    0x0000000000033536     0x1c7e build/SAMD21_IOT_WG_ICM42688/debug/_ext/1360937237/main.o
 .debug_info    0x00000000000351b4      0x878 build/SAMD21_IOT_WG_ICM42688/debug/_ext/1360937237/ringbuffer.o
 .debug_info    0x0000000000035a2c      0x59e build/SAMD21_IOT_WG_ICM42688/debug/_ext/1360937237/app.o
 .debug_info    0x0000000000035fca      0x73d build/SAMD21_IOT_WG_ICM42688/debug/_ext/1360937237/ws2812.o
 .debug_info    0x0000000000036707      0xd19 build/SAMD21_IOT_WG_ICM42688/debug/_ext/1360937237/winc1500_udp_client.o
 .debug_info    0x0000000000037420       0x68 c:/program files/microchip/xc32/v4.60/bin/bin/../../lib/gcc/pic32c/8.3.1/../../../../pic32c/lib/thumb/v6-m/nofp\libpic32c.a(data_init.o)
 .debug_info    0x0000000000037488       0xed c:/program files/microchip/xc32/v4.60/bin/bin/../../lib/gcc/pic32c/8.3.1/../../../../pic32c/lib/thumb/v6-m/nofp\libc-size-musl.a(memcpy.o)
 .debug_info    0x0000000000037575       0xbb c:/program files/microchip/xc32/v4.60/bin/bin/../../lib/gcc/pic32c/8.3.1/../../../../pic32c/lib/thumb/v6-m/nofp\libc-size-musl.a(memset.o)
 .debug_info    0x0000000000037630       0xa4 c:/program files/microchip/xc32/v4.60/bin/bin/../../lib/gcc/pic32c/8.3.1/../../../../pic32c/lib/thumb/v6-m/nofp\libc-size-musl.a(strlen.o)
 .debug_info    0x00000000000376d4       0xd2 c:/program files/microchip/xc32/v4.60/bin/bin/../../lib/gcc/pic32c/8.3.1/../../../../pic32c/lib/thumb/v6-m/nofp\libc-size-musl.a(strchr.o)
 .debug_info    0x00000000000377a6      0x133 c:/program files/microchip/xc32/v4.60/bin/bin/../../lib/gcc/pic32c/8.3.1/../../../../pic32c/lib/thumb/v6-m/nofp\libc-size-musl.a(strchrnul.o)
 .debug_info    0x00000000000378d9       0xd5 c:/program files/microchip/xc32/v4.60/bin/bin/../../lib/gcc/pic32c/8.3.1/../../../../pic32c/lib/thumb/v6-m/nofp\libc-size-musl.a(strnlen.o)
 .debug_info    0x00000000000379ae       0xe5 c:/program files/microchip/xc32/v4.60/bin/bin/../../lib/gcc/pic32c/8.3.1/../../../../pic32c/lib/thumb/v6-m/nofp\libc-size-musl.a(memchr.o)
 .debug_info    0x0000000000037a93      0x133 c:/program files/microchip/xc32/v4.60/bin/bin/../../lib/gcc/pic32c/8.3.1/../../../../pic32c/lib/thumb/v6-m/nofp\liblmalloc-musl.a(lite_calloc.o)
 .debug_info    0x0000000000037bc6      0x272 c:/program files/microchip/xc32/v4.60/bin/bin/../../lib/gcc/pic32c/8.3.1/../../../../pic32c/lib/thumb/v6-m/nofp\liblmalloc-musl.a(lite_free.o)
 .debug_info    0x0000000000037e38      0x1bd c:/program files/microchip/xc32/v4.60/bin/bin/../../lib/gcc/pic32c/8.3.1/../../../../pic32c/lib/thumb/v6-m/nofp\liblmalloc-musl.a(lite_malloc.o)
 .debug_info    0x0000000000037ff5      0x2fb c:/program files/microchip/xc32/v4.60/bin/bin/../../lib/gcc/pic32c/8.3.1/../../../../pic32c/lib/thumb/v6-m/nofp\libg-musl.a(__libc_start_main.o)
 .debug_info    0x00000000000382f0       0x5b c:/program files/microchip/xc32/v4.60/bin/bin/../../lib/gcc/pic32c/8.3.1/../../../../pic32c/lib/thumb/v6-m/nofp\libg-musl.a(__errno_location.o)
 .debug_info    0x000000000003834b      0x276 c:/program files/microchip/xc32/v4.60/bin/bin/../../lib/gcc/pic32c/8.3.1/../../../../pic32c/lib/thumb/v6-m/nofp\libg-musl.a(libc.o)
 .debug_info    0x00000000000385c1      0x10e c:/program files/microchip/xc32/v4.60/bin/bin/../../lib/gcc/pic32c/8.3.1/../../../../pic32c/lib/thumb/v6-m/nofp\libg-musl.a(expand_heap.o)
 .debug_info    0x00000000000386cf      0x216 c:/program files/microchip/xc32/v4.60/bin/bin/../../lib/gcc/pic32c/8.3.1/../../../../pic32c/lib/thumb/v6-m/nofp\libg-musl.a(__sio_printf_cdeEfFgGnsu.o)
 .debug_info    0x00000000000388e5      0x330 c:/program files/microchip/xc32/v4.60/bin/bin/../../lib/gcc/pic32c/8.3.1/../../../../pic32c/lib/thumb/v6-m/nofp\libg-musl.a(__fmt_d.o)
 .debug_info    0x0000000000038c15      0x676 c:/program files/microchip/xc32/v4.60/bin/bin/../../lib/gcc/pic32c/8.3.1/../../../../pic32c/lib/thumb/v6-m/nofp\libg-musl.a(__fmt_fp.o)
 .debug_info    0x000000000003928b      0x2e9 c:/program files/microchip/xc32/v4.60/bin/bin/../../lib/gcc/pic32c/8.3.1/../../../../pic32c/lib/thumb/v6-m/nofp\libg-musl.a(__fmt_s.o)
 .debug_info    0x0000000000039574      0x301 c:/program files/microchip/xc32/v4.60/bin/bin/../../lib/gcc/pic32c/8.3.1/../../../../pic32c/lib/thumb/v6-m/nofp\libg-musl.a(__fmt_u.o)
 .debug_info    0x0000000000039875      0x162 c:/program files/microchip/xc32/v4.60/bin/bin/../../lib/gcc/pic32c/8.3.1/../../../../pic32c/lib/thumb/v6-m/nofp\libg-musl.a(__pop_float.o)
 .debug_info    0x00000000000399d7      0x183 c:/program files/microchip/xc32/v4.60/bin/bin/../../lib/gcc/pic32c/8.3.1/../../../../pic32c/lib/thumb/v6-m/nofp\libg-musl.a(__pop_int.o)
 .debug_info    0x0000000000039b5a      0x18d c:/program files/microchip/xc32/v4.60/bin/bin/../../lib/gcc/pic32c/8.3.1/../../../../pic32c/lib/thumb/v6-m/nofp\libg-musl.a(__pop_ptr.o)
 .debug_info    0x0000000000039ce7      0xa6f c:/program files/microchip/xc32/v4.60/bin/bin/../../lib/gcc/pic32c/8.3.1/../../../../pic32c/lib/thumb/v6-m/nofp\libg-musl.a(__printf_core.o)
 .debug_info    0x000000000003a756      0x404 c:/program files/microchip/xc32/v4.60/bin/bin/../../lib/gcc/pic32c/8.3.1/../../../../pic32c/lib/thumb/v6-m/nofp\libg-musl.a(stdin.o)
 .debug_info    0x000000000003ab5a      0x1e9 c:/program files/microchip/xc32/v4.60/bin/bin/../../lib/gcc/pic32c/8.3.1/../../../../pic32c/lib/thumb/v6-m/nofp\libg-musl.a(stdout.o)
 .debug_info    0x000000000003ad43      0x3ac c:/program files/microchip/xc32/v4.60/bin/bin/../../lib/gcc/pic32c/8.3.1/../../../../pic32c/lib/thumb/v6-m/nofp\libg-musl.a(puts.o)
 .debug_info    0x000000000003b0ef       0xe6 c:/program files/microchip/xc32/v4.60/bin/bin/../../lib/gcc/pic32c/8.3.1/../../../../pic32c/lib/thumb/v6-m/nofp\libg-musl.a(setbuf.o)
 .debug_info    0x000000000003b1d5       0xf4 c:/program files/microchip/xc32/v4.60/bin/bin/../../lib/gcc/pic32c/8.3.1/../../../../pic32c/lib/thumb/v6-m/nofp\libg-musl.a(atoi.o)
 .debug_info    0x000000000003b2c9      0x199 c:/program files/microchip/xc32/v4.60/bin/bin/../../lib/gcc/pic32c/8.3.1/../../../../pic32c/lib/thumb/v6-m/nofp\libg-musl.a(gmtime.o)
 .debug_info    0x000000000003b462      0x1a6 c:/program files/microchip/xc32/v4.60/bin/bin/../../lib/gcc/pic32c/8.3.1/../../../../pic32c/lib/thumb/v6-m/nofp\libg-musl.a(gmtime_r.o)
 .debug_info    0x000000000003b608      0x205 c:/program files/microchip/xc32/v4.60/bin/bin/../../lib/gcc/pic32c/8.3.1/../../../../pic32c/lib/thumb/v6-m/nofp\libg-musl.a(mktime.o)
 .debug_info    0x000000000003b80d      0x131 c:/program files/microchip/xc32/v4.60/bin/bin/../../lib/gcc/pic32c/8.3.1/../../../../pic32c/lib/thumb/v6-m/nofp\libg-musl.a(tolower.o)
 .debug_info    0x000000000003b93e       0x97 c:/program files/microchip/xc32/v4.60/bin/bin/../../lib/gcc/pic32c/8.3.1/../../../../pic32c/lib/thumb/v6-m/nofp\libg-musl.a(__environ.o)
 .debug_info    0x000000000003b9d5      0x1ff c:/program files/microchip/xc32/v4.60/bin/bin/../../lib/gcc/pic32c/8.3.1/../../../../pic32c/lib/thumb/v6-m/nofp\libg-musl.a(__int_vfprintf.o)
 .debug_info    0x000000000003bbd4      0x3b6 c:/program files/microchip/xc32/v4.60/bin/bin/../../lib/gcc/pic32c/8.3.1/../../../../pic32c/lib/thumb/v6-m/nofp\libg-musl.a(fputs.o)
 .debug_info    0x000000000003bf8a      0x1cf c:/program files/microchip/xc32/v4.60/bin/bin/../../lib/gcc/pic32c/8.3.1/../../../../pic32c/lib/thumb/v6-m/nofp\libg-musl.a(__cvt_u.o)
 .debug_info    0x000000000003c159      0x3ef c:/program files/microchip/xc32/v4.60/bin/bin/../../lib/gcc/pic32c/8.3.1/../../../../pic32c/lib/thumb/v6-m/nofp\libg-musl.a(__stdio_read.o)
 .debug_info    0x000000000003c548      0x331 c:/program files/microchip/xc32/v4.60/bin/bin/../../lib/gcc/pic32c/8.3.1/../../../../pic32c/lib/thumb/v6-m/nofp\libg-musl.a(__towrite_rw.o)
 .debug_info    0x000000000003c879      0x257 c:/program files/microchip/xc32/v4.60/bin/bin/../../lib/gcc/pic32c/8.3.1/../../../../pic32c/lib/thumb/v6-m/nofp\libg-musl.a(fwrite.o)
 .debug_info    0x000000000003cad0      0x224 c:/program files/microchip/xc32/v4.60/bin/bin/../../lib/gcc/pic32c/8.3.1/../../../../pic32c/lib/thumb/v6-m/nofp\libg-musl.a(putc.o)
 .debug_info    0x000000000003ccf4      0x2bd c:/program files/microchip/xc32/v4.60/bin/bin/../../lib/gcc/pic32c/8.3.1/../../../../pic32c/lib/thumb/v6-m/nofp\libg-musl.a(setvbuf.o)
 .debug_info    0x000000000003cfb1      0x201 c:/program files/microchip/xc32/v4.60/bin/bin/../../lib/gcc/pic32c/8.3.1/../../../../pic32c/lib/thumb/v6-m/nofp\libg-musl.a(__tm_to_secs.o)
 .debug_info    0x000000000003d1b2      0x109 c:/program files/microchip/xc32/v4.60/bin/bin/../../lib/gcc/pic32c/8.3.1/../../../../pic32c/lib/thumb/v6-m/nofp\libg-musl.a(__year_to_secs.o)
 .debug_info    0x000000000003d2bb      0x295 c:/program files/microchip/xc32/v4.60/bin/bin/../../lib/gcc/pic32c/8.3.1/../../../../pic32c/lib/thumb/v6-m/nofp\libg-musl.a(__secs_to_tm.o)
 .debug_info    0x000000000003d550      0x146 c:/program files/microchip/xc32/v4.60/bin/bin/../../lib/gcc/pic32c/8.3.1/../../../../pic32c/lib/thumb/v6-m/nofp\libg-musl.a(readv.o)
 .debug_info    0x000000000003d696       0xc3 c:/program files/microchip/xc32/v4.60/bin/bin/../../lib/gcc/pic32c/8.3.1/../../../../pic32c/lib/thumb/v6-m/nofp\libg-musl.a(__init_stdio.o)
 .debug_info    0x000000000003d759      0x2ba c:/program files/microchip/xc32/v4.60/bin/bin/../../lib/gcc/pic32c/8.3.1/../../../../pic32c/lib/thumb/v6-m/nofp\libg-musl.a(__out.o)
 .debug_info    0x000000000003da13      0x28d c:/program files/microchip/xc32/v4.60/bin/bin/../../lib/gcc/pic32c/8.3.1/../../../../pic32c/lib/thumb/v6-m/nofp\libg-musl.a(__putc.o)
 .debug_info    0x000000000003dca0      0x3a9 c:/program files/microchip/xc32/v4.60/bin/bin/../../lib/gcc/pic32c/8.3.1/../../../../pic32c/lib/thumb/v6-m/nofp\libg-musl.a(__stderr.o)
 .debug_info    0x000000000003e049      0x3fd c:/program files/microchip/xc32/v4.60/bin/bin/../../lib/gcc/pic32c/8.3.1/../../../../pic32c/lib/thumb/v6-m/nofp\libg-musl.a(__stdio_close.o)
 .debug_info    0x000000000003e446      0x43e c:/program files/microchip/xc32/v4.60/bin/bin/../../lib/gcc/pic32c/8.3.1/../../../../pic32c/lib/thumb/v6-m/nofp\libg-musl.a(__stdio_write.o)
 .debug_info    0x000000000003e884      0x3a9 c:/program files/microchip/xc32/v4.60/bin/bin/../../lib/gcc/pic32c/8.3.1/../../../../pic32c/lib/thumb/v6-m/nofp\libg-musl.a(__stdout.o)
 .debug_info    0x000000000003ec2d      0x275 c:/program files/microchip/xc32/v4.60/bin/bin/../../lib/gcc/pic32c/8.3.1/../../../../pic32c/lib/thumb/v6-m/nofp\libg-musl.a(__towrite.o)
 .debug_info    0x000000000003eea2       0xbe c:/program files/microchip/xc32/v4.60/bin/bin/../../lib/gcc/pic32c/8.3.1/../../../../pic32c/lib/thumb/v6-m/nofp\libg-musl.a(__month_to_secs.o)
 .debug_info    0x000000000003ef60      0x146 c:/program files/microchip/xc32/v4.60/bin/bin/../../lib/gcc/pic32c/8.3.1/../../../../pic32c/lib/thumb/v6-m/nofp\libg-musl.a(writev.o)
 .debug_info    0x000000000003f0a6      0x388 c:/program files/microchip/xc32/v4.60/bin/bin/../../lib/gcc/pic32c/8.3.1/../../../../pic32c/lib/thumb/v6-m/nofp\libg-musl.a(__overflow.o)
 .debug_info    0x000000000003f42e      0x2b7 c:/program files/microchip/xc32/v4.60/bin/bin/../../lib/gcc/pic32c/8.3.1/../../../../pic32c/lib/thumb/v6-m/nofp\libg-musl.a(__fwrite.o)
 .debug_info    0x000000000003f6e5       0x26 c:/program files/microchip/xc32/v4.60/bin/bin/../../lib/gcc/pic32c/8.3.1/thumb/v6-m/nofp\libgcc.a(_udivsi3.o)
 .debug_info    0x000000000003f70b       0x26 c:/program files/microchip/xc32/v4.60/bin/bin/../../lib/gcc/pic32c/8.3.1/thumb/v6-m/nofp\libgcc.a(_divsi3.o)
 .debug_info    0x000000000003f731       0x26 c:/program files/microchip/xc32/v4.60/bin/bin/../../lib/gcc/pic32c/8.3.1/thumb/v6-m/nofp\libgcc.a(_dvmd_tls.o)
 .debug_info    0x000000000003f757       0x26 c:/program files/microchip/xc32/v4.60/bin/bin/../../lib/gcc/pic32c/8.3.1/thumb/v6-m/nofp\libgcc.a(_aeabi_ldivmod.o)
 .debug_info    0x000000000003f77d       0x26 c:/program files/microchip/xc32/v4.60/bin/bin/../../lib/gcc/pic32c/8.3.1/thumb/v6-m/nofp\libgcc.a(_aeabi_uldivmod.o)
 .debug_info    0x000000000003f7a3      0x243 c:/program files/microchip/xc32/v4.60/bin/bin/../../lib/gcc/pic32c/8.3.1/thumb/v6-m/nofp\libgcc.a(_muldi3.o)
 .debug_info    0x000000000003f9e6      0x193 c:/program files/microchip/xc32/v4.60/bin/bin/../../lib/gcc/pic32c/8.3.1/thumb/v6-m/nofp\libgcc.a(_udivmoddi4.o)
 .debug_info    0x000000000003fb79       0xd5 c:/program files/microchip/xc32/v4.60/bin/bin/../../lib/gcc/pic32c/8.3.1/thumb/v6-m/nofp\libgcc.a(bpabi.o)
 .debug_info    0x000000000003fc4e       0x26 c:/program files/microchip/xc32/v4.60/bin/bin/../../lib/gcc/pic32c/8.3.1/thumb/v6-m/nofp\libgcc.a(_lshrdi3.o)
 .debug_info    0x000000000003fc74       0x26 c:/program files/microchip/xc32/v4.60/bin/bin/../../lib/gcc/pic32c/8.3.1/thumb/v6-m/nofp\libgcc.a(_ashldi3.o)
 .debug_info    0x000000000003fc9a       0x26 c:/program files/microchip/xc32/v4.60/bin/bin/../../lib/gcc/pic32c/8.3.1/thumb/v6-m/nofp\libgcc.a(_clzdi2.o)
 .debug_info    0x000000000003fcc0      0x2e1 c:/program files/microchip/xc32/v4.60/bin/bin/../../lib/gcc/pic32c/8.3.1/thumb/v6-m/nofp\libgcc.a(_divdi3.o)
 .debug_info    0x000000000003ffa1       0x26 c:/program files/microchip/xc32/v4.60/bin/bin/../../lib/gcc/pic32c/8.3.1/thumb/v6-m/nofp\libgcc.a(_clzsi2.o)
 .debug_info    0x000000000003ffc7       0x3f c:/program files/microchip/xc32/v4.60/bin/bin/../../lib/gcc/pic32c/8.3.1/../../../../pic32c/lib/thumb/v6-m/nofp\libpic32c.a(close.o)
 .debug_info    0x0000000000040006       0x3f c:/program files/microchip/xc32/v4.60/bin/bin/../../lib/gcc/pic32c/8.3.1/../../../../pic32c/lib/thumb/v6-m/nofp\libpic32c.a(lseek.o)
 .debug_info    0x0000000000040045       0x6a c:/program files/microchip/xc32/v4.60/bin/bin/../../lib/gcc/pic32c/8.3.1/../../../../pic32c/lib/thumb/v6-m/nofp\libpic32c.a(sbrk.o)
 .debug_info    0x00000000000400af       0xbd c:/program files/microchip/xc32/v4.60/bin/bin/../../lib/gcc/pic32c/8.3.1/../../../../pic32c/lib/thumb/v6-m/nofp\libc-size-musl.a(strcpy.o)
 .debug_info    0x000000000004016c       0xac c:/program files/microchip/xc32/v4.60/bin/bin/../../lib/gcc/pic32c/8.3.1/../../../../pic32c/lib/thumb/v6-m/nofp\libc-size-musl.a(stpcpy.o)
 .debug_info    0x0000000000040218       0x3f c:/program files/microchip/xc32/v4.60/bin/bin/../../lib/gcc/pic32c/8.3.1/../../../../pic32c/lib/thumb/v6-m/nofp\libpic32c.a(pic32_data_init_clear.o)
 .debug_info    0x0000000000040257       0x40 c:/program files/microchip/xc32/v4.60/bin/bin/../../lib/gcc/pic32c/8.3.1/../../../../pic32c/lib/thumb/v6-m/nofp\libpic32c.a(pic32_data_init_copy.o)

.debug_abbrev   0x0000000000000000     0xc98e
 .debug_abbrev  0x0000000000000000      0x2b2 build/SAMD21_IOT_WG_ICM42688/debug/_ext/2048461350/icm42688_sensor.o
 .debug_abbrev  0x00000000000002b2      0x50e build/SAMD21_IOT_WG_ICM42688/debug/_ext/1660664302/drv_spi.o
 .debug_abbrev  0x00000000000007c0       0xb1 build/SAMD21_IOT_WG_ICM42688/debug/_ext/1164161090/wdrv_winc_gpio.o
 .debug_abbrev  0x0000000000000871       0xa1 build/SAMD21_IOT_WG_ICM42688/debug/_ext/1164161090/wdrv_winc_eint.o
 .debug_abbrev  0x0000000000000912      0x2cc build/SAMD21_IOT_WG_ICM42688/debug/_ext/101005277/wdrv_winc_spi.o
 .debug_abbrev  0x0000000000000bde       0xf9 build/SAMD21_IOT_WG_ICM42688/debug/_ext/90265895/nm_common.o
 .debug_abbrev  0x0000000000000cd7      0x323 build/SAMD21_IOT_WG_ICM42688/debug/_ext/121554788/m2m_ssl.o
 .debug_abbrev  0x0000000000000ffa      0x522 build/SAMD21_IOT_WG_ICM42688/debug/_ext/121554788/m2m_hif.o
 .debug_abbrev  0x000000000000151c      0x49b build/SAMD21_IOT_WG_ICM42688/debug/_ext/121554788/m2m_wifi.o
 .debug_abbrev  0x00000000000019b7      0x400 build/SAMD21_IOT_WG_ICM42688/debug/_ext/121554788/nmspi.o
 .debug_abbrev  0x0000000000001db7      0x268 build/SAMD21_IOT_WG_ICM42688/debug/_ext/121554788/nmdrv.o
 .debug_abbrev  0x000000000000201f      0x2bd build/SAMD21_IOT_WG_ICM42688/debug/_ext/121554788/m2m_ota.o
 .debug_abbrev  0x00000000000022dc      0x2ab build/SAMD21_IOT_WG_ICM42688/debug/_ext/121554788/nmasic.o
 .debug_abbrev  0x0000000000002587      0x23d build/SAMD21_IOT_WG_ICM42688/debug/_ext/121554788/nmbus.o
 .debug_abbrev  0x00000000000027c4      0x43a build/SAMD21_IOT_WG_ICM42688/debug/_ext/548032175/socket.o
 .debug_abbrev  0x0000000000002bfe       0x9c build/SAMD21_IOT_WG_ICM42688/debug/_ext/548032175/inet_addr.o
 .debug_abbrev  0x0000000000002c9a       0xd9 build/SAMD21_IOT_WG_ICM42688/debug/_ext/548032175/inet_ntop.o
 .debug_abbrev  0x0000000000002d73       0xfd build/SAMD21_IOT_WG_ICM42688/debug/_ext/609036575/flexible_flash.o
 .debug_abbrev  0x0000000000002e70      0x2fa build/SAMD21_IOT_WG_ICM42688/debug/_ext/609036575/spi_flash.o
 .debug_abbrev  0x000000000000316a       0xdd build/SAMD21_IOT_WG_ICM42688/debug/_ext/1784303044/wdrv_winc_osal.o
 .debug_abbrev  0x0000000000003247      0x32f build/SAMD21_IOT_WG_ICM42688/debug/_ext/907429946/wdrv_winc_sta.o
 .debug_abbrev  0x0000000000003576      0x386 build/SAMD21_IOT_WG_ICM42688/debug/_ext/907429946/wdrv_winc_socket.o
 .debug_abbrev  0x00000000000038fc      0x28e build/SAMD21_IOT_WG_ICM42688/debug/_ext/907429946/wdrv_winc_systime.o
 .debug_abbrev  0x0000000000003b8a      0x275 build/SAMD21_IOT_WG_ICM42688/debug/_ext/907429946/wdrv_winc_authctx.o
 .debug_abbrev  0x0000000000003dff      0x3d2 build/SAMD21_IOT_WG_ICM42688/debug/_ext/907429946/wdrv_winc_host_file.o
 .debug_abbrev  0x00000000000041d1      0x513 build/SAMD21_IOT_WG_ICM42688/debug/_ext/907429946/wdrv_winc.o
 .debug_abbrev  0x00000000000046e4      0x24f build/SAMD21_IOT_WG_ICM42688/debug/_ext/907429946/wdrv_winc_bssctx.o
 .debug_abbrev  0x0000000000004933      0x14a build/SAMD21_IOT_WG_ICM42688/debug/_ext/1750425231/plib_clock.o
 .debug_abbrev  0x0000000000004a7d      0x2ff build/SAMD21_IOT_WG_ICM42688/debug/_ext/1580516298/plib_dmac.o
 .debug_abbrev  0x0000000000004d7c      0x19b build/SAMD21_IOT_WG_ICM42688/debug/_ext/503204096/plib_eic.o
 .debug_abbrev  0x0000000000004f17      0x302 build/SAMD21_IOT_WG_ICM42688/debug/_ext/1580823105/plib_nvic.o
 .debug_abbrev  0x0000000000005219      0x1a4 build/SAMD21_IOT_WG_ICM42688/debug/_ext/11470383/plib_nvmctrl.o
 .debug_abbrev  0x00000000000053bd      0x1e6 build/SAMD21_IOT_WG_ICM42688/debug/_ext/1580876256/plib_port.o
 .debug_abbrev  0x00000000000055a3      0x25a build/SAMD21_IOT_WG_ICM42688/debug/_ext/1014017276/plib_sercom0_spi_master.o
 .debug_abbrev  0x00000000000057fd      0x2fe build/SAMD21_IOT_WG_ICM42688/debug/_ext/1014017276/plib_sercom2_spi_master.o
 .debug_abbrev  0x0000000000005afb      0x2fa build/SAMD21_IOT_WG_ICM42688/debug/_ext/177673482/plib_sercom5_usart.o
 .debug_abbrev  0x0000000000005df5      0x10e build/SAMD21_IOT_WG_ICM42688/debug/_ext/223004715/plib_systick.o
 .debug_abbrev  0x0000000000005f03      0x1bc build/SAMD21_IOT_WG_ICM42688/debug/_ext/399410062/plib_tc3.o
 .debug_abbrev  0x00000000000060bf      0x1bc build/SAMD21_IOT_WG_ICM42688/debug/_ext/399410062/plib_tc4.o
 .debug_abbrev  0x000000000000627b       0xe3 build/SAMD21_IOT_WG_ICM42688/debug/_ext/1357625803/xc32_monitor.o
 .debug_abbrev  0x000000000000635e       0xfb build/SAMD21_IOT_WG_ICM42688/debug/_ext/1584719636/sys_dma.o
 .debug_abbrev  0x0000000000006459      0x260 build/SAMD21_IOT_WG_ICM42688/debug/_ext/1318297016/sys_int.o
 .debug_abbrev  0x00000000000066b9      0x565 build/SAMD21_IOT_WG_ICM42688/debug/_ext/386530258/sys_time.o
 .debug_abbrev  0x0000000000006c1e      0x294 build/SAMD21_IOT_WG_ICM42688/debug/_ext/1832905403/initialization.o
 .debug_abbrev  0x0000000000006eb2       0xe3 build/SAMD21_IOT_WG_ICM42688/debug/_ext/1832905403/interrupts.o
 .debug_abbrev  0x0000000000006f95       0x64 build/SAMD21_IOT_WG_ICM42688/debug/_ext/1832905403/exceptions.o
 .debug_abbrev  0x0000000000006ff9      0x118 build/SAMD21_IOT_WG_ICM42688/debug/_ext/1832905403/startup_xc32.o
 .debug_abbrev  0x0000000000007111       0x74 build/SAMD21_IOT_WG_ICM42688/debug/_ext/1832905403/tasks.o
 .debug_abbrev  0x0000000000007185      0x47c build/SAMD21_IOT_WG_ICM42688/debug/_ext/1341251756/Icm426xxDriver_HL.o
 .debug_abbrev  0x0000000000007601      0x23d build/SAMD21_IOT_WG_ICM42688/debug/_ext/1341251756/Icm426xxTransport.o
 .debug_abbrev  0x000000000000783e      0x46a build/SAMD21_IOT_WG_ICM42688/debug/_ext/1360937237/main.o
 .debug_abbrev  0x0000000000007ca8      0x213 build/SAMD21_IOT_WG_ICM42688/debug/_ext/1360937237/ringbuffer.o
 .debug_abbrev  0x0000000000007ebb      0x17b build/SAMD21_IOT_WG_ICM42688/debug/_ext/1360937237/app.o
 .debug_abbrev  0x0000000000008036      0x31d build/SAMD21_IOT_WG_ICM42688/debug/_ext/1360937237/ws2812.o
 .debug_abbrev  0x0000000000008353      0x2c6 build/SAMD21_IOT_WG_ICM42688/debug/_ext/1360937237/winc1500_udp_client.o
 .debug_abbrev  0x0000000000008619       0x44 c:/program files/microchip/xc32/v4.60/bin/bin/../../lib/gcc/pic32c/8.3.1/../../../../pic32c/lib/thumb/v6-m/nofp\libpic32c.a(data_init.o)
 .debug_abbrev  0x000000000000865d       0xbb c:/program files/microchip/xc32/v4.60/bin/bin/../../lib/gcc/pic32c/8.3.1/../../../../pic32c/lib/thumb/v6-m/nofp\libc-size-musl.a(memcpy.o)
 .debug_abbrev  0x0000000000008718       0xa2 c:/program files/microchip/xc32/v4.60/bin/bin/../../lib/gcc/pic32c/8.3.1/../../../../pic32c/lib/thumb/v6-m/nofp\libc-size-musl.a(memset.o)
 .debug_abbrev  0x00000000000087ba       0x91 c:/program files/microchip/xc32/v4.60/bin/bin/../../lib/gcc/pic32c/8.3.1/../../../../pic32c/lib/thumb/v6-m/nofp\libc-size-musl.a(strlen.o)
 .debug_abbrev  0x000000000000884b       0xad c:/program files/microchip/xc32/v4.60/bin/bin/../../lib/gcc/pic32c/8.3.1/../../../../pic32c/lib/thumb/v6-m/nofp\libc-size-musl.a(strchr.o)
 .debug_abbrev  0x00000000000088f8       0xbc c:/program files/microchip/xc32/v4.60/bin/bin/../../lib/gcc/pic32c/8.3.1/../../../../pic32c/lib/thumb/v6-m/nofp\libc-size-musl.a(strchrnul.o)
 .debug_abbrev  0x00000000000089b4       0xb1 c:/program files/microchip/xc32/v4.60/bin/bin/../../lib/gcc/pic32c/8.3.1/../../../../pic32c/lib/thumb/v6-m/nofp\libc-size-musl.a(strnlen.o)
 .debug_abbrev  0x0000000000008a65       0xb1 c:/program files/microchip/xc32/v4.60/bin/bin/../../lib/gcc/pic32c/8.3.1/../../../../pic32c/lib/thumb/v6-m/nofp\libc-size-musl.a(memchr.o)
 .debug_abbrev  0x0000000000008b16       0xc0 c:/program files/microchip/xc32/v4.60/bin/bin/../../lib/gcc/pic32c/8.3.1/../../../../pic32c/lib/thumb/v6-m/nofp\liblmalloc-musl.a(lite_calloc.o)
 .debug_abbrev  0x0000000000008bd6      0x18b c:/program files/microchip/xc32/v4.60/bin/bin/../../lib/gcc/pic32c/8.3.1/../../../../pic32c/lib/thumb/v6-m/nofp\liblmalloc-musl.a(lite_free.o)
 .debug_abbrev  0x0000000000008d61      0x117 c:/program files/microchip/xc32/v4.60/bin/bin/../../lib/gcc/pic32c/8.3.1/../../../../pic32c/lib/thumb/v6-m/nofp\liblmalloc-musl.a(lite_malloc.o)
 .debug_abbrev  0x0000000000008e78      0x133 c:/program files/microchip/xc32/v4.60/bin/bin/../../lib/gcc/pic32c/8.3.1/../../../../pic32c/lib/thumb/v6-m/nofp\libg-musl.a(__libc_start_main.o)
 .debug_abbrev  0x0000000000008fab       0x39 c:/program files/microchip/xc32/v4.60/bin/bin/../../lib/gcc/pic32c/8.3.1/../../../../pic32c/lib/thumb/v6-m/nofp\libg-musl.a(__errno_location.o)
 .debug_abbrev  0x0000000000008fe4       0xd4 c:/program files/microchip/xc32/v4.60/bin/bin/../../lib/gcc/pic32c/8.3.1/../../../../pic32c/lib/thumb/v6-m/nofp\libg-musl.a(libc.o)
 .debug_abbrev  0x00000000000090b8       0xc4 c:/program files/microchip/xc32/v4.60/bin/bin/../../lib/gcc/pic32c/8.3.1/../../../../pic32c/lib/thumb/v6-m/nofp\libg-musl.a(expand_heap.o)
 .debug_abbrev  0x000000000000917c      0x142 c:/program files/microchip/xc32/v4.60/bin/bin/../../lib/gcc/pic32c/8.3.1/../../../../pic32c/lib/thumb/v6-m/nofp\libg-musl.a(__sio_printf_cdeEfFgGnsu.o)
 .debug_abbrev  0x00000000000092be      0x161 c:/program files/microchip/xc32/v4.60/bin/bin/../../lib/gcc/pic32c/8.3.1/../../../../pic32c/lib/thumb/v6-m/nofp\libg-musl.a(__fmt_d.o)
 .debug_abbrev  0x000000000000941f      0x1e3 c:/program files/microchip/xc32/v4.60/bin/bin/../../lib/gcc/pic32c/8.3.1/../../../../pic32c/lib/thumb/v6-m/nofp\libg-musl.a(__fmt_fp.o)
 .debug_abbrev  0x0000000000009602      0x15e c:/program files/microchip/xc32/v4.60/bin/bin/../../lib/gcc/pic32c/8.3.1/../../../../pic32c/lib/thumb/v6-m/nofp\libg-musl.a(__fmt_s.o)
 .debug_abbrev  0x0000000000009760      0x161 c:/program files/microchip/xc32/v4.60/bin/bin/../../lib/gcc/pic32c/8.3.1/../../../../pic32c/lib/thumb/v6-m/nofp\libg-musl.a(__fmt_u.o)
 .debug_abbrev  0x00000000000098c1       0xdc c:/program files/microchip/xc32/v4.60/bin/bin/../../lib/gcc/pic32c/8.3.1/../../../../pic32c/lib/thumb/v6-m/nofp\libg-musl.a(__pop_float.o)
 .debug_abbrev  0x000000000000999d       0xdc c:/program files/microchip/xc32/v4.60/bin/bin/../../lib/gcc/pic32c/8.3.1/../../../../pic32c/lib/thumb/v6-m/nofp\libg-musl.a(__pop_int.o)
 .debug_abbrev  0x0000000000009a79       0xdc c:/program files/microchip/xc32/v4.60/bin/bin/../../lib/gcc/pic32c/8.3.1/../../../../pic32c/lib/thumb/v6-m/nofp\libg-musl.a(__pop_ptr.o)
 .debug_abbrev  0x0000000000009b55      0x317 c:/program files/microchip/xc32/v4.60/bin/bin/../../lib/gcc/pic32c/8.3.1/../../../../pic32c/lib/thumb/v6-m/nofp\libg-musl.a(__printf_core.o)
 .debug_abbrev  0x0000000000009e6c      0x1b3 c:/program files/microchip/xc32/v4.60/bin/bin/../../lib/gcc/pic32c/8.3.1/../../../../pic32c/lib/thumb/v6-m/nofp\libg-musl.a(stdin.o)
 .debug_abbrev  0x000000000000a01f      0x145 c:/program files/microchip/xc32/v4.60/bin/bin/../../lib/gcc/pic32c/8.3.1/../../../../pic32c/lib/thumb/v6-m/nofp\libg-musl.a(stdout.o)
 .debug_abbrev  0x000000000000a164      0x159 c:/program files/microchip/xc32/v4.60/bin/bin/../../lib/gcc/pic32c/8.3.1/../../../../pic32c/lib/thumb/v6-m/nofp\libg-musl.a(puts.o)
 .debug_abbrev  0x000000000000a2bd       0xa8 c:/program files/microchip/xc32/v4.60/bin/bin/../../lib/gcc/pic32c/8.3.1/../../../../pic32c/lib/thumb/v6-m/nofp\libg-musl.a(setbuf.o)
 .debug_abbrev  0x000000000000a365       0xc6 c:/program files/microchip/xc32/v4.60/bin/bin/../../lib/gcc/pic32c/8.3.1/../../../../pic32c/lib/thumb/v6-m/nofp\libg-musl.a(atoi.o)
 .debug_abbrev  0x000000000000a42b       0xdb c:/program files/microchip/xc32/v4.60/bin/bin/../../lib/gcc/pic32c/8.3.1/../../../../pic32c/lib/thumb/v6-m/nofp\libg-musl.a(gmtime.o)
 .debug_abbrev  0x000000000000a506       0xdd c:/program files/microchip/xc32/v4.60/bin/bin/../../lib/gcc/pic32c/8.3.1/../../../../pic32c/lib/thumb/v6-m/nofp\libg-musl.a(gmtime_r.o)
 .debug_abbrev  0x000000000000a5e3      0x130 c:/program files/microchip/xc32/v4.60/bin/bin/../../lib/gcc/pic32c/8.3.1/../../../../pic32c/lib/thumb/v6-m/nofp\libg-musl.a(mktime.o)
 .debug_abbrev  0x000000000000a713       0xf4 c:/program files/microchip/xc32/v4.60/bin/bin/../../lib/gcc/pic32c/8.3.1/../../../../pic32c/lib/thumb/v6-m/nofp\libg-musl.a(tolower.o)
 .debug_abbrev  0x000000000000a807       0x62 c:/program files/microchip/xc32/v4.60/bin/bin/../../lib/gcc/pic32c/8.3.1/../../../../pic32c/lib/thumb/v6-m/nofp\libg-musl.a(__environ.o)
 .debug_abbrev  0x000000000000a869      0x132 c:/program files/microchip/xc32/v4.60/bin/bin/../../lib/gcc/pic32c/8.3.1/../../../../pic32c/lib/thumb/v6-m/nofp\libg-musl.a(__int_vfprintf.o)
 .debug_abbrev  0x000000000000a99b      0x146 c:/program files/microchip/xc32/v4.60/bin/bin/../../lib/gcc/pic32c/8.3.1/../../../../pic32c/lib/thumb/v6-m/nofp\libg-musl.a(fputs.o)
 .debug_abbrev  0x000000000000aae1       0xf3 c:/program files/microchip/xc32/v4.60/bin/bin/../../lib/gcc/pic32c/8.3.1/../../../../pic32c/lib/thumb/v6-m/nofp\libg-musl.a(__cvt_u.o)
 .debug_abbrev  0x000000000000abd4      0x16c c:/program files/microchip/xc32/v4.60/bin/bin/../../lib/gcc/pic32c/8.3.1/../../../../pic32c/lib/thumb/v6-m/nofp\libg-musl.a(__stdio_read.o)
 .debug_abbrev  0x000000000000ad40       0xf8 c:/program files/microchip/xc32/v4.60/bin/bin/../../lib/gcc/pic32c/8.3.1/../../../../pic32c/lib/thumb/v6-m/nofp\libg-musl.a(__towrite_rw.o)
 .debug_abbrev  0x000000000000ae38      0x13c c:/program files/microchip/xc32/v4.60/bin/bin/../../lib/gcc/pic32c/8.3.1/../../../../pic32c/lib/thumb/v6-m/nofp\libg-musl.a(fwrite.o)
 .debug_abbrev  0x000000000000af74      0x122 c:/program files/microchip/xc32/v4.60/bin/bin/../../lib/gcc/pic32c/8.3.1/../../../../pic32c/lib/thumb/v6-m/nofp\libg-musl.a(putc.o)
 .debug_abbrev  0x000000000000b096      0x135 c:/program files/microchip/xc32/v4.60/bin/bin/../../lib/gcc/pic32c/8.3.1/../../../../pic32c/lib/thumb/v6-m/nofp\libg-musl.a(setvbuf.o)
 .debug_abbrev  0x000000000000b1cb      0x10c c:/program files/microchip/xc32/v4.60/bin/bin/../../lib/gcc/pic32c/8.3.1/../../../../pic32c/lib/thumb/v6-m/nofp\libg-musl.a(__tm_to_secs.o)
 .debug_abbrev  0x000000000000b2d7       0x96 c:/program files/microchip/xc32/v4.60/bin/bin/../../lib/gcc/pic32c/8.3.1/../../../../pic32c/lib/thumb/v6-m/nofp\libg-musl.a(__year_to_secs.o)
 .debug_abbrev  0x000000000000b36d       0xc7 c:/program files/microchip/xc32/v4.60/bin/bin/../../lib/gcc/pic32c/8.3.1/../../../../pic32c/lib/thumb/v6-m/nofp\libg-musl.a(__secs_to_tm.o)
 .debug_abbrev  0x000000000000b434       0xf7 c:/program files/microchip/xc32/v4.60/bin/bin/../../lib/gcc/pic32c/8.3.1/../../../../pic32c/lib/thumb/v6-m/nofp\libg-musl.a(readv.o)
 .debug_abbrev  0x000000000000b52b       0x65 c:/program files/microchip/xc32/v4.60/bin/bin/../../lib/gcc/pic32c/8.3.1/../../../../pic32c/lib/thumb/v6-m/nofp\libg-musl.a(__init_stdio.o)
 .debug_abbrev  0x000000000000b590      0x177 c:/program files/microchip/xc32/v4.60/bin/bin/../../lib/gcc/pic32c/8.3.1/../../../../pic32c/lib/thumb/v6-m/nofp\libg-musl.a(__out.o)
 .debug_abbrev  0x000000000000b707      0x109 c:/program files/microchip/xc32/v4.60/bin/bin/../../lib/gcc/pic32c/8.3.1/../../../../pic32c/lib/thumb/v6-m/nofp\libg-musl.a(__putc.o)
 .debug_abbrev  0x000000000000b810      0x17e c:/program files/microchip/xc32/v4.60/bin/bin/../../lib/gcc/pic32c/8.3.1/../../../../pic32c/lib/thumb/v6-m/nofp\libg-musl.a(__stderr.o)
 .debug_abbrev  0x000000000000b98e      0x14f c:/program files/microchip/xc32/v4.60/bin/bin/../../lib/gcc/pic32c/8.3.1/../../../../pic32c/lib/thumb/v6-m/nofp\libg-musl.a(__stdio_close.o)
 .debug_abbrev  0x000000000000badd      0x1bd c:/program files/microchip/xc32/v4.60/bin/bin/../../lib/gcc/pic32c/8.3.1/../../../../pic32c/lib/thumb/v6-m/nofp\libg-musl.a(__stdio_write.o)
 .debug_abbrev  0x000000000000bc9a      0x17e c:/program files/microchip/xc32/v4.60/bin/bin/../../lib/gcc/pic32c/8.3.1/../../../../pic32c/lib/thumb/v6-m/nofp\libg-musl.a(__stdout.o)
 .debug_abbrev  0x000000000000be18      0x114 c:/program files/microchip/xc32/v4.60/bin/bin/../../lib/gcc/pic32c/8.3.1/../../../../pic32c/lib/thumb/v6-m/nofp\libg-musl.a(__towrite.o)
 .debug_abbrev  0x000000000000bf2c       0xad c:/program files/microchip/xc32/v4.60/bin/bin/../../lib/gcc/pic32c/8.3.1/../../../../pic32c/lib/thumb/v6-m/nofp\libg-musl.a(__month_to_secs.o)
 .debug_abbrev  0x000000000000bfd9       0xf7 c:/program files/microchip/xc32/v4.60/bin/bin/../../lib/gcc/pic32c/8.3.1/../../../../pic32c/lib/thumb/v6-m/nofp\libg-musl.a(writev.o)
 .debug_abbrev  0x000000000000c0d0      0x141 c:/program files/microchip/xc32/v4.60/bin/bin/../../lib/gcc/pic32c/8.3.1/../../../../pic32c/lib/thumb/v6-m/nofp\libg-musl.a(__overflow.o)
 .debug_abbrev  0x000000000000c211      0x121 c:/program files/microchip/xc32/v4.60/bin/bin/../../lib/gcc/pic32c/8.3.1/../../../../pic32c/lib/thumb/v6-m/nofp\libg-musl.a(__fwrite.o)
 .debug_abbrev  0x000000000000c332       0x14 c:/program files/microchip/xc32/v4.60/bin/bin/../../lib/gcc/pic32c/8.3.1/thumb/v6-m/nofp\libgcc.a(_udivsi3.o)
 .debug_abbrev  0x000000000000c346       0x14 c:/program files/microchip/xc32/v4.60/bin/bin/../../lib/gcc/pic32c/8.3.1/thumb/v6-m/nofp\libgcc.a(_divsi3.o)
 .debug_abbrev  0x000000000000c35a       0x14 c:/program files/microchip/xc32/v4.60/bin/bin/../../lib/gcc/pic32c/8.3.1/thumb/v6-m/nofp\libgcc.a(_dvmd_tls.o)
 .debug_abbrev  0x000000000000c36e       0x14 c:/program files/microchip/xc32/v4.60/bin/bin/../../lib/gcc/pic32c/8.3.1/thumb/v6-m/nofp\libgcc.a(_aeabi_ldivmod.o)
 .debug_abbrev  0x000000000000c382       0x14 c:/program files/microchip/xc32/v4.60/bin/bin/../../lib/gcc/pic32c/8.3.1/thumb/v6-m/nofp\libgcc.a(_aeabi_uldivmod.o)
 .debug_abbrev  0x000000000000c396      0x10b c:/program files/microchip/xc32/v4.60/bin/bin/../../lib/gcc/pic32c/8.3.1/thumb/v6-m/nofp\libgcc.a(_muldi3.o)
 .debug_abbrev  0x000000000000c4a1       0x99 c:/program files/microchip/xc32/v4.60/bin/bin/../../lib/gcc/pic32c/8.3.1/thumb/v6-m/nofp\libgcc.a(_udivmoddi4.o)
 .debug_abbrev  0x000000000000c53a       0xaa c:/program files/microchip/xc32/v4.60/bin/bin/../../lib/gcc/pic32c/8.3.1/thumb/v6-m/nofp\libgcc.a(bpabi.o)
 .debug_abbrev  0x000000000000c5e4       0x14 c:/program files/microchip/xc32/v4.60/bin/bin/../../lib/gcc/pic32c/8.3.1/thumb/v6-m/nofp\libgcc.a(_lshrdi3.o)
 .debug_abbrev  0x000000000000c5f8       0x14 c:/program files/microchip/xc32/v4.60/bin/bin/../../lib/gcc/pic32c/8.3.1/thumb/v6-m/nofp\libgcc.a(_ashldi3.o)
 .debug_abbrev  0x000000000000c60c       0x14 c:/program files/microchip/xc32/v4.60/bin/bin/../../lib/gcc/pic32c/8.3.1/thumb/v6-m/nofp\libgcc.a(_clzdi2.o)
 .debug_abbrev  0x000000000000c620      0x14e c:/program files/microchip/xc32/v4.60/bin/bin/../../lib/gcc/pic32c/8.3.1/thumb/v6-m/nofp\libgcc.a(_divdi3.o)
 .debug_abbrev  0x000000000000c76e       0x14 c:/program files/microchip/xc32/v4.60/bin/bin/../../lib/gcc/pic32c/8.3.1/thumb/v6-m/nofp\libgcc.a(_clzsi2.o)
 .debug_abbrev  0x000000000000c782       0x2e c:/program files/microchip/xc32/v4.60/bin/bin/../../lib/gcc/pic32c/8.3.1/../../../../pic32c/lib/thumb/v6-m/nofp\libpic32c.a(close.o)
 .debug_abbrev  0x000000000000c7b0       0x2e c:/program files/microchip/xc32/v4.60/bin/bin/../../lib/gcc/pic32c/8.3.1/../../../../pic32c/lib/thumb/v6-m/nofp\libpic32c.a(lseek.o)
 .debug_abbrev  0x000000000000c7de       0x44 c:/program files/microchip/xc32/v4.60/bin/bin/../../lib/gcc/pic32c/8.3.1/../../../../pic32c/lib/thumb/v6-m/nofp\libpic32c.a(sbrk.o)
 .debug_abbrev  0x000000000000c822       0xa2 c:/program files/microchip/xc32/v4.60/bin/bin/../../lib/gcc/pic32c/8.3.1/../../../../pic32c/lib/thumb/v6-m/nofp\libc-size-musl.a(strcpy.o)
 .debug_abbrev  0x000000000000c8c4       0x6e c:/program files/microchip/xc32/v4.60/bin/bin/../../lib/gcc/pic32c/8.3.1/../../../../pic32c/lib/thumb/v6-m/nofp\libc-size-musl.a(stpcpy.o)
 .debug_abbrev  0x000000000000c932       0x2e c:/program files/microchip/xc32/v4.60/bin/bin/../../lib/gcc/pic32c/8.3.1/../../../../pic32c/lib/thumb/v6-m/nofp\libpic32c.a(pic32_data_init_clear.o)
 .debug_abbrev  0x000000000000c960       0x2e c:/program files/microchip/xc32/v4.60/bin/bin/../../lib/gcc/pic32c/8.3.1/../../../../pic32c/lib/thumb/v6-m/nofp\libpic32c.a(pic32_data_init_copy.o)

.debug_loc      0x0000000000000000    0x28dcb
 .debug_loc     0x0000000000000000      0x44d build/SAMD21_IOT_WG_ICM42688/debug/_ext/2048461350/icm42688_sensor.o
 .debug_loc     0x000000000000044d     0x257f build/SAMD21_IOT_WG_ICM42688/debug/_ext/1660664302/drv_spi.o
 .debug_loc     0x00000000000029cc       0xbc build/SAMD21_IOT_WG_ICM42688/debug/_ext/1164161090/wdrv_winc_eint.o
 .debug_loc     0x0000000000002a88      0x733 build/SAMD21_IOT_WG_ICM42688/debug/_ext/101005277/wdrv_winc_spi.o
 .debug_loc     0x00000000000031bb       0xa8 build/SAMD21_IOT_WG_ICM42688/debug/_ext/90265895/nm_common.o
 .debug_loc     0x0000000000003263      0xbd4 build/SAMD21_IOT_WG_ICM42688/debug/_ext/121554788/m2m_ssl.o
 .debug_loc     0x0000000000003e37      0xc5c build/SAMD21_IOT_WG_ICM42688/debug/_ext/121554788/m2m_hif.o
 .debug_loc     0x0000000000004a93     0x3dba build/SAMD21_IOT_WG_ICM42688/debug/_ext/121554788/m2m_wifi.o
 .debug_loc     0x000000000000884d     0x1a6c build/SAMD21_IOT_WG_ICM42688/debug/_ext/121554788/nmspi.o
 .debug_loc     0x000000000000a2b9      0x7f5 build/SAMD21_IOT_WG_ICM42688/debug/_ext/121554788/nmdrv.o
 .debug_loc     0x000000000000aaae      0xf00 build/SAMD21_IOT_WG_ICM42688/debug/_ext/121554788/m2m_ota.o
 .debug_loc     0x000000000000b9ae      0xd2c build/SAMD21_IOT_WG_ICM42688/debug/_ext/121554788/nmasic.o
 .debug_loc     0x000000000000c6da      0x5fa build/SAMD21_IOT_WG_ICM42688/debug/_ext/121554788/nmbus.o
 .debug_loc     0x000000000000ccd4     0x222c build/SAMD21_IOT_WG_ICM42688/debug/_ext/548032175/socket.o
 .debug_loc     0x000000000000ef00      0x1da build/SAMD21_IOT_WG_ICM42688/debug/_ext/548032175/inet_addr.o
 .debug_loc     0x000000000000f0da      0x2cb build/SAMD21_IOT_WG_ICM42688/debug/_ext/548032175/inet_ntop.o
 .debug_loc     0x000000000000f3a5      0x27a build/SAMD21_IOT_WG_ICM42688/debug/_ext/609036575/flexible_flash.o
 .debug_loc     0x000000000000f61f      0xfb3 build/SAMD21_IOT_WG_ICM42688/debug/_ext/609036575/spi_flash.o
 .debug_loc     0x00000000000105d2       0x51 build/SAMD21_IOT_WG_ICM42688/debug/_ext/1784303044/wdrv_winc_osal.o
 .debug_loc     0x0000000000010623      0x8a6 build/SAMD21_IOT_WG_ICM42688/debug/_ext/907429946/wdrv_winc_sta.o
 .debug_loc     0x0000000000010ec9     0x1540 build/SAMD21_IOT_WG_ICM42688/debug/_ext/907429946/wdrv_winc_socket.o
 .debug_loc     0x0000000000012409      0x558 build/SAMD21_IOT_WG_ICM42688/debug/_ext/907429946/wdrv_winc_systime.o
 .debug_loc     0x0000000000012961      0xd6b build/SAMD21_IOT_WG_ICM42688/debug/_ext/907429946/wdrv_winc_authctx.o
 .debug_loc     0x00000000000136cc     0x18d5 build/SAMD21_IOT_WG_ICM42688/debug/_ext/907429946/wdrv_winc_host_file.o
 .debug_loc     0x0000000000014fa1     0x2822 build/SAMD21_IOT_WG_ICM42688/debug/_ext/907429946/wdrv_winc.o
 .debug_loc     0x00000000000177c3      0x597 build/SAMD21_IOT_WG_ICM42688/debug/_ext/907429946/wdrv_winc_bssctx.o
 .debug_loc     0x0000000000017d5a       0x4c build/SAMD21_IOT_WG_ICM42688/debug/_ext/1750425231/plib_clock.o
 .debug_loc     0x0000000000017da6      0xb06 build/SAMD21_IOT_WG_ICM42688/debug/_ext/1580516298/plib_dmac.o
 .debug_loc     0x00000000000188ac       0xc1 build/SAMD21_IOT_WG_ICM42688/debug/_ext/503204096/plib_eic.o
 .debug_loc     0x000000000001896d      0x346 build/SAMD21_IOT_WG_ICM42688/debug/_ext/1580823105/plib_nvic.o
 .debug_loc     0x0000000000018cb3      0x403 build/SAMD21_IOT_WG_ICM42688/debug/_ext/11470383/plib_nvmctrl.o
 .debug_loc     0x00000000000190b6      0x27b build/SAMD21_IOT_WG_ICM42688/debug/_ext/1580876256/plib_port.o
 .debug_loc     0x0000000000019331      0x76c build/SAMD21_IOT_WG_ICM42688/debug/_ext/1014017276/plib_sercom0_spi_master.o
 .debug_loc     0x0000000000019a9d      0x80d build/SAMD21_IOT_WG_ICM42688/debug/_ext/1014017276/plib_sercom2_spi_master.o
 .debug_loc     0x000000000001a2aa      0x653 build/SAMD21_IOT_WG_ICM42688/debug/_ext/177673482/plib_sercom5_usart.o
 .debug_loc     0x000000000001a8fd      0x2d3 build/SAMD21_IOT_WG_ICM42688/debug/_ext/223004715/plib_systick.o
 .debug_loc     0x000000000001abd0       0x6f build/SAMD21_IOT_WG_ICM42688/debug/_ext/399410062/plib_tc3.o
 .debug_loc     0x000000000001ac3f       0x6f build/SAMD21_IOT_WG_ICM42688/debug/_ext/399410062/plib_tc4.o
 .debug_loc     0x000000000001acae      0x1af build/SAMD21_IOT_WG_ICM42688/debug/_ext/1357625803/xc32_monitor.o
 .debug_loc     0x000000000001ae5d      0x16d build/SAMD21_IOT_WG_ICM42688/debug/_ext/1584719636/sys_dma.o
 .debug_loc     0x000000000001afca      0x17d build/SAMD21_IOT_WG_ICM42688/debug/_ext/1318297016/sys_int.o
 .debug_loc     0x000000000001b147     0x2830 build/SAMD21_IOT_WG_ICM42688/debug/_ext/386530258/sys_time.o
 .debug_loc     0x000000000001d977       0x45 build/SAMD21_IOT_WG_ICM42688/debug/_ext/1832905403/initialization.o
 .debug_loc     0x000000000001d9bc       0x20 build/SAMD21_IOT_WG_ICM42688/debug/_ext/1832905403/startup_xc32.o
 .debug_loc     0x000000000001d9dc       0x20 build/SAMD21_IOT_WG_ICM42688/debug/_ext/1832905403/tasks.o
 .debug_loc     0x000000000001d9fc     0x4496 build/SAMD21_IOT_WG_ICM42688/debug/_ext/1341251756/Icm426xxDriver_HL.o
 .debug_loc     0x0000000000021e92      0x6df build/SAMD21_IOT_WG_ICM42688/debug/_ext/1341251756/Icm426xxTransport.o
 .debug_loc     0x0000000000022571      0x481 build/SAMD21_IOT_WG_ICM42688/debug/_ext/1360937237/main.o
 .debug_loc     0x00000000000229f2      0x909 build/SAMD21_IOT_WG_ICM42688/debug/_ext/1360937237/ringbuffer.o
 .debug_loc     0x00000000000232fb       0x40 build/SAMD21_IOT_WG_ICM42688/debug/_ext/1360937237/app.o
 .debug_loc     0x000000000002333b      0x257 build/SAMD21_IOT_WG_ICM42688/debug/_ext/1360937237/ws2812.o
 .debug_loc     0x0000000000023592      0x358 build/SAMD21_IOT_WG_ICM42688/debug/_ext/1360937237/winc1500_udp_client.o
 .debug_loc     0x00000000000238ea       0x14 c:/program files/microchip/xc32/v4.60/bin/bin/../../lib/gcc/pic32c/8.3.1/../../../../pic32c/lib/thumb/v6-m/nofp\libpic32c.a(data_init.o)
 .debug_loc     0x00000000000238fe      0x12d c:/program files/microchip/xc32/v4.60/bin/bin/../../lib/gcc/pic32c/8.3.1/../../../../pic32c/lib/thumb/v6-m/nofp\libc-size-musl.a(memcpy.o)
 .debug_loc     0x0000000000023a2b       0xcd c:/program files/microchip/xc32/v4.60/bin/bin/../../lib/gcc/pic32c/8.3.1/../../../../pic32c/lib/thumb/v6-m/nofp\libc-size-musl.a(memset.o)
 .debug_loc     0x0000000000023af8       0x81 c:/program files/microchip/xc32/v4.60/bin/bin/../../lib/gcc/pic32c/8.3.1/../../../../pic32c/lib/thumb/v6-m/nofp\libc-size-musl.a(strlen.o)
 .debug_loc     0x0000000000023b79       0x8c c:/program files/microchip/xc32/v4.60/bin/bin/../../lib/gcc/pic32c/8.3.1/../../../../pic32c/lib/thumb/v6-m/nofp\libc-size-musl.a(strchr.o)
 .debug_loc     0x0000000000023c05       0xd5 c:/program files/microchip/xc32/v4.60/bin/bin/../../lib/gcc/pic32c/8.3.1/../../../../pic32c/lib/thumb/v6-m/nofp\libc-size-musl.a(strchrnul.o)
 .debug_loc     0x0000000000023cda       0xa6 c:/program files/microchip/xc32/v4.60/bin/bin/../../lib/gcc/pic32c/8.3.1/../../../../pic32c/lib/thumb/v6-m/nofp\libc-size-musl.a(strnlen.o)
 .debug_loc     0x0000000000023d80       0xaa c:/program files/microchip/xc32/v4.60/bin/bin/../../lib/gcc/pic32c/8.3.1/../../../../pic32c/lib/thumb/v6-m/nofp\libc-size-musl.a(memchr.o)
 .debug_loc     0x0000000000023e2a       0x99 c:/program files/microchip/xc32/v4.60/bin/bin/../../lib/gcc/pic32c/8.3.1/../../../../pic32c/lib/thumb/v6-m/nofp\liblmalloc-musl.a(lite_calloc.o)
 .debug_loc     0x0000000000023ec3      0x343 c:/program files/microchip/xc32/v4.60/bin/bin/../../lib/gcc/pic32c/8.3.1/../../../../pic32c/lib/thumb/v6-m/nofp\liblmalloc-musl.a(lite_free.o)
 .debug_loc     0x0000000000024206       0xe2 c:/program files/microchip/xc32/v4.60/bin/bin/../../lib/gcc/pic32c/8.3.1/../../../../pic32c/lib/thumb/v6-m/nofp\liblmalloc-musl.a(lite_malloc.o)
 .debug_loc     0x00000000000242e8       0x5e c:/program files/microchip/xc32/v4.60/bin/bin/../../lib/gcc/pic32c/8.3.1/../../../../pic32c/lib/thumb/v6-m/nofp\libg-musl.a(__libc_start_main.o)
 .debug_loc     0x0000000000024346       0x7c c:/program files/microchip/xc32/v4.60/bin/bin/../../lib/gcc/pic32c/8.3.1/../../../../pic32c/lib/thumb/v6-m/nofp\libg-musl.a(expand_heap.o)
 .debug_loc     0x00000000000243c2       0x61 c:/program files/microchip/xc32/v4.60/bin/bin/../../lib/gcc/pic32c/8.3.1/../../../../pic32c/lib/thumb/v6-m/nofp\libg-musl.a(__sio_printf_cdeEfFgGnsu.o)
 .debug_loc     0x0000000000024423      0x2a6 c:/program files/microchip/xc32/v4.60/bin/bin/../../lib/gcc/pic32c/8.3.1/../../../../pic32c/lib/thumb/v6-m/nofp\libg-musl.a(__fmt_d.o)
 .debug_loc     0x00000000000246c9      0xc94 c:/program files/microchip/xc32/v4.60/bin/bin/../../lib/gcc/pic32c/8.3.1/../../../../pic32c/lib/thumb/v6-m/nofp\libg-musl.a(__fmt_fp.o)
 .debug_loc     0x000000000002535d      0x144 c:/program files/microchip/xc32/v4.60/bin/bin/../../lib/gcc/pic32c/8.3.1/../../../../pic32c/lib/thumb/v6-m/nofp\libg-musl.a(__fmt_s.o)
 .debug_loc     0x00000000000254a1      0x12d c:/program files/microchip/xc32/v4.60/bin/bin/../../lib/gcc/pic32c/8.3.1/../../../../pic32c/lib/thumb/v6-m/nofp\libg-musl.a(__fmt_u.o)
 .debug_loc     0x00000000000255ce       0x6f c:/program files/microchip/xc32/v4.60/bin/bin/../../lib/gcc/pic32c/8.3.1/../../../../pic32c/lib/thumb/v6-m/nofp\libg-musl.a(__pop_float.o)
 .debug_loc     0x000000000002563d      0x34c c:/program files/microchip/xc32/v4.60/bin/bin/../../lib/gcc/pic32c/8.3.1/../../../../pic32c/lib/thumb/v6-m/nofp\libg-musl.a(__pop_int.o)
 .debug_loc     0x0000000000025989      0x1fe c:/program files/microchip/xc32/v4.60/bin/bin/../../lib/gcc/pic32c/8.3.1/../../../../pic32c/lib/thumb/v6-m/nofp\libg-musl.a(__pop_ptr.o)
 .debug_loc     0x0000000000025b87      0x6d9 c:/program files/microchip/xc32/v4.60/bin/bin/../../lib/gcc/pic32c/8.3.1/../../../../pic32c/lib/thumb/v6-m/nofp\libg-musl.a(__printf_core.o)
 .debug_loc     0x0000000000026260       0x45 c:/program files/microchip/xc32/v4.60/bin/bin/../../lib/gcc/pic32c/8.3.1/../../../../pic32c/lib/thumb/v6-m/nofp\libg-musl.a(stdin.o)
 .debug_loc     0x00000000000262a5       0x40 c:/program files/microchip/xc32/v4.60/bin/bin/../../lib/gcc/pic32c/8.3.1/../../../../pic32c/lib/thumb/v6-m/nofp\libg-musl.a(stdout.o)
 .debug_loc     0x00000000000262e5       0x6a c:/program files/microchip/xc32/v4.60/bin/bin/../../lib/gcc/pic32c/8.3.1/../../../../pic32c/lib/thumb/v6-m/nofp\libg-musl.a(puts.o)
 .debug_loc     0x000000000002634f       0x6a c:/program files/microchip/xc32/v4.60/bin/bin/../../lib/gcc/pic32c/8.3.1/../../../../pic32c/lib/thumb/v6-m/nofp\libg-musl.a(setbuf.o)
 .debug_loc     0x00000000000263b9       0xdc c:/program files/microchip/xc32/v4.60/bin/bin/../../lib/gcc/pic32c/8.3.1/../../../../pic32c/lib/thumb/v6-m/nofp\libg-musl.a(atoi.o)
 .debug_loc     0x0000000000026495       0x45 c:/program files/microchip/xc32/v4.60/bin/bin/../../lib/gcc/pic32c/8.3.1/../../../../pic32c/lib/thumb/v6-m/nofp\libg-musl.a(gmtime.o)
 .debug_loc     0x00000000000264da       0x91 c:/program files/microchip/xc32/v4.60/bin/bin/../../lib/gcc/pic32c/8.3.1/../../../../pic32c/lib/thumb/v6-m/nofp\libg-musl.a(gmtime_r.o)
 .debug_loc     0x000000000002656b       0x86 c:/program files/microchip/xc32/v4.60/bin/bin/../../lib/gcc/pic32c/8.3.1/../../../../pic32c/lib/thumb/v6-m/nofp\libg-musl.a(mktime.o)
 .debug_loc     0x00000000000265f1       0x8f c:/program files/microchip/xc32/v4.60/bin/bin/../../lib/gcc/pic32c/8.3.1/../../../../pic32c/lib/thumb/v6-m/nofp\libg-musl.a(tolower.o)
 .debug_loc     0x0000000000026680       0xb0 c:/program files/microchip/xc32/v4.60/bin/bin/../../lib/gcc/pic32c/8.3.1/../../../../pic32c/lib/thumb/v6-m/nofp\libg-musl.a(__int_vfprintf.o)
 .debug_loc     0x0000000000026730       0xb3 c:/program files/microchip/xc32/v4.60/bin/bin/../../lib/gcc/pic32c/8.3.1/../../../../pic32c/lib/thumb/v6-m/nofp\libg-musl.a(fputs.o)
 .debug_loc     0x00000000000267e3      0x1d3 c:/program files/microchip/xc32/v4.60/bin/bin/../../lib/gcc/pic32c/8.3.1/../../../../pic32c/lib/thumb/v6-m/nofp\libg-musl.a(__cvt_u.o)
 .debug_loc     0x00000000000269b6      0x107 c:/program files/microchip/xc32/v4.60/bin/bin/../../lib/gcc/pic32c/8.3.1/../../../../pic32c/lib/thumb/v6-m/nofp\libg-musl.a(__stdio_read.o)
 .debug_loc     0x0000000000026abd       0x42 c:/program files/microchip/xc32/v4.60/bin/bin/../../lib/gcc/pic32c/8.3.1/../../../../pic32c/lib/thumb/v6-m/nofp\libg-musl.a(__towrite_rw.o)
 .debug_loc     0x0000000000026aff      0x1c5 c:/program files/microchip/xc32/v4.60/bin/bin/../../lib/gcc/pic32c/8.3.1/../../../../pic32c/lib/thumb/v6-m/nofp\libg-musl.a(fwrite.o)
 .debug_loc     0x0000000000026cc4      0x13b c:/program files/microchip/xc32/v4.60/bin/bin/../../lib/gcc/pic32c/8.3.1/../../../../pic32c/lib/thumb/v6-m/nofp\libg-musl.a(putc.o)
 .debug_loc     0x0000000000026dff      0x115 c:/program files/microchip/xc32/v4.60/bin/bin/../../lib/gcc/pic32c/8.3.1/../../../../pic32c/lib/thumb/v6-m/nofp\libg-musl.a(setvbuf.o)
 .debug_loc     0x0000000000026f14      0x111 c:/program files/microchip/xc32/v4.60/bin/bin/../../lib/gcc/pic32c/8.3.1/../../../../pic32c/lib/thumb/v6-m/nofp\libg-musl.a(__tm_to_secs.o)
 .debug_loc     0x0000000000027025      0x258 c:/program files/microchip/xc32/v4.60/bin/bin/../../lib/gcc/pic32c/8.3.1/../../../../pic32c/lib/thumb/v6-m/nofp\libg-musl.a(__year_to_secs.o)
 .debug_loc     0x000000000002727d      0x2f7 c:/program files/microchip/xc32/v4.60/bin/bin/../../lib/gcc/pic32c/8.3.1/../../../../pic32c/lib/thumb/v6-m/nofp\libg-musl.a(__secs_to_tm.o)
 .debug_loc     0x0000000000027574      0x130 c:/program files/microchip/xc32/v4.60/bin/bin/../../lib/gcc/pic32c/8.3.1/../../../../pic32c/lib/thumb/v6-m/nofp\libg-musl.a(readv.o)
 .debug_loc     0x00000000000276a4       0x20 c:/program files/microchip/xc32/v4.60/bin/bin/../../lib/gcc/pic32c/8.3.1/../../../../pic32c/lib/thumb/v6-m/nofp\libg-musl.a(__init_stdio.o)
 .debug_loc     0x00000000000276c4      0x1e6 c:/program files/microchip/xc32/v4.60/bin/bin/../../lib/gcc/pic32c/8.3.1/../../../../pic32c/lib/thumb/v6-m/nofp\libg-musl.a(__out.o)
 .debug_loc     0x00000000000278aa       0xbe c:/program files/microchip/xc32/v4.60/bin/bin/../../lib/gcc/pic32c/8.3.1/../../../../pic32c/lib/thumb/v6-m/nofp\libg-musl.a(__putc.o)
 .debug_loc     0x0000000000027968       0x45 c:/program files/microchip/xc32/v4.60/bin/bin/../../lib/gcc/pic32c/8.3.1/../../../../pic32c/lib/thumb/v6-m/nofp\libg-musl.a(__stderr.o)
 .debug_loc     0x00000000000279ad      0x1d8 c:/program files/microchip/xc32/v4.60/bin/bin/../../lib/gcc/pic32c/8.3.1/../../../../pic32c/lib/thumb/v6-m/nofp\libg-musl.a(__stdio_close.o)
 .debug_loc     0x0000000000027b85      0x364 c:/program files/microchip/xc32/v4.60/bin/bin/../../lib/gcc/pic32c/8.3.1/../../../../pic32c/lib/thumb/v6-m/nofp\libg-musl.a(__stdio_write.o)
 .debug_loc     0x0000000000027ee9       0x45 c:/program files/microchip/xc32/v4.60/bin/bin/../../lib/gcc/pic32c/8.3.1/../../../../pic32c/lib/thumb/v6-m/nofp\libg-musl.a(__stdout.o)
 .debug_loc     0x0000000000027f2e       0x8c c:/program files/microchip/xc32/v4.60/bin/bin/../../lib/gcc/pic32c/8.3.1/../../../../pic32c/lib/thumb/v6-m/nofp\libg-musl.a(__towrite.o)
 .debug_loc     0x0000000000027fba       0x3a c:/program files/microchip/xc32/v4.60/bin/bin/../../lib/gcc/pic32c/8.3.1/../../../../pic32c/lib/thumb/v6-m/nofp\libg-musl.a(__month_to_secs.o)
 .debug_loc     0x0000000000027ff4      0x130 c:/program files/microchip/xc32/v4.60/bin/bin/../../lib/gcc/pic32c/8.3.1/../../../../pic32c/lib/thumb/v6-m/nofp\libg-musl.a(writev.o)
 .debug_loc     0x0000000000028124       0xbb c:/program files/microchip/xc32/v4.60/bin/bin/../../lib/gcc/pic32c/8.3.1/../../../../pic32c/lib/thumb/v6-m/nofp\libg-musl.a(__overflow.o)
 .debug_loc     0x00000000000281df      0x106 c:/program files/microchip/xc32/v4.60/bin/bin/../../lib/gcc/pic32c/8.3.1/../../../../pic32c/lib/thumb/v6-m/nofp\libg-musl.a(__fwrite.o)
 .debug_loc     0x00000000000282e5      0x176 c:/program files/microchip/xc32/v4.60/bin/bin/../../lib/gcc/pic32c/8.3.1/thumb/v6-m/nofp\libgcc.a(_muldi3.o)
 .debug_loc     0x000000000002845b      0x2e4 c:/program files/microchip/xc32/v4.60/bin/bin/../../lib/gcc/pic32c/8.3.1/thumb/v6-m/nofp\libgcc.a(_udivmoddi4.o)
 .debug_loc     0x000000000002873f       0x9c c:/program files/microchip/xc32/v4.60/bin/bin/../../lib/gcc/pic32c/8.3.1/thumb/v6-m/nofp\libgcc.a(bpabi.o)
 .debug_loc     0x00000000000287db      0x4b0 c:/program files/microchip/xc32/v4.60/bin/bin/../../lib/gcc/pic32c/8.3.1/thumb/v6-m/nofp\libgcc.a(_divdi3.o)
 .debug_loc     0x0000000000028c8b       0x28 c:/program files/microchip/xc32/v4.60/bin/bin/../../lib/gcc/pic32c/8.3.1/../../../../pic32c/lib/thumb/v6-m/nofp\libpic32c.a(sbrk.o)
 .debug_loc     0x0000000000028cb3       0x74 c:/program files/microchip/xc32/v4.60/bin/bin/../../lib/gcc/pic32c/8.3.1/../../../../pic32c/lib/thumb/v6-m/nofp\libc-size-musl.a(strcpy.o)
 .debug_loc     0x0000000000028d27       0x90 c:/program files/microchip/xc32/v4.60/bin/bin/../../lib/gcc/pic32c/8.3.1/../../../../pic32c/lib/thumb/v6-m/nofp\libc-size-musl.a(stpcpy.o)
 .debug_loc     0x0000000000028db7       0x14 c:/program files/microchip/xc32/v4.60/bin/bin/../../lib/gcc/pic32c/8.3.1/../../../../pic32c/lib/thumb/v6-m/nofp\libpic32c.a(pic32_data_init_copy.o)

.debug_aranges  0x0000000000000000     0x1190
 .debug_aranges
                0x0000000000000000       0x20 build/SAMD21_IOT_WG_ICM42688/debug/_ext/2048461350/icm42688_sensor.o
 .debug_aranges
                0x0000000000000020       0x20 build/SAMD21_IOT_WG_ICM42688/debug/_ext/1660664302/drv_spi.o
 .debug_aranges
                0x0000000000000040       0x20 build/SAMD21_IOT_WG_ICM42688/debug/_ext/1164161090/wdrv_winc_gpio.o
 .debug_aranges
                0x0000000000000060       0x20 build/SAMD21_IOT_WG_ICM42688/debug/_ext/1164161090/wdrv_winc_eint.o
 .debug_aranges
                0x0000000000000080       0x20 build/SAMD21_IOT_WG_ICM42688/debug/_ext/101005277/wdrv_winc_spi.o
 .debug_aranges
                0x00000000000000a0       0x20 build/SAMD21_IOT_WG_ICM42688/debug/_ext/90265895/nm_common.o
 .debug_aranges
                0x00000000000000c0       0x20 build/SAMD21_IOT_WG_ICM42688/debug/_ext/121554788/m2m_ssl.o
 .debug_aranges
                0x00000000000000e0       0x20 build/SAMD21_IOT_WG_ICM42688/debug/_ext/121554788/m2m_hif.o
 .debug_aranges
                0x0000000000000100       0x20 build/SAMD21_IOT_WG_ICM42688/debug/_ext/121554788/m2m_wifi.o
 .debug_aranges
                0x0000000000000120       0x20 build/SAMD21_IOT_WG_ICM42688/debug/_ext/121554788/nmspi.o
 .debug_aranges
                0x0000000000000140       0x20 build/SAMD21_IOT_WG_ICM42688/debug/_ext/121554788/nmdrv.o
 .debug_aranges
                0x0000000000000160       0x20 build/SAMD21_IOT_WG_ICM42688/debug/_ext/121554788/m2m_ota.o
 .debug_aranges
                0x0000000000000180       0x20 build/SAMD21_IOT_WG_ICM42688/debug/_ext/121554788/nmasic.o
 .debug_aranges
                0x00000000000001a0       0x20 build/SAMD21_IOT_WG_ICM42688/debug/_ext/121554788/nmbus.o
 .debug_aranges
                0x00000000000001c0       0x20 build/SAMD21_IOT_WG_ICM42688/debug/_ext/548032175/socket.o
 .debug_aranges
                0x00000000000001e0       0x20 build/SAMD21_IOT_WG_ICM42688/debug/_ext/548032175/inet_addr.o
 .debug_aranges
                0x0000000000000200       0x20 build/SAMD21_IOT_WG_ICM42688/debug/_ext/548032175/inet_ntop.o
 .debug_aranges
                0x0000000000000220       0x20 build/SAMD21_IOT_WG_ICM42688/debug/_ext/609036575/flexible_flash.o
 .debug_aranges
                0x0000000000000240       0x20 build/SAMD21_IOT_WG_ICM42688/debug/_ext/609036575/spi_flash.o
 .debug_aranges
                0x0000000000000260       0x20 build/SAMD21_IOT_WG_ICM42688/debug/_ext/1784303044/wdrv_winc_osal.o
 .debug_aranges
                0x0000000000000280       0x20 build/SAMD21_IOT_WG_ICM42688/debug/_ext/907429946/wdrv_winc_sta.o
 .debug_aranges
                0x00000000000002a0       0x20 build/SAMD21_IOT_WG_ICM42688/debug/_ext/907429946/wdrv_winc_socket.o
 .debug_aranges
                0x00000000000002c0       0x20 build/SAMD21_IOT_WG_ICM42688/debug/_ext/907429946/wdrv_winc_systime.o
 .debug_aranges
                0x00000000000002e0       0x20 build/SAMD21_IOT_WG_ICM42688/debug/_ext/907429946/wdrv_winc_authctx.o
 .debug_aranges
                0x0000000000000300       0x20 build/SAMD21_IOT_WG_ICM42688/debug/_ext/907429946/wdrv_winc_host_file.o
 .debug_aranges
                0x0000000000000320       0x20 build/SAMD21_IOT_WG_ICM42688/debug/_ext/907429946/wdrv_winc.o
 .debug_aranges
                0x0000000000000340       0x20 build/SAMD21_IOT_WG_ICM42688/debug/_ext/907429946/wdrv_winc_bssctx.o
 .debug_aranges
                0x0000000000000360       0x20 build/SAMD21_IOT_WG_ICM42688/debug/_ext/1750425231/plib_clock.o
 .debug_aranges
                0x0000000000000380       0x20 build/SAMD21_IOT_WG_ICM42688/debug/_ext/1580516298/plib_dmac.o
 .debug_aranges
                0x00000000000003a0       0x20 build/SAMD21_IOT_WG_ICM42688/debug/_ext/503204096/plib_eic.o
 .debug_aranges
                0x00000000000003c0       0x20 build/SAMD21_IOT_WG_ICM42688/debug/_ext/1580823105/plib_nvic.o
 .debug_aranges
                0x00000000000003e0       0x20 build/SAMD21_IOT_WG_ICM42688/debug/_ext/11470383/plib_nvmctrl.o
 .debug_aranges
                0x0000000000000400       0x20 build/SAMD21_IOT_WG_ICM42688/debug/_ext/1580876256/plib_port.o
 .debug_aranges
                0x0000000000000420       0x20 build/SAMD21_IOT_WG_ICM42688/debug/_ext/1014017276/plib_sercom0_spi_master.o
 .debug_aranges
                0x0000000000000440       0x20 build/SAMD21_IOT_WG_ICM42688/debug/_ext/1014017276/plib_sercom2_spi_master.o
 .debug_aranges
                0x0000000000000460       0x20 build/SAMD21_IOT_WG_ICM42688/debug/_ext/177673482/plib_sercom5_usart.o
 .debug_aranges
                0x0000000000000480       0x20 build/SAMD21_IOT_WG_ICM42688/debug/_ext/223004715/plib_systick.o
 .debug_aranges
                0x00000000000004a0       0x20 build/SAMD21_IOT_WG_ICM42688/debug/_ext/399410062/plib_tc3.o
 .debug_aranges
                0x00000000000004c0       0x20 build/SAMD21_IOT_WG_ICM42688/debug/_ext/399410062/plib_tc4.o
 .debug_aranges
                0x00000000000004e0       0x20 build/SAMD21_IOT_WG_ICM42688/debug/_ext/1357625803/xc32_monitor.o
 .debug_aranges
                0x0000000000000500       0x20 build/SAMD21_IOT_WG_ICM42688/debug/_ext/1584719636/sys_dma.o
 .debug_aranges
                0x0000000000000520       0x20 build/SAMD21_IOT_WG_ICM42688/debug/_ext/1318297016/sys_int.o
 .debug_aranges
                0x0000000000000540       0x20 build/SAMD21_IOT_WG_ICM42688/debug/_ext/386530258/sys_time.o
 .debug_aranges
                0x0000000000000560       0x20 build/SAMD21_IOT_WG_ICM42688/debug/_ext/1832905403/initialization.o
 .debug_aranges
                0x0000000000000580       0x20 build/SAMD21_IOT_WG_ICM42688/debug/_ext/1832905403/interrupts.o
 .debug_aranges
                0x00000000000005a0       0x20 build/SAMD21_IOT_WG_ICM42688/debug/_ext/1832905403/exceptions.o
 .debug_aranges
                0x00000000000005c0       0x28 build/SAMD21_IOT_WG_ICM42688/debug/_ext/1832905403/startup_xc32.o
 .debug_aranges
                0x00000000000005e8       0x20 build/SAMD21_IOT_WG_ICM42688/debug/_ext/1832905403/tasks.o
 .debug_aranges
                0x0000000000000608       0x20 build/SAMD21_IOT_WG_ICM42688/debug/_ext/1341251756/Icm426xxDriver_HL.o
 .debug_aranges
                0x0000000000000628       0x20 build/SAMD21_IOT_WG_ICM42688/debug/_ext/1341251756/Icm426xxTransport.o
 .debug_aranges
                0x0000000000000648       0x20 build/SAMD21_IOT_WG_ICM42688/debug/_ext/1360937237/main.o
 .debug_aranges
                0x0000000000000668       0x20 build/SAMD21_IOT_WG_ICM42688/debug/_ext/1360937237/ringbuffer.o
 .debug_aranges
                0x0000000000000688       0x20 build/SAMD21_IOT_WG_ICM42688/debug/_ext/1360937237/app.o
 .debug_aranges
                0x00000000000006a8       0x20 build/SAMD21_IOT_WG_ICM42688/debug/_ext/1360937237/ws2812.o
 .debug_aranges
                0x00000000000006c8       0x20 build/SAMD21_IOT_WG_ICM42688/debug/_ext/1360937237/winc1500_udp_client.o
 .debug_aranges
                0x00000000000006e8       0x30 c:/program files/microchip/xc32/v4.60/bin/bin/../../lib/gcc/pic32c/8.3.1/../../../../pic32c/lib/thumb/v6-m/nofp\libpic32c.a(data_init.o)
 .debug_aranges
                0x0000000000000718       0x20 c:/program files/microchip/xc32/v4.60/bin/bin/../../lib/gcc/pic32c/8.3.1/../../../../pic32c/lib/thumb/v6-m/nofp\libc-size-musl.a(memcpy.o)
 .debug_aranges
                0x0000000000000738       0x20 c:/program files/microchip/xc32/v4.60/bin/bin/../../lib/gcc/pic32c/8.3.1/../../../../pic32c/lib/thumb/v6-m/nofp\libc-size-musl.a(memset.o)
 .debug_aranges
                0x0000000000000758       0x20 c:/program files/microchip/xc32/v4.60/bin/bin/../../lib/gcc/pic32c/8.3.1/../../../../pic32c/lib/thumb/v6-m/nofp\libc-size-musl.a(strlen.o)
 .debug_aranges
                0x0000000000000778       0x20 c:/program files/microchip/xc32/v4.60/bin/bin/../../lib/gcc/pic32c/8.3.1/../../../../pic32c/lib/thumb/v6-m/nofp\libc-size-musl.a(strchr.o)
 .debug_aranges
                0x0000000000000798       0x20 c:/program files/microchip/xc32/v4.60/bin/bin/../../lib/gcc/pic32c/8.3.1/../../../../pic32c/lib/thumb/v6-m/nofp\libc-size-musl.a(strchrnul.o)
 .debug_aranges
                0x00000000000007b8       0x20 c:/program files/microchip/xc32/v4.60/bin/bin/../../lib/gcc/pic32c/8.3.1/../../../../pic32c/lib/thumb/v6-m/nofp\libc-size-musl.a(strnlen.o)
 .debug_aranges
                0x00000000000007d8       0x20 c:/program files/microchip/xc32/v4.60/bin/bin/../../lib/gcc/pic32c/8.3.1/../../../../pic32c/lib/thumb/v6-m/nofp\libc-size-musl.a(memchr.o)
 .debug_aranges
                0x00000000000007f8       0x20 c:/program files/microchip/xc32/v4.60/bin/bin/../../lib/gcc/pic32c/8.3.1/../../../../pic32c/lib/thumb/v6-m/nofp\liblmalloc-musl.a(lite_calloc.o)
 .debug_aranges
                0x0000000000000818       0x30 c:/program files/microchip/xc32/v4.60/bin/bin/../../lib/gcc/pic32c/8.3.1/../../../../pic32c/lib/thumb/v6-m/nofp\liblmalloc-musl.a(lite_free.o)
 .debug_aranges
                0x0000000000000848       0x20 c:/program files/microchip/xc32/v4.60/bin/bin/../../lib/gcc/pic32c/8.3.1/../../../../pic32c/lib/thumb/v6-m/nofp\liblmalloc-musl.a(lite_malloc.o)
 .debug_aranges
                0x0000000000000868       0x28 c:/program files/microchip/xc32/v4.60/bin/bin/../../lib/gcc/pic32c/8.3.1/../../../../pic32c/lib/thumb/v6-m/nofp\libg-musl.a(__libc_start_main.o)
 .debug_aranges
                0x0000000000000890       0x18 c:/program files/microchip/xc32/v4.60/bin/bin/../../lib/gcc/pic32c/8.3.1/../../../../pic32c/lib/thumb/v6-m/nofp\libg-musl.a(__errno_location.o)
 .debug_aranges
                0x00000000000008a8       0x18 c:/program files/microchip/xc32/v4.60/bin/bin/../../lib/gcc/pic32c/8.3.1/../../../../pic32c/lib/thumb/v6-m/nofp\libg-musl.a(libc.o)
 .debug_aranges
                0x00000000000008c0       0x20 c:/program files/microchip/xc32/v4.60/bin/bin/../../lib/gcc/pic32c/8.3.1/../../../../pic32c/lib/thumb/v6-m/nofp\libg-musl.a(expand_heap.o)
 .debug_aranges
                0x00000000000008e0       0x28 c:/program files/microchip/xc32/v4.60/bin/bin/../../lib/gcc/pic32c/8.3.1/../../../../pic32c/lib/thumb/v6-m/nofp\libg-musl.a(__sio_printf_cdeEfFgGnsu.o)
 .debug_aranges
                0x0000000000000908       0x20 c:/program files/microchip/xc32/v4.60/bin/bin/../../lib/gcc/pic32c/8.3.1/../../../../pic32c/lib/thumb/v6-m/nofp\libg-musl.a(__fmt_d.o)
 .debug_aranges
                0x0000000000000928       0x20 c:/program files/microchip/xc32/v4.60/bin/bin/../../lib/gcc/pic32c/8.3.1/../../../../pic32c/lib/thumb/v6-m/nofp\libg-musl.a(__fmt_fp.o)
 .debug_aranges
                0x0000000000000948       0x20 c:/program files/microchip/xc32/v4.60/bin/bin/../../lib/gcc/pic32c/8.3.1/../../../../pic32c/lib/thumb/v6-m/nofp\libg-musl.a(__fmt_s.o)
 .debug_aranges
                0x0000000000000968       0x20 c:/program files/microchip/xc32/v4.60/bin/bin/../../lib/gcc/pic32c/8.3.1/../../../../pic32c/lib/thumb/v6-m/nofp\libg-musl.a(__fmt_u.o)
 .debug_aranges
                0x0000000000000988       0x20 c:/program files/microchip/xc32/v4.60/bin/bin/../../lib/gcc/pic32c/8.3.1/../../../../pic32c/lib/thumb/v6-m/nofp\libg-musl.a(__pop_float.o)
 .debug_aranges
                0x00000000000009a8       0x20 c:/program files/microchip/xc32/v4.60/bin/bin/../../lib/gcc/pic32c/8.3.1/../../../../pic32c/lib/thumb/v6-m/nofp\libg-musl.a(__pop_int.o)
 .debug_aranges
                0x00000000000009c8       0x20 c:/program files/microchip/xc32/v4.60/bin/bin/../../lib/gcc/pic32c/8.3.1/../../../../pic32c/lib/thumb/v6-m/nofp\libg-musl.a(__pop_ptr.o)
 .debug_aranges
                0x00000000000009e8       0x50 c:/program files/microchip/xc32/v4.60/bin/bin/../../lib/gcc/pic32c/8.3.1/../../../../pic32c/lib/thumb/v6-m/nofp\libg-musl.a(__printf_core.o)
 .debug_aranges
                0x0000000000000a38       0x28 c:/program files/microchip/xc32/v4.60/bin/bin/../../lib/gcc/pic32c/8.3.1/../../../../pic32c/lib/thumb/v6-m/nofp\libg-musl.a(stdin.o)
 .debug_aranges
                0x0000000000000a60       0x30 c:/program files/microchip/xc32/v4.60/bin/bin/../../lib/gcc/pic32c/8.3.1/../../../../pic32c/lib/thumb/v6-m/nofp\libg-musl.a(stdout.o)
 .debug_aranges
                0x0000000000000a90       0x20 c:/program files/microchip/xc32/v4.60/bin/bin/../../lib/gcc/pic32c/8.3.1/../../../../pic32c/lib/thumb/v6-m/nofp\libg-musl.a(puts.o)
 .debug_aranges
                0x0000000000000ab0       0x20 c:/program files/microchip/xc32/v4.60/bin/bin/../../lib/gcc/pic32c/8.3.1/../../../../pic32c/lib/thumb/v6-m/nofp\libg-musl.a(setbuf.o)
 .debug_aranges
                0x0000000000000ad0       0x20 c:/program files/microchip/xc32/v4.60/bin/bin/../../lib/gcc/pic32c/8.3.1/../../../../pic32c/lib/thumb/v6-m/nofp\libg-musl.a(atoi.o)
 .debug_aranges
                0x0000000000000af0       0x20 c:/program files/microchip/xc32/v4.60/bin/bin/../../lib/gcc/pic32c/8.3.1/../../../../pic32c/lib/thumb/v6-m/nofp\libg-musl.a(gmtime.o)
 .debug_aranges
                0x0000000000000b10       0x20 c:/program files/microchip/xc32/v4.60/bin/bin/../../lib/gcc/pic32c/8.3.1/../../../../pic32c/lib/thumb/v6-m/nofp\libg-musl.a(gmtime_r.o)
 .debug_aranges
                0x0000000000000b30       0x20 c:/program files/microchip/xc32/v4.60/bin/bin/../../lib/gcc/pic32c/8.3.1/../../../../pic32c/lib/thumb/v6-m/nofp\libg-musl.a(mktime.o)
 .debug_aranges
                0x0000000000000b50       0x28 c:/program files/microchip/xc32/v4.60/bin/bin/../../lib/gcc/pic32c/8.3.1/../../../../pic32c/lib/thumb/v6-m/nofp\libg-musl.a(tolower.o)
 .debug_aranges
                0x0000000000000b78       0x18 c:/program files/microchip/xc32/v4.60/bin/bin/../../lib/gcc/pic32c/8.3.1/../../../../pic32c/lib/thumb/v6-m/nofp\libg-musl.a(__environ.o)
 .debug_aranges
                0x0000000000000b90       0x20 c:/program files/microchip/xc32/v4.60/bin/bin/../../lib/gcc/pic32c/8.3.1/../../../../pic32c/lib/thumb/v6-m/nofp\libg-musl.a(__int_vfprintf.o)
 .debug_aranges
                0x0000000000000bb0       0x20 c:/program files/microchip/xc32/v4.60/bin/bin/../../lib/gcc/pic32c/8.3.1/../../../../pic32c/lib/thumb/v6-m/nofp\libg-musl.a(fputs.o)
 .debug_aranges
                0x0000000000000bd0       0x20 c:/program files/microchip/xc32/v4.60/bin/bin/../../lib/gcc/pic32c/8.3.1/../../../../pic32c/lib/thumb/v6-m/nofp\libg-musl.a(__cvt_u.o)
 .debug_aranges
                0x0000000000000bf0       0x20 c:/program files/microchip/xc32/v4.60/bin/bin/../../lib/gcc/pic32c/8.3.1/../../../../pic32c/lib/thumb/v6-m/nofp\libg-musl.a(__stdio_read.o)
 .debug_aranges
                0x0000000000000c10       0x20 c:/program files/microchip/xc32/v4.60/bin/bin/../../lib/gcc/pic32c/8.3.1/../../../../pic32c/lib/thumb/v6-m/nofp\libg-musl.a(__towrite_rw.o)
 .debug_aranges
                0x0000000000000c30       0x28 c:/program files/microchip/xc32/v4.60/bin/bin/../../lib/gcc/pic32c/8.3.1/../../../../pic32c/lib/thumb/v6-m/nofp\libg-musl.a(fwrite.o)
 .debug_aranges
                0x0000000000000c58       0x30 c:/program files/microchip/xc32/v4.60/bin/bin/../../lib/gcc/pic32c/8.3.1/../../../../pic32c/lib/thumb/v6-m/nofp\libg-musl.a(putc.o)
 .debug_aranges
                0x0000000000000c88       0x28 c:/program files/microchip/xc32/v4.60/bin/bin/../../lib/gcc/pic32c/8.3.1/../../../../pic32c/lib/thumb/v6-m/nofp\libg-musl.a(setvbuf.o)
 .debug_aranges
                0x0000000000000cb0       0x20 c:/program files/microchip/xc32/v4.60/bin/bin/../../lib/gcc/pic32c/8.3.1/../../../../pic32c/lib/thumb/v6-m/nofp\libg-musl.a(__tm_to_secs.o)
 .debug_aranges
                0x0000000000000cd0       0x20 c:/program files/microchip/xc32/v4.60/bin/bin/../../lib/gcc/pic32c/8.3.1/../../../../pic32c/lib/thumb/v6-m/nofp\libg-musl.a(__year_to_secs.o)
 .debug_aranges
                0x0000000000000cf0       0x20 c:/program files/microchip/xc32/v4.60/bin/bin/../../lib/gcc/pic32c/8.3.1/../../../../pic32c/lib/thumb/v6-m/nofp\libg-musl.a(__secs_to_tm.o)
 .debug_aranges
                0x0000000000000d10       0x20 c:/program files/microchip/xc32/v4.60/bin/bin/../../lib/gcc/pic32c/8.3.1/../../../../pic32c/lib/thumb/v6-m/nofp\libg-musl.a(readv.o)
 .debug_aranges
                0x0000000000000d30       0x28 c:/program files/microchip/xc32/v4.60/bin/bin/../../lib/gcc/pic32c/8.3.1/../../../../pic32c/lib/thumb/v6-m/nofp\libg-musl.a(__init_stdio.o)
 .debug_aranges
                0x0000000000000d58       0x28 c:/program files/microchip/xc32/v4.60/bin/bin/../../lib/gcc/pic32c/8.3.1/../../../../pic32c/lib/thumb/v6-m/nofp\libg-musl.a(__out.o)
 .debug_aranges
                0x0000000000000d80       0x20 c:/program files/microchip/xc32/v4.60/bin/bin/../../lib/gcc/pic32c/8.3.1/../../../../pic32c/lib/thumb/v6-m/nofp\libg-musl.a(__putc.o)
 .debug_aranges
                0x0000000000000da0       0x30 c:/program files/microchip/xc32/v4.60/bin/bin/../../lib/gcc/pic32c/8.3.1/../../../../pic32c/lib/thumb/v6-m/nofp\libg-musl.a(__stderr.o)
 .debug_aranges
                0x0000000000000dd0       0x28 c:/program files/microchip/xc32/v4.60/bin/bin/../../lib/gcc/pic32c/8.3.1/../../../../pic32c/lib/thumb/v6-m/nofp\libg-musl.a(__stdio_close.o)
 .debug_aranges
                0x0000000000000df8       0x28 c:/program files/microchip/xc32/v4.60/bin/bin/../../lib/gcc/pic32c/8.3.1/../../../../pic32c/lib/thumb/v6-m/nofp\libg-musl.a(__stdio_write.o)
 .debug_aranges
                0x0000000000000e20       0x30 c:/program files/microchip/xc32/v4.60/bin/bin/../../lib/gcc/pic32c/8.3.1/../../../../pic32c/lib/thumb/v6-m/nofp\libg-musl.a(__stdout.o)
 .debug_aranges
                0x0000000000000e50       0x28 c:/program files/microchip/xc32/v4.60/bin/bin/../../lib/gcc/pic32c/8.3.1/../../../../pic32c/lib/thumb/v6-m/nofp\libg-musl.a(__towrite.o)
 .debug_aranges
                0x0000000000000e78       0x20 c:/program files/microchip/xc32/v4.60/bin/bin/../../lib/gcc/pic32c/8.3.1/../../../../pic32c/lib/thumb/v6-m/nofp\libg-musl.a(__month_to_secs.o)
 .debug_aranges
                0x0000000000000e98       0x20 c:/program files/microchip/xc32/v4.60/bin/bin/../../lib/gcc/pic32c/8.3.1/../../../../pic32c/lib/thumb/v6-m/nofp\libg-musl.a(writev.o)
 .debug_aranges
                0x0000000000000eb8       0x20 c:/program files/microchip/xc32/v4.60/bin/bin/../../lib/gcc/pic32c/8.3.1/../../../../pic32c/lib/thumb/v6-m/nofp\libg-musl.a(__overflow.o)
 .debug_aranges
                0x0000000000000ed8       0x28 c:/program files/microchip/xc32/v4.60/bin/bin/../../lib/gcc/pic32c/8.3.1/../../../../pic32c/lib/thumb/v6-m/nofp\libg-musl.a(__fwrite.o)
 .debug_aranges
                0x0000000000000f00       0x20 c:/program files/microchip/xc32/v4.60/bin/bin/../../lib/gcc/pic32c/8.3.1/thumb/v6-m/nofp\libgcc.a(_udivsi3.o)
 .debug_aranges
                0x0000000000000f20       0x20 c:/program files/microchip/xc32/v4.60/bin/bin/../../lib/gcc/pic32c/8.3.1/thumb/v6-m/nofp\libgcc.a(_divsi3.o)
 .debug_aranges
                0x0000000000000f40       0x20 c:/program files/microchip/xc32/v4.60/bin/bin/../../lib/gcc/pic32c/8.3.1/thumb/v6-m/nofp\libgcc.a(_dvmd_tls.o)
 .debug_aranges
                0x0000000000000f60       0x20 c:/program files/microchip/xc32/v4.60/bin/bin/../../lib/gcc/pic32c/8.3.1/thumb/v6-m/nofp\libgcc.a(_aeabi_ldivmod.o)
 .debug_aranges
                0x0000000000000f80       0x20 c:/program files/microchip/xc32/v4.60/bin/bin/../../lib/gcc/pic32c/8.3.1/thumb/v6-m/nofp\libgcc.a(_aeabi_uldivmod.o)
 .debug_aranges
                0x0000000000000fa0       0x20 c:/program files/microchip/xc32/v4.60/bin/bin/../../lib/gcc/pic32c/8.3.1/thumb/v6-m/nofp\libgcc.a(_muldi3.o)
 .debug_aranges
                0x0000000000000fc0       0x20 c:/program files/microchip/xc32/v4.60/bin/bin/../../lib/gcc/pic32c/8.3.1/thumb/v6-m/nofp\libgcc.a(_udivmoddi4.o)
 .debug_aranges
                0x0000000000000fe0       0x20 c:/program files/microchip/xc32/v4.60/bin/bin/../../lib/gcc/pic32c/8.3.1/thumb/v6-m/nofp\libgcc.a(bpabi.o)
 .debug_aranges
                0x0000000000001000       0x20 c:/program files/microchip/xc32/v4.60/bin/bin/../../lib/gcc/pic32c/8.3.1/thumb/v6-m/nofp\libgcc.a(_lshrdi3.o)
 .debug_aranges
                0x0000000000001020       0x20 c:/program files/microchip/xc32/v4.60/bin/bin/../../lib/gcc/pic32c/8.3.1/thumb/v6-m/nofp\libgcc.a(_ashldi3.o)
 .debug_aranges
                0x0000000000001040       0x20 c:/program files/microchip/xc32/v4.60/bin/bin/../../lib/gcc/pic32c/8.3.1/thumb/v6-m/nofp\libgcc.a(_clzdi2.o)
 .debug_aranges
                0x0000000000001060       0x20 c:/program files/microchip/xc32/v4.60/bin/bin/../../lib/gcc/pic32c/8.3.1/thumb/v6-m/nofp\libgcc.a(_divdi3.o)
 .debug_aranges
                0x0000000000001080       0x20 c:/program files/microchip/xc32/v4.60/bin/bin/../../lib/gcc/pic32c/8.3.1/thumb/v6-m/nofp\libgcc.a(_clzsi2.o)
 .debug_aranges
                0x00000000000010a0       0x20 c:/program files/microchip/xc32/v4.60/bin/bin/../../lib/gcc/pic32c/8.3.1/../../../../pic32c/lib/thumb/v6-m/nofp\libpic32c.a(close.o)
 .debug_aranges
                0x00000000000010c0       0x20 c:/program files/microchip/xc32/v4.60/bin/bin/../../lib/gcc/pic32c/8.3.1/../../../../pic32c/lib/thumb/v6-m/nofp\libpic32c.a(lseek.o)
 .debug_aranges
                0x00000000000010e0       0x30 c:/program files/microchip/xc32/v4.60/bin/bin/../../lib/gcc/pic32c/8.3.1/../../../../pic32c/lib/thumb/v6-m/nofp\libpic32c.a(sbrk.o)
 .debug_aranges
                0x0000000000001110       0x20 c:/program files/microchip/xc32/v4.60/bin/bin/../../lib/gcc/pic32c/8.3.1/../../../../pic32c/lib/thumb/v6-m/nofp\libc-size-musl.a(strcpy.o)
 .debug_aranges
                0x0000000000001130       0x20 c:/program files/microchip/xc32/v4.60/bin/bin/../../lib/gcc/pic32c/8.3.1/../../../../pic32c/lib/thumb/v6-m/nofp\libc-size-musl.a(stpcpy.o)
 .debug_aranges
                0x0000000000001150       0x20 c:/program files/microchip/xc32/v4.60/bin/bin/../../lib/gcc/pic32c/8.3.1/../../../../pic32c/lib/thumb/v6-m/nofp\libpic32c.a(pic32_data_init_clear.o)
 .debug_aranges
                0x0000000000001170       0x20 c:/program files/microchip/xc32/v4.60/bin/bin/../../lib/gcc/pic32c/8.3.1/../../../../pic32c/lib/thumb/v6-m/nofp\libpic32c.a(pic32_data_init_copy.o)

.debug_ranges   0x0000000000000000     0x2420
 .debug_ranges  0x0000000000000000       0x18 build/SAMD21_IOT_WG_ICM42688/debug/_ext/2048461350/icm42688_sensor.o
 .debug_ranges  0x0000000000000018      0x3c8 build/SAMD21_IOT_WG_ICM42688/debug/_ext/1660664302/drv_spi.o
 .debug_ranges  0x00000000000003e0       0xd8 build/SAMD21_IOT_WG_ICM42688/debug/_ext/101005277/wdrv_winc_spi.o
 .debug_ranges  0x00000000000004b8       0x50 build/SAMD21_IOT_WG_ICM42688/debug/_ext/121554788/m2m_ssl.o
 .debug_ranges  0x0000000000000508      0x118 build/SAMD21_IOT_WG_ICM42688/debug/_ext/121554788/m2m_hif.o
 .debug_ranges  0x0000000000000620      0x160 build/SAMD21_IOT_WG_ICM42688/debug/_ext/121554788/m2m_wifi.o
 .debug_ranges  0x0000000000000780      0x398 build/SAMD21_IOT_WG_ICM42688/debug/_ext/121554788/nmspi.o
 .debug_ranges  0x0000000000000b18       0x48 build/SAMD21_IOT_WG_ICM42688/debug/_ext/121554788/nmasic.o
 .debug_ranges  0x0000000000000b60       0x18 build/SAMD21_IOT_WG_ICM42688/debug/_ext/121554788/nmbus.o
 .debug_ranges  0x0000000000000b78      0x160 build/SAMD21_IOT_WG_ICM42688/debug/_ext/548032175/socket.o
 .debug_ranges  0x0000000000000cd8       0x20 build/SAMD21_IOT_WG_ICM42688/debug/_ext/609036575/flexible_flash.o
 .debug_ranges  0x0000000000000cf8       0x58 build/SAMD21_IOT_WG_ICM42688/debug/_ext/609036575/spi_flash.o
 .debug_ranges  0x0000000000000d50       0x58 build/SAMD21_IOT_WG_ICM42688/debug/_ext/907429946/wdrv_winc_sta.o
 .debug_ranges  0x0000000000000da8       0xb8 build/SAMD21_IOT_WG_ICM42688/debug/_ext/907429946/wdrv_winc_socket.o
 .debug_ranges  0x0000000000000e60       0x80 build/SAMD21_IOT_WG_ICM42688/debug/_ext/907429946/wdrv_winc_authctx.o
 .debug_ranges  0x0000000000000ee0       0xf0 build/SAMD21_IOT_WG_ICM42688/debug/_ext/907429946/wdrv_winc_host_file.o
 .debug_ranges  0x0000000000000fd0      0x1d8 build/SAMD21_IOT_WG_ICM42688/debug/_ext/907429946/wdrv_winc.o
 .debug_ranges  0x00000000000011a8       0x38 build/SAMD21_IOT_WG_ICM42688/debug/_ext/1750425231/plib_clock.o
 .debug_ranges  0x00000000000011e0       0x40 build/SAMD21_IOT_WG_ICM42688/debug/_ext/1580516298/plib_dmac.o
 .debug_ranges  0x0000000000001220      0x1a8 build/SAMD21_IOT_WG_ICM42688/debug/_ext/1580823105/plib_nvic.o
 .debug_ranges  0x00000000000013c8       0x18 build/SAMD21_IOT_WG_ICM42688/debug/_ext/1580876256/plib_port.o
 .debug_ranges  0x00000000000013e0       0x30 build/SAMD21_IOT_WG_ICM42688/debug/_ext/1014017276/plib_sercom0_spi_master.o
 .debug_ranges  0x0000000000001410       0x40 build/SAMD21_IOT_WG_ICM42688/debug/_ext/1014017276/plib_sercom2_spi_master.o
 .debug_ranges  0x0000000000001450       0x18 build/SAMD21_IOT_WG_ICM42688/debug/_ext/177673482/plib_sercom5_usart.o
 .debug_ranges  0x0000000000001468       0x30 build/SAMD21_IOT_WG_ICM42688/debug/_ext/1318297016/sys_int.o
 .debug_ranges  0x0000000000001498      0x340 build/SAMD21_IOT_WG_ICM42688/debug/_ext/386530258/sys_time.o
 .debug_ranges  0x00000000000017d8       0x18 build/SAMD21_IOT_WG_ICM42688/debug/_ext/1832905403/initialization.o
 .debug_ranges  0x00000000000017f0       0x18 build/SAMD21_IOT_WG_ICM42688/debug/_ext/1832905403/startup_xc32.o
 .debug_ranges  0x0000000000001808      0x3c8 build/SAMD21_IOT_WG_ICM42688/debug/_ext/1341251756/Icm426xxDriver_HL.o
 .debug_ranges  0x0000000000001bd0       0xc8 build/SAMD21_IOT_WG_ICM42688/debug/_ext/1341251756/Icm426xxTransport.o
 .debug_ranges  0x0000000000001c98       0x88 build/SAMD21_IOT_WG_ICM42688/debug/_ext/1360937237/main.o
 .debug_ranges  0x0000000000001d20       0xe0 build/SAMD21_IOT_WG_ICM42688/debug/_ext/1360937237/ringbuffer.o
 .debug_ranges  0x0000000000001e00       0x80 build/SAMD21_IOT_WG_ICM42688/debug/_ext/1360937237/ws2812.o
 .debug_ranges  0x0000000000001e80       0x20 c:/program files/microchip/xc32/v4.60/bin/bin/../../lib/gcc/pic32c/8.3.1/../../../../pic32c/lib/thumb/v6-m/nofp\libpic32c.a(data_init.o)
 .debug_ranges  0x0000000000001ea0       0x10 c:/program files/microchip/xc32/v4.60/bin/bin/../../lib/gcc/pic32c/8.3.1/../../../../pic32c/lib/thumb/v6-m/nofp\libc-size-musl.a(memcpy.o)
 .debug_ranges  0x0000000000001eb0       0x10 c:/program files/microchip/xc32/v4.60/bin/bin/../../lib/gcc/pic32c/8.3.1/../../../../pic32c/lib/thumb/v6-m/nofp\libc-size-musl.a(memset.o)
 .debug_ranges  0x0000000000001ec0       0x10 c:/program files/microchip/xc32/v4.60/bin/bin/../../lib/gcc/pic32c/8.3.1/../../../../pic32c/lib/thumb/v6-m/nofp\libc-size-musl.a(strlen.o)
 .debug_ranges  0x0000000000001ed0       0x10 c:/program files/microchip/xc32/v4.60/bin/bin/../../lib/gcc/pic32c/8.3.1/../../../../pic32c/lib/thumb/v6-m/nofp\libc-size-musl.a(strchr.o)
 .debug_ranges  0x0000000000001ee0       0x10 c:/program files/microchip/xc32/v4.60/bin/bin/../../lib/gcc/pic32c/8.3.1/../../../../pic32c/lib/thumb/v6-m/nofp\libc-size-musl.a(strchrnul.o)
 .debug_ranges  0x0000000000001ef0       0x10 c:/program files/microchip/xc32/v4.60/bin/bin/../../lib/gcc/pic32c/8.3.1/../../../../pic32c/lib/thumb/v6-m/nofp\libc-size-musl.a(strnlen.o)
 .debug_ranges  0x0000000000001f00       0x10 c:/program files/microchip/xc32/v4.60/bin/bin/../../lib/gcc/pic32c/8.3.1/../../../../pic32c/lib/thumb/v6-m/nofp\libc-size-musl.a(memchr.o)
 .debug_ranges  0x0000000000001f10       0x10 c:/program files/microchip/xc32/v4.60/bin/bin/../../lib/gcc/pic32c/8.3.1/../../../../pic32c/lib/thumb/v6-m/nofp\liblmalloc-musl.a(lite_calloc.o)
 .debug_ranges  0x0000000000001f20       0x38 c:/program files/microchip/xc32/v4.60/bin/bin/../../lib/gcc/pic32c/8.3.1/../../../../pic32c/lib/thumb/v6-m/nofp\liblmalloc-musl.a(lite_free.o)
 .debug_ranges  0x0000000000001f58       0x10 c:/program files/microchip/xc32/v4.60/bin/bin/../../lib/gcc/pic32c/8.3.1/../../../../pic32c/lib/thumb/v6-m/nofp\liblmalloc-musl.a(lite_malloc.o)
 .debug_ranges  0x0000000000001f68       0x30 c:/program files/microchip/xc32/v4.60/bin/bin/../../lib/gcc/pic32c/8.3.1/../../../../pic32c/lib/thumb/v6-m/nofp\libg-musl.a(__libc_start_main.o)
 .debug_ranges  0x0000000000001f98       0x10 c:/program files/microchip/xc32/v4.60/bin/bin/../../lib/gcc/pic32c/8.3.1/../../../../pic32c/lib/thumb/v6-m/nofp\libg-musl.a(expand_heap.o)
 .debug_ranges  0x0000000000001fa8       0x18 c:/program files/microchip/xc32/v4.60/bin/bin/../../lib/gcc/pic32c/8.3.1/../../../../pic32c/lib/thumb/v6-m/nofp\libg-musl.a(__sio_printf_cdeEfFgGnsu.o)
 .debug_ranges  0x0000000000001fc0       0x10 c:/program files/microchip/xc32/v4.60/bin/bin/../../lib/gcc/pic32c/8.3.1/../../../../pic32c/lib/thumb/v6-m/nofp\libg-musl.a(__fmt_d.o)
 .debug_ranges  0x0000000000001fd0       0x10 c:/program files/microchip/xc32/v4.60/bin/bin/../../lib/gcc/pic32c/8.3.1/../../../../pic32c/lib/thumb/v6-m/nofp\libg-musl.a(__fmt_fp.o)
 .debug_ranges  0x0000000000001fe0       0x10 c:/program files/microchip/xc32/v4.60/bin/bin/../../lib/gcc/pic32c/8.3.1/../../../../pic32c/lib/thumb/v6-m/nofp\libg-musl.a(__fmt_s.o)
 .debug_ranges  0x0000000000001ff0       0x10 c:/program files/microchip/xc32/v4.60/bin/bin/../../lib/gcc/pic32c/8.3.1/../../../../pic32c/lib/thumb/v6-m/nofp\libg-musl.a(__fmt_u.o)
 .debug_ranges  0x0000000000002000       0x10 c:/program files/microchip/xc32/v4.60/bin/bin/../../lib/gcc/pic32c/8.3.1/../../../../pic32c/lib/thumb/v6-m/nofp\libg-musl.a(__pop_float.o)
 .debug_ranges  0x0000000000002010       0x10 c:/program files/microchip/xc32/v4.60/bin/bin/../../lib/gcc/pic32c/8.3.1/../../../../pic32c/lib/thumb/v6-m/nofp\libg-musl.a(__pop_int.o)
 .debug_ranges  0x0000000000002020       0x10 c:/program files/microchip/xc32/v4.60/bin/bin/../../lib/gcc/pic32c/8.3.1/../../../../pic32c/lib/thumb/v6-m/nofp\libg-musl.a(__pop_ptr.o)
 .debug_ranges  0x0000000000002030       0x58 c:/program files/microchip/xc32/v4.60/bin/bin/../../lib/gcc/pic32c/8.3.1/../../../../pic32c/lib/thumb/v6-m/nofp\libg-musl.a(__printf_core.o)
 .debug_ranges  0x0000000000002088       0x18 c:/program files/microchip/xc32/v4.60/bin/bin/../../lib/gcc/pic32c/8.3.1/../../../../pic32c/lib/thumb/v6-m/nofp\libg-musl.a(stdin.o)
 .debug_ranges  0x00000000000020a0       0x20 c:/program files/microchip/xc32/v4.60/bin/bin/../../lib/gcc/pic32c/8.3.1/../../../../pic32c/lib/thumb/v6-m/nofp\libg-musl.a(stdout.o)
 .debug_ranges  0x00000000000020c0       0x10 c:/program files/microchip/xc32/v4.60/bin/bin/../../lib/gcc/pic32c/8.3.1/../../../../pic32c/lib/thumb/v6-m/nofp\libg-musl.a(puts.o)
 .debug_ranges  0x00000000000020d0       0x10 c:/program files/microchip/xc32/v4.60/bin/bin/../../lib/gcc/pic32c/8.3.1/../../../../pic32c/lib/thumb/v6-m/nofp\libg-musl.a(setbuf.o)
 .debug_ranges  0x00000000000020e0       0x10 c:/program files/microchip/xc32/v4.60/bin/bin/../../lib/gcc/pic32c/8.3.1/../../../../pic32c/lib/thumb/v6-m/nofp\libg-musl.a(atoi.o)
 .debug_ranges  0x00000000000020f0       0x10 c:/program files/microchip/xc32/v4.60/bin/bin/../../lib/gcc/pic32c/8.3.1/../../../../pic32c/lib/thumb/v6-m/nofp\libg-musl.a(gmtime.o)
 .debug_ranges  0x0000000000002100       0x10 c:/program files/microchip/xc32/v4.60/bin/bin/../../lib/gcc/pic32c/8.3.1/../../../../pic32c/lib/thumb/v6-m/nofp\libg-musl.a(gmtime_r.o)
 .debug_ranges  0x0000000000002110       0x10 c:/program files/microchip/xc32/v4.60/bin/bin/../../lib/gcc/pic32c/8.3.1/../../../../pic32c/lib/thumb/v6-m/nofp\libg-musl.a(mktime.o)
 .debug_ranges  0x0000000000002120       0x18 c:/program files/microchip/xc32/v4.60/bin/bin/../../lib/gcc/pic32c/8.3.1/../../../../pic32c/lib/thumb/v6-m/nofp\libg-musl.a(tolower.o)
 .debug_ranges  0x0000000000002138       0x10 c:/program files/microchip/xc32/v4.60/bin/bin/../../lib/gcc/pic32c/8.3.1/../../../../pic32c/lib/thumb/v6-m/nofp\libg-musl.a(__int_vfprintf.o)
 .debug_ranges  0x0000000000002148       0x10 c:/program files/microchip/xc32/v4.60/bin/bin/../../lib/gcc/pic32c/8.3.1/../../../../pic32c/lib/thumb/v6-m/nofp\libg-musl.a(fputs.o)
 .debug_ranges  0x0000000000002158       0x10 c:/program files/microchip/xc32/v4.60/bin/bin/../../lib/gcc/pic32c/8.3.1/../../../../pic32c/lib/thumb/v6-m/nofp\libg-musl.a(__cvt_u.o)
 .debug_ranges  0x0000000000002168       0x10 c:/program files/microchip/xc32/v4.60/bin/bin/../../lib/gcc/pic32c/8.3.1/../../../../pic32c/lib/thumb/v6-m/nofp\libg-musl.a(__stdio_read.o)
 .debug_ranges  0x0000000000002178       0x10 c:/program files/microchip/xc32/v4.60/bin/bin/../../lib/gcc/pic32c/8.3.1/../../../../pic32c/lib/thumb/v6-m/nofp\libg-musl.a(__towrite_rw.o)
 .debug_ranges  0x0000000000002188       0x18 c:/program files/microchip/xc32/v4.60/bin/bin/../../lib/gcc/pic32c/8.3.1/../../../../pic32c/lib/thumb/v6-m/nofp\libg-musl.a(fwrite.o)
 .debug_ranges  0x00000000000021a0       0x20 c:/program files/microchip/xc32/v4.60/bin/bin/../../lib/gcc/pic32c/8.3.1/../../../../pic32c/lib/thumb/v6-m/nofp\libg-musl.a(putc.o)
 .debug_ranges  0x00000000000021c0       0x18 c:/program files/microchip/xc32/v4.60/bin/bin/../../lib/gcc/pic32c/8.3.1/../../../../pic32c/lib/thumb/v6-m/nofp\libg-musl.a(setvbuf.o)
 .debug_ranges  0x00000000000021d8       0x10 c:/program files/microchip/xc32/v4.60/bin/bin/../../lib/gcc/pic32c/8.3.1/../../../../pic32c/lib/thumb/v6-m/nofp\libg-musl.a(__tm_to_secs.o)
 .debug_ranges  0x00000000000021e8       0x28 c:/program files/microchip/xc32/v4.60/bin/bin/../../lib/gcc/pic32c/8.3.1/../../../../pic32c/lib/thumb/v6-m/nofp\libg-musl.a(__year_to_secs.o)
 .debug_ranges  0x0000000000002210       0x10 c:/program files/microchip/xc32/v4.60/bin/bin/../../lib/gcc/pic32c/8.3.1/../../../../pic32c/lib/thumb/v6-m/nofp\libg-musl.a(__secs_to_tm.o)
 .debug_ranges  0x0000000000002220       0x10 c:/program files/microchip/xc32/v4.60/bin/bin/../../lib/gcc/pic32c/8.3.1/../../../../pic32c/lib/thumb/v6-m/nofp\libg-musl.a(readv.o)
 .debug_ranges  0x0000000000002230       0x18 c:/program files/microchip/xc32/v4.60/bin/bin/../../lib/gcc/pic32c/8.3.1/../../../../pic32c/lib/thumb/v6-m/nofp\libg-musl.a(__init_stdio.o)
 .debug_ranges  0x0000000000002248       0x18 c:/program files/microchip/xc32/v4.60/bin/bin/../../lib/gcc/pic32c/8.3.1/../../../../pic32c/lib/thumb/v6-m/nofp\libg-musl.a(__out.o)
 .debug_ranges  0x0000000000002260       0x10 c:/program files/microchip/xc32/v4.60/bin/bin/../../lib/gcc/pic32c/8.3.1/../../../../pic32c/lib/thumb/v6-m/nofp\libg-musl.a(__putc.o)
 .debug_ranges  0x0000000000002270       0x20 c:/program files/microchip/xc32/v4.60/bin/bin/../../lib/gcc/pic32c/8.3.1/../../../../pic32c/lib/thumb/v6-m/nofp\libg-musl.a(__stderr.o)
 .debug_ranges  0x0000000000002290       0x18 c:/program files/microchip/xc32/v4.60/bin/bin/../../lib/gcc/pic32c/8.3.1/../../../../pic32c/lib/thumb/v6-m/nofp\libg-musl.a(__stdio_close.o)
 .debug_ranges  0x00000000000022a8       0x30 c:/program files/microchip/xc32/v4.60/bin/bin/../../lib/gcc/pic32c/8.3.1/../../../../pic32c/lib/thumb/v6-m/nofp\libg-musl.a(__stdio_write.o)
 .debug_ranges  0x00000000000022d8       0x20 c:/program files/microchip/xc32/v4.60/bin/bin/../../lib/gcc/pic32c/8.3.1/../../../../pic32c/lib/thumb/v6-m/nofp\libg-musl.a(__stdout.o)
 .debug_ranges  0x00000000000022f8       0x18 c:/program files/microchip/xc32/v4.60/bin/bin/../../lib/gcc/pic32c/8.3.1/../../../../pic32c/lib/thumb/v6-m/nofp\libg-musl.a(__towrite.o)
 .debug_ranges  0x0000000000002310       0x10 c:/program files/microchip/xc32/v4.60/bin/bin/../../lib/gcc/pic32c/8.3.1/../../../../pic32c/lib/thumb/v6-m/nofp\libg-musl.a(__month_to_secs.o)
 .debug_ranges  0x0000000000002320       0x10 c:/program files/microchip/xc32/v4.60/bin/bin/../../lib/gcc/pic32c/8.3.1/../../../../pic32c/lib/thumb/v6-m/nofp\libg-musl.a(writev.o)
 .debug_ranges  0x0000000000002330       0x10 c:/program files/microchip/xc32/v4.60/bin/bin/../../lib/gcc/pic32c/8.3.1/../../../../pic32c/lib/thumb/v6-m/nofp\libg-musl.a(__overflow.o)
 .debug_ranges  0x0000000000002340       0x18 c:/program files/microchip/xc32/v4.60/bin/bin/../../lib/gcc/pic32c/8.3.1/../../../../pic32c/lib/thumb/v6-m/nofp\libg-musl.a(__fwrite.o)
 .debug_ranges  0x0000000000002358       0x28 c:/program files/microchip/xc32/v4.60/bin/bin/../../lib/gcc/pic32c/8.3.1/thumb/v6-m/nofp\libgcc.a(_muldi3.o)
 .debug_ranges  0x0000000000002380       0x20 c:/program files/microchip/xc32/v4.60/bin/bin/../../lib/gcc/pic32c/8.3.1/thumb/v6-m/nofp\libgcc.a(_divdi3.o)
 .debug_ranges  0x00000000000023a0       0x10 c:/program files/microchip/xc32/v4.60/bin/bin/../../lib/gcc/pic32c/8.3.1/../../../../pic32c/lib/thumb/v6-m/nofp\libpic32c.a(close.o)
 .debug_ranges  0x00000000000023b0       0x10 c:/program files/microchip/xc32/v4.60/bin/bin/../../lib/gcc/pic32c/8.3.1/../../../../pic32c/lib/thumb/v6-m/nofp\libpic32c.a(lseek.o)
 .debug_ranges  0x00000000000023c0       0x20 c:/program files/microchip/xc32/v4.60/bin/bin/../../lib/gcc/pic32c/8.3.1/../../../../pic32c/lib/thumb/v6-m/nofp\libpic32c.a(sbrk.o)
 .debug_ranges  0x00000000000023e0       0x10 c:/program files/microchip/xc32/v4.60/bin/bin/../../lib/gcc/pic32c/8.3.1/../../../../pic32c/lib/thumb/v6-m/nofp\libc-size-musl.a(strcpy.o)
 .debug_ranges  0x00000000000023f0       0x10 c:/program files/microchip/xc32/v4.60/bin/bin/../../lib/gcc/pic32c/8.3.1/../../../../pic32c/lib/thumb/v6-m/nofp\libc-size-musl.a(stpcpy.o)
 .debug_ranges  0x0000000000002400       0x10 c:/program files/microchip/xc32/v4.60/bin/bin/../../lib/gcc/pic32c/8.3.1/../../../../pic32c/lib/thumb/v6-m/nofp\libpic32c.a(pic32_data_init_clear.o)
 .debug_ranges  0x0000000000002410       0x10 c:/program files/microchip/xc32/v4.60/bin/bin/../../lib/gcc/pic32c/8.3.1/../../../../pic32c/lib/thumb/v6-m/nofp\libpic32c.a(pic32_data_init_copy.o)

.debug_line     0x0000000000000000    0x1fe1f
 .debug_line    0x0000000000000000      0x49f build/SAMD21_IOT_WG_ICM42688/debug/_ext/2048461350/icm42688_sensor.o
 .debug_line    0x000000000000049f     0x17b5 build/SAMD21_IOT_WG_ICM42688/debug/_ext/1660664302/drv_spi.o
 .debug_line    0x0000000000001c54      0x11d build/SAMD21_IOT_WG_ICM42688/debug/_ext/1164161090/wdrv_winc_gpio.o
 .debug_line    0x0000000000001d71      0x175 build/SAMD21_IOT_WG_ICM42688/debug/_ext/1164161090/wdrv_winc_eint.o
 .debug_line    0x0000000000001ee6      0x6ef build/SAMD21_IOT_WG_ICM42688/debug/_ext/101005277/wdrv_winc_spi.o
 .debug_line    0x00000000000025d5      0x1af build/SAMD21_IOT_WG_ICM42688/debug/_ext/90265895/nm_common.o
 .debug_line    0x0000000000002784      0x73f build/SAMD21_IOT_WG_ICM42688/debug/_ext/121554788/m2m_ssl.o
 .debug_line    0x0000000000002ec3      0xc4c build/SAMD21_IOT_WG_ICM42688/debug/_ext/121554788/m2m_hif.o
 .debug_line    0x0000000000003b0f     0x1b6a build/SAMD21_IOT_WG_ICM42688/debug/_ext/121554788/m2m_wifi.o
 .debug_line    0x0000000000005679      0xf0d build/SAMD21_IOT_WG_ICM42688/debug/_ext/121554788/nmspi.o
 .debug_line    0x0000000000006586      0x547 build/SAMD21_IOT_WG_ICM42688/debug/_ext/121554788/nmdrv.o
 .debug_line    0x0000000000006acd      0x7d7 build/SAMD21_IOT_WG_ICM42688/debug/_ext/121554788/m2m_ota.o
 .debug_line    0x00000000000072a4      0xac4 build/SAMD21_IOT_WG_ICM42688/debug/_ext/121554788/nmasic.o
 .debug_line    0x0000000000007d68      0x333 build/SAMD21_IOT_WG_ICM42688/debug/_ext/121554788/nmbus.o
 .debug_line    0x000000000000809b     0x10ad build/SAMD21_IOT_WG_ICM42688/debug/_ext/548032175/socket.o
 .debug_line    0x0000000000009148      0x1df build/SAMD21_IOT_WG_ICM42688/debug/_ext/548032175/inet_addr.o
 .debug_line    0x0000000000009327      0x1fb build/SAMD21_IOT_WG_ICM42688/debug/_ext/548032175/inet_ntop.o
 .debug_line    0x0000000000009522      0x1cd build/SAMD21_IOT_WG_ICM42688/debug/_ext/609036575/flexible_flash.o
 .debug_line    0x00000000000096ef      0x882 build/SAMD21_IOT_WG_ICM42688/debug/_ext/609036575/spi_flash.o
 .debug_line    0x0000000000009f71      0x130 build/SAMD21_IOT_WG_ICM42688/debug/_ext/1784303044/wdrv_winc_osal.o
 .debug_line    0x000000000000a0a1      0x8f2 build/SAMD21_IOT_WG_ICM42688/debug/_ext/907429946/wdrv_winc_sta.o
 .debug_line    0x000000000000a993      0xa5a build/SAMD21_IOT_WG_ICM42688/debug/_ext/907429946/wdrv_winc_socket.o
 .debug_line    0x000000000000b3ed      0x5ac build/SAMD21_IOT_WG_ICM42688/debug/_ext/907429946/wdrv_winc_systime.o
 .debug_line    0x000000000000b999      0x5e3 build/SAMD21_IOT_WG_ICM42688/debug/_ext/907429946/wdrv_winc_authctx.o
 .debug_line    0x000000000000bf7c      0xdbb build/SAMD21_IOT_WG_ICM42688/debug/_ext/907429946/wdrv_winc_host_file.o
 .debug_line    0x000000000000cd37     0x19f1 build/SAMD21_IOT_WG_ICM42688/debug/_ext/907429946/wdrv_winc.o
 .debug_line    0x000000000000e728      0x32c build/SAMD21_IOT_WG_ICM42688/debug/_ext/907429946/wdrv_winc_bssctx.o
 .debug_line    0x000000000000ea54      0x239 build/SAMD21_IOT_WG_ICM42688/debug/_ext/1750425231/plib_clock.o
 .debug_line    0x000000000000ec8d      0x7d4 build/SAMD21_IOT_WG_ICM42688/debug/_ext/1580516298/plib_dmac.o
 .debug_line    0x000000000000f461      0x293 build/SAMD21_IOT_WG_ICM42688/debug/_ext/503204096/plib_eic.o
 .debug_line    0x000000000000f6f4      0x619 build/SAMD21_IOT_WG_ICM42688/debug/_ext/1580823105/plib_nvic.o
 .debug_line    0x000000000000fd0d      0x337 build/SAMD21_IOT_WG_ICM42688/debug/_ext/11470383/plib_nvmctrl.o
 .debug_line    0x0000000000010044      0x3be build/SAMD21_IOT_WG_ICM42688/debug/_ext/1580876256/plib_port.o
 .debug_line    0x0000000000010402      0x50c build/SAMD21_IOT_WG_ICM42688/debug/_ext/1014017276/plib_sercom0_spi_master.o
 .debug_line    0x000000000001090e      0x823 build/SAMD21_IOT_WG_ICM42688/debug/_ext/1014017276/plib_sercom2_spi_master.o
 .debug_line    0x0000000000011131      0x564 build/SAMD21_IOT_WG_ICM42688/debug/_ext/177673482/plib_sercom5_usart.o
 .debug_line    0x0000000000011695      0x303 build/SAMD21_IOT_WG_ICM42688/debug/_ext/223004715/plib_systick.o
 .debug_line    0x0000000000011998      0x289 build/SAMD21_IOT_WG_ICM42688/debug/_ext/399410062/plib_tc3.o
 .debug_line    0x0000000000011c21      0x2a1 build/SAMD21_IOT_WG_ICM42688/debug/_ext/399410062/plib_tc4.o
 .debug_line    0x0000000000011ec2      0x16b build/SAMD21_IOT_WG_ICM42688/debug/_ext/1357625803/xc32_monitor.o
 .debug_line    0x000000000001202d      0x16a build/SAMD21_IOT_WG_ICM42688/debug/_ext/1584719636/sys_dma.o
 .debug_line    0x0000000000012197      0x2f5 build/SAMD21_IOT_WG_ICM42688/debug/_ext/1318297016/sys_int.o
 .debug_line    0x000000000001248c     0x14b3 build/SAMD21_IOT_WG_ICM42688/debug/_ext/386530258/sys_time.o
 .debug_line    0x000000000001393f      0x7cc build/SAMD21_IOT_WG_ICM42688/debug/_ext/1832905403/initialization.o
 .debug_line    0x000000000001410b      0x108 build/SAMD21_IOT_WG_ICM42688/debug/_ext/1832905403/interrupts.o
 .debug_line    0x0000000000014213       0x6b build/SAMD21_IOT_WG_ICM42688/debug/_ext/1832905403/exceptions.o
 .debug_line    0x000000000001427e      0x194 build/SAMD21_IOT_WG_ICM42688/debug/_ext/1832905403/startup_xc32.o
 .debug_line    0x0000000000014412       0x92 build/SAMD21_IOT_WG_ICM42688/debug/_ext/1832905403/tasks.o
 .debug_line    0x00000000000144a4     0x2865 build/SAMD21_IOT_WG_ICM42688/debug/_ext/1341251756/Icm426xxDriver_HL.o
 .debug_line    0x0000000000016d09      0x2f1 build/SAMD21_IOT_WG_ICM42688/debug/_ext/1341251756/Icm426xxTransport.o
 .debug_line    0x0000000000016ffa      0x677 build/SAMD21_IOT_WG_ICM42688/debug/_ext/1360937237/main.o
 .debug_line    0x0000000000017671      0x4eb build/SAMD21_IOT_WG_ICM42688/debug/_ext/1360937237/ringbuffer.o
 .debug_line    0x0000000000017b5c      0x28c build/SAMD21_IOT_WG_ICM42688/debug/_ext/1360937237/app.o
 .debug_line    0x0000000000017de8      0x3fe build/SAMD21_IOT_WG_ICM42688/debug/_ext/1360937237/ws2812.o
 .debug_line    0x00000000000181e6      0x445 build/SAMD21_IOT_WG_ICM42688/debug/_ext/1360937237/winc1500_udp_client.o
 .debug_line    0x000000000001862b       0xa5 c:/program files/microchip/xc32/v4.60/bin/bin/../../lib/gcc/pic32c/8.3.1/../../../../pic32c/lib/thumb/v6-m/nofp\libpic32c.a(data_init.o)
 .debug_line    0x00000000000186d0       0xee c:/program files/microchip/xc32/v4.60/bin/bin/../../lib/gcc/pic32c/8.3.1/../../../../pic32c/lib/thumb/v6-m/nofp\libc-size-musl.a(memcpy.o)
 .debug_line    0x00000000000187be       0xe3 c:/program files/microchip/xc32/v4.60/bin/bin/../../lib/gcc/pic32c/8.3.1/../../../../pic32c/lib/thumb/v6-m/nofp\libc-size-musl.a(memset.o)
 .debug_line    0x00000000000188a1       0xee c:/program files/microchip/xc32/v4.60/bin/bin/../../lib/gcc/pic32c/8.3.1/../../../../pic32c/lib/thumb/v6-m/nofp\libc-size-musl.a(strlen.o)
 .debug_line    0x000000000001898f       0xb2 c:/program files/microchip/xc32/v4.60/bin/bin/../../lib/gcc/pic32c/8.3.1/../../../../pic32c/lib/thumb/v6-m/nofp\libc-size-musl.a(strchr.o)
 .debug_line    0x0000000000018a41      0x19c c:/program files/microchip/xc32/v4.60/bin/bin/../../lib/gcc/pic32c/8.3.1/../../../../pic32c/lib/thumb/v6-m/nofp\libc-size-musl.a(strchrnul.o)
 .debug_line    0x0000000000018bdd      0x14d c:/program files/microchip/xc32/v4.60/bin/bin/../../lib/gcc/pic32c/8.3.1/../../../../pic32c/lib/thumb/v6-m/nofp\libc-size-musl.a(strnlen.o)
 .debug_line    0x0000000000018d2a       0xfd c:/program files/microchip/xc32/v4.60/bin/bin/../../lib/gcc/pic32c/8.3.1/../../../../pic32c/lib/thumb/v6-m/nofp\libc-size-musl.a(memchr.o)
 .debug_line    0x0000000000018e27      0x15a c:/program files/microchip/xc32/v4.60/bin/bin/../../lib/gcc/pic32c/8.3.1/../../../../pic32c/lib/thumb/v6-m/nofp\liblmalloc-musl.a(lite_calloc.o)
 .debug_line    0x0000000000018f81      0x266 c:/program files/microchip/xc32/v4.60/bin/bin/../../lib/gcc/pic32c/8.3.1/../../../../pic32c/lib/thumb/v6-m/nofp\liblmalloc-musl.a(lite_free.o)
 .debug_line    0x00000000000191e7      0x1d3 c:/program files/microchip/xc32/v4.60/bin/bin/../../lib/gcc/pic32c/8.3.1/../../../../pic32c/lib/thumb/v6-m/nofp\liblmalloc-musl.a(lite_malloc.o)
 .debug_line    0x00000000000193ba      0x1bc c:/program files/microchip/xc32/v4.60/bin/bin/../../lib/gcc/pic32c/8.3.1/../../../../pic32c/lib/thumb/v6-m/nofp\libg-musl.a(__libc_start_main.o)
 .debug_line    0x0000000000019576       0x9a c:/program files/microchip/xc32/v4.60/bin/bin/../../lib/gcc/pic32c/8.3.1/../../../../pic32c/lib/thumb/v6-m/nofp\libg-musl.a(__errno_location.o)
 .debug_line    0x0000000000019610       0xb5 c:/program files/microchip/xc32/v4.60/bin/bin/../../lib/gcc/pic32c/8.3.1/../../../../pic32c/lib/thumb/v6-m/nofp\libg-musl.a(libc.o)
 .debug_line    0x00000000000196c5       0xec c:/program files/microchip/xc32/v4.60/bin/bin/../../lib/gcc/pic32c/8.3.1/../../../../pic32c/lib/thumb/v6-m/nofp\libg-musl.a(expand_heap.o)
 .debug_line    0x00000000000197b1      0x1c6 c:/program files/microchip/xc32/v4.60/bin/bin/../../lib/gcc/pic32c/8.3.1/../../../../pic32c/lib/thumb/v6-m/nofp\libg-musl.a(__sio_printf_cdeEfFgGnsu.o)
 .debug_line    0x0000000000019977      0x20b c:/program files/microchip/xc32/v4.60/bin/bin/../../lib/gcc/pic32c/8.3.1/../../../../pic32c/lib/thumb/v6-m/nofp\libg-musl.a(__fmt_d.o)
 .debug_line    0x0000000000019b82      0x66d c:/program files/microchip/xc32/v4.60/bin/bin/../../lib/gcc/pic32c/8.3.1/../../../../pic32c/lib/thumb/v6-m/nofp\libg-musl.a(__fmt_fp.o)
 .debug_line    0x000000000001a1ef      0x204 c:/program files/microchip/xc32/v4.60/bin/bin/../../lib/gcc/pic32c/8.3.1/../../../../pic32c/lib/thumb/v6-m/nofp\libg-musl.a(__fmt_s.o)
 .debug_line    0x000000000001a3f3      0x187 c:/program files/microchip/xc32/v4.60/bin/bin/../../lib/gcc/pic32c/8.3.1/../../../../pic32c/lib/thumb/v6-m/nofp\libg-musl.a(__fmt_u.o)
 .debug_line    0x000000000001a57a      0x166 c:/program files/microchip/xc32/v4.60/bin/bin/../../lib/gcc/pic32c/8.3.1/../../../../pic32c/lib/thumb/v6-m/nofp\libg-musl.a(__pop_float.o)
 .debug_line    0x000000000001a6e0      0x211 c:/program files/microchip/xc32/v4.60/bin/bin/../../lib/gcc/pic32c/8.3.1/../../../../pic32c/lib/thumb/v6-m/nofp\libg-musl.a(__pop_int.o)
 .debug_line    0x000000000001a8f1      0x1c8 c:/program files/microchip/xc32/v4.60/bin/bin/../../lib/gcc/pic32c/8.3.1/../../../../pic32c/lib/thumb/v6-m/nofp\libg-musl.a(__pop_ptr.o)
 .debug_line    0x000000000001aab9      0x6c7 c:/program files/microchip/xc32/v4.60/bin/bin/../../lib/gcc/pic32c/8.3.1/../../../../pic32c/lib/thumb/v6-m/nofp\libg-musl.a(__printf_core.o)
 .debug_line    0x000000000001b180      0x1cf c:/program files/microchip/xc32/v4.60/bin/bin/../../lib/gcc/pic32c/8.3.1/../../../../pic32c/lib/thumb/v6-m/nofp\libg-musl.a(stdin.o)
 .debug_line    0x000000000001b34f      0x191 c:/program files/microchip/xc32/v4.60/bin/bin/../../lib/gcc/pic32c/8.3.1/../../../../pic32c/lib/thumb/v6-m/nofp\libg-musl.a(stdout.o)
 .debug_line    0x000000000001b4e0      0x1c6 c:/program files/microchip/xc32/v4.60/bin/bin/../../lib/gcc/pic32c/8.3.1/../../../../pic32c/lib/thumb/v6-m/nofp\libg-musl.a(puts.o)
 .debug_line    0x000000000001b6a6      0x133 c:/program files/microchip/xc32/v4.60/bin/bin/../../lib/gcc/pic32c/8.3.1/../../../../pic32c/lib/thumb/v6-m/nofp\libg-musl.a(setbuf.o)
 .debug_line    0x000000000001b7d9      0x173 c:/program files/microchip/xc32/v4.60/bin/bin/../../lib/gcc/pic32c/8.3.1/../../../../pic32c/lib/thumb/v6-m/nofp\libg-musl.a(atoi.o)
 .debug_line    0x000000000001b94c      0x130 c:/program files/microchip/xc32/v4.60/bin/bin/../../lib/gcc/pic32c/8.3.1/../../../../pic32c/lib/thumb/v6-m/nofp\libg-musl.a(gmtime.o)
 .debug_line    0x000000000001ba7c      0x25c c:/program files/microchip/xc32/v4.60/bin/bin/../../lib/gcc/pic32c/8.3.1/../../../../pic32c/lib/thumb/v6-m/nofp\libg-musl.a(gmtime_r.o)
 .debug_line    0x000000000001bcd8      0x285 c:/program files/microchip/xc32/v4.60/bin/bin/../../lib/gcc/pic32c/8.3.1/../../../../pic32c/lib/thumb/v6-m/nofp\libg-musl.a(mktime.o)
 .debug_line    0x000000000001bf5d      0x15c c:/program files/microchip/xc32/v4.60/bin/bin/../../lib/gcc/pic32c/8.3.1/../../../../pic32c/lib/thumb/v6-m/nofp\libg-musl.a(tolower.o)
 .debug_line    0x000000000001c0b9       0xfb c:/program files/microchip/xc32/v4.60/bin/bin/../../lib/gcc/pic32c/8.3.1/../../../../pic32c/lib/thumb/v6-m/nofp\libg-musl.a(__environ.o)
 .debug_line    0x000000000001c1b4      0x172 c:/program files/microchip/xc32/v4.60/bin/bin/../../lib/gcc/pic32c/8.3.1/../../../../pic32c/lib/thumb/v6-m/nofp\libg-musl.a(__int_vfprintf.o)
 .debug_line    0x000000000001c326      0x236 c:/program files/microchip/xc32/v4.60/bin/bin/../../lib/gcc/pic32c/8.3.1/../../../../pic32c/lib/thumb/v6-m/nofp\libg-musl.a(fputs.o)
 .debug_line    0x000000000001c55c      0x1d7 c:/program files/microchip/xc32/v4.60/bin/bin/../../lib/gcc/pic32c/8.3.1/../../../../pic32c/lib/thumb/v6-m/nofp\libg-musl.a(__cvt_u.o)
 .debug_line    0x000000000001c733      0x240 c:/program files/microchip/xc32/v4.60/bin/bin/../../lib/gcc/pic32c/8.3.1/../../../../pic32c/lib/thumb/v6-m/nofp\libg-musl.a(__stdio_read.o)
 .debug_line    0x000000000001c973      0x1eb c:/program files/microchip/xc32/v4.60/bin/bin/../../lib/gcc/pic32c/8.3.1/../../../../pic32c/lib/thumb/v6-m/nofp\libg-musl.a(__towrite_rw.o)
 .debug_line    0x000000000001cb5e      0x1f5 c:/program files/microchip/xc32/v4.60/bin/bin/../../lib/gcc/pic32c/8.3.1/../../../../pic32c/lib/thumb/v6-m/nofp\libg-musl.a(fwrite.o)
 .debug_line    0x000000000001cd53      0x1a3 c:/program files/microchip/xc32/v4.60/bin/bin/../../lib/gcc/pic32c/8.3.1/../../../../pic32c/lib/thumb/v6-m/nofp\libg-musl.a(putc.o)
 .debug_line    0x000000000001cef6      0x223 c:/program files/microchip/xc32/v4.60/bin/bin/../../lib/gcc/pic32c/8.3.1/../../../../pic32c/lib/thumb/v6-m/nofp\libg-musl.a(setvbuf.o)
 .debug_line    0x000000000001d119      0x1da c:/program files/microchip/xc32/v4.60/bin/bin/../../lib/gcc/pic32c/8.3.1/../../../../pic32c/lib/thumb/v6-m/nofp\libg-musl.a(__tm_to_secs.o)
 .debug_line    0x000000000001d2f3      0x20b c:/program files/microchip/xc32/v4.60/bin/bin/../../lib/gcc/pic32c/8.3.1/../../../../pic32c/lib/thumb/v6-m/nofp\libg-musl.a(__year_to_secs.o)
 .debug_line    0x000000000001d4fe      0x322 c:/program files/microchip/xc32/v4.60/bin/bin/../../lib/gcc/pic32c/8.3.1/../../../../pic32c/lib/thumb/v6-m/nofp\libg-musl.a(__secs_to_tm.o)
 .debug_line    0x000000000001d820      0x15c c:/program files/microchip/xc32/v4.60/bin/bin/../../lib/gcc/pic32c/8.3.1/../../../../pic32c/lib/thumb/v6-m/nofp\libg-musl.a(readv.o)
 .debug_line    0x000000000001d97c       0xd0 c:/program files/microchip/xc32/v4.60/bin/bin/../../lib/gcc/pic32c/8.3.1/../../../../pic32c/lib/thumb/v6-m/nofp\libg-musl.a(__init_stdio.o)
 .debug_line    0x000000000001da4c      0x28f c:/program files/microchip/xc32/v4.60/bin/bin/../../lib/gcc/pic32c/8.3.1/../../../../pic32c/lib/thumb/v6-m/nofp\libg-musl.a(__out.o)
 .debug_line    0x000000000001dcdb      0x15b c:/program files/microchip/xc32/v4.60/bin/bin/../../lib/gcc/pic32c/8.3.1/../../../../pic32c/lib/thumb/v6-m/nofp\libg-musl.a(__putc.o)
 .debug_line    0x000000000001de36      0x1da c:/program files/microchip/xc32/v4.60/bin/bin/../../lib/gcc/pic32c/8.3.1/../../../../pic32c/lib/thumb/v6-m/nofp\libg-musl.a(__stderr.o)
 .debug_line    0x000000000001e010      0x2de c:/program files/microchip/xc32/v4.60/bin/bin/../../lib/gcc/pic32c/8.3.1/../../../../pic32c/lib/thumb/v6-m/nofp\libg-musl.a(__stdio_close.o)
 .debug_line    0x000000000001e2ee      0x339 c:/program files/microchip/xc32/v4.60/bin/bin/../../lib/gcc/pic32c/8.3.1/../../../../pic32c/lib/thumb/v6-m/nofp\libg-musl.a(__stdio_write.o)
 .debug_line    0x000000000001e627      0x1da c:/program files/microchip/xc32/v4.60/bin/bin/../../lib/gcc/pic32c/8.3.1/../../../../pic32c/lib/thumb/v6-m/nofp\libg-musl.a(__stdout.o)
 .debug_line    0x000000000001e801      0x180 c:/program files/microchip/xc32/v4.60/bin/bin/../../lib/gcc/pic32c/8.3.1/../../../../pic32c/lib/thumb/v6-m/nofp\libg-musl.a(__towrite.o)
 .debug_line    0x000000000001e981       0xc6 c:/program files/microchip/xc32/v4.60/bin/bin/../../lib/gcc/pic32c/8.3.1/../../../../pic32c/lib/thumb/v6-m/nofp\libg-musl.a(__month_to_secs.o)
 .debug_line    0x000000000001ea47      0x15d c:/program files/microchip/xc32/v4.60/bin/bin/../../lib/gcc/pic32c/8.3.1/../../../../pic32c/lib/thumb/v6-m/nofp\libg-musl.a(writev.o)
 .debug_line    0x000000000001eba4      0x1fb c:/program files/microchip/xc32/v4.60/bin/bin/../../lib/gcc/pic32c/8.3.1/../../../../pic32c/lib/thumb/v6-m/nofp\libg-musl.a(__overflow.o)
 .debug_line    0x000000000001ed9f      0x1e4 c:/program files/microchip/xc32/v4.60/bin/bin/../../lib/gcc/pic32c/8.3.1/../../../../pic32c/lib/thumb/v6-m/nofp\libg-musl.a(__fwrite.o)
 .debug_line    0x000000000001ef83       0xa8 c:/program files/microchip/xc32/v4.60/bin/bin/../../lib/gcc/pic32c/8.3.1/thumb/v6-m/nofp\libgcc.a(_udivsi3.o)
 .debug_line    0x000000000001f02b       0xb6 c:/program files/microchip/xc32/v4.60/bin/bin/../../lib/gcc/pic32c/8.3.1/thumb/v6-m/nofp\libgcc.a(_divsi3.o)
 .debug_line    0x000000000001f0e1       0x91 c:/program files/microchip/xc32/v4.60/bin/bin/../../lib/gcc/pic32c/8.3.1/thumb/v6-m/nofp\libgcc.a(_dvmd_tls.o)
 .debug_line    0x000000000001f172       0x9c c:/program files/microchip/xc32/v4.60/bin/bin/../../lib/gcc/pic32c/8.3.1/thumb/v6-m/nofp\libgcc.a(_aeabi_ldivmod.o)
 .debug_line    0x000000000001f20e       0x9c c:/program files/microchip/xc32/v4.60/bin/bin/../../lib/gcc/pic32c/8.3.1/thumb/v6-m/nofp\libgcc.a(_aeabi_uldivmod.o)
 .debug_line    0x000000000001f2aa       0xe7 c:/program files/microchip/xc32/v4.60/bin/bin/../../lib/gcc/pic32c/8.3.1/thumb/v6-m/nofp\libgcc.a(_muldi3.o)
 .debug_line    0x000000000001f391      0x188 c:/program files/microchip/xc32/v4.60/bin/bin/../../lib/gcc/pic32c/8.3.1/thumb/v6-m/nofp\libgcc.a(_udivmoddi4.o)
 .debug_line    0x000000000001f519       0xb9 c:/program files/microchip/xc32/v4.60/bin/bin/../../lib/gcc/pic32c/8.3.1/thumb/v6-m/nofp\libgcc.a(bpabi.o)
 .debug_line    0x000000000001f5d2       0x9c c:/program files/microchip/xc32/v4.60/bin/bin/../../lib/gcc/pic32c/8.3.1/thumb/v6-m/nofp\libgcc.a(_lshrdi3.o)
 .debug_line    0x000000000001f66e       0x9c c:/program files/microchip/xc32/v4.60/bin/bin/../../lib/gcc/pic32c/8.3.1/thumb/v6-m/nofp\libgcc.a(_ashldi3.o)
 .debug_line    0x000000000001f70a       0x9b c:/program files/microchip/xc32/v4.60/bin/bin/../../lib/gcc/pic32c/8.3.1/thumb/v6-m/nofp\libgcc.a(_clzdi2.o)
 .debug_line    0x000000000001f7a5      0x1d9 c:/program files/microchip/xc32/v4.60/bin/bin/../../lib/gcc/pic32c/8.3.1/thumb/v6-m/nofp\libgcc.a(_divdi3.o)
 .debug_line    0x000000000001f97e       0xa5 c:/program files/microchip/xc32/v4.60/bin/bin/../../lib/gcc/pic32c/8.3.1/thumb/v6-m/nofp\libgcc.a(_clzsi2.o)
 .debug_line    0x000000000001fa23       0x5c c:/program files/microchip/xc32/v4.60/bin/bin/../../lib/gcc/pic32c/8.3.1/../../../../pic32c/lib/thumb/v6-m/nofp\libpic32c.a(close.o)
 .debug_line    0x000000000001fa7f       0x59 c:/program files/microchip/xc32/v4.60/bin/bin/../../lib/gcc/pic32c/8.3.1/../../../../pic32c/lib/thumb/v6-m/nofp\libpic32c.a(lseek.o)
 .debug_line    0x000000000001fad8       0xdd c:/program files/microchip/xc32/v4.60/bin/bin/../../lib/gcc/pic32c/8.3.1/../../../../pic32c/lib/thumb/v6-m/nofp\libpic32c.a(sbrk.o)
 .debug_line    0x000000000001fbb5       0xb2 c:/program files/microchip/xc32/v4.60/bin/bin/../../lib/gcc/pic32c/8.3.1/../../../../pic32c/lib/thumb/v6-m/nofp\libc-size-musl.a(strcpy.o)
 .debug_line    0x000000000001fc67       0xc1 c:/program files/microchip/xc32/v4.60/bin/bin/../../lib/gcc/pic32c/8.3.1/../../../../pic32c/lib/thumb/v6-m/nofp\libc-size-musl.a(stpcpy.o)
 .debug_line    0x000000000001fd28       0x6f c:/program files/microchip/xc32/v4.60/bin/bin/../../lib/gcc/pic32c/8.3.1/../../../../pic32c/lib/thumb/v6-m/nofp\libpic32c.a(pic32_data_init_clear.o)
 .debug_line    0x000000000001fd97       0x88 c:/program files/microchip/xc32/v4.60/bin/bin/../../lib/gcc/pic32c/8.3.1/../../../../pic32c/lib/thumb/v6-m/nofp\libpic32c.a(pic32_data_init_copy.o)

.debug_str      0x0000000000000000    0x33b21
 .debug_str     0x0000000000000000     0x10ee build/SAMD21_IOT_WG_ICM42688/debug/_ext/2048461350/icm42688_sensor.o
 .debug_str     0x00000000000010ee     0x1e00 build/SAMD21_IOT_WG_ICM42688/debug/_ext/1660664302/drv_spi.o
 .debug_str     0x0000000000002eee      0x3ff build/SAMD21_IOT_WG_ICM42688/debug/_ext/1164161090/wdrv_winc_gpio.o
 .debug_str     0x00000000000032ed      0x33d build/SAMD21_IOT_WG_ICM42688/debug/_ext/1164161090/wdrv_winc_eint.o
 .debug_str     0x000000000000362a      0xf7d build/SAMD21_IOT_WG_ICM42688/debug/_ext/101005277/wdrv_winc_spi.o
 .debug_str     0x00000000000045a7      0x34d build/SAMD21_IOT_WG_ICM42688/debug/_ext/90265895/nm_common.o
 .debug_str     0x00000000000048f4      0x9ce build/SAMD21_IOT_WG_ICM42688/debug/_ext/121554788/m2m_ssl.o
 .debug_str     0x00000000000052c2      0x8db build/SAMD21_IOT_WG_ICM42688/debug/_ext/121554788/m2m_hif.o
 .debug_str     0x0000000000005b9d     0x2ffb build/SAMD21_IOT_WG_ICM42688/debug/_ext/121554788/m2m_wifi.o
 .debug_str     0x0000000000008b98      0x78b build/SAMD21_IOT_WG_ICM42688/debug/_ext/121554788/nmspi.o
 .debug_str     0x0000000000009323      0x60a build/SAMD21_IOT_WG_ICM42688/debug/_ext/121554788/nmdrv.o
 .debug_str     0x000000000000992d     0x1068 build/SAMD21_IOT_WG_ICM42688/debug/_ext/121554788/m2m_ota.o
 .debug_str     0x000000000000a995      0x5ff build/SAMD21_IOT_WG_ICM42688/debug/_ext/121554788/nmasic.o
 .debug_str     0x000000000000af94      0x52e build/SAMD21_IOT_WG_ICM42688/debug/_ext/121554788/nmbus.o
 .debug_str     0x000000000000b4c2     0x1055 build/SAMD21_IOT_WG_ICM42688/debug/_ext/548032175/socket.o
 .debug_str     0x000000000000c517      0x2d1 build/SAMD21_IOT_WG_ICM42688/debug/_ext/548032175/inet_addr.o
 .debug_str     0x000000000000c7e8      0x2e3 build/SAMD21_IOT_WG_ICM42688/debug/_ext/548032175/inet_ntop.o
 .debug_str     0x000000000000cacb      0x35d build/SAMD21_IOT_WG_ICM42688/debug/_ext/609036575/flexible_flash.o
 .debug_str     0x000000000000ce28      0x521 build/SAMD21_IOT_WG_ICM42688/debug/_ext/609036575/spi_flash.o
 .debug_str     0x000000000000d349      0x326 build/SAMD21_IOT_WG_ICM42688/debug/_ext/1784303044/wdrv_winc_osal.o
 .debug_str     0x000000000000d66f     0x1bab build/SAMD21_IOT_WG_ICM42688/debug/_ext/907429946/wdrv_winc_sta.o
 .debug_str     0x000000000000f21a     0x1ada build/SAMD21_IOT_WG_ICM42688/debug/_ext/907429946/wdrv_winc_socket.o
 .debug_str     0x0000000000010cf4     0x18a6 build/SAMD21_IOT_WG_ICM42688/debug/_ext/907429946/wdrv_winc_systime.o
 .debug_str     0x000000000001259a      0xba5 build/SAMD21_IOT_WG_ICM42688/debug/_ext/907429946/wdrv_winc_authctx.o
 .debug_str     0x000000000001313f     0x1a30 build/SAMD21_IOT_WG_ICM42688/debug/_ext/907429946/wdrv_winc_host_file.o
 .debug_str     0x0000000000014b6f     0x3918 build/SAMD21_IOT_WG_ICM42688/debug/_ext/907429946/wdrv_winc.o
 .debug_str     0x0000000000018487      0x7d6 build/SAMD21_IOT_WG_ICM42688/debug/_ext/907429946/wdrv_winc_bssctx.o
 .debug_str     0x0000000000018c5d      0x5ac build/SAMD21_IOT_WG_ICM42688/debug/_ext/1750425231/plib_clock.o
 .debug_str     0x0000000000019209      0x8d6 build/SAMD21_IOT_WG_ICM42688/debug/_ext/1580516298/plib_dmac.o
 .debug_str     0x0000000000019adf      0x427 build/SAMD21_IOT_WG_ICM42688/debug/_ext/503204096/plib_eic.o
 .debug_str     0x0000000000019f06      0x5e1 build/SAMD21_IOT_WG_ICM42688/debug/_ext/1580823105/plib_nvic.o
 .debug_str     0x000000000001a4e7      0x513 build/SAMD21_IOT_WG_ICM42688/debug/_ext/11470383/plib_nvmctrl.o
 .debug_str     0x000000000001a9fa      0x77f build/SAMD21_IOT_WG_ICM42688/debug/_ext/1580876256/plib_port.o
 .debug_str     0x000000000001b179      0x6f8 build/SAMD21_IOT_WG_ICM42688/debug/_ext/1014017276/plib_sercom0_spi_master.o
 .debug_str     0x000000000001b871      0x7f9 build/SAMD21_IOT_WG_ICM42688/debug/_ext/1014017276/plib_sercom2_spi_master.o
 .debug_str     0x000000000001c06a      0x88f build/SAMD21_IOT_WG_ICM42688/debug/_ext/177673482/plib_sercom5_usart.o
 .debug_str     0x000000000001c8f9      0x406 build/SAMD21_IOT_WG_ICM42688/debug/_ext/223004715/plib_systick.o
 .debug_str     0x000000000001ccff      0x585 build/SAMD21_IOT_WG_ICM42688/debug/_ext/399410062/plib_tc3.o
 .debug_str     0x000000000001d284      0x5a6 build/SAMD21_IOT_WG_ICM42688/debug/_ext/399410062/plib_tc4.o
 .debug_str     0x000000000001d82a      0x2f1 build/SAMD21_IOT_WG_ICM42688/debug/_ext/1357625803/xc32_monitor.o
 .debug_str     0x000000000001db1b      0x607 build/SAMD21_IOT_WG_ICM42688/debug/_ext/1584719636/sys_dma.o
 .debug_str     0x000000000001e122      0x585 build/SAMD21_IOT_WG_ICM42688/debug/_ext/1318297016/sys_int.o
 .debug_str     0x000000000001e6a7      0xe95 build/SAMD21_IOT_WG_ICM42688/debug/_ext/386530258/sys_time.o
 .debug_str     0x000000000001f53c     0x17e2 build/SAMD21_IOT_WG_ICM42688/debug/_ext/1832905403/initialization.o
 .debug_str     0x0000000000020d1e      0x654 build/SAMD21_IOT_WG_ICM42688/debug/_ext/1832905403/interrupts.o
 .debug_str     0x0000000000021372      0x2b6 build/SAMD21_IOT_WG_ICM42688/debug/_ext/1832905403/exceptions.o
 .debug_str     0x0000000000021628      0x322 build/SAMD21_IOT_WG_ICM42688/debug/_ext/1832905403/startup_xc32.o
 .debug_str     0x000000000002194a      0x2a6 build/SAMD21_IOT_WG_ICM42688/debug/_ext/1832905403/tasks.o
 .debug_str     0x0000000000021bf0     0x25c5 build/SAMD21_IOT_WG_ICM42688/debug/_ext/1341251756/Icm426xxDriver_HL.o
 .debug_str     0x00000000000241b5      0x55d build/SAMD21_IOT_WG_ICM42688/debug/_ext/1341251756/Icm426xxTransport.o
 .debug_str     0x0000000000024712      0xe5d build/SAMD21_IOT_WG_ICM42688/debug/_ext/1360937237/main.o
 .debug_str     0x000000000002556f      0x423 build/SAMD21_IOT_WG_ICM42688/debug/_ext/1360937237/ringbuffer.o
 .debug_str     0x0000000000025992      0x86c build/SAMD21_IOT_WG_ICM42688/debug/_ext/1360937237/app.o
 .debug_str     0x00000000000261fe      0x75c build/SAMD21_IOT_WG_ICM42688/debug/_ext/1360937237/ws2812.o
 .debug_str     0x000000000002695a     0x1137 build/SAMD21_IOT_WG_ICM42688/debug/_ext/1360937237/winc1500_udp_client.o
 .debug_str     0x0000000000027a91      0x1fc c:/program files/microchip/xc32/v4.60/bin/bin/../../lib/gcc/pic32c/8.3.1/../../../../pic32c/lib/thumb/v6-m/nofp\libpic32c.a(data_init.o)
 .debug_str     0x0000000000027c8d      0x225 c:/program files/microchip/xc32/v4.60/bin/bin/../../lib/gcc/pic32c/8.3.1/../../../../pic32c/lib/thumb/v6-m/nofp\libc-size-musl.a(memcpy.o)
 .debug_str     0x0000000000027eb2      0x211 c:/program files/microchip/xc32/v4.60/bin/bin/../../lib/gcc/pic32c/8.3.1/../../../../pic32c/lib/thumb/v6-m/nofp\libc-size-musl.a(memset.o)
 .debug_str     0x00000000000280c3      0x217 c:/program files/microchip/xc32/v4.60/bin/bin/../../lib/gcc/pic32c/8.3.1/../../../../pic32c/lib/thumb/v6-m/nofp\libc-size-musl.a(strlen.o)
 .debug_str     0x00000000000282da      0x20b c:/program files/microchip/xc32/v4.60/bin/bin/../../lib/gcc/pic32c/8.3.1/../../../../pic32c/lib/thumb/v6-m/nofp\libc-size-musl.a(strchr.o)
 .debug_str     0x00000000000284e5      0x296 c:/program files/microchip/xc32/v4.60/bin/bin/../../lib/gcc/pic32c/8.3.1/../../../../pic32c/lib/thumb/v6-m/nofp\libc-size-musl.a(strchrnul.o)
 .debug_str     0x000000000002877b      0x20f c:/program files/microchip/xc32/v4.60/bin/bin/../../lib/gcc/pic32c/8.3.1/../../../../pic32c/lib/thumb/v6-m/nofp\libc-size-musl.a(strnlen.o)
 .debug_str     0x000000000002898a      0x22a c:/program files/microchip/xc32/v4.60/bin/bin/../../lib/gcc/pic32c/8.3.1/../../../../pic32c/lib/thumb/v6-m/nofp\libc-size-musl.a(memchr.o)
 .debug_str     0x0000000000028bb4      0x2ba c:/program files/microchip/xc32/v4.60/bin/bin/../../lib/gcc/pic32c/8.3.1/../../../../pic32c/lib/thumb/v6-m/nofp\liblmalloc-musl.a(lite_calloc.o)
 .debug_str     0x0000000000028e6e      0x301 c:/program files/microchip/xc32/v4.60/bin/bin/../../lib/gcc/pic32c/8.3.1/../../../../pic32c/lib/thumb/v6-m/nofp\liblmalloc-musl.a(lite_free.o)
 .debug_str     0x000000000002916f      0x2ff c:/program files/microchip/xc32/v4.60/bin/bin/../../lib/gcc/pic32c/8.3.1/../../../../pic32c/lib/thumb/v6-m/nofp\liblmalloc-musl.a(lite_malloc.o)
 .debug_str     0x000000000002946e      0x3ca c:/program files/microchip/xc32/v4.60/bin/bin/../../lib/gcc/pic32c/8.3.1/../../../../pic32c/lib/thumb/v6-m/nofp\libg-musl.a(__libc_start_main.o)
 .debug_str     0x0000000000029838      0x229 c:/program files/microchip/xc32/v4.60/bin/bin/../../lib/gcc/pic32c/8.3.1/../../../../pic32c/lib/thumb/v6-m/nofp\libg-musl.a(__errno_location.o)
 .debug_str     0x0000000000029a61      0x335 c:/program files/microchip/xc32/v4.60/bin/bin/../../lib/gcc/pic32c/8.3.1/../../../../pic32c/lib/thumb/v6-m/nofp\libg-musl.a(libc.o)
 .debug_str     0x0000000000029d96      0x2a5 c:/program files/microchip/xc32/v4.60/bin/bin/../../lib/gcc/pic32c/8.3.1/../../../../pic32c/lib/thumb/v6-m/nofp\libg-musl.a(expand_heap.o)
 .debug_str     0x000000000002a03b      0x352 c:/program files/microchip/xc32/v4.60/bin/bin/../../lib/gcc/pic32c/8.3.1/../../../../pic32c/lib/thumb/v6-m/nofp\libg-musl.a(__sio_printf_cdeEfFgGnsu.o)
 .debug_str     0x000000000002a38d      0x2f5 c:/program files/microchip/xc32/v4.60/bin/bin/../../lib/gcc/pic32c/8.3.1/../../../../pic32c/lib/thumb/v6-m/nofp\libg-musl.a(__fmt_d.o)
 .debug_str     0x000000000002a682      0x354 c:/program files/microchip/xc32/v4.60/bin/bin/../../lib/gcc/pic32c/8.3.1/../../../../pic32c/lib/thumb/v6-m/nofp\libg-musl.a(__fmt_fp.o)
 .debug_str     0x000000000002a9d6      0x2f9 c:/program files/microchip/xc32/v4.60/bin/bin/../../lib/gcc/pic32c/8.3.1/../../../../pic32c/lib/thumb/v6-m/nofp\libg-musl.a(__fmt_s.o)
 .debug_str     0x000000000002accf      0x2f5 c:/program files/microchip/xc32/v4.60/bin/bin/../../lib/gcc/pic32c/8.3.1/../../../../pic32c/lib/thumb/v6-m/nofp\libg-musl.a(__fmt_u.o)
 .debug_str     0x000000000002afc4      0x2c0 c:/program files/microchip/xc32/v4.60/bin/bin/../../lib/gcc/pic32c/8.3.1/../../../../pic32c/lib/thumb/v6-m/nofp\libg-musl.a(__pop_float.o)
 .debug_str     0x000000000002b284      0x2cb c:/program files/microchip/xc32/v4.60/bin/bin/../../lib/gcc/pic32c/8.3.1/../../../../pic32c/lib/thumb/v6-m/nofp\libg-musl.a(__pop_int.o)
 .debug_str     0x000000000002b54f      0x2cd c:/program files/microchip/xc32/v4.60/bin/bin/../../lib/gcc/pic32c/8.3.1/../../../../pic32c/lib/thumb/v6-m/nofp\libg-musl.a(__pop_ptr.o)
 .debug_str     0x000000000002b81c      0x3e7 c:/program files/microchip/xc32/v4.60/bin/bin/../../lib/gcc/pic32c/8.3.1/../../../../pic32c/lib/thumb/v6-m/nofp\libg-musl.a(__printf_core.o)
 .debug_str     0x000000000002bc03      0x374 c:/program files/microchip/xc32/v4.60/bin/bin/../../lib/gcc/pic32c/8.3.1/../../../../pic32c/lib/thumb/v6-m/nofp\libg-musl.a(stdin.o)
 .debug_str     0x000000000002bf77      0x308 c:/program files/microchip/xc32/v4.60/bin/bin/../../lib/gcc/pic32c/8.3.1/../../../../pic32c/lib/thumb/v6-m/nofp\libg-musl.a(stdout.o)
 .debug_str     0x000000000002c27f      0x344 c:/program files/microchip/xc32/v4.60/bin/bin/../../lib/gcc/pic32c/8.3.1/../../../../pic32c/lib/thumb/v6-m/nofp\libg-musl.a(puts.o)
 .debug_str     0x000000000002c5c3      0x21d c:/program files/microchip/xc32/v4.60/bin/bin/../../lib/gcc/pic32c/8.3.1/../../../../pic32c/lib/thumb/v6-m/nofp\libg-musl.a(setbuf.o)
 .debug_str     0x000000000002c7e0      0x21c c:/program files/microchip/xc32/v4.60/bin/bin/../../lib/gcc/pic32c/8.3.1/../../../../pic32c/lib/thumb/v6-m/nofp\libg-musl.a(atoi.o)
 .debug_str     0x000000000002c9fc      0x286 c:/program files/microchip/xc32/v4.60/bin/bin/../../lib/gcc/pic32c/8.3.1/../../../../pic32c/lib/thumb/v6-m/nofp\libg-musl.a(gmtime.o)
 .debug_str     0x000000000002cc82      0x2ad c:/program files/microchip/xc32/v4.60/bin/bin/../../lib/gcc/pic32c/8.3.1/../../../../pic32c/lib/thumb/v6-m/nofp\libg-musl.a(gmtime_r.o)
 .debug_str     0x000000000002cf2f      0x2d2 c:/program files/microchip/xc32/v4.60/bin/bin/../../lib/gcc/pic32c/8.3.1/../../../../pic32c/lib/thumb/v6-m/nofp\libg-musl.a(mktime.o)
 .debug_str     0x000000000002d201      0x249 c:/program files/microchip/xc32/v4.60/bin/bin/../../lib/gcc/pic32c/8.3.1/../../../../pic32c/lib/thumb/v6-m/nofp\libg-musl.a(tolower.o)
 .debug_str     0x000000000002d44a      0x235 c:/program files/microchip/xc32/v4.60/bin/bin/../../lib/gcc/pic32c/8.3.1/../../../../pic32c/lib/thumb/v6-m/nofp\libg-musl.a(__environ.o)
 .debug_str     0x000000000002d67f      0x2e9 c:/program files/microchip/xc32/v4.60/bin/bin/../../lib/gcc/pic32c/8.3.1/../../../../pic32c/lib/thumb/v6-m/nofp\libg-musl.a(__int_vfprintf.o)
 .debug_str     0x000000000002d968      0x338 c:/program files/microchip/xc32/v4.60/bin/bin/../../lib/gcc/pic32c/8.3.1/../../../../pic32c/lib/thumb/v6-m/nofp\libg-musl.a(fputs.o)
 .debug_str     0x000000000002dca0      0x2b1 c:/program files/microchip/xc32/v4.60/bin/bin/../../lib/gcc/pic32c/8.3.1/../../../../pic32c/lib/thumb/v6-m/nofp\libg-musl.a(__cvt_u.o)
 .debug_str     0x000000000002df51      0x362 c:/program files/microchip/xc32/v4.60/bin/bin/../../lib/gcc/pic32c/8.3.1/../../../../pic32c/lib/thumb/v6-m/nofp\libg-musl.a(__stdio_read.o)
 .debug_str     0x000000000002e2b3      0x33d c:/program files/microchip/xc32/v4.60/bin/bin/../../lib/gcc/pic32c/8.3.1/../../../../pic32c/lib/thumb/v6-m/nofp\libg-musl.a(__towrite_rw.o)
 .debug_str     0x000000000002e5f0      0x2d3 c:/program files/microchip/xc32/v4.60/bin/bin/../../lib/gcc/pic32c/8.3.1/../../../../pic32c/lib/thumb/v6-m/nofp\libg-musl.a(fwrite.o)
 .debug_str     0x000000000002e8c3      0x2ea c:/program files/microchip/xc32/v4.60/bin/bin/../../lib/gcc/pic32c/8.3.1/../../../../pic32c/lib/thumb/v6-m/nofp\libg-musl.a(putc.o)
 .debug_str     0x000000000002ebad      0x312 c:/program files/microchip/xc32/v4.60/bin/bin/../../lib/gcc/pic32c/8.3.1/../../../../pic32c/lib/thumb/v6-m/nofp\libg-musl.a(setvbuf.o)
 .debug_str     0x000000000002eebf      0x2c0 c:/program files/microchip/xc32/v4.60/bin/bin/../../lib/gcc/pic32c/8.3.1/../../../../pic32c/lib/thumb/v6-m/nofp\libg-musl.a(__tm_to_secs.o)
 .debug_str     0x000000000002f17f      0x23d c:/program files/microchip/xc32/v4.60/bin/bin/../../lib/gcc/pic32c/8.3.1/../../../../pic32c/lib/thumb/v6-m/nofp\libg-musl.a(__year_to_secs.o)
 .debug_str     0x000000000002f3bc      0x313 c:/program files/microchip/xc32/v4.60/bin/bin/../../lib/gcc/pic32c/8.3.1/../../../../pic32c/lib/thumb/v6-m/nofp\libg-musl.a(__secs_to_tm.o)
 .debug_str     0x000000000002f6cf      0x24c c:/program files/microchip/xc32/v4.60/bin/bin/../../lib/gcc/pic32c/8.3.1/../../../../pic32c/lib/thumb/v6-m/nofp\libg-musl.a(readv.o)
 .debug_str     0x000000000002f91b      0x29a c:/program files/microchip/xc32/v4.60/bin/bin/../../lib/gcc/pic32c/8.3.1/../../../../pic32c/lib/thumb/v6-m/nofp\libg-musl.a(__init_stdio.o)
 .debug_str     0x000000000002fbb5      0x2da c:/program files/microchip/xc32/v4.60/bin/bin/../../lib/gcc/pic32c/8.3.1/../../../../pic32c/lib/thumb/v6-m/nofp\libg-musl.a(__out.o)
 .debug_str     0x000000000002fe8f      0x2f8 c:/program files/microchip/xc32/v4.60/bin/bin/../../lib/gcc/pic32c/8.3.1/../../../../pic32c/lib/thumb/v6-m/nofp\libg-musl.a(__putc.o)
 .debug_str     0x0000000000030187      0x36d c:/program files/microchip/xc32/v4.60/bin/bin/../../lib/gcc/pic32c/8.3.1/../../../../pic32c/lib/thumb/v6-m/nofp\libg-musl.a(__stderr.o)
 .debug_str     0x00000000000304f4      0x35d c:/program files/microchip/xc32/v4.60/bin/bin/../../lib/gcc/pic32c/8.3.1/../../../../pic32c/lib/thumb/v6-m/nofp\libg-musl.a(__stdio_close.o)
 .debug_str     0x0000000000030851      0x346 c:/program files/microchip/xc32/v4.60/bin/bin/../../lib/gcc/pic32c/8.3.1/../../../../pic32c/lib/thumb/v6-m/nofp\libg-musl.a(__stdio_write.o)
 .debug_str     0x0000000000030b97      0x36d c:/program files/microchip/xc32/v4.60/bin/bin/../../lib/gcc/pic32c/8.3.1/../../../../pic32c/lib/thumb/v6-m/nofp\libg-musl.a(__stdout.o)
 .debug_str     0x0000000000030f04      0x2e9 c:/program files/microchip/xc32/v4.60/bin/bin/../../lib/gcc/pic32c/8.3.1/../../../../pic32c/lib/thumb/v6-m/nofp\libg-musl.a(__towrite.o)
 .debug_str     0x00000000000311ed      0x22d c:/program files/microchip/xc32/v4.60/bin/bin/../../lib/gcc/pic32c/8.3.1/../../../../pic32c/lib/thumb/v6-m/nofp\libg-musl.a(__month_to_secs.o)
 .debug_str     0x000000000003141a      0x24f c:/program files/microchip/xc32/v4.60/bin/bin/../../lib/gcc/pic32c/8.3.1/../../../../pic32c/lib/thumb/v6-m/nofp\libg-musl.a(writev.o)
 .debug_str     0x0000000000031669      0x33e c:/program files/microchip/xc32/v4.60/bin/bin/../../lib/gcc/pic32c/8.3.1/../../../../pic32c/lib/thumb/v6-m/nofp\libg-musl.a(__overflow.o)
 .debug_str     0x00000000000319a7      0x302 c:/program files/microchip/xc32/v4.60/bin/bin/../../lib/gcc/pic32c/8.3.1/../../../../pic32c/lib/thumb/v6-m/nofp\libg-musl.a(__fwrite.o)
 .debug_str     0x0000000000031ca9       0xd6 c:/program files/microchip/xc32/v4.60/bin/bin/../../lib/gcc/pic32c/8.3.1/thumb/v6-m/nofp\libgcc.a(_udivsi3.o)
 .debug_str     0x0000000000031d7f       0xd6 c:/program files/microchip/xc32/v4.60/bin/bin/../../lib/gcc/pic32c/8.3.1/thumb/v6-m/nofp\libgcc.a(_divsi3.o)
 .debug_str     0x0000000000031e55       0xd6 c:/program files/microchip/xc32/v4.60/bin/bin/../../lib/gcc/pic32c/8.3.1/thumb/v6-m/nofp\libgcc.a(_dvmd_tls.o)
 .debug_str     0x0000000000031f2b       0xd6 c:/program files/microchip/xc32/v4.60/bin/bin/../../lib/gcc/pic32c/8.3.1/thumb/v6-m/nofp\libgcc.a(_aeabi_ldivmod.o)
 .debug_str     0x0000000000032001       0xd6 c:/program files/microchip/xc32/v4.60/bin/bin/../../lib/gcc/pic32c/8.3.1/thumb/v6-m/nofp\libgcc.a(_aeabi_uldivmod.o)
 .debug_str     0x00000000000320d7      0x2af c:/program files/microchip/xc32/v4.60/bin/bin/../../lib/gcc/pic32c/8.3.1/thumb/v6-m/nofp\libgcc.a(_muldi3.o)
 .debug_str     0x0000000000032386      0x27c c:/program files/microchip/xc32/v4.60/bin/bin/../../lib/gcc/pic32c/8.3.1/thumb/v6-m/nofp\libgcc.a(_udivmoddi4.o)
 .debug_str     0x0000000000032602      0x1f2 c:/program files/microchip/xc32/v4.60/bin/bin/../../lib/gcc/pic32c/8.3.1/thumb/v6-m/nofp\libgcc.a(bpabi.o)
 .debug_str     0x00000000000327f4       0xd6 c:/program files/microchip/xc32/v4.60/bin/bin/../../lib/gcc/pic32c/8.3.1/thumb/v6-m/nofp\libgcc.a(_lshrdi3.o)
 .debug_str     0x00000000000328ca       0xd6 c:/program files/microchip/xc32/v4.60/bin/bin/../../lib/gcc/pic32c/8.3.1/thumb/v6-m/nofp\libgcc.a(_ashldi3.o)
 .debug_str     0x00000000000329a0       0xd6 c:/program files/microchip/xc32/v4.60/bin/bin/../../lib/gcc/pic32c/8.3.1/thumb/v6-m/nofp\libgcc.a(_clzdi2.o)
 .debug_str     0x0000000000032a76      0x2a9 c:/program files/microchip/xc32/v4.60/bin/bin/../../lib/gcc/pic32c/8.3.1/thumb/v6-m/nofp\libgcc.a(_divdi3.o)
 .debug_str     0x0000000000032d1f       0xd6 c:/program files/microchip/xc32/v4.60/bin/bin/../../lib/gcc/pic32c/8.3.1/thumb/v6-m/nofp\libgcc.a(_clzsi2.o)
 .debug_str     0x0000000000032df5      0x1bd c:/program files/microchip/xc32/v4.60/bin/bin/../../lib/gcc/pic32c/8.3.1/../../../../pic32c/lib/thumb/v6-m/nofp\libpic32c.a(close.o)
 .debug_str     0x0000000000032fb2      0x1bd c:/program files/microchip/xc32/v4.60/bin/bin/../../lib/gcc/pic32c/8.3.1/../../../../pic32c/lib/thumb/v6-m/nofp\libpic32c.a(lseek.o)
 .debug_str     0x000000000003316f      0x1dc c:/program files/microchip/xc32/v4.60/bin/bin/../../lib/gcc/pic32c/8.3.1/../../../../pic32c/lib/thumb/v6-m/nofp\libpic32c.a(sbrk.o)
 .debug_str     0x000000000003334b      0x20d c:/program files/microchip/xc32/v4.60/bin/bin/../../lib/gcc/pic32c/8.3.1/../../../../pic32c/lib/thumb/v6-m/nofp\libc-size-musl.a(strcpy.o)
 .debug_str     0x0000000000033558      0x221 c:/program files/microchip/xc32/v4.60/bin/bin/../../lib/gcc/pic32c/8.3.1/../../../../pic32c/lib/thumb/v6-m/nofp\libc-size-musl.a(stpcpy.o)
 .debug_str     0x0000000000033779      0x1d5 c:/program files/microchip/xc32/v4.60/bin/bin/../../lib/gcc/pic32c/8.3.1/../../../../pic32c/lib/thumb/v6-m/nofp\libpic32c.a(pic32_data_init_clear.o)
 .debug_str     0x000000000003394e      0x1d3 c:/program files/microchip/xc32/v4.60/bin/bin/../../lib/gcc/pic32c/8.3.1/../../../../pic32c/lib/thumb/v6-m/nofp\libpic32c.a(pic32_data_init_copy.o)

.debug_frame    0x0000000000000000     0x4c9c
 .debug_frame   0x0000000000000000       0xf4 build/SAMD21_IOT_WG_ICM42688/debug/_ext/2048461350/icm42688_sensor.o
 .debug_frame   0x00000000000000f4      0x254 build/SAMD21_IOT_WG_ICM42688/debug/_ext/1660664302/drv_spi.o
 .debug_frame   0x0000000000000348       0x50 build/SAMD21_IOT_WG_ICM42688/debug/_ext/1164161090/wdrv_winc_gpio.o
 .debug_frame   0x0000000000000398       0x40 build/SAMD21_IOT_WG_ICM42688/debug/_ext/1164161090/wdrv_winc_eint.o
 .debug_frame   0x00000000000003d8       0xa0 build/SAMD21_IOT_WG_ICM42688/debug/_ext/101005277/wdrv_winc_spi.o
 .debug_frame   0x0000000000000478       0x40 build/SAMD21_IOT_WG_ICM42688/debug/_ext/90265895/nm_common.o
 .debug_frame   0x00000000000004b8      0x144 build/SAMD21_IOT_WG_ICM42688/debug/_ext/121554788/m2m_ssl.o
 .debug_frame   0x00000000000005fc      0x160 build/SAMD21_IOT_WG_ICM42688/debug/_ext/121554788/m2m_hif.o
 .debug_frame   0x000000000000075c      0x800 build/SAMD21_IOT_WG_ICM42688/debug/_ext/121554788/m2m_wifi.o
 .debug_frame   0x0000000000000f5c      0x1e0 build/SAMD21_IOT_WG_ICM42688/debug/_ext/121554788/nmspi.o
 .debug_frame   0x000000000000113c       0xe8 build/SAMD21_IOT_WG_ICM42688/debug/_ext/121554788/nmdrv.o
 .debug_frame   0x0000000000001224      0x1d4 build/SAMD21_IOT_WG_ICM42688/debug/_ext/121554788/m2m_ota.o
 .debug_frame   0x00000000000013f8      0x268 build/SAMD21_IOT_WG_ICM42688/debug/_ext/121554788/nmasic.o
 .debug_frame   0x0000000000001660       0xf8 build/SAMD21_IOT_WG_ICM42688/debug/_ext/121554788/nmbus.o
 .debug_frame   0x0000000000001758      0x2f0 build/SAMD21_IOT_WG_ICM42688/debug/_ext/548032175/socket.o
 .debug_frame   0x0000000000001a48       0x30 build/SAMD21_IOT_WG_ICM42688/debug/_ext/548032175/inet_addr.o
 .debug_frame   0x0000000000001a78       0x3c build/SAMD21_IOT_WG_ICM42688/debug/_ext/548032175/inet_ntop.o
 .debug_frame   0x0000000000001ab4       0x3c build/SAMD21_IOT_WG_ICM42688/debug/_ext/609036575/flexible_flash.o
 .debug_frame   0x0000000000001af0      0x134 build/SAMD21_IOT_WG_ICM42688/debug/_ext/609036575/spi_flash.o
 .debug_frame   0x0000000000001c24       0x28 build/SAMD21_IOT_WG_ICM42688/debug/_ext/1784303044/wdrv_winc_osal.o
 .debug_frame   0x0000000000001c4c       0xa8 build/SAMD21_IOT_WG_ICM42688/debug/_ext/907429946/wdrv_winc_sta.o
 .debug_frame   0x0000000000001cf4      0x1dc build/SAMD21_IOT_WG_ICM42688/debug/_ext/907429946/wdrv_winc_socket.o
 .debug_frame   0x0000000000001ed0       0xb0 build/SAMD21_IOT_WG_ICM42688/debug/_ext/907429946/wdrv_winc_systime.o
 .debug_frame   0x0000000000001f80       0xc4 build/SAMD21_IOT_WG_ICM42688/debug/_ext/907429946/wdrv_winc_authctx.o
 .debug_frame   0x0000000000002044       0xd4 build/SAMD21_IOT_WG_ICM42688/debug/_ext/907429946/wdrv_winc_host_file.o
 .debug_frame   0x0000000000002118      0x2dc build/SAMD21_IOT_WG_ICM42688/debug/_ext/907429946/wdrv_winc.o
 .debug_frame   0x00000000000023f4       0xb8 build/SAMD21_IOT_WG_ICM42688/debug/_ext/907429946/wdrv_winc_bssctx.o
 .debug_frame   0x00000000000024ac       0x20 build/SAMD21_IOT_WG_ICM42688/debug/_ext/1750425231/plib_clock.o
 .debug_frame   0x00000000000024cc      0x18c build/SAMD21_IOT_WG_ICM42688/debug/_ext/1580516298/plib_dmac.o
 .debug_frame   0x0000000000002658       0x80 build/SAMD21_IOT_WG_ICM42688/debug/_ext/503204096/plib_eic.o
 .debug_frame   0x00000000000026d8       0x84 build/SAMD21_IOT_WG_ICM42688/debug/_ext/1580823105/plib_nvic.o
 .debug_frame   0x000000000000275c      0x108 build/SAMD21_IOT_WG_ICM42688/debug/_ext/11470383/plib_nvmctrl.o
 .debug_frame   0x0000000000002864       0xe4 build/SAMD21_IOT_WG_ICM42688/debug/_ext/1580876256/plib_port.o
 .debug_frame   0x0000000000002948       0xbc build/SAMD21_IOT_WG_ICM42688/debug/_ext/1014017276/plib_sercom0_spi_master.o
 .debug_frame   0x0000000000002a04       0xdc build/SAMD21_IOT_WG_ICM42688/debug/_ext/1014017276/plib_sercom2_spi_master.o
 .debug_frame   0x0000000000002ae0      0x160 build/SAMD21_IOT_WG_ICM42688/debug/_ext/177673482/plib_sercom5_usart.o
 .debug_frame   0x0000000000002c40       0xd8 build/SAMD21_IOT_WG_ICM42688/debug/_ext/223004715/plib_systick.o
 .debug_frame   0x0000000000002d18       0xc8 build/SAMD21_IOT_WG_ICM42688/debug/_ext/399410062/plib_tc3.o
 .debug_frame   0x0000000000002de0       0xd8 build/SAMD21_IOT_WG_ICM42688/debug/_ext/399410062/plib_tc4.o
 .debug_frame   0x0000000000002eb8       0x44 build/SAMD21_IOT_WG_ICM42688/debug/_ext/1357625803/xc32_monitor.o
 .debug_frame   0x0000000000002efc       0x48 build/SAMD21_IOT_WG_ICM42688/debug/_ext/1584719636/sys_dma.o
 .debug_frame   0x0000000000002f44       0x84 build/SAMD21_IOT_WG_ICM42688/debug/_ext/1318297016/sys_int.o
 .debug_frame   0x0000000000002fc8      0x3ac build/SAMD21_IOT_WG_ICM42688/debug/_ext/386530258/sys_time.o
 .debug_frame   0x0000000000003374       0x2c build/SAMD21_IOT_WG_ICM42688/debug/_ext/1832905403/initialization.o
 .debug_frame   0x00000000000033a0       0x20 build/SAMD21_IOT_WG_ICM42688/debug/_ext/1832905403/interrupts.o
 .debug_frame   0x00000000000033c0       0x30 build/SAMD21_IOT_WG_ICM42688/debug/_ext/1832905403/exceptions.o
 .debug_frame   0x00000000000033f0       0x38 build/SAMD21_IOT_WG_ICM42688/debug/_ext/1832905403/startup_xc32.o
 .debug_frame   0x0000000000003428       0x28 build/SAMD21_IOT_WG_ICM42688/debug/_ext/1832905403/tasks.o
 .debug_frame   0x0000000000003450      0x624 build/SAMD21_IOT_WG_ICM42688/debug/_ext/1341251756/Icm426xxDriver_HL.o
 .debug_frame   0x0000000000003a74       0x78 build/SAMD21_IOT_WG_ICM42688/debug/_ext/1341251756/Icm426xxTransport.o
 .debug_frame   0x0000000000003aec      0x140 build/SAMD21_IOT_WG_ICM42688/debug/_ext/1360937237/main.o
 .debug_frame   0x0000000000003c2c      0x110 build/SAMD21_IOT_WG_ICM42688/debug/_ext/1360937237/ringbuffer.o
 .debug_frame   0x0000000000003d3c       0x40 build/SAMD21_IOT_WG_ICM42688/debug/_ext/1360937237/app.o
 .debug_frame   0x0000000000003d7c       0x98 build/SAMD21_IOT_WG_ICM42688/debug/_ext/1360937237/ws2812.o
 .debug_frame   0x0000000000003e14       0xa4 build/SAMD21_IOT_WG_ICM42688/debug/_ext/1360937237/winc1500_udp_client.o
 .debug_frame   0x0000000000003eb8       0x48 c:/program files/microchip/xc32/v4.60/bin/bin/../../lib/gcc/pic32c/8.3.1/../../../../pic32c/lib/thumb/v6-m/nofp\libpic32c.a(data_init.o)
 .debug_frame   0x0000000000003f00       0x28 c:/program files/microchip/xc32/v4.60/bin/bin/../../lib/gcc/pic32c/8.3.1/../../../../pic32c/lib/thumb/v6-m/nofp\libc-size-musl.a(memcpy.o)
 .debug_frame   0x0000000000003f28       0x20 c:/program files/microchip/xc32/v4.60/bin/bin/../../lib/gcc/pic32c/8.3.1/../../../../pic32c/lib/thumb/v6-m/nofp\libc-size-musl.a(memset.o)
 .debug_frame   0x0000000000003f48       0x20 c:/program files/microchip/xc32/v4.60/bin/bin/../../lib/gcc/pic32c/8.3.1/../../../../pic32c/lib/thumb/v6-m/nofp\libc-size-musl.a(strlen.o)
 .debug_frame   0x0000000000003f68       0x28 c:/program files/microchip/xc32/v4.60/bin/bin/../../lib/gcc/pic32c/8.3.1/../../../../pic32c/lib/thumb/v6-m/nofp\libc-size-musl.a(strchr.o)
 .debug_frame   0x0000000000003f90       0x2c c:/program files/microchip/xc32/v4.60/bin/bin/../../lib/gcc/pic32c/8.3.1/../../../../pic32c/lib/thumb/v6-m/nofp\libc-size-musl.a(strchrnul.o)
 .debug_frame   0x0000000000003fbc       0x2c c:/program files/microchip/xc32/v4.60/bin/bin/../../lib/gcc/pic32c/8.3.1/../../../../pic32c/lib/thumb/v6-m/nofp\libc-size-musl.a(strnlen.o)
 .debug_frame   0x0000000000003fe8       0x20 c:/program files/microchip/xc32/v4.60/bin/bin/../../lib/gcc/pic32c/8.3.1/../../../../pic32c/lib/thumb/v6-m/nofp\libc-size-musl.a(memchr.o)
 .debug_frame   0x0000000000004008       0x2c c:/program files/microchip/xc32/v4.60/bin/bin/../../lib/gcc/pic32c/8.3.1/../../../../pic32c/lib/thumb/v6-m/nofp\liblmalloc-musl.a(lite_calloc.o)
 .debug_frame   0x0000000000004034       0x64 c:/program files/microchip/xc32/v4.60/bin/bin/../../lib/gcc/pic32c/8.3.1/../../../../pic32c/lib/thumb/v6-m/nofp\liblmalloc-musl.a(lite_free.o)
 .debug_frame   0x0000000000004098       0x30 c:/program files/microchip/xc32/v4.60/bin/bin/../../lib/gcc/pic32c/8.3.1/../../../../pic32c/lib/thumb/v6-m/nofp\liblmalloc-musl.a(lite_malloc.o)
 .debug_frame   0x00000000000040c8       0x38 c:/program files/microchip/xc32/v4.60/bin/bin/../../lib/gcc/pic32c/8.3.1/../../../../pic32c/lib/thumb/v6-m/nofp\libg-musl.a(__libc_start_main.o)
 .debug_frame   0x0000000000004100       0x28 c:/program files/microchip/xc32/v4.60/bin/bin/../../lib/gcc/pic32c/8.3.1/../../../../pic32c/lib/thumb/v6-m/nofp\libg-musl.a(expand_heap.o)
 .debug_frame   0x0000000000004128       0x48 c:/program files/microchip/xc32/v4.60/bin/bin/../../lib/gcc/pic32c/8.3.1/../../../../pic32c/lib/thumb/v6-m/nofp\libg-musl.a(__sio_printf_cdeEfFgGnsu.o)
 .debug_frame   0x0000000000004170       0x30 c:/program files/microchip/xc32/v4.60/bin/bin/../../lib/gcc/pic32c/8.3.1/../../../../pic32c/lib/thumb/v6-m/nofp\libg-musl.a(__fmt_d.o)
 .debug_frame   0x00000000000041a0       0x34 c:/program files/microchip/xc32/v4.60/bin/bin/../../lib/gcc/pic32c/8.3.1/../../../../pic32c/lib/thumb/v6-m/nofp\libg-musl.a(__fmt_fp.o)
 .debug_frame   0x00000000000041d4       0x30 c:/program files/microchip/xc32/v4.60/bin/bin/../../lib/gcc/pic32c/8.3.1/../../../../pic32c/lib/thumb/v6-m/nofp\libg-musl.a(__fmt_s.o)
 .debug_frame   0x0000000000004204       0x30 c:/program files/microchip/xc32/v4.60/bin/bin/../../lib/gcc/pic32c/8.3.1/../../../../pic32c/lib/thumb/v6-m/nofp\libg-musl.a(__fmt_u.o)
 .debug_frame   0x0000000000004234       0x20 c:/program files/microchip/xc32/v4.60/bin/bin/../../lib/gcc/pic32c/8.3.1/../../../../pic32c/lib/thumb/v6-m/nofp\libg-musl.a(__pop_float.o)
 .debug_frame   0x0000000000004254       0x28 c:/program files/microchip/xc32/v4.60/bin/bin/../../lib/gcc/pic32c/8.3.1/../../../../pic32c/lib/thumb/v6-m/nofp\libg-musl.a(__pop_int.o)
 .debug_frame   0x000000000000427c       0x28 c:/program files/microchip/xc32/v4.60/bin/bin/../../lib/gcc/pic32c/8.3.1/../../../../pic32c/lib/thumb/v6-m/nofp\libg-musl.a(__pop_ptr.o)
 .debug_frame   0x00000000000042a4       0xc0 c:/program files/microchip/xc32/v4.60/bin/bin/../../lib/gcc/pic32c/8.3.1/../../../../pic32c/lib/thumb/v6-m/nofp\libg-musl.a(__printf_core.o)
 .debug_frame   0x0000000000004364       0x38 c:/program files/microchip/xc32/v4.60/bin/bin/../../lib/gcc/pic32c/8.3.1/../../../../pic32c/lib/thumb/v6-m/nofp\libg-musl.a(stdin.o)
 .debug_frame   0x000000000000439c       0x50 c:/program files/microchip/xc32/v4.60/bin/bin/../../lib/gcc/pic32c/8.3.1/../../../../pic32c/lib/thumb/v6-m/nofp\libg-musl.a(stdout.o)
 .debug_frame   0x00000000000043ec       0x28 c:/program files/microchip/xc32/v4.60/bin/bin/../../lib/gcc/pic32c/8.3.1/../../../../pic32c/lib/thumb/v6-m/nofp\libg-musl.a(puts.o)
 .debug_frame   0x0000000000004414       0x28 c:/program files/microchip/xc32/v4.60/bin/bin/../../lib/gcc/pic32c/8.3.1/../../../../pic32c/lib/thumb/v6-m/nofp\libg-musl.a(setbuf.o)
 .debug_frame   0x000000000000443c       0x28 c:/program files/microchip/xc32/v4.60/bin/bin/../../lib/gcc/pic32c/8.3.1/../../../../pic32c/lib/thumb/v6-m/nofp\libg-musl.a(atoi.o)
 .debug_frame   0x0000000000004464       0x28 c:/program files/microchip/xc32/v4.60/bin/bin/../../lib/gcc/pic32c/8.3.1/../../../../pic32c/lib/thumb/v6-m/nofp\libg-musl.a(gmtime.o)
 .debug_frame   0x000000000000448c       0x2c c:/program files/microchip/xc32/v4.60/bin/bin/../../lib/gcc/pic32c/8.3.1/../../../../pic32c/lib/thumb/v6-m/nofp\libg-musl.a(gmtime_r.o)
 .debug_frame   0x00000000000044b8       0x2c c:/program files/microchip/xc32/v4.60/bin/bin/../../lib/gcc/pic32c/8.3.1/../../../../pic32c/lib/thumb/v6-m/nofp\libg-musl.a(mktime.o)
 .debug_frame   0x00000000000044e4       0x38 c:/program files/microchip/xc32/v4.60/bin/bin/../../lib/gcc/pic32c/8.3.1/../../../../pic32c/lib/thumb/v6-m/nofp\libg-musl.a(tolower.o)
 .debug_frame   0x000000000000451c       0x2c c:/program files/microchip/xc32/v4.60/bin/bin/../../lib/gcc/pic32c/8.3.1/../../../../pic32c/lib/thumb/v6-m/nofp\libg-musl.a(__int_vfprintf.o)
 .debug_frame   0x0000000000004548       0x2c c:/program files/microchip/xc32/v4.60/bin/bin/../../lib/gcc/pic32c/8.3.1/../../../../pic32c/lib/thumb/v6-m/nofp\libg-musl.a(fputs.o)
 .debug_frame   0x0000000000004574       0x34 c:/program files/microchip/xc32/v4.60/bin/bin/../../lib/gcc/pic32c/8.3.1/../../../../pic32c/lib/thumb/v6-m/nofp\libg-musl.a(__cvt_u.o)
 .debug_frame   0x00000000000045a8       0x34 c:/program files/microchip/xc32/v4.60/bin/bin/../../lib/gcc/pic32c/8.3.1/../../../../pic32c/lib/thumb/v6-m/nofp\libg-musl.a(__stdio_read.o)
 .debug_frame   0x00000000000045dc       0x20 c:/program files/microchip/xc32/v4.60/bin/bin/../../lib/gcc/pic32c/8.3.1/../../../../pic32c/lib/thumb/v6-m/nofp\libg-musl.a(__towrite_rw.o)
 .debug_frame   0x00000000000045fc       0x44 c:/program files/microchip/xc32/v4.60/bin/bin/../../lib/gcc/pic32c/8.3.1/../../../../pic32c/lib/thumb/v6-m/nofp\libg-musl.a(fwrite.o)
 .debug_frame   0x0000000000004640       0x5c c:/program files/microchip/xc32/v4.60/bin/bin/../../lib/gcc/pic32c/8.3.1/../../../../pic32c/lib/thumb/v6-m/nofp\libg-musl.a(putc.o)
 .debug_frame   0x000000000000469c       0x44 c:/program files/microchip/xc32/v4.60/bin/bin/../../lib/gcc/pic32c/8.3.1/../../../../pic32c/lib/thumb/v6-m/nofp\libg-musl.a(setvbuf.o)
 .debug_frame   0x00000000000046e0       0x30 c:/program files/microchip/xc32/v4.60/bin/bin/../../lib/gcc/pic32c/8.3.1/../../../../pic32c/lib/thumb/v6-m/nofp\libg-musl.a(__tm_to_secs.o)
 .debug_frame   0x0000000000004710       0x34 c:/program files/microchip/xc32/v4.60/bin/bin/../../lib/gcc/pic32c/8.3.1/../../../../pic32c/lib/thumb/v6-m/nofp\libg-musl.a(__year_to_secs.o)
 .debug_frame   0x0000000000004744       0x30 c:/program files/microchip/xc32/v4.60/bin/bin/../../lib/gcc/pic32c/8.3.1/../../../../pic32c/lib/thumb/v6-m/nofp\libg-musl.a(__secs_to_tm.o)
 .debug_frame   0x0000000000004774       0x34 c:/program files/microchip/xc32/v4.60/bin/bin/../../lib/gcc/pic32c/8.3.1/../../../../pic32c/lib/thumb/v6-m/nofp\libg-musl.a(readv.o)
 .debug_frame   0x00000000000047a8       0x38 c:/program files/microchip/xc32/v4.60/bin/bin/../../lib/gcc/pic32c/8.3.1/../../../../pic32c/lib/thumb/v6-m/nofp\libg-musl.a(__init_stdio.o)
 .debug_frame   0x00000000000047e0       0x44 c:/program files/microchip/xc32/v4.60/bin/bin/../../lib/gcc/pic32c/8.3.1/../../../../pic32c/lib/thumb/v6-m/nofp\libg-musl.a(__out.o)
 .debug_frame   0x0000000000004824       0x28 c:/program files/microchip/xc32/v4.60/bin/bin/../../lib/gcc/pic32c/8.3.1/../../../../pic32c/lib/thumb/v6-m/nofp\libg-musl.a(__putc.o)
 .debug_frame   0x000000000000484c       0x48 c:/program files/microchip/xc32/v4.60/bin/bin/../../lib/gcc/pic32c/8.3.1/../../../../pic32c/lib/thumb/v6-m/nofp\libg-musl.a(__stderr.o)
 .debug_frame   0x0000000000004894       0x48 c:/program files/microchip/xc32/v4.60/bin/bin/../../lib/gcc/pic32c/8.3.1/../../../../pic32c/lib/thumb/v6-m/nofp\libg-musl.a(__stdio_close.o)
 .debug_frame   0x00000000000048dc       0x50 c:/program files/microchip/xc32/v4.60/bin/bin/../../lib/gcc/pic32c/8.3.1/../../../../pic32c/lib/thumb/v6-m/nofp\libg-musl.a(__stdio_write.o)
 .debug_frame   0x000000000000492c       0x48 c:/program files/microchip/xc32/v4.60/bin/bin/../../lib/gcc/pic32c/8.3.1/../../../../pic32c/lib/thumb/v6-m/nofp\libg-musl.a(__stdout.o)
 .debug_frame   0x0000000000004974       0x38 c:/program files/microchip/xc32/v4.60/bin/bin/../../lib/gcc/pic32c/8.3.1/../../../../pic32c/lib/thumb/v6-m/nofp\libg-musl.a(__towrite.o)
 .debug_frame   0x00000000000049ac       0x20 c:/program files/microchip/xc32/v4.60/bin/bin/../../lib/gcc/pic32c/8.3.1/../../../../pic32c/lib/thumb/v6-m/nofp\libg-musl.a(__month_to_secs.o)
 .debug_frame   0x00000000000049cc       0x34 c:/program files/microchip/xc32/v4.60/bin/bin/../../lib/gcc/pic32c/8.3.1/../../../../pic32c/lib/thumb/v6-m/nofp\libg-musl.a(writev.o)
 .debug_frame   0x0000000000004a00       0x30 c:/program files/microchip/xc32/v4.60/bin/bin/../../lib/gcc/pic32c/8.3.1/../../../../pic32c/lib/thumb/v6-m/nofp\libg-musl.a(__overflow.o)
 .debug_frame   0x0000000000004a30       0x40 c:/program files/microchip/xc32/v4.60/bin/bin/../../lib/gcc/pic32c/8.3.1/../../../../pic32c/lib/thumb/v6-m/nofp\libg-musl.a(__fwrite.o)
 .debug_frame   0x0000000000004a70       0x20 c:/program files/microchip/xc32/v4.60/bin/bin/../../lib/gcc/pic32c/8.3.1/thumb/v6-m/nofp\libgcc.a(_udivsi3.o)
 .debug_frame   0x0000000000004a90       0x20 c:/program files/microchip/xc32/v4.60/bin/bin/../../lib/gcc/pic32c/8.3.1/thumb/v6-m/nofp\libgcc.a(_divsi3.o)
 .debug_frame   0x0000000000004ab0       0x34 c:/program files/microchip/xc32/v4.60/bin/bin/../../lib/gcc/pic32c/8.3.1/thumb/v6-m/nofp\libgcc.a(_muldi3.o)
 .debug_frame   0x0000000000004ae4       0x30 c:/program files/microchip/xc32/v4.60/bin/bin/../../lib/gcc/pic32c/8.3.1/thumb/v6-m/nofp\libgcc.a(_udivmoddi4.o)
 .debug_frame   0x0000000000004b14       0x34 c:/program files/microchip/xc32/v4.60/bin/bin/../../lib/gcc/pic32c/8.3.1/thumb/v6-m/nofp\libgcc.a(bpabi.o)
 .debug_frame   0x0000000000004b48       0x30 c:/program files/microchip/xc32/v4.60/bin/bin/../../lib/gcc/pic32c/8.3.1/thumb/v6-m/nofp\libgcc.a(_divdi3.o)
 .debug_frame   0x0000000000004b78       0x20 c:/program files/microchip/xc32/v4.60/bin/bin/../../lib/gcc/pic32c/8.3.1/../../../../pic32c/lib/thumb/v6-m/nofp\libpic32c.a(close.o)
 .debug_frame   0x0000000000004b98       0x20 c:/program files/microchip/xc32/v4.60/bin/bin/../../lib/gcc/pic32c/8.3.1/../../../../pic32c/lib/thumb/v6-m/nofp\libpic32c.a(lseek.o)
 .debug_frame   0x0000000000004bb8       0x54 c:/program files/microchip/xc32/v4.60/bin/bin/../../lib/gcc/pic32c/8.3.1/../../../../pic32c/lib/thumb/v6-m/nofp\libpic32c.a(sbrk.o)
 .debug_frame   0x0000000000004c0c       0x28 c:/program files/microchip/xc32/v4.60/bin/bin/../../lib/gcc/pic32c/8.3.1/../../../../pic32c/lib/thumb/v6-m/nofp\libc-size-musl.a(strcpy.o)
 .debug_frame   0x0000000000004c34       0x20 c:/program files/microchip/xc32/v4.60/bin/bin/../../lib/gcc/pic32c/8.3.1/../../../../pic32c/lib/thumb/v6-m/nofp\libc-size-musl.a(stpcpy.o)
 .debug_frame   0x0000000000004c54       0x20 c:/program files/microchip/xc32/v4.60/bin/bin/../../lib/gcc/pic32c/8.3.1/../../../../pic32c/lib/thumb/v6-m/nofp\libpic32c.a(pic32_data_init_clear.o)
 .debug_frame   0x0000000000004c74       0x28 c:/program files/microchip/xc32/v4.60/bin/bin/../../lib/gcc/pic32c/8.3.1/../../../../pic32c/lib/thumb/v6-m/nofp\libpic32c.a(pic32_data_init_copy.o)

.note.GNU-stack
                0x0000000000000000        0x0
 .note.GNU-stack
                0x0000000000000000        0x0 c:/program files/microchip/xc32/v4.60/bin/bin/../../lib/gcc/pic32c/8.3.1/../../../../pic32c/lib/thumb/v6-m/nofp\libc-size-musl.a(memcpy.o)
 .note.GNU-stack
                0x0000000000000000        0x0 c:/program files/microchip/xc32/v4.60/bin/bin/../../lib/gcc/pic32c/8.3.1/../../../../pic32c/lib/thumb/v6-m/nofp\libc-size-musl.a(memset.o)
 .note.GNU-stack
                0x0000000000000000        0x0 c:/program files/microchip/xc32/v4.60/bin/bin/../../lib/gcc/pic32c/8.3.1/../../../../pic32c/lib/thumb/v6-m/nofp\libc-size-musl.a(strlen.o)
 .note.GNU-stack
                0x0000000000000000        0x0 c:/program files/microchip/xc32/v4.60/bin/bin/../../lib/gcc/pic32c/8.3.1/../../../../pic32c/lib/thumb/v6-m/nofp\libc-size-musl.a(strchr.o)
 .note.GNU-stack
                0x0000000000000000        0x0 c:/program files/microchip/xc32/v4.60/bin/bin/../../lib/gcc/pic32c/8.3.1/../../../../pic32c/lib/thumb/v6-m/nofp\libc-size-musl.a(strchrnul.o)
 .note.GNU-stack
                0x0000000000000000        0x0 c:/program files/microchip/xc32/v4.60/bin/bin/../../lib/gcc/pic32c/8.3.1/../../../../pic32c/lib/thumb/v6-m/nofp\libc-size-musl.a(strnlen.o)
 .note.GNU-stack
                0x0000000000000000        0x0 c:/program files/microchip/xc32/v4.60/bin/bin/../../lib/gcc/pic32c/8.3.1/../../../../pic32c/lib/thumb/v6-m/nofp\libc-size-musl.a(memchr.o)
 .note.GNU-stack
                0x0000000000000000        0x0 c:/program files/microchip/xc32/v4.60/bin/bin/../../lib/gcc/pic32c/8.3.1/../../../../pic32c/lib/thumb/v6-m/nofp\liblmalloc-musl.a(lite_calloc.o)
 .note.GNU-stack
                0x0000000000000000        0x0 c:/program files/microchip/xc32/v4.60/bin/bin/../../lib/gcc/pic32c/8.3.1/../../../../pic32c/lib/thumb/v6-m/nofp\liblmalloc-musl.a(lite_free.o)
 .note.GNU-stack
                0x0000000000000000        0x0 c:/program files/microchip/xc32/v4.60/bin/bin/../../lib/gcc/pic32c/8.3.1/../../../../pic32c/lib/thumb/v6-m/nofp\liblmalloc-musl.a(lite_malloc.o)
 .note.GNU-stack
                0x0000000000000000        0x0 c:/program files/microchip/xc32/v4.60/bin/bin/../../lib/gcc/pic32c/8.3.1/../../../../pic32c/lib/thumb/v6-m/nofp\libg-musl.a(__libc_start_main.o)
 .note.GNU-stack
                0x0000000000000000        0x0 c:/program files/microchip/xc32/v4.60/bin/bin/../../lib/gcc/pic32c/8.3.1/../../../../pic32c/lib/thumb/v6-m/nofp\libg-musl.a(__errno_location.o)
 .note.GNU-stack
                0x0000000000000000        0x0 c:/program files/microchip/xc32/v4.60/bin/bin/../../lib/gcc/pic32c/8.3.1/../../../../pic32c/lib/thumb/v6-m/nofp\libg-musl.a(libc.o)
 .note.GNU-stack
                0x0000000000000000        0x0 c:/program files/microchip/xc32/v4.60/bin/bin/../../lib/gcc/pic32c/8.3.1/../../../../pic32c/lib/thumb/v6-m/nofp\libg-musl.a(expand_heap.o)
 .note.GNU-stack
                0x0000000000000000        0x0 c:/program files/microchip/xc32/v4.60/bin/bin/../../lib/gcc/pic32c/8.3.1/../../../../pic32c/lib/thumb/v6-m/nofp\libg-musl.a(__sio_printf_cdeEfFgGnsu.o)
 .note.GNU-stack
                0x0000000000000000        0x0 c:/program files/microchip/xc32/v4.60/bin/bin/../../lib/gcc/pic32c/8.3.1/../../../../pic32c/lib/thumb/v6-m/nofp\libg-musl.a(__fmt_d.o)
 .note.GNU-stack
                0x0000000000000000        0x0 c:/program files/microchip/xc32/v4.60/bin/bin/../../lib/gcc/pic32c/8.3.1/../../../../pic32c/lib/thumb/v6-m/nofp\libg-musl.a(__fmt_fp.o)
 .note.GNU-stack
                0x0000000000000000        0x0 c:/program files/microchip/xc32/v4.60/bin/bin/../../lib/gcc/pic32c/8.3.1/../../../../pic32c/lib/thumb/v6-m/nofp\libg-musl.a(__fmt_s.o)
 .note.GNU-stack
                0x0000000000000000        0x0 c:/program files/microchip/xc32/v4.60/bin/bin/../../lib/gcc/pic32c/8.3.1/../../../../pic32c/lib/thumb/v6-m/nofp\libg-musl.a(__fmt_u.o)
 .note.GNU-stack
                0x0000000000000000        0x0 c:/program files/microchip/xc32/v4.60/bin/bin/../../lib/gcc/pic32c/8.3.1/../../../../pic32c/lib/thumb/v6-m/nofp\libg-musl.a(__pop_float.o)
 .note.GNU-stack
                0x0000000000000000        0x0 c:/program files/microchip/xc32/v4.60/bin/bin/../../lib/gcc/pic32c/8.3.1/../../../../pic32c/lib/thumb/v6-m/nofp\libg-musl.a(__pop_int.o)
 .note.GNU-stack
                0x0000000000000000        0x0 c:/program files/microchip/xc32/v4.60/bin/bin/../../lib/gcc/pic32c/8.3.1/../../../../pic32c/lib/thumb/v6-m/nofp\libg-musl.a(__pop_ptr.o)
 .note.GNU-stack
                0x0000000000000000        0x0 c:/program files/microchip/xc32/v4.60/bin/bin/../../lib/gcc/pic32c/8.3.1/../../../../pic32c/lib/thumb/v6-m/nofp\libg-musl.a(__printf_core.o)
 .note.GNU-stack
                0x0000000000000000        0x0 c:/program files/microchip/xc32/v4.60/bin/bin/../../lib/gcc/pic32c/8.3.1/../../../../pic32c/lib/thumb/v6-m/nofp\libg-musl.a(stdin.o)
 .note.GNU-stack
                0x0000000000000000        0x0 c:/program files/microchip/xc32/v4.60/bin/bin/../../lib/gcc/pic32c/8.3.1/../../../../pic32c/lib/thumb/v6-m/nofp\libg-musl.a(stdout.o)
 .note.GNU-stack
                0x0000000000000000        0x0 c:/program files/microchip/xc32/v4.60/bin/bin/../../lib/gcc/pic32c/8.3.1/../../../../pic32c/lib/thumb/v6-m/nofp\libg-musl.a(puts.o)
 .note.GNU-stack
                0x0000000000000000        0x0 c:/program files/microchip/xc32/v4.60/bin/bin/../../lib/gcc/pic32c/8.3.1/../../../../pic32c/lib/thumb/v6-m/nofp\libg-musl.a(setbuf.o)
 .note.GNU-stack
                0x0000000000000000        0x0 c:/program files/microchip/xc32/v4.60/bin/bin/../../lib/gcc/pic32c/8.3.1/../../../../pic32c/lib/thumb/v6-m/nofp\libg-musl.a(atoi.o)
 .note.GNU-stack
                0x0000000000000000        0x0 c:/program files/microchip/xc32/v4.60/bin/bin/../../lib/gcc/pic32c/8.3.1/../../../../pic32c/lib/thumb/v6-m/nofp\libg-musl.a(gmtime.o)
 .note.GNU-stack
                0x0000000000000000        0x0 c:/program files/microchip/xc32/v4.60/bin/bin/../../lib/gcc/pic32c/8.3.1/../../../../pic32c/lib/thumb/v6-m/nofp\libg-musl.a(gmtime_r.o)
 .note.GNU-stack
                0x0000000000000000        0x0 c:/program files/microchip/xc32/v4.60/bin/bin/../../lib/gcc/pic32c/8.3.1/../../../../pic32c/lib/thumb/v6-m/nofp\libg-musl.a(mktime.o)
 .note.GNU-stack
                0x0000000000000000        0x0 c:/program files/microchip/xc32/v4.60/bin/bin/../../lib/gcc/pic32c/8.3.1/../../../../pic32c/lib/thumb/v6-m/nofp\libg-musl.a(tolower.o)
 .note.GNU-stack
                0x0000000000000000        0x0 c:/program files/microchip/xc32/v4.60/bin/bin/../../lib/gcc/pic32c/8.3.1/../../../../pic32c/lib/thumb/v6-m/nofp\libg-musl.a(__environ.o)
 .note.GNU-stack
                0x0000000000000000        0x0 c:/program files/microchip/xc32/v4.60/bin/bin/../../lib/gcc/pic32c/8.3.1/../../../../pic32c/lib/thumb/v6-m/nofp\libg-musl.a(__int_vfprintf.o)
 .note.GNU-stack
                0x0000000000000000        0x0 c:/program files/microchip/xc32/v4.60/bin/bin/../../lib/gcc/pic32c/8.3.1/../../../../pic32c/lib/thumb/v6-m/nofp\libg-musl.a(fputs.o)
 .note.GNU-stack
                0x0000000000000000        0x0 c:/program files/microchip/xc32/v4.60/bin/bin/../../lib/gcc/pic32c/8.3.1/../../../../pic32c/lib/thumb/v6-m/nofp\libg-musl.a(__cvt_u.o)
 .note.GNU-stack
                0x0000000000000000        0x0 c:/program files/microchip/xc32/v4.60/bin/bin/../../lib/gcc/pic32c/8.3.1/../../../../pic32c/lib/thumb/v6-m/nofp\libg-musl.a(__stdio_read.o)
 .note.GNU-stack
                0x0000000000000000        0x0 c:/program files/microchip/xc32/v4.60/bin/bin/../../lib/gcc/pic32c/8.3.1/../../../../pic32c/lib/thumb/v6-m/nofp\libg-musl.a(__towrite_rw.o)
 .note.GNU-stack
                0x0000000000000000        0x0 c:/program files/microchip/xc32/v4.60/bin/bin/../../lib/gcc/pic32c/8.3.1/../../../../pic32c/lib/thumb/v6-m/nofp\libg-musl.a(fwrite.o)
 .note.GNU-stack
                0x0000000000000000        0x0 c:/program files/microchip/xc32/v4.60/bin/bin/../../lib/gcc/pic32c/8.3.1/../../../../pic32c/lib/thumb/v6-m/nofp\libg-musl.a(putc.o)
 .note.GNU-stack
                0x0000000000000000        0x0 c:/program files/microchip/xc32/v4.60/bin/bin/../../lib/gcc/pic32c/8.3.1/../../../../pic32c/lib/thumb/v6-m/nofp\libg-musl.a(setvbuf.o)
 .note.GNU-stack
                0x0000000000000000        0x0 c:/program files/microchip/xc32/v4.60/bin/bin/../../lib/gcc/pic32c/8.3.1/../../../../pic32c/lib/thumb/v6-m/nofp\libg-musl.a(__tm_to_secs.o)
 .note.GNU-stack
                0x0000000000000000        0x0 c:/program files/microchip/xc32/v4.60/bin/bin/../../lib/gcc/pic32c/8.3.1/../../../../pic32c/lib/thumb/v6-m/nofp\libg-musl.a(__year_to_secs.o)
 .note.GNU-stack
                0x0000000000000000        0x0 c:/program files/microchip/xc32/v4.60/bin/bin/../../lib/gcc/pic32c/8.3.1/../../../../pic32c/lib/thumb/v6-m/nofp\libg-musl.a(__secs_to_tm.o)
 .note.GNU-stack
                0x0000000000000000        0x0 c:/program files/microchip/xc32/v4.60/bin/bin/../../lib/gcc/pic32c/8.3.1/../../../../pic32c/lib/thumb/v6-m/nofp\libg-musl.a(readv.o)
 .note.GNU-stack
                0x0000000000000000        0x0 c:/program files/microchip/xc32/v4.60/bin/bin/../../lib/gcc/pic32c/8.3.1/../../../../pic32c/lib/thumb/v6-m/nofp\libg-musl.a(__init_stdio.o)
 .note.GNU-stack
                0x0000000000000000        0x0 c:/program files/microchip/xc32/v4.60/bin/bin/../../lib/gcc/pic32c/8.3.1/../../../../pic32c/lib/thumb/v6-m/nofp\libg-musl.a(__out.o)
 .note.GNU-stack
                0x0000000000000000        0x0 c:/program files/microchip/xc32/v4.60/bin/bin/../../lib/gcc/pic32c/8.3.1/../../../../pic32c/lib/thumb/v6-m/nofp\libg-musl.a(__putc.o)
 .note.GNU-stack
                0x0000000000000000        0x0 c:/program files/microchip/xc32/v4.60/bin/bin/../../lib/gcc/pic32c/8.3.1/../../../../pic32c/lib/thumb/v6-m/nofp\libg-musl.a(__stderr.o)
 .note.GNU-stack
                0x0000000000000000        0x0 c:/program files/microchip/xc32/v4.60/bin/bin/../../lib/gcc/pic32c/8.3.1/../../../../pic32c/lib/thumb/v6-m/nofp\libg-musl.a(__stdio_close.o)
 .note.GNU-stack
                0x0000000000000000        0x0 c:/program files/microchip/xc32/v4.60/bin/bin/../../lib/gcc/pic32c/8.3.1/../../../../pic32c/lib/thumb/v6-m/nofp\libg-musl.a(__stdio_write.o)
 .note.GNU-stack
                0x0000000000000000        0x0 c:/program files/microchip/xc32/v4.60/bin/bin/../../lib/gcc/pic32c/8.3.1/../../../../pic32c/lib/thumb/v6-m/nofp\libg-musl.a(__stdout.o)
 .note.GNU-stack
                0x0000000000000000        0x0 c:/program files/microchip/xc32/v4.60/bin/bin/../../lib/gcc/pic32c/8.3.1/../../../../pic32c/lib/thumb/v6-m/nofp\libg-musl.a(__towrite.o)
 .note.GNU-stack
                0x0000000000000000        0x0 c:/program files/microchip/xc32/v4.60/bin/bin/../../lib/gcc/pic32c/8.3.1/../../../../pic32c/lib/thumb/v6-m/nofp\libg-musl.a(__month_to_secs.o)
 .note.GNU-stack
                0x0000000000000000        0x0 c:/program files/microchip/xc32/v4.60/bin/bin/../../lib/gcc/pic32c/8.3.1/../../../../pic32c/lib/thumb/v6-m/nofp\libg-musl.a(writev.o)
 .note.GNU-stack
                0x0000000000000000        0x0 c:/program files/microchip/xc32/v4.60/bin/bin/../../lib/gcc/pic32c/8.3.1/../../../../pic32c/lib/thumb/v6-m/nofp\libg-musl.a(__overflow.o)
 .note.GNU-stack
                0x0000000000000000        0x0 c:/program files/microchip/xc32/v4.60/bin/bin/../../lib/gcc/pic32c/8.3.1/../../../../pic32c/lib/thumb/v6-m/nofp\libg-musl.a(__fwrite.o)
 .note.GNU-stack
                0x0000000000000000        0x0 c:/program files/microchip/xc32/v4.60/bin/bin/../../lib/gcc/pic32c/8.3.1/../../../../pic32c/lib/thumb/v6-m/nofp\libc-size-musl.a(strcpy.o)
 .note.GNU-stack
                0x0000000000000000        0x0 c:/program files/microchip/xc32/v4.60/bin/bin/../../lib/gcc/pic32c/8.3.1/../../../../pic32c/lib/thumb/v6-m/nofp\libc-size-musl.a(stpcpy.o)

__xc_reference_data
                0x0000000000000000       0xdc
 __xc_reference_data
                0x0000000000000000        0x8 c:/program files/microchip/xc32/v4.60/bin/bin/../../lib/gcc/pic32c/8.3.1/../../../../pic32c/lib/thumb/v6-m/nofp\libg-musl.a(stdin.o)
                0x0000000000000000                __stdin_needs_rw
 __xc_reference_data
                0x0000000000000008        0x8 c:/program files/microchip/xc32/v4.60/bin/bin/../../lib/gcc/pic32c/8.3.1/../../../../pic32c/lib/thumb/v6-m/nofp\libg-musl.a(stdout.o)
                0x0000000000000008                __stdout_needs_init
 __xc_reference_data
                0x0000000000000010       0x14 c:/program files/microchip/xc32/v4.60/bin/bin/../../lib/gcc/pic32c/8.3.1/../../../../pic32c/lib/thumb/v6-m/nofp\libg-musl.a(__io_init_needed.o)
                0x0000000000000010                __io_init_needed
                0x000000000000001c                __io_init_needs_file
 __xc_reference_data
                0x0000000000000024       0x20 c:/program files/microchip/xc32/v4.60/bin/bin/../../lib/gcc/pic32c/8.3.1/../../../../pic32c/lib/thumb/v6-m/nofp\libg-musl.a(__io_rw_needed.o)
                0x0000000000000024                __io_rw_needed
 __xc_reference_data
                0x0000000000000044        0xc c:/program files/microchip/xc32/v4.60/bin/bin/../../lib/gcc/pic32c/8.3.1/../../../../pic32c/lib/thumb/v6-m/nofp\libg-musl.a(putc.o)
                0x0000000000000044                __putc_needs_out
 __xc_reference_data
                0x0000000000000050        0x8 c:/program files/microchip/xc32/v4.60/bin/bin/../../lib/gcc/pic32c/8.3.1/../../../../pic32c/lib/thumb/v6-m/nofp\libg-musl.a(setvbuf.o)
                0x0000000000000050                __setvbuf_needs_buf
 __xc_reference_data
                0x0000000000000058       0x34 c:/program files/microchip/xc32/v4.60/bin/bin/../../lib/gcc/pic32c/8.3.1/../../../../pic32c/lib/thumb/v6-m/nofp\libg-musl.a(__io_buf_needed.o)
                0x0000000000000058                __io_buf_needed
 __xc_reference_data
                0x000000000000008c        0xc c:/program files/microchip/xc32/v4.60/bin/bin/../../lib/gcc/pic32c/8.3.1/../../../../pic32c/lib/thumb/v6-m/nofp\libg-musl.a(__io_file_needed.o)
                0x000000000000008c                __io_file_needed
 __xc_reference_data
                0x0000000000000098       0x2c c:/program files/microchip/xc32/v4.60/bin/bin/../../lib/gcc/pic32c/8.3.1/../../../../pic32c/lib/thumb/v6-m/nofp\libg-musl.a(__io_std_needed.o)
                0x0000000000000098                __io_std_needed
 __xc_reference_data
                0x00000000000000c4        0x8 c:/program files/microchip/xc32/v4.60/bin/bin/../../lib/gcc/pic32c/8.3.1/../../../../pic32c/lib/thumb/v6-m/nofp\libg-musl.a(__stderr.o)
                0x00000000000000c4                __stderr_needs_file
 __xc_reference_data
                0x00000000000000cc        0x8 c:/program files/microchip/xc32/v4.60/bin/bin/../../lib/gcc/pic32c/8.3.1/../../../../pic32c/lib/thumb/v6-m/nofp\libg-musl.a(__stdout.o)
                0x00000000000000cc                __stdout_needs_file
 __xc_reference_data
                0x00000000000000d4        0x8 c:/program files/microchip/xc32/v4.60/bin/bin/../../lib/gcc/pic32c/8.3.1/../../../../pic32c/lib/thumb/v6-m/nofp\libg-musl.a(__fwrite.o)
                0x00000000000000d4                __fwrite_needs_std

.stack          0x0000000020001da8      0x100
 .stack         0x0000000020001da8      0x100 stack

.bss%1          0x0000000020000000      0xf60
 .bss           0x0000000020000000      0xf60 build/SAMD21_IOT_WG_ICM42688/debug/_ext/1360937237/main.o

.bss%2          0x0000000020000f60      0x408
 .bss           0x0000000020000f60      0x408 c:/program files/microchip/xc32/v4.60/bin/bin/../../lib/gcc/pic32c/8.3.1/../../../../pic32c/lib/thumb/v6-m/nofp\libg-musl.a(stdin.o)

.bss%3          0x0000000020001368      0x114
 .bss           0x0000000020001368      0x114 build/SAMD21_IOT_WG_ICM42688/debug/_ext/907429946/wdrv_winc.o
                0x0000000020001378                pfWINCDebugPrintCb

.bss%4          0x0000000020001480       0xe0
 .bss           0x0000000020001480       0xe0 build/SAMD21_IOT_WG_ICM42688/debug/_ext/386530258/sys_time.o

.bss%5          0x0000000020001560       0xcd
 .bss           0x0000000020001560       0xcd build/SAMD21_IOT_WG_ICM42688/debug/_ext/548032175/socket.o
                0x0000000020001560                gpfAppSocketCb
                0x0000000020001564                gu16SessionID
                0x0000000020001568                gpfAppResolveCb
                0x0000000020001574                gbSocketInit
                0x0000000020001578                gu16BufferSize
                0x000000002000157a                gu8OpCode
                0x000000002000157c                gastrSockets
                0x000000002000162c                gsockerrno

.bss%6          0x0000000020001630       0xc4
 .bss           0x0000000020001630       0xc4 build/SAMD21_IOT_WG_ICM42688/debug/_ext/1832905403/initialization.o
                0x0000000020001630                sysObj

.bss%7          0x00000000200016f4       0xc0
 .bss           0x00000000200016f4       0xc0 build/SAMD21_IOT_WG_ICM42688/debug/_ext/503204096/plib_eic.o

.bss%8          0x00000000200017b4       0x78
 .bss           0x00000000200017b4       0x78 build/SAMD21_IOT_WG_ICM42688/debug/_ext/1660664302/drv_spi.o

.bss%9          0x000000002000182c       0x68
 .bss           0x000000002000182c       0x68 build/SAMD21_IOT_WG_ICM42688/debug/_ext/121554788/m2m_ota.o

.bss%10         0x0000000020001898       0x60
 .bss           0x0000000020001898       0x60 build/SAMD21_IOT_WG_ICM42688/debug/_ext/1580516298/plib_dmac.o

.bss%11         0x00000000200018f8       0x50
 .bss           0x00000000200018f8       0x50 c:/program files/microchip/xc32/v4.60/bin/bin/../../lib/gcc/pic32c/8.3.1/../../../../pic32c/lib/thumb/v6-m/nofp\libg-musl.a(libc.o)
                0x00000000200018f8                __progname_full
                0x00000000200018f8                program_invocation_name
                0x00000000200018fc                program_invocation_short_name
                0x00000000200018fc                __progname
                0x0000000020001900                __sysinfo
                0x0000000020001904                __hwcap
                0x0000000020001908                __libc

.bss%12         0x0000000020001948       0x2d
 .bss           0x0000000020001948       0x2d build/SAMD21_IOT_WG_ICM42688/debug/_ext/1014017276/plib_sercom2_spi_master.o

.bss%13         0x0000000020001978       0x2c
 .bss           0x0000000020001978       0x2c c:/program files/microchip/xc32/v4.60/bin/bin/../../lib/gcc/pic32c/8.3.1/../../../../pic32c/lib/thumb/v6-m/nofp\libg-musl.a(gmtime.o)

.bss%14         0x00000000200019a4       0x29
 .bss           0x00000000200019a4       0x29 build/SAMD21_IOT_WG_ICM42688/debug/_ext/121554788/m2m_hif.o
                0x00000000200019a4                gstrHifCxt

.bss%15         0x00000000200019d0       0x28
 .bss           0x00000000200019d0       0x28 build/SAMD21_IOT_WG_ICM42688/debug/_ext/121554788/m2m_wifi.o

.bss%16         0x00000000200019f8       0x1d
 .bss           0x00000000200019f8       0x1d build/SAMD21_IOT_WG_ICM42688/debug/_ext/101005277/wdrv_winc_spi.o

.bss%17         0x0000000020001a18       0x1c
 .bss           0x0000000020001a18       0x1c c:/program files/microchip/xc32/v4.60/bin/bin/../../lib/gcc/pic32c/8.3.1/thumb/v6-m/nofp/crtbegin.o

.bss%18         0x0000000020001a34       0x13
 .bss           0x0000000020001a34       0x13 build/SAMD21_IOT_WG_ICM42688/debug/_ext/1360937237/winc1500_udp_client.o
                0x0000000020001a34                state

.bss%19         0x0000000020001a48        0xc
 .bss           0x0000000020001a48        0xc c:/program files/microchip/xc32/v4.60/bin/bin/../../lib/gcc/pic32c/8.3.1/../../../../pic32c/lib/thumb/v6-m/nofp\libpic32c.a(sbrk.o)
                0x0000000020001a4c                _maxbrk
                0x0000000020001a50                _minbrk

.bss%20         0x0000000020001a54        0x8
 .bss           0x0000000020001a54        0x8 build/SAMD21_IOT_WG_ICM42688/debug/_ext/121554788/m2m_ssl.o

.bss%21         0x0000000020001a5c        0x8
 .bss           0x0000000020001a5c        0x8 build/SAMD21_IOT_WG_ICM42688/debug/_ext/399410062/plib_tc3.o

.bss%22         0x0000000020001a64        0x8
 .bss           0x0000000020001a64        0x8 build/SAMD21_IOT_WG_ICM42688/debug/_ext/399410062/plib_tc4.o

.bss%23         0x0000000020001a6c        0x8
 .bss           0x0000000020001a6c        0x8 build/SAMD21_IOT_WG_ICM42688/debug/_ext/1360937237/app.o
                0x0000000020001a6c                appData

.bss%24         0x0000000020001a74        0x8
 .bss           0x0000000020001a74        0x8 c:/program files/microchip/xc32/v4.60/bin/bin/../../lib/gcc/pic32c/8.3.1/../../../../pic32c/lib/thumb/v6-m/nofp\libg-musl.a(stdout.o)
                0x0000000020001a78                __stdout_used

.bss%25         0x0000000020001a7c        0x7
 .bss           0x0000000020001a7c        0x7 build/SAMD21_IOT_WG_ICM42688/debug/_ext/1360937237/ws2812.o
                0x0000000020001a7c                ws2812_transmission_complete

.bss%26         0x000000002000147c        0x4
 .bss           0x000000002000147c        0x4 build/SAMD21_IOT_WG_ICM42688/debug/_ext/2048461350/icm42688_sensor.o

.bss%27         0x0000000020001894        0x4
 .bss           0x0000000020001894        0x4 build/SAMD21_IOT_WG_ICM42688/debug/_ext/121554788/nmasic.o

.bss%28         0x0000000020001a84        0x4
 .bss           0x0000000020001a84        0x4 build/SAMD21_IOT_WG_ICM42688/debug/_ext/609036575/spi_flash.o

.bss%29         0x0000000020001a88        0x4
 .bss           0x0000000020001a88        0x4 c:/program files/microchip/xc32/v4.60/bin/bin/../../lib/gcc/pic32c/8.3.1/../../../../pic32c/lib/thumb/v6-m/nofp\libpic32c.a(data_init.o)

.bss%30         0x0000000020001a8c        0x4
 .bss           0x0000000020001a8c        0x4 c:/program files/microchip/xc32/v4.60/bin/bin/../../lib/gcc/pic32c/8.3.1/../../../../pic32c/lib/thumb/v6-m/nofp\liblmalloc-musl.a(lite_free.o)
                0x0000000020001a8c                __freelist

.bss%31         0x0000000020001a90        0x4
 .bss           0x0000000020001a90        0x4 c:/program files/microchip/xc32/v4.60/bin/bin/../../lib/gcc/pic32c/8.3.1/../../../../pic32c/lib/thumb/v6-m/nofp\libg-musl.a(__errno_location.o)
                0x0000000020001a90                __errno_val

.bss%32         0x0000000020001a94        0x4
 .bss           0x0000000020001a94        0x4 c:/program files/microchip/xc32/v4.60/bin/bin/../../lib/gcc/pic32c/8.3.1/../../../../pic32c/lib/thumb/v6-m/nofp\libg-musl.a(__environ.o)
                0x0000000020001a94                __environ
                0x0000000020001a94                environ
                0x0000000020001a94                ___environ
                0x0000000020001a94                _environ

.bss%33         0x000000002000162d        0x2
 .bss           0x000000002000162d        0x2 build/SAMD21_IOT_WG_ICM42688/debug/_ext/121554788/nmspi.o

.data%34        0x0000000020001a98       0x6c
 .data          0x0000000020001a98       0x6c c:/program files/microchip/xc32/v4.60/bin/bin/../../lib/gcc/pic32c/8.3.1/../../../../pic32c/lib/thumb/v6-m/nofp\libg-musl.a(stdin.o)
                0x0000000020001a98                __stdin_used
                0x0000000020001a9c                _stdin

.data%35        0x0000000020001b04       0x60
 .data          0x0000000020001b04       0x60 c:/program files/microchip/xc32/v4.60/bin/bin/../../lib/gcc/pic32c/8.3.1/../../../../pic32c/lib/thumb/v6-m/nofp\libg-musl.a(__stdout.o)

.data%36        0x0000000020001b64       0x20
 .data          0x0000000020001b64       0x20 c:/program files/microchip/xc32/v4.60/bin/bin/../../lib/gcc/pic32c/8.3.1/../../../../pic32c/lib/thumb/v6-m/nofp\libg-musl.a(stdout.o)
                0x0000000020001b80                _stdout

.data%37        0x0000000020001b84        0x4
 .data          0x0000000020001b84        0x4 build/SAMD21_IOT_WG_ICM42688/debug/_ext/121554788/m2m_wifi.o

.data%38        0x0000000020001b88        0x4
 .data          0x0000000020001b88        0x4 c:/program files/microchip/xc32/v4.60/bin/bin/../../lib/gcc/pic32c/8.3.1/../../../../pic32c/lib/thumb/v6-m/nofp\liblmalloc-musl.a(lite_malloc.o)

.data%39        0x0000000020001b8c        0x2
 .data          0x0000000020001b8c        0x2 build/SAMD21_IOT_WG_ICM42688/debug/_ext/121554788/nmbus.o
                0x0000000020001b8c                egstrNmBusCapabilities

.data%40        0x0000000020001976        0x2
 .data          0x0000000020001976        0x2 build/SAMD21_IOT_WG_ICM42688/debug/_ext/386530258/sys_time.o

.data%41        0x0000000020001a47        0x1
 .data          0x0000000020001a47        0x1 build/SAMD21_IOT_WG_ICM42688/debug/_ext/121554788/m2m_ssl.o

.data%42        0x0000000020001a83        0x1
 .data          0x0000000020001a83        0x1 build/SAMD21_IOT_WG_ICM42688/debug/_ext/121554788/m2m_ota.o

.data%43        0x000000002000162f        0x1
 .data          0x000000002000162f        0x1 build/SAMD21_IOT_WG_ICM42688/debug/_ext/1360937237/main.o

.eh_frame%z1    0x0000000000000000        0x0
 .eh_frame      0x0000000000000000        0x0 c:/program files/microchip/xc32/v4.60/bin/bin/../../lib/gcc/pic32c/8.3.1/thumb/v6-m/nofp/crtbegin.o

.text%44        0x00000000000000e0     0x2250
 .text          0x00000000000000e0     0x2250 build/SAMD21_IOT_WG_ICM42688/debug/_ext/1341251756/Icm426xxDriver_HL.o
                0x0000000000000138                inv_icm426xx_set_reg_bank
                0x0000000000000150                inv_icm426xx_device_reset
                0x00000000000002d0                inv_icm426xx_get_who_am_i
                0x00000000000002e0                inv_icm426xx_force_clock_source
                0x000000000000031c                inv_icm426xx_enable_accel_low_power_mode
                0x0000000000000538                inv_icm426xx_enable_accel_low_noise_mode
                0x00000000000006b0                inv_icm426xx_enable_gyro_low_noise_mode
                0x0000000000000898                inv_icm426xx_enable_fsync
                0x00000000000008cc                inv_icm426xx_disable_fsync
                0x00000000000008fc                inv_icm426xx_configure_timestamp_resolution
                0x0000000000000930                inv_icm426xx_get_config_ibi
                0x00000000000009d8                inv_icm426xx_get_config_int1
                0x0000000000000a9c                inv_icm426xx_get_config_int2
                0x0000000000000b60                inv_icm426xx_set_config_ibi
                0x0000000000000c58                inv_icm426xx_set_config_int1
                0x0000000000000d90                inv_icm426xx_set_config_int2
                0x0000000000000ec8                inv_icm426xx_get_data_from_registers
                0x0000000000000ffc                inv_icm426xx_convert_odr_bitfield_to_us
                0x0000000000001018                inv_icm426xx_set_accel_frequency
                0x0000000000001088                inv_icm426xx_set_gyro_frequency
                0x00000000000010bc                inv_icm426xx_set_accel_fsr
                0x00000000000010f0                inv_icm426xx_set_gyro_fsr
                0x0000000000001124                inv_icm426xx_get_accel_fsr
                0x0000000000001164                inv_icm426xx_get_gyro_fsr
                0x00000000000011a4                inv_icm426xx_set_accel_lp_avg
                0x00000000000011f0                inv_icm426xx_set_accel_ln_bw
                0x000000000000123c                inv_icm426xx_set_gyro_ln_bw
                0x0000000000001288                inv_icm426xx_reset_fifo
                0x0000000000001318                inv_icm426xx_disable_accel
                0x00000000000013c8                inv_icm426xx_disable_gyro
                0x00000000000014fc                inv_icm426xx_get_data_from_fifo
                0x00000000000019c0                inv_icm426xx_enable_timestamp_to_register
                0x0000000000001a14                inv_icm426xx_disable_timestamp_to_register
                0x0000000000001a60                inv_icm426xx_get_current_timestamp
                0x0000000000001ad4                inv_icm426xx_enable_clkin_rtc
                0x0000000000001b98                inv_icm426xx_get_clkin_rtc_status
                0x0000000000001bb4                inv_icm426xx_enable_high_resolution_fifo
                0x0000000000001bc4                inv_icm426xx_disable_high_resolution_fifo
                0x0000000000001bd4                inv_icm426xx_configure_fifo
                0x0000000000001d14                inv_icm426xx_init
                0x0000000000002160                inv_icm426xx_configure_fifo_wm
                0x0000000000002258                inv_icm426xx_get_fifo_timestamp_resolution_us_q24
                0x00000000000022e4                inv_icm426xx_get_reg_timestamp_resolution_us_q24
                0x0000000000002328                inv_icm426xx_get_version

.text%45        0x0000000000002330     0x14a8
 .text          0x0000000000002330     0x14a8 build/SAMD21_IOT_WG_ICM42688/debug/_ext/121554788/m2m_wifi.o
                0x0000000000002728                m2m_wifi_download_mode
                0x0000000000002744                m2m_wifi_send_crl
                0x0000000000002764                m2m_wifi_init_hold
                0x000000000000277c                m2m_wifi_init_start
                0x00000000000027f8                m2m_wifi_init
                0x0000000000002818                m2m_wifi_deinit
                0x0000000000002834                m2m_wifi_handle_events
                0x000000000000283c                m2m_wifi_delete_sc
                0x0000000000002868                m2m_wifi_default_connect
                0x0000000000002884                m2m_wifi_connect_open
                0x00000000000028b4                m2m_wifi_connect_wep
                0x00000000000028bc                m2m_wifi_connect_psk
                0x00000000000029dc                m2m_wifi_1x_set_option
                0x0000000000002ac8                m2m_wifi_1x_get_option
                0x0000000000002b70                m2m_wifi_connect_1x_mschap2
                0x0000000000002c94                m2m_wifi_connect_1x_tls
                0x0000000000002e34                m2m_wifi_connect_sc
                0x0000000000002f0c                m2m_wifi_connect
                0x0000000000002f24                m2m_wifi_disconnect
                0x0000000000002f40                m2m_wifi_set_mac_address
                0x0000000000002f68                m2m_wifi_set_static_ip
                0x0000000000002f84                m2m_wifi_enable_dhcp
                0x0000000000002fa4                m2m_wifi_set_lsn_int
                0x0000000000002fc0                m2m_wifi_set_cust_InfoElement
                0x0000000000002fec                m2m_wifi_set_scan_options
                0x0000000000003030                m2m_wifi_set_stop_scan_on_first
                0x000000000000305c                m2m_wifi_set_scan_region
                0x000000000000307c                m2m_wifi_request_scan
                0x00000000000030c4                m2m_wifi_request_scan_passive
                0x0000000000003110                m2m_wifi_request_scan_ssid_list
                0x0000000000003188                m2m_wifi_wps
                0x00000000000031c0                m2m_wifi_wps_disable
                0x00000000000031dc                m2m_wifi_req_client_ctrl
                0x00000000000031e0                m2m_wifi_req_server_init
                0x00000000000031e4                m2m_wifi_p2p
                0x0000000000003218                m2m_wifi_p2p_disconnect
                0x0000000000003234                m2m_wifi_enable_ap_ext
                0x0000000000003260                m2m_wifi_enable_ap
                0x0000000000003298                m2m_wifi_set_gains
                0x00000000000032c0                m2m_wifi_disable_ap
                0x00000000000032dc                m2m_wifi_req_curr_rssi
                0x00000000000032f8                m2m_wifi_send_ethernet_pkt
                0x0000000000003328                m2m_wifi_get_otp_mac_address
                0x000000000000334c                m2m_wifi_get_mac_address
                0x000000000000336c                m2m_wifi_req_scan_result
                0x000000000000338c                m2m_wifi_get_num_ap_found
                0x0000000000003398                m2m_wifi_get_sleep_mode
                0x00000000000033a0                m2m_wifi_set_sleep_mode
                0x00000000000033cc                m2m_wifi_request_sleep
                0x00000000000033f8                m2m_wifi_set_device_name
                0x0000000000003428                m2m_wifi_configure_sntp
                0x0000000000003464                m2m_wifi_get_chipId
                0x000000000000346c                m2m_wifi_get_firmware_version
                0x000000000000348c                m2m_wifi_start_provision_mode_ext
                0x00000000000034f8                m2m_wifi_start_provision_mode
                0x0000000000003538                m2m_wifi_stop_provision_mode
                0x0000000000003554                m2m_wifi_get_connection_info
                0x0000000000003570                m2m_wifi_set_system_time
                0x0000000000003590                m2m_wifi_get_system_time
                0x00000000000035ac                m2m_wifi_enable_sntp
                0x00000000000035cc                m2m_wifi_set_power_profile
                0x00000000000035ec                m2m_wifi_set_tx_power
                0x000000000000360c                m2m_wifi_set_gain_table_idx
                0x000000000000362c                m2m_wifi_enable_firmware_logs
                0x000000000000364c                m2m_wifi_set_battery_voltage
                0x000000000000366c                m2m_wifi_prng_get_random_bytes
                0x00000000000036a4                m2m_wifi_conf_auto_rate
                0x00000000000036c0                m2m_wifi_enable_mac_mcast
                0x00000000000036f4                m2m_wifi_set_receive_buffer
                0x000000000000370c                m2m_wifi_reinit_hold
                0x0000000000003734                m2m_wifi_reinit
                0x000000000000374c                m2m_wifi_reinit_start
                0x0000000000003754                m2m_wifi_get_state
                0x0000000000003760                m2m_wifi_enable_roaming
                0x0000000000003790                m2m_wifi_disable_roaming
                0x00000000000037b0                m2m_wifi_enable_XO_during_sleep

.text%46        0x00000000000037d8      0xd84
 .text          0x00000000000037d8      0xd84 build/SAMD21_IOT_WG_ICM42688/debug/_ext/907429946/wdrv_winc.o
                0x0000000000003eac                WDRV_WINC_Initialize
                0x0000000000003ef8                WDRV_WINC_Deinitialize
                0x0000000000003f44                WDRV_WINC_Reinitialize
                0x0000000000003f48                WDRV_WINC_Status
                0x0000000000003f64                WDRV_WINC_StatusExt
                0x0000000000003f88                WDRV_WINC_Tasks
                0x0000000000004184                WDRV_WINC_DebugRegisterCallback
                0x0000000000004190                WDRV_WINC_Open
                0x000000000000428c                WDRV_WINC_Close
                0x00000000000042ac                WDRV_WINC_MulticastMACFilterAdd
                0x00000000000042d0                WDRV_WINC_MulticastMACFilterRemove
                0x00000000000042f4                WDRV_WINC_EthernetAddressGet
                0x000000000000431c                WDRV_WINC_OperatingModeGet
                0x0000000000004340                WDRV_WINC_UserHandleSet
                0x0000000000004360                WDRV_WINC_UserHandleGet
                0x000000000000437c                WDRV_WINC_InfoDriverVersionGet
                0x00000000000043b0                WDRV_WINC_InfoDeviceFirmwareVersionGet
                0x0000000000004424                WDRV_WINC_InfoDeviceIDGet
                0x0000000000004440                WDRV_WINC_InfoDeviceMACAddressGet
                0x000000000000448c                WDRV_WINC_InfoDeviceNameSet
                0x00000000000044c0                WDRV_WINC_GainTableIndexSet
                0x00000000000044e4                WDRV_WINC_AutoRateSelectTransmitRate
                0x0000000000004544                WDRV_WINC_ISR

.text%47        0x000000000000455c      0xca0
 .text          0x000000000000455c      0xca0 build/SAMD21_IOT_WG_ICM42688/debug/_ext/1660664302/drv_spi.o
                0x0000000000004bb8                DRV_SPI_Initialize
                0x0000000000004c50                DRV_SPI_Status
                0x0000000000004c64                DRV_SPI_Open
                0x0000000000004d20                DRV_SPI_Close
                0x0000000000004e1c                DRV_SPI_TransferEventHandlerSet
                0x0000000000004e9c                DRV_SPI_TransferSetup
                0x0000000000004ed4                DRV_SPI_WriteReadTransferAdd
                0x000000000000510c                DRV_SPI_WriteTransferAdd
                0x0000000000005120                DRV_SPI_ReadTransferAdd
                0x0000000000005138                DRV_SPI_TransferStatusGet
                0x0000000000005170                DRV_SPI_Lock

.text%48        0x00000000000051fc      0xbe8
 .text          0x00000000000051fc      0xbe8 build/SAMD21_IOT_WG_ICM42688/debug/_ext/548032175/socket.o
                0x0000000000005638                socketInit
                0x000000000000566c                socketDeinit
                0x0000000000005694                registerSocketCallback
                0x00000000000056a0                registerSocketEventCallback
                0x00000000000056ac                registerSocketResolveCallback
                0x00000000000056b8                socket
                0x00000000000057b8                bind
                0x0000000000005824                listen
                0x000000000000586c                accept
                0x0000000000005894                connect
                0x0000000000005904                secure
                0x0000000000005970                send
                0x00000000000059e8                sendto
                0x0000000000005a60                recv
                0x0000000000005aec                shutdown
                0x0000000000005b50                recvfrom
                0x0000000000005bd8                gethostbyname
                0x0000000000005c08                setsockopt
                0x0000000000005c78                getsockopt
                0x0000000000005c80                m2m_ping_req
                0x0000000000005cc4                set_alpn_list
                0x0000000000005d64                get_alpn_index
                0x0000000000005d8c                sslEnableCertExpirationCheck
                0x0000000000005dac                IsSocketReady
                0x0000000000005db8                get_error_detail

.text%49        0x0000000000005de4      0xb50
 .text          0x0000000000005de4      0xb50 build/SAMD21_IOT_WG_ICM42688/debug/_ext/386530258/sys_time.o
                0x0000000000006140                SYS_TIME_Initialize
                0x00000000000061ec                SYS_TIME_Deinitialize
                0x0000000000006218                SYS_TIME_Status
                0x0000000000006230                SYS_TIME_FrequencyGet
                0x000000000000623c                SYS_TIME_Counter64Get
                0x000000000000627c                SYS_TIME_CounterGet
                0x0000000000006284                SYS_TIME_CounterSet
                0x00000000000062a0                SYS_TIME_CountToUS
                0x00000000000062dc                SYS_TIME_CountToMS
                0x00000000000062fc                SYS_TIME_USToCount
                0x0000000000006320                SYS_TIME_MSToCount
                0x0000000000006340                SYS_TIME_TimerCreate
                0x0000000000006360                SYS_TIME_TimerReload
                0x0000000000006450                SYS_TIME_TimerDestroy
                0x00000000000065b0                SYS_TIME_TimerStart
                0x000000000000664c                SYS_TIME_TimerStop
                0x00000000000066bc                SYS_TIME_TimerCounterGet
                0x0000000000006774                SYS_TIME_TimerPeriodHasExpired
                0x00000000000067d4                SYS_TIME_DelayUS
                0x0000000000006824                SYS_TIME_DelayMS
                0x0000000000006874                SYS_TIME_DelayIsComplete
                0x000000000000688c                SYS_TIME_CallbackRegisterUS
                0x00000000000068e0                SYS_TIME_CallbackRegisterMS

.text%50        0x0000000000006934      0x704
 .text          0x0000000000006934      0x704 build/SAMD21_IOT_WG_ICM42688/debug/_ext/121554788/nmasic.o
                0x0000000000006934                chip_apply_conf
                0x0000000000006964                chip_idle
                0x000000000000698c                enable_interrupts
                0x00000000000069e0                cpu_start
                0x0000000000006a88                nmi_get_chipid
                0x0000000000006b4c                nmi_get_rfrevid
                0x0000000000006b6c                restore_pmu_settings_after_global_reset
                0x0000000000006b94                nmi_update_pll
                0x0000000000006bbc                nmi_set_sys_clk_src_to_xo
                0x0000000000006bdc                chip_sleep
                0x0000000000006c3c                chip_wake
                0x0000000000006c98                cpu_halt
                0x0000000000006d00                chip_reset
                0x0000000000006d18                wait_for_bootrom
                0x0000000000006e10                wait_for_firmware_start
                0x0000000000006e7c                chip_deinit
                0x0000000000006eac                set_gpio_dir
                0x0000000000006ee0                set_gpio_val
                0x0000000000006f14                get_gpio_val
                0x0000000000006f3c                pullup_ctrl
                0x0000000000006f6c                nmi_get_otp_mac_address
                0x0000000000006fe4                nmi_get_mac_address

.text%51        0x0000000000007038      0x680
 .text          0x0000000000007038      0x680 build/SAMD21_IOT_WG_ICM42688/debug/_ext/121554788/nmspi.o
                0x0000000000007374                nm_spi_reset
                0x00000000000073ac                nm_spi_lock_init
                0x00000000000073b8                nm_spi_init
                0x0000000000007470                nm_spi_deinit
                0x0000000000007480                nm_spi_read_reg
                0x00000000000074a8                nm_spi_read_reg_with_ret
                0x00000000000074c8                nm_spi_write_reg
                0x00000000000074e8                nm_spi_read_block
                0x000000000000758c                nm_spi_write_block

.text%52        0x00000000000076b8      0x67c
 .text          0x00000000000076b8      0x67c build/SAMD21_IOT_WG_ICM42688/debug/_ext/609036575/spi_flash.o
                0x0000000000007990                spi_flash_enable
                0x0000000000007a70                spi_flash_read
                0x0000000000007b00                spi_flash_write
                0x0000000000007b80                spi_flash_erase
                0x0000000000007c88                spi_flash_get_size

.text%53        0x0000000000007d34      0x530
 .text          0x0000000000007d34      0x530 build/SAMD21_IOT_WG_ICM42688/debug/_ext/121554788/m2m_hif.o
                0x0000000000007d94                hif_chip_wake
                0x0000000000007dac                hif_set_sleep_mode
                0x0000000000007db8                hif_get_sleep_mode
                0x0000000000007dc4                hif_chip_sleep_sc
                0x0000000000007ddc                hif_chip_sleep
                0x0000000000007e08                hif_init
                0x0000000000007e34                hif_deinit
                0x0000000000007e5c                hif_send
                0x000000000000807c                hif_handle_isr
                0x00000000000081bc                hif_receive
                0x0000000000008210                hif_register_cb

.text%54        0x0000000000008264      0x500
 .text          0x0000000000008264      0x500 build/SAMD21_IOT_WG_ICM42688/debug/_ext/121554788/m2m_ota.o
                0x000000000000836c                m2m_ota_host_file_get_id
                0x0000000000008378                m2m_ota_init
                0x00000000000083ac                m2m_ota_notif_set_url
                0x00000000000083d0                m2m_ota_notif_check_for_update
                0x00000000000083ec                m2m_ota_notif_sched
                0x0000000000008408                m2m_ota_start_update
                0x00000000000084a8                m2m_ota_rollback
                0x00000000000084c4                m2m_ota_abort
                0x00000000000084e0                m2m_ota_switch_firmware
                0x00000000000084fc                m2m_ota_get_firmware_version
                0x000000000000851c                m2m_ota_host_file_get
                0x000000000000857c                m2m_ota_host_file_read_hif
                0x00000000000085c8                m2m_ota_host_file_read_spi
                0x0000000000008658                m2m_ota_host_file_erase
                0x0000000000008698                m2m_ota_set_ssl_option
                0x0000000000008700                m2m_ota_get_ssl_option

.text.__fmt_fp%55
                0x0000000000008764      0x4c0
 .text.__fmt_fp
                0x0000000000008764      0x4c0 c:/program files/microchip/xc32/v4.60/bin/bin/../../lib/gcc/pic32c/8.3.1/../../../../pic32c/lib/thumb/v6-m/nofp\libg-musl.a(__fmt_fp.o)
                0x0000000000008764                __fmt_f_needed
                0x0000000000008764                __fmt_fp

.text%56        0x0000000000008c24      0x48c
 .text          0x0000000000008c24      0x48c build/SAMD21_IOT_WG_ICM42688/debug/_ext/121554788/m2m_ssl.o
                0x0000000000008d44                m2m_ssl_init
                0x0000000000008d6c                m2m_ssl_handshake_rsp
                0x0000000000008d88                m2m_ssl_send_certs_to_winc
                0x0000000000008e90                m2m_ssl_retrieve_next_for_verifying
                0x0000000000009004                m2m_ssl_retrieve_cert
                0x0000000000009028                m2m_ssl_retrieve_hash
                0x000000000000906c                m2m_ssl_stop_retrieving
                0x000000000000907c                m2m_ssl_stop_processing_certs
                0x0000000000009084                m2m_ssl_ecc_process_done
                0x0000000000009090                m2m_ssl_set_active_ciphersuites

.text%57        0x00000000000090b0      0x414
 .text          0x00000000000090b0      0x414 build/SAMD21_IOT_WG_ICM42688/debug/_ext/907429946/wdrv_winc_socket.o
                0x00000000000090d8                WDRV_WINC_IPAddressSet
                0x000000000000910c                WDRV_WINC_IPAddressGet
                0x0000000000009130                WDRV_WINC_IPDNSServerAddressSet
                0x0000000000009160                WDRV_WINC_IPDefaultGatewaySet
                0x0000000000009190                WDRV_WINC_IPUseDHCPSet
                0x00000000000091c4                WDRV_WINC_IPUseDHCPGet
                0x00000000000091e8                WDRV_WINC_IPDHCPServerConfigure
                0x0000000000009214                WDRV_WINC_IPLinkActive
                0x0000000000009230                WDRV_WINC_ICMPEchoRequest
                0x0000000000009274                WDRV_WINC_OTAUpdateFromURL
                0x00000000000092bc                WDRV_WINC_OTAUpdateAbort
                0x00000000000092f0                WDRV_WINC_OTASSLServerAuthModeSet
                0x0000000000009338                WDRV_WINC_OTASSLServerAuthModeIsEnabled
                0x0000000000009380                WDRV_WINC_OTASSLSNISet
                0x00000000000093ec                WDRV_WINC_OTASSLSNIIsEnabled
                0x0000000000009434                WDRV_WINC_RollbackActiveFirmwareImage
                0x0000000000009468                WDRV_WINC_SwitchActiveFirmwareImage
                0x000000000000949c                WDRV_WINC_SocketRegisterEventCallback
                0x00000000000094b0                WDRV_WINC_SocketRegisterResolverCallback

.text%58        0x00000000000094c4      0x400
 .text          0x00000000000094c4      0x400 build/SAMD21_IOT_WG_ICM42688/debug/_ext/1580516298/plib_dmac.o
                0x00000000000094c4                DMAC_Initialize
                0x0000000000009538                DMAC_ChannelTransfer
                0x00000000000095fc                DMAC_ChannelIsBusy
                0x000000000000962c                DMAC_ChannelTransferStatusGet
                0x0000000000009658                DMAC_ChannelDisable
                0x0000000000009690                DMAC_ChannelGetTransferredCount
                0x00000000000096a8                DMAC_ChannelSuspend
                0x00000000000096d0                DMAC_ChannelResume
                0x00000000000096f8                DMAC_ChannelCallbackRegister
                0x0000000000009708                DMAC_ChannelSettingsGet
                0x000000000000971c                DMAC_ChannelSettingsSet
                0x0000000000009758                DMAC_CRCDisable
                0x000000000000976c                DMAC_ChannelCRCSetup
                0x00000000000097b0                DMAC_CRCRead
                0x00000000000097bc                DMAC_CRCCalculate
                0x0000000000009850                DMAC_InterruptHandler

.text%59        0x00000000000098c4      0x3f4
 .text          0x00000000000098c4      0x3f4 build/SAMD21_IOT_WG_ICM42688/debug/_ext/1360937237/main.o
                0x0000000000009900                SNSR_ISR_HANDLER
                0x0000000000009964                Null_Handler
                0x0000000000009968                SERCOM5_Handler
                0x00000000000099a4                UART_Write
                0x00000000000099b8                SERCOM1_Handler
                0x00000000000099bc                UART_Read
                0x00000000000099d4                read_timer_ms
                0x00000000000099e0                read_timer_us
                0x0000000000009a00                sleep_ms
                0x0000000000009a20                sleep_us
                0x0000000000009a40                main

.text%60        0x0000000000009cb8      0x3d8
 .text          0x0000000000009cb8      0x3d8 build/SAMD21_IOT_WG_ICM42688/debug/_ext/1014017276/plib_sercom2_spi_master.o
                0x0000000000009cb8                SERCOM2_SPI_Initialize
                0x0000000000009cf0                SERCOM2_SPI_TransferSetup
                0x0000000000009d90                SERCOM2_SPI_CallbackRegister
                0x0000000000009d9c                SERCOM2_SPI_IsBusy
                0x0000000000009dc4                SERCOM2_SPI_IsTransmitterBusy
                0x0000000000009dd8                SERCOM2_SPI_WriteRead
                0x0000000000009f38                SERCOM2_SPI_Write
                0x0000000000009f44                SERCOM2_SPI_Read
                0x0000000000009f54                SERCOM2_SPI_InterruptHandler

.text%61        0x000000000000a090      0x3d4
 .text          0x000000000000a090      0x3d4 build/SAMD21_IOT_WG_ICM42688/debug/_ext/907429946/wdrv_winc_host_file.o
                0x000000000000a090                WDRV_WINC_HostFileDownload
                0x000000000000a138                WDRV_WINC_HostFileRead
                0x000000000000a22c                WDRV_WINC_HostFileErase
                0x000000000000a2cc                WDRV_WINC_HostFileFindByID
                0x000000000000a3d0                WDRV_WINC_HostFileGetSize
                0x000000000000a414                WDRV_WINC_HostFileUpdateReadBuffer

.text%62        0x000000000000a464      0x384
 .text          0x000000000000a464      0x384 build/SAMD21_IOT_WG_ICM42688/debug/_ext/907429946/wdrv_winc_sta.o
                0x000000000000a4cc                WDRV_WINC_BSSConnect
                0x000000000000a710                WDRV_WINC_BSSReconnect
                0x000000000000a75c                WDRV_WINC_BSSDisconnect
                0x000000000000a7a0                WDRV_WINC_BSSRoamingConfigure

.text.__printf_core%63
                0x000000000000a7e8      0x33c
 .text.__printf_core
                0x000000000000a7e8      0x33c c:/program files/microchip/xc32/v4.60/bin/bin/../../lib/gcc/pic32c/8.3.1/../../../../pic32c/lib/thumb/v6-m/nofp\libg-musl.a(__printf_core.o)
                0x000000000000a7e8                __printf_core

.text%64        0x000000000000ab24      0x310
 .text          0x000000000000ab24      0x310 build/SAMD21_IOT_WG_ICM42688/debug/_ext/177673482/plib_sercom5_usart.o
                0x000000000000ab44                SERCOM5_USART_Initialize
                0x000000000000ab78                SERCOM5_USART_FrequencyGet
                0x000000000000ab80                SERCOM5_USART_SerialSetup
                0x000000000000ac84                SERCOM5_USART_ErrorGet
                0x000000000000aca4                SERCOM5_USART_Enable
                0x000000000000acc0                SERCOM5_USART_Disable
                0x000000000000acdc                SERCOM5_USART_TransmitterEnable
                0x000000000000acf4                SERCOM5_USART_TransmitterDisable
                0x000000000000ad10                SERCOM5_USART_Write
                0x000000000000ad50                SERCOM5_USART_TransmitterIsReady
                0x000000000000ad60                SERCOM5_USART_WriteByte
                0x000000000000ad74                SERCOM5_USART_TransmitComplete
                0x000000000000ad84                SERCOM5_USART_ReceiverEnable
                0x000000000000ad9c                SERCOM5_USART_ReceiverDisable
                0x000000000000adb8                SERCOM5_USART_Read
                0x000000000000ae18                SERCOM5_USART_ReceiverIsReady
                0x000000000000ae28                SERCOM5_USART_ReadByte

.text%65        0x000000000000ae34      0x2f8
 .text          0x000000000000ae34      0x2f8 build/SAMD21_IOT_WG_ICM42688/debug/_ext/121554788/nmdrv.o
                0x000000000000ae34                nm_get_firmware_info
                0x000000000000aee4                nm_get_firmware_full_info
                0x000000000000af94                nm_get_ota_firmware_info
                0x000000000000b050                nm_drv_init_download_mode
                0x000000000000b084                nm_drv_init_hold
                0x000000000000b09c                nm_drv_init_start
                0x000000000000b0e8                nm_drv_init
                0x000000000000b100                nm_drv_deinit

.dinit%66       0x000000000000b12c      0x2f0
 .dinit         0x000000000000b12c      0x2f0 data_init

.text%67        0x000000000000b41c      0x2ac
 .text          0x000000000000b41c      0x2ac build/SAMD21_IOT_WG_ICM42688/debug/_ext/907429946/wdrv_winc_authctx.o
                0x000000000000b41c                WDRV_WINC_AuthCtxIsValid
                0x000000000000b440                WDRV_WINC_AuthCtxSetDefaults
                0x000000000000b454                WDRV_WINC_AuthCtxSetOneTimeUse
                0x000000000000b464                WDRV_WINC_AuthCtxSetOpen
                0x000000000000b474                WDRV_WINC_AuthCtxSetWPA
                0x000000000000b4ac                WDRV_WINC_AuthCtxSetWPAEnterpriseMSCHAPv2
                0x000000000000b550                WDRV_WINC_AuthCtxSetWPAEnterpriseTLS

.text%68        0x000000000000b6c8      0x280
 .text          0x000000000000b6c8      0x280 build/SAMD21_IOT_WG_ICM42688/debug/_ext/1014017276/plib_sercom0_spi_master.o
                0x000000000000b828                SERCOM0_SPI_Initialize
                0x000000000000b850                SERCOM0_SPI_TransferSetup
                0x000000000000b8e4                SERCOM0_SPI_IsTransmitterBusy
                0x000000000000b8f8                SERCOM0_SPI_WriteRead
                0x000000000000b918                SERCOM0_SPI_Write
                0x000000000000b930                SERCOM0_SPI_Read

.text%69        0x000000000000b948      0x228
 .text          0x000000000000b948      0x228 build/SAMD21_IOT_WG_ICM42688/debug/_ext/2048461350/icm42688_sensor.o
                0x000000000000b948                icm42688_sensor_event_cb
                0x000000000000ba2c                inv_icm426xx_get_time_us
                0x000000000000ba34                inv_icm426xx_sleep_us
                0x000000000000ba3c                icm42688_sensor_init
                0x000000000000bae4                icm42688_sensor_set_config
                0x000000000000bb50                icm42688_sensor_read

.text%70        0x000000000000bb70      0x1fc
 .text          0x000000000000bb70      0x1fc build/SAMD21_IOT_WG_ICM42688/debug/_ext/1360937237/ringbuffer.o
                0x000000000000bb70                ringbuffer_init
                0x000000000000bba8                ringbuffer_reset
                0x000000000000bbb0                ringbuffer_read
                0x000000000000bc34                ringbuffer_write
                0x000000000000bcbc                ringbuffer_get_read_items
                0x000000000000bcc8                ringbuffer_get_write_items
                0x000000000000bcd8                ringbuffer_get_read_buffer
                0x000000000000bd00                ringbuffer_get_write_buffer
                0x000000000000bd28                ringbuffer_advance_read_index
                0x000000000000bd48                ringbuffer_advance_write_index

.text.__secs_to_tm%71
                0x000000000000bd6c      0x1dc
 .text.__secs_to_tm
                0x000000000000bd6c      0x1dc c:/program files/microchip/xc32/v4.60/bin/bin/../../lib/gcc/pic32c/8.3.1/../../../../pic32c/lib/thumb/v6-m/nofp\libg-musl.a(__secs_to_tm.o)
                0x000000000000bd6c                __secs_to_tm

.text.__aeabi_dadd%72
                0x000000000000bf48      0x1c8
 .text.__aeabi_dadd
                0x000000000000bf48      0x1c8 c:/program files/microchip/xc32/v4.60/bin/bin/../../lib/gcc/pic32c/8.3.1/../../../../pic32c/lib/thumb/v6-m/nofp\libm-fast-emfloat.a(__aeabi_dadd.o)
                0x000000000000bf48                __aeabi_dadd
                0x000000000000bf4e                .L__aeabi_dadd_fast_entry

.text%73        0x000000000000c110      0x1bc
 .text          0x000000000000c110      0x1bc build/SAMD21_IOT_WG_ICM42688/debug/_ext/1341251756/Icm426xxTransport.o
                0x000000000000c110                inv_icm426xx_init_transport
                0x000000000000c180                inv_icm426xx_read_reg
                0x000000000000c208                inv_icm426xx_write_reg

.text%74        0x000000000000c2cc      0x1b4
 .text          0x000000000000c2cc      0x1b4 build/SAMD21_IOT_WG_ICM42688/debug/_ext/1360937237/winc1500_udp_client.o
                0x000000000000c358                UDP_Client_Initialize
                0x000000000000c390                UDP_Client_Tasks
                0x000000000000c45c                get_UDP_client_state
                0x000000000000c468                tx_wifi_new_sensordata

.text%75        0x000000000000c480      0x190
 .text          0x000000000000c480      0x190 build/SAMD21_IOT_WG_ICM42688/debug/_ext/907429946/wdrv_winc_bssctx.o
                0x000000000000c4bc                WDRV_WINC_BSSCtxIsValid
                0x000000000000c4d8                WDRV_WINC_BSSCtxSetDefaults
                0x000000000000c508                WDRV_WINC_BSSCtxSetSSID
                0x000000000000c55c                WDRV_WINC_BSSCtxSetBSSID
                0x000000000000c5b0                WDRV_WINC_BSSCtxSetChannel
                0x000000000000c5dc                WDRV_WINC_BSSCtxSetSSIDVisibility

.text.__aeabi_dmul_aux%76
                0x000000000000c610      0x18a
 .text.__aeabi_dmul_aux
                0x000000000000c610      0x18a c:/program files/microchip/xc32/v4.60/bin/bin/../../lib/gcc/pic32c/8.3.1/../../../../pic32c/lib/thumb/v6-m/nofp\libm-fast-emfloat.a(__aeabi_dmul_aux.o)
                0x000000000000c610                __aeabi_dmul_aux
                0x000000000000c648                __aeabi_dmul

.text%77        0x000000000000c79c      0x188
 .text          0x000000000000c79c      0x188 build/SAMD21_IOT_WG_ICM42688/debug/_ext/101005277/wdrv_winc_spi.o
                0x000000000000c7c4                WDRV_WINC_SPISend
                0x000000000000c808                WDRV_WINC_SPIReceive
                0x000000000000c85c                WDRV_WINC_SPIOpen
                0x000000000000c8cc                WDRV_WINC_SPIInitialize
                0x000000000000c8ec                WDRV_WINC_SPIDeinitialize

.text%78        0x000000000000c924      0x184
 .text          0x000000000000c924      0x184 build/SAMD21_IOT_WG_ICM42688/debug/_ext/1580876256/plib_port.o
                0x000000000000c924                PORT_Initialize
                0x000000000000c9f8                PORT_GroupRead
                0x000000000000c9fc                PORT_GroupWrite
                0x000000000000ca08                PORT_GroupLatchRead
                0x000000000000ca0c                PORT_GroupSet
                0x000000000000ca10                PORT_GroupClear
                0x000000000000ca14                PORT_GroupToggle
                0x000000000000ca18                PORT_GroupInputEnable
                0x000000000000ca3c                PORT_GroupOutputEnable
                0x000000000000ca40                PORT_PinPeripheralFunctionConfig
                0x000000000000ca88                PORT_PinGPIOConfig

.text%79        0x000000000000caa8      0x17c
 .text          0x000000000000caa8      0x17c build/SAMD21_IOT_WG_ICM42688/debug/_ext/907429946/wdrv_winc_systime.o
                0x000000000000caa8                WDRV_WINC_LocalTimeToUTC
                0x000000000000cb10                WDRV_WINC_UTCToLocalTime
                0x000000000000cb50                WDRV_WINC_SystemTimeSNTPClientEnable
                0x000000000000cba8                WDRV_WINC_SystemTimeSNTPClientDisable
                0x000000000000cbcc                WDRV_WINC_SystemTimeSetCurrent
                0x000000000000cbf8                WDRV_WINC_SystemTimeGetCurrent

.text%80        0x000000000000cc24      0x160
 .text          0x000000000000cc24      0x160 build/SAMD21_IOT_WG_ICM42688/debug/_ext/1360937237/ws2812.o
                0x000000000000cc24                ws2812_send_data
                0x000000000000cd00                ws2812_init
                0x000000000000cd2c                ws2812_set_pixel
                0x000000000000cd40                ws2812_clear_all
                0x000000000000cd54                ws2812_show
                0x000000000000cd6c                ws2812_test_timing

.text%81        0x000000000000cd84      0x15c
 .text          0x000000000000cd84      0x15c build/SAMD21_IOT_WG_ICM42688/debug/_ext/11470383/plib_nvmctrl.o
                0x000000000000cd84                NVMCTRL_Initialize
                0x000000000000cd90                NVMCTRL_CacheInvalidate
                0x000000000000cda0                NVMCTRL_Read
                0x000000000000cdb0                NVMCTRL_PageBufferWrite
                0x000000000000cdc4                NVMCTRL_PageBufferCommit
                0x000000000000cddc                NVMCTRL_PageWrite
                0x000000000000ce04                NVMCTRL_RowErase
                0x000000000000ce1c                NVMCTRL_USER_ROW_PageWrite
                0x000000000000ce54                NVMCTRL_USER_ROW_RowErase
                0x000000000000ce80                NVMCTRL_ErrorGet
                0x000000000000ce98                NVMCTRL_IsBusy
                0x000000000000cea8                NVMCTRL_RegionLock
                0x000000000000cebc                NVMCTRL_RegionUnlock
                0x000000000000ced0                NVMCTRL_SecurityBitSet

.rodata.str1.4%82
                0x000000000000cee0      0x138
 .rodata.str1.4
                0x000000000000cee0      0x138 build/SAMD21_IOT_WG_ICM42688/debug/_ext/1360937237/main.o

.rodata%83      0x000000000000d018      0x134
 .rodata        0x000000000000d018      0x134 build/SAMD21_IOT_WG_ICM42688/debug/_ext/121554788/nmspi.o

.text%84        0x000000000000d14c      0x130
 .text          0x000000000000d14c      0x130 build/SAMD21_IOT_WG_ICM42688/debug/_ext/399410062/plib_tc4.o
                0x000000000000d14c                TC4_TimerInitialize
                0x000000000000d188                TC4_TimerStart
                0x000000000000d1a0                TC4_TimerStop
                0x000000000000d1b8                TC4_TimerFrequencyGet
                0x000000000000d1c0                TC4_TimerCommandSet
                0x000000000000d1d8                TC4_Timer16bitCounterGet
                0x000000000000d1f4                TC4_Timer16bitCounterSet
                0x000000000000d208                TC4_Timer16bitPeriodSet
                0x000000000000d21c                TC4_Timer16bitPeriodGet
                0x000000000000d238                TC4_Timer16bitCompareSet
                0x000000000000d24c                TC4_TimerCallbackRegister
                0x000000000000d258                TC4_TimerInterruptHandler

.text%85        0x000000000000d27c      0x130
 .text          0x000000000000d27c      0x130 c:/program files/microchip/xc32/v4.60/bin/bin/../../lib/gcc/pic32c/8.3.1/thumb/v6-m/nofp\libgcc.a(_divdi3.o)
                0x000000000000d27c                __divdi3

.text%86        0x000000000000d3ac      0x128
 .text          0x000000000000d3ac      0x128 build/SAMD21_IOT_WG_ICM42688/debug/_ext/1580823105/plib_nvic.o
                0x000000000000d3ac                NVIC_Initialize
                0x000000000000d440                NVIC_INT_Enable
                0x000000000000d448                NVIC_INT_Disable
                0x000000000000d45c                NVIC_INT_Restore
                0x000000000000d470                NVIC_INT_SourceDisable
                0x000000000000d4b8                NVIC_INT_SourceRestore

.text%87        0x000000000000d4d4      0x120
 .text          0x000000000000d4d4      0x120 build/SAMD21_IOT_WG_ICM42688/debug/_ext/399410062/plib_tc3.o
                0x000000000000d4d4                TC3_TimerInitialize
                0x000000000000d514                TC3_TimerStart
                0x000000000000d52c                TC3_TimerStop
                0x000000000000d544                TC3_TimerFrequencyGet
                0x000000000000d54c                TC3_TimerCommandSet
                0x000000000000d564                TC3_Timer16bitCounterGet
                0x000000000000d580                TC3_Timer16bitCounterSet
                0x000000000000d594                TC3_Timer16bitPeriodSet
                0x000000000000d5a8                TC3_Timer16bitPeriodGet
                0x000000000000d5c4                TC3_TimerCallbackRegister
                0x000000000000d5d0                TC3_TimerInterruptHandler

.text%88        0x000000000000d5f4      0x11c
 .text          0x000000000000d5f4      0x11c build/SAMD21_IOT_WG_ICM42688/debug/_ext/223004715/plib_systick.o
                0x000000000000d5f4                SYSTICK_TimerInitialize
                0x000000000000d610                SYSTICK_TimerRestart
                0x000000000000d62c                SYSTICK_TimerStart
                0x000000000000d640                SYSTICK_TimerStop
                0x000000000000d650                SYSTICK_TimerPeriodSet
                0x000000000000d65c                SYSTICK_TimerPeriodGet
                0x000000000000d668                SYSTICK_TimerCounterGet
                0x000000000000d674                SYSTICK_TimerFrequencyGet
                0x000000000000d67c                SYSTICK_DelayMs
                0x000000000000d6c0                SYSTICK_DelayUs
                0x000000000000d700                SYSTICK_TimerPeriodHasExpired

.text%89        0x000000000000d710      0x114
 .text          0x000000000000d710      0x114 build/SAMD21_IOT_WG_ICM42688/debug/_ext/503204096/plib_eic.o
                0x000000000000d710                EIC_Initialize
                0x000000000000d79c                EIC_InterruptEnable
                0x000000000000d7ac                EIC_InterruptDisable
                0x000000000000d7bc                EIC_CallbackRegister
                0x000000000000d7d8                EIC_InterruptHandler

.text.__year_to_secs%90
                0x000000000000d824      0x100
 .text.__year_to_secs
                0x000000000000d824      0x100 c:/program files/microchip/xc32/v4.60/bin/bin/../../lib/gcc/pic32c/8.3.1/../../../../pic32c/lib/thumb/v6-m/nofp\libg-musl.a(__year_to_secs.o)
                0x000000000000d824                __year_to_secs

.rodata%91      0x000000000000d924       0xf0
 .rodata        0x000000000000d924       0xf0 build/SAMD21_IOT_WG_ICM42688/debug/_ext/907429946/wdrv_winc.o

.text%92        0x000000000000da14       0xe8
 .text          0x000000000000da14       0xe8 build/SAMD21_IOT_WG_ICM42688/debug/_ext/121554788/nmbus.o
                0x000000000000da14                nm_bus_iface_init
                0x000000000000da24                nm_bus_iface_deinit
                0x000000000000da28                nm_bus_reset
                0x000000000000da30                nm_bus_iface_reconfigure
                0x000000000000da34                nm_read_reg
                0x000000000000da3c                nm_read_reg_with_ret
                0x000000000000da44                nm_write_reg
                0x000000000000da4c                nm_read_block
                0x000000000000daa4                nm_write_block

.text%93        0x000000000000dafc       0xe2
 .text          0x000000000000dafc       0xe2 c:/program files/microchip/xc32/v4.60/bin/bin/../../lib/gcc/pic32c/8.3.1/thumb/v6-m/nofp\libgcc.a(_udivmoddi4.o)
                0x000000000000dafc                __udivmoddi4

.text%94        0x000000000000dbe0       0xcc
 .text          0x000000000000dbe0       0xcc build/SAMD21_IOT_WG_ICM42688/debug/_ext/1750425231/plib_clock.o
                0x000000000000dbe0                CLOCK_Initialize

.rodata%95      0x000000000000dcac       0xcc
 .rodata        0x000000000000dcac       0xcc build/SAMD21_IOT_WG_ICM42688/debug/_ext/1832905403/initialization.o

.text.__aeabi_ddiv%96
                0x000000000000dd78       0xc4
 .text.__aeabi_ddiv
                0x000000000000dd78       0xc4 c:/program files/microchip/xc32/v4.60/bin/bin/../../lib/gcc/pic32c/8.3.1/../../../../pic32c/lib/thumb/v6-m/nofp\libm-fast-emfloat.a(__aeabi_ddiv.o)
                0x000000000000dd78                __aeabi_ddiv

.text%97        0x000000000000de3c       0xc0
 .text          0x000000000000de3c       0xc0 build/SAMD21_IOT_WG_ICM42688/debug/_ext/548032175/inet_ntop.o
                0x000000000000de3c                inet_ntop

.text.__pop_int%98
                0x000000000000defc       0xbe
 .text.__pop_int
                0x000000000000defc       0xbe c:/program files/microchip/xc32/v4.60/bin/bin/../../lib/gcc/pic32c/8.3.1/../../../../pic32c/lib/thumb/v6-m/nofp\libg-musl.a(__pop_int.o)
                0x000000000000defc                __pop_int_needed
                0x000000000000defc                __pop_int

.text.floor%99  0x000000000000dfbc       0xb4
 .text.floor    0x000000000000dfbc       0xb4 c:/program files/microchip/xc32/v4.60/bin/bin/../../lib/gcc/pic32c/8.3.1/../../../../pic32c/lib/thumb/v6-m/nofp\libm-fast-emfloat.a(floor.o)
                0x000000000000dfbc                floor

.text.__fmt_d%100
                0x000000000000e070       0xb2
 .text.__fmt_d  0x000000000000e070       0xb2 c:/program files/microchip/xc32/v4.60/bin/bin/../../lib/gcc/pic32c/8.3.1/../../../../pic32c/lib/thumb/v6-m/nofp\libg-musl.a(__fmt_d.o)
                0x000000000000e070                __fmt_d
                0x000000000000e070                __fmt_d_needed

.text%101       0x000000000000e124       0xa8
 .text          0x000000000000e124       0xa8 c:/program files/microchip/xc32/v4.60/bin/bin/../../lib/gcc/pic32c/8.3.1/thumb/v6-m/nofp\libgcc.a(_divsi3.o)
                0x000000000000e124                __divsi3
                0x000000000000e124                __aeabi_idiv
                0x000000000000e1b8                __aeabi_idivmod

.rodata.str1.4%102
                0x000000000000e1cc       0xa0
 .rodata.str1.4
                0x000000000000e1cc       0xa0 build/SAMD21_IOT_WG_ICM42688/debug/_ext/1360937237/winc1500_udp_client.o

.text.__tm_to_secs%103
                0x000000000000e26c       0xa0
 .text.__tm_to_secs
                0x000000000000e26c       0xa0 c:/program files/microchip/xc32/v4.60/bin/bin/../../lib/gcc/pic32c/8.3.1/../../../../pic32c/lib/thumb/v6-m/nofp\libg-musl.a(__tm_to_secs.o)
                0x000000000000e26c                __tm_to_secs

.text%104       0x000000000000e30c       0x94
 .text          0x000000000000e30c       0x94 build/SAMD21_IOT_WG_ICM42688/debug/_ext/548032175/inet_addr.o
                0x000000000000e30c                inet_addr

.text%105       0x000000000000e3a0       0x94
 .text          0x000000000000e3a0       0x94 build/SAMD21_IOT_WG_ICM42688/debug/_ext/609036575/flexible_flash.o
                0x000000000000e3a0                spi_flexible_flash_find_section

.text%106       0x000000000000e434       0x90
 .text          0x000000000000e434       0x90 build/SAMD21_IOT_WG_ICM42688/debug/_ext/1832905403/initialization.o
                0x000000000000e434                SYS_Initialize

.text%107       0x000000000000e4c4       0x8c
 .text          0x000000000000e4c4       0x8c c:/program files/microchip/xc32/v4.60/bin/bin/../../lib/gcc/pic32c/8.3.1/thumb/v6-m/nofp\libgcc.a(_udivsi3.o)
                0x000000000000e4c4                __aeabi_uidiv
                0x000000000000e4c4                __udivsi3
                0x000000000000e53c                __aeabi_uidivmod

.text.__write_buffered%108
                0x000000000000e550       0x82
 .text.__write_buffered
                0x000000000000e550       0x82 c:/program files/microchip/xc32/v4.60/bin/bin/../../lib/gcc/pic32c/8.3.1/../../../../pic32c/lib/thumb/v6-m/nofp\libg-musl.a(__stdio_write.o)
                0x000000000000e550                __do_write

.text.__simple_search_fl%109
                0x000000000000e5d4       0x80
 .text.__simple_search_fl
                0x000000000000e5d4       0x80 c:/program files/microchip/xc32/v4.60/bin/bin/../../lib/gcc/pic32c/8.3.1/../../../../pic32c/lib/thumb/v6-m/nofp\liblmalloc-musl.a(lite_free.o)
                0x000000000000e5d4                __simple_search_fl

.text.__stdio_write_buffered%110
                0x000000000000e654       0x7c
 .text.__stdio_write_buffered
                0x000000000000e654       0x7c c:/program files/microchip/xc32/v4.60/bin/bin/../../lib/gcc/pic32c/8.3.1/../../../../pic32c/lib/thumb/v6-m/nofp\libg-musl.a(__stdio_write.o)
                0x000000000000e654                __stdio_write_buffered

.text.__pad%111
                0x000000000000e6d0       0x7a
 .text.__pad    0x000000000000e6d0       0x7a c:/program files/microchip/xc32/v4.60/bin/bin/../../lib/gcc/pic32c/8.3.1/../../../../pic32c/lib/thumb/v6-m/nofp\libg-musl.a(__printf_core.o)
                0x000000000000e6d0                __pad

.text.__cvt_u%112
                0x000000000000e74a       0x76
 .text.__cvt_u  0x000000000000e74a       0x76 c:/program files/microchip/xc32/v4.60/bin/bin/../../lib/gcc/pic32c/8.3.1/../../../../pic32c/lib/thumb/v6-m/nofp\libg-musl.a(__cvt_u.o)
                0x000000000000e74a                __cvt_u

.text%113       0x000000000000e7c0       0x74
 .text          0x000000000000e7c0       0x74 build/SAMD21_IOT_WG_ICM42688/debug/_ext/1360937237/app.o
                0x000000000000e7c0                APP_Initialize
                0x000000000000e7f8                APP_Tasks

.text%114       0x000000000000e834       0x6c
 .text          0x000000000000e834       0x6c build/SAMD21_IOT_WG_ICM42688/debug/_ext/1318297016/sys_int.o
                0x000000000000e834                SYS_INT_Enable
                0x000000000000e83c                SYS_INT_Disable
                0x000000000000e844                SYS_INT_Restore
                0x000000000000e84c                SYS_INT_SourceDisable
                0x000000000000e884                SYS_INT_SourceRestore

.text.__pop_ptr%115
                0x000000000000e8a0       0x68
 .text.__pop_ptr
                0x000000000000e8a0       0x68 c:/program files/microchip/xc32/v4.60/bin/bin/../../lib/gcc/pic32c/8.3.1/../../../../pic32c/lib/thumb/v6-m/nofp\libg-musl.a(__pop_ptr.o)
                0x000000000000e8a0                __pop_ptr
                0x000000000000e8a0                __pop_ptr_needed

.text.__simple_malloc%116
                0x000000000000e908       0x64
 .text.__simple_malloc
                0x000000000000e908       0x64 c:/program files/microchip/xc32/v4.60/bin/bin/../../lib/gcc/pic32c/8.3.1/../../../../pic32c/lib/thumb/v6-m/nofp\liblmalloc-musl.a(lite_malloc.o)
                0x000000000000e908                __malloc0
                0x000000000000e908                __simple_malloc
                0x000000000000e908                malloc

.text.__stdio_read%117
                0x000000000000e96c       0x64
 .text.__stdio_read
                0x000000000000e96c       0x64 c:/program files/microchip/xc32/v4.60/bin/bin/../../lib/gcc/pic32c/8.3.1/../../../../pic32c/lib/thumb/v6-m/nofp\libg-musl.a(__stdio_read.o)
                0x000000000000e96c                __stdio_read

.text.__strchrnul%118
                0x000000000000e9d0       0x60
 .text.__strchrnul
                0x000000000000e9d0       0x60 c:/program files/microchip/xc32/v4.60/bin/bin/../../lib/gcc/pic32c/8.3.1/../../../../pic32c/lib/thumb/v6-m/nofp\libc-size-musl.a(strchrnul.o)
                0x000000000000e9d0                strchrnul
                0x000000000000e9d0                __strchrnul

.text.__libc_start_init%119
                0x000000000000ea30       0x5c
 .text.__libc_start_init
                0x000000000000ea30       0x5c c:/program files/microchip/xc32/v4.60/bin/bin/../../lib/gcc/pic32c/8.3.1/../../../../pic32c/lib/thumb/v6-m/nofp\libg-musl.a(__libc_start_main.o)
                0x000000000000ea30                __libc_init_array

.text.__stdio_close_rw%120
                0x000000000000ea8c       0x5c
 .text.__stdio_close_rw
                0x000000000000ea8c       0x5c c:/program files/microchip/xc32/v4.60/bin/bin/../../lib/gcc/pic32c/8.3.1/../../../../pic32c/lib/thumb/v6-m/nofp\libg-musl.a(__stdio_close.o)
                0x000000000000ea8c                __stdio_close_rw

.text.__fmt_u%121
                0x000000000000eae8       0x56
 .text.__fmt_u  0x000000000000eae8       0x56 c:/program files/microchip/xc32/v4.60/bin/bin/../../lib/gcc/pic32c/8.3.1/../../../../pic32c/lib/thumb/v6-m/nofp\libg-musl.a(__fmt_u.o)
                0x000000000000eae8                __fmt_u_needed
                0x000000000000eae8                __fmt_u

.text.__fmt_s%122
                0x000000000000eb40       0x50
 .text.__fmt_s  0x000000000000eb40       0x50 c:/program files/microchip/xc32/v4.60/bin/bin/../../lib/gcc/pic32c/8.3.1/../../../../pic32c/lib/thumb/v6-m/nofp\libg-musl.a(__fmt_s.o)
                0x000000000000eb40                __fmt_s
                0x000000000000eb40                __fmt_0_needed
                0x000000000000eb40                __fmt_s_needed

.text.setvbuf%123
                0x000000000000eb90       0x50
 .text.setvbuf  0x000000000000eb90       0x50 c:/program files/microchip/xc32/v4.60/bin/bin/../../lib/gcc/pic32c/8.3.1/../../../../pic32c/lib/thumb/v6-m/nofp\libg-musl.a(setvbuf.o)
                0x000000000000eb90                setvbuf

.text._sbrk%124
                0x000000000000ebe0       0x50
 .text._sbrk    0x000000000000ebe0       0x50 c:/program files/microchip/xc32/v4.60/bin/bin/../../lib/gcc/pic32c/8.3.1/../../../../pic32c/lib/thumb/v6-m/nofp\libpic32c.a(sbrk.o)
                0x000000000000ebe0                _sbrk

.text.__overflow%125
                0x000000000000ec30       0x4e
 .text.__overflow
                0x000000000000ec30       0x4e c:/program files/microchip/xc32/v4.60/bin/bin/../../lib/gcc/pic32c/8.3.1/../../../../pic32c/lib/thumb/v6-m/nofp\libg-musl.a(__overflow.o)
                0x000000000000ec30                __overflow

.rodata%126     0x000000000000ec80       0x4c
 .rodata        0x000000000000ec80       0x4c build/SAMD21_IOT_WG_ICM42688/debug/_ext/1341251756/Icm426xxDriver_HL.o

.text%127       0x000000000000eccc       0x48
 .text          0x000000000000eccc       0x48 c:/program files/microchip/xc32/v4.60/bin/bin/../../lib/gcc/pic32c/8.3.1/thumb/v6-m/nofp/crtbegin.o

.text%128       0x000000000000ed14       0x48
 .text          0x000000000000ed14       0x48 build/SAMD21_IOT_WG_ICM42688/debug/_ext/1357625803/xc32_monitor.o
                0x000000000000ed14                read
                0x000000000000ed34                write

.text.Reset_Handler%129
                0x000000000000ed5c       0x48
 .text.Reset_Handler
                0x000000000000ed5c       0x48 build/SAMD21_IOT_WG_ICM42688/debug/_ext/1832905403/startup_xc32.o
                0x000000000000ed5c                Reset_Handler

.text.mktime%130
                0x000000000000eda4       0x48
 .text.mktime   0x000000000000eda4       0x48 c:/program files/microchip/xc32/v4.60/bin/bin/../../lib/gcc/pic32c/8.3.1/../../../../pic32c/lib/thumb/v6-m/nofp\libg-musl.a(mktime.o)
                0x000000000000eda4                mktime

.text%131       0x000000000000edec       0x48
 .text          0x000000000000edec       0x48 c:/program files/microchip/xc32/v4.60/bin/bin/../../lib/gcc/pic32c/8.3.1/thumb/v6-m/nofp\libgcc.a(_aeabi_ldivmod.o)
                0x000000000000edec                __aeabi_ldivmod

.text%132       0x000000000000ee34       0x44
 .text          0x000000000000ee34       0x44 build/SAMD21_IOT_WG_ICM42688/debug/_ext/1584719636/sys_dma.o
                0x000000000000ee34                SYS_DMA_AddressingModeSetup
                0x000000000000ee58                SYS_DMA_DataWidthSetup

.text.__aeabi_dcmple%133
                0x000000000000ee78       0x44
 .text.__aeabi_dcmple
                0x000000000000ee78       0x44 c:/program files/microchip/xc32/v4.60/bin/bin/../../lib/gcc/pic32c/8.3.1/../../../../pic32c/lib/thumb/v6-m/nofp\libm-fast-emfloat.a(__aeabi_dcmple.o)
                0x000000000000ee78                __aeabi_dcmple

.text%134       0x000000000000eebc       0x44
 .text          0x000000000000eebc       0x44 c:/program files/microchip/xc32/v4.60/bin/bin/../../lib/gcc/pic32c/8.3.1/thumb/v6-m/nofp\libgcc.a(_muldi3.o)
                0x000000000000eebc                __muldi3
                0x000000000000eebc                __aeabi_lmul

.text%135       0x000000000000ef00       0x40
 .text          0x000000000000ef00       0x40 build/SAMD21_IOT_WG_ICM42688/debug/_ext/1164161090/wdrv_winc_gpio.o
                0x000000000000ef00                WDRV_WINC_GPIOResetAssert
                0x000000000000ef10                WDRV_WINC_GPIOResetDeassert
                0x000000000000ef20                WDRV_WINC_GPIOChipEnableAssert
                0x000000000000ef30                WDRV_WINC_GPIOChipEnableDeassert

.rodata%136     0x000000000000ef40       0x40
 .rodata        0x000000000000ef40       0x40 build/SAMD21_IOT_WG_ICM42688/debug/_ext/1341251756/Icm426xxTransport.o

.text.__simple_free%137
                0x000000000000ef80       0x40
 .text.__simple_free
                0x000000000000ef80       0x40 c:/program files/microchip/xc32/v4.60/bin/bin/../../lib/gcc/pic32c/8.3.1/../../../../pic32c/lib/thumb/v6-m/nofp\liblmalloc-musl.a(lite_free.o)
                0x000000000000ef80                __simple_free
                0x000000000000ef80                free
                0x000000000000ef80                __free0

.text.atoi%138  0x000000000000efc0       0x40
 .text.atoi     0x000000000000efc0       0x40 c:/program files/microchip/xc32/v4.60/bin/bin/../../lib/gcc/pic32c/8.3.1/../../../../pic32c/lib/thumb/v6-m/nofp\libg-musl.a(atoi.o)
                0x000000000000efc0                atoi

.text%139       0x000000000000f000       0x40
 .text          0x000000000000f000       0x40 c:/program files/microchip/xc32/v4.60/bin/bin/../../lib/gcc/pic32c/8.3.1/thumb/v6-m/nofp\libgcc.a(_aeabi_uldivmod.o)
                0x000000000000f000                __aeabi_uldivmod

.text.__aeabi_dcmpgt%140
                0x000000000000f040       0x3e
 .text.__aeabi_dcmpgt
                0x000000000000f040       0x3e c:/program files/microchip/xc32/v4.60/bin/bin/../../lib/gcc/pic32c/8.3.1/../../../../pic32c/lib/thumb/v6-m/nofp\libm-fast-emfloat.a(__aeabi_dcmpgt.o)
                0x000000000000f040                __aeabi_dcmpgt

.text.__aeabi_dcmplt%141
                0x000000000000f07e       0x3e
 .text.__aeabi_dcmplt
                0x000000000000f07e       0x3e c:/program files/microchip/xc32/v4.60/bin/bin/../../lib/gcc/pic32c/8.3.1/../../../../pic32c/lib/thumb/v6-m/nofp\libm-fast-emfloat.a(__aeabi_dcmplt.o)
                0x000000000000f07e                __aeabi_dcmplt

.text.__out%142
                0x000000000000f0bc       0x3c
 .text.__out    0x000000000000f0bc       0x3c c:/program files/microchip/xc32/v4.60/bin/bin/../../lib/gcc/pic32c/8.3.1/../../../../pic32c/lib/thumb/v6-m/nofp\libg-musl.a(__out.o)
                0x000000000000f0bc                __out
                0x000000000000f0bc                __out_needed

.text.__putc%143
                0x000000000000f0f8       0x3c
 .text.__putc   0x000000000000f0f8       0x3c c:/program files/microchip/xc32/v4.60/bin/bin/../../lib/gcc/pic32c/8.3.1/../../../../pic32c/lib/thumb/v6-m/nofp\libg-musl.a(__putc.o)
                0x000000000000f0f8                __putc_needed
                0x000000000000f0f8                __putc

.text%144       0x000000000000f134       0x3c
 .text          0x000000000000f134       0x3c c:/program files/microchip/xc32/v4.60/bin/bin/../../lib/gcc/pic32c/8.3.1/thumb/v6-m/nofp\libgcc.a(_clzsi2.o)
                0x000000000000f134                __clzsi2

.text.__pic32c_data_initialization%145
                0x000000000000f170       0x38
 .text.__pic32c_data_initialization
                0x000000000000f170       0x38 c:/program files/microchip/xc32/v4.60/bin/bin/../../lib/gcc/pic32c/8.3.1/../../../../pic32c/lib/thumb/v6-m/nofp\libpic32c.a(data_init.o)
                0x000000000000f170                __pic32c_data_initialization

.text.__putc_unbuffered%146
                0x000000000000f1a8       0x36
 .text.__putc_unbuffered
                0x000000000000f1a8       0x36 c:/program files/microchip/xc32/v4.60/bin/bin/../../lib/gcc/pic32c/8.3.1/../../../../pic32c/lib/thumb/v6-m/nofp\libg-musl.a(putc.o)
                0x000000000000f1a8                __putc_unbuffered

.text.__aeabi_d2iz%147
                0x000000000000f1de       0x34
 .text.__aeabi_d2iz
                0x000000000000f1de       0x34 c:/program files/microchip/xc32/v4.60/bin/bin/../../lib/gcc/pic32c/8.3.1/../../../../pic32c/lib/thumb/v6-m/nofp\libm-fast-emfloat.a(__aeabi_d2iz.o)
                0x000000000000f1de                __aeabi_d2iz

.text.__fmt_state%148
                0x000000000000f214       0x34
 .text.__fmt_state
                0x000000000000f214       0x34 c:/program files/microchip/xc32/v4.60/bin/bin/../../lib/gcc/pic32c/8.3.1/../../../../pic32c/lib/thumb/v6-m/nofp\libg-musl.a(__printf_core.o)
                0x000000000000f214                __fmt_state

.text.__gmtime_r%149
                0x000000000000f248       0x34
 .text.__gmtime_r
                0x000000000000f248       0x34 c:/program files/microchip/xc32/v4.60/bin/bin/../../lib/gcc/pic32c/8.3.1/../../../../pic32c/lib/thumb/v6-m/nofp\libg-musl.a(gmtime_r.o)
                0x000000000000f248                __gmtime_r
                0x000000000000f248                gmtime_r

.text%150       0x000000000000f27c       0x34
 .text          0x000000000000f27c       0x34 c:/program files/microchip/xc32/v4.60/bin/bin/../../lib/gcc/pic32c/8.3.1/thumb/v6-m/nofp\libgcc.a(bpabi.o)
                0x000000000000f27c                __gnu_ldivmod_helper

.text._sbrk_init%151
                0x000000000000f2b0       0x34
 .text._sbrk_init
                0x000000000000f2b0       0x34 c:/program files/microchip/xc32/v4.60/bin/bin/../../lib/gcc/pic32c/8.3.1/../../../../pic32c/lib/thumb/v6-m/nofp\libpic32c.a(sbrk.o)

.text%152       0x000000000000f2e4       0x30
 .text          0x000000000000f2e4       0x30 build/SAMD21_IOT_WG_ICM42688/debug/_ext/90265895/nm_common.o
                0x000000000000f2e4                nm_sleep
                0x000000000000f2ec                nm_reset

.rodata%153     0x000000000000f314       0x30
 .rodata        0x000000000000f314       0x30 c:/program files/microchip/xc32/v4.60/bin/bin/../../lib/gcc/pic32c/8.3.1/../../../../pic32c/lib/thumb/v6-m/nofp\libg-musl.a(__month_to_secs.o)

.text.__aeabi_dcmpeq%154
                0x000000000000f344       0x2e
 .text.__aeabi_dcmpeq
                0x000000000000f344       0x2e c:/program files/microchip/xc32/v4.60/bin/bin/../../lib/gcc/pic32c/8.3.1/../../../../pic32c/lib/thumb/v6-m/nofp\libm-fast-emfloat.a(__aeabi_dcmpeq.o)
                0x000000000000f344                __aeabi_dcmpeq

.text.__aeabi_d2uiz%155
                0x000000000000f372       0x2e
 .text.__aeabi_d2uiz
                0x000000000000f372       0x2e c:/program files/microchip/xc32/v4.60/bin/bin/../../lib/gcc/pic32c/8.3.1/../../../../pic32c/lib/thumb/v6-m/nofp\libm-fast-emfloat.a(__aeabi_d2uiz.o)
                0x000000000000f372                __aeabi_d2uiz
                0x000000000000f376                .L__aeabi_d2uiz_fast_entry

.text.fwrite%156
                0x000000000000f3a0       0x2e
 .text.fwrite   0x000000000000f3a0       0x2e c:/program files/microchip/xc32/v4.60/bin/bin/../../lib/gcc/pic32c/8.3.1/../../../../pic32c/lib/thumb/v6-m/nofp\libg-musl.a(fwrite.o)
                0x000000000000f3a0                fwrite
                0x000000000000f3a0                fwrite_unlocked

.text.__pop_float%157
                0x000000000000f3ce       0x2a
 .text.__pop_float
                0x000000000000f3ce       0x2a c:/program files/microchip/xc32/v4.60/bin/bin/../../lib/gcc/pic32c/8.3.1/../../../../pic32c/lib/thumb/v6-m/nofp\libg-musl.a(__pop_float.o)
                0x000000000000f3ce                __pop_float_needed
                0x000000000000f3ce                __pop_float

.text.__towrite_rw%158
                0x000000000000f3f8       0x2a
 .text.__towrite_rw
                0x000000000000f3f8       0x2a c:/program files/microchip/xc32/v4.60/bin/bin/../../lib/gcc/pic32c/8.3.1/../../../../pic32c/lib/thumb/v6-m/nofp\libg-musl.a(__towrite_rw.o)
                0x000000000000f3f8                __towrite_rw
                0x000000000000f3f8                __towrite_rw_needed

.text%159       0x000000000000f424       0x28
 .text          0x000000000000f424       0x28 build/SAMD21_IOT_WG_ICM42688/debug/_ext/1164161090/wdrv_winc_eint.o
                0x000000000000f424                WDRV_WINC_INTInitialize
                0x000000000000f440                WDRV_WINC_INTDeinitialize

.rodata%160     0x000000000000f44c       0x28
 .rodata        0x000000000000f44c       0x28 build/SAMD21_IOT_WG_ICM42688/debug/_ext/907429946/wdrv_winc_authctx.o

.text.puts%161  0x000000000000f474       0x28
 .text.puts     0x000000000000f474       0x28 c:/program files/microchip/xc32/v4.60/bin/bin/../../lib/gcc/pic32c/8.3.1/../../../../pic32c/lib/thumb/v6-m/nofp\libg-musl.a(puts.o)
                0x000000000000f474                puts

.text.__readv%162
                0x000000000000f49c       0x28
 .text.__readv  0x000000000000f49c       0x28 c:/program files/microchip/xc32/v4.60/bin/bin/../../lib/gcc/pic32c/8.3.1/../../../../pic32c/lib/thumb/v6-m/nofp\libg-musl.a(readv.o)
                0x000000000000f49c                readv

.text.__writev%163
                0x000000000000f4c4       0x28
 .text.__writev
                0x000000000000f4c4       0x28 c:/program files/microchip/xc32/v4.60/bin/bin/../../lib/gcc/pic32c/8.3.1/../../../../pic32c/lib/thumb/v6-m/nofp\libg-musl.a(writev.o)
                0x000000000000f4c4                writev

.text%164       0x000000000000f4ec       0x24
 .text          0x000000000000f4ec       0x24 build/SAMD21_IOT_WG_ICM42688/debug/_ext/1784303044/wdrv_winc_osal.o
                0x000000000000f4ec                WDRV_MSDelay

.text.fputs%165
                0x000000000000f510       0x22
 .text.fputs    0x000000000000f510       0x22 c:/program files/microchip/xc32/v4.60/bin/bin/../../lib/gcc/pic32c/8.3.1/../../../../pic32c/lib/thumb/v6-m/nofp\libg-musl.a(fputs.o)
                0x000000000000f510                fputs
                0x000000000000f510                fputs_unlocked

.rodata%166     0x000000000000f534       0x20
 .rodata        0x000000000000f534       0x20 build/SAMD21_IOT_WG_ICM42688/debug/_ext/121554788/m2m_hif.o

.text.memchr%167
                0x000000000000f554       0x20
 .text.memchr   0x000000000000f554       0x20 c:/program files/microchip/xc32/v4.60/bin/bin/../../lib/gcc/pic32c/8.3.1/../../../../pic32c/lib/thumb/v6-m/nofp\libc-size-musl.a(memchr.o)
                0x000000000000f554                memchr

.text.__wrap_printf%168
                0x000000000000f574       0x20
 .text.__wrap_printf
                0x000000000000f574       0x20 c:/program files/microchip/xc32/v4.60/bin/bin/../../lib/gcc/pic32c/8.3.1/../../../../pic32c/lib/thumb/v6-m/nofp\libg-musl.a(__sio_printf_cdeEfFgGnsu.o)
                0x000000000000f574                _printf_cdeEfFgGnsu
                0x000000000000f574                _dprintf_cdeEfFgGnsu

.text.__month_to_secs%169
                0x000000000000f594       0x20
 .text.__month_to_secs
                0x000000000000f594       0x20 c:/program files/microchip/xc32/v4.60/bin/bin/../../lib/gcc/pic32c/8.3.1/../../../../pic32c/lib/thumb/v6-m/nofp\libg-musl.a(__month_to_secs.o)
                0x000000000000f594                __month_to_secs

.text._get_heap_left_space%170
                0x000000000000f5b4       0x20
 .text._get_heap_left_space
                0x000000000000f5b4       0x20 c:/program files/microchip/xc32/v4.60/bin/bin/../../lib/gcc/pic32c/8.3.1/../../../../pic32c/lib/thumb/v6-m/nofp\libpic32c.a(sbrk.o)
                0x000000000000f5b4                _get_heap_left_space

.text.__dinit_copy%171
                0x000000000000f5d4       0x1e
 .text.__dinit_copy
                0x000000000000f5d4       0x1e c:/program files/microchip/xc32/v4.60/bin/bin/../../lib/gcc/pic32c/8.3.1/../../../../pic32c/lib/thumb/v6-m/nofp\libpic32c.a(pic32_data_init_copy.o)
                0x000000000000f5d4                __dinit_copy_needed
                0x000000000000f5d4                __dinit_copy

.text.__simple_calloc%172
                0x000000000000f5f2       0x1c
 .text.__simple_calloc
                0x000000000000f5f2       0x1c c:/program files/microchip/xc32/v4.60/bin/bin/../../lib/gcc/pic32c/8.3.1/../../../../pic32c/lib/thumb/v6-m/nofp\liblmalloc-musl.a(lite_calloc.o)
                0x000000000000f5f2                calloc
                0x000000000000f5f2                __simple_calloc
                0x000000000000f5f2                __calloc0

.text.__init_search_fl%173
                0x000000000000f610       0x1c
 .text.__init_search_fl
                0x000000000000f610       0x1c c:/program files/microchip/xc32/v4.60/bin/bin/../../lib/gcc/pic32c/8.3.1/../../../../pic32c/lib/thumb/v6-m/nofp\liblmalloc-musl.a(lite_free.o)
                0x000000000000f610                __init_search_fl

.text.__towrite%174
                0x000000000000f62c       0x1a
 .text.__towrite
                0x000000000000f62c       0x1a c:/program files/microchip/xc32/v4.60/bin/bin/../../lib/gcc/pic32c/8.3.1/../../../../pic32c/lib/thumb/v6-m/nofp\libg-musl.a(__towrite.o)
                0x000000000000f62c                __towrite

.text.strlen%175
                0x000000000000f648       0x18
 .text.strlen   0x000000000000f648       0x18 c:/program files/microchip/xc32/v4.60/bin/bin/../../lib/gcc/pic32c/8.3.1/../../../../pic32c/lib/thumb/v6-m/nofp\libc-size-musl.a(strlen.o)
                0x000000000000f648                strlen

.text.strnlen%176
                0x000000000000f660       0x18
 .text.strnlen  0x000000000000f660       0x18 c:/program files/microchip/xc32/v4.60/bin/bin/../../lib/gcc/pic32c/8.3.1/../../../../pic32c/lib/thumb/v6-m/nofp\libc-size-musl.a(strnlen.o)
                0x000000000000f660                strnlen

.text.__vfprintf%177
                0x000000000000f678       0x18
 .text.__vfprintf
                0x000000000000f678       0x18 c:/program files/microchip/xc32/v4.60/bin/bin/../../lib/gcc/pic32c/8.3.1/../../../../pic32c/lib/thumb/v6-m/nofp\libg-musl.a(__int_vfprintf.o)
                0x000000000000f678                __vfprintf

.text%178       0x000000000000f690       0x18
 .text          0x000000000000f690       0x18 c:/program files/microchip/xc32/v4.60/bin/bin/../../lib/gcc/pic32c/8.3.1/thumb/v6-m/nofp\libgcc.a(_lshrdi3.o)
                0x000000000000f690                __lshrdi3
                0x000000000000f690                __aeabi_llsr

.text%179       0x000000000000f6a8       0x18
 .text          0x000000000000f6a8       0x18 c:/program files/microchip/xc32/v4.60/bin/bin/../../lib/gcc/pic32c/8.3.1/thumb/v6-m/nofp\libgcc.a(_ashldi3.o)
                0x000000000000f6a8                __aeabi_llsl
                0x000000000000f6a8                __ashldi3

.text%180       0x000000000000f6c0       0x18
 .text          0x000000000000f6c0       0x18 c:/program files/microchip/xc32/v4.60/bin/bin/../../lib/gcc/pic32c/8.3.1/thumb/v6-m/nofp\libgcc.a(_clzdi2.o)
                0x000000000000f6c0                __clzdi2

.text.__expand_heap%181
                0x000000000000f6d8       0x16
 .text.__expand_heap
                0x000000000000f6d8       0x16 c:/program files/microchip/xc32/v4.60/bin/bin/../../lib/gcc/pic32c/8.3.1/../../../../pic32c/lib/thumb/v6-m/nofp\libg-musl.a(expand_heap.o)
                0x000000000000f6d8                __expand_heap

.rodata%182     0x000000000000f6ee       0x16
 .rodata        0x000000000000f6ee       0x16 c:/program files/microchip/xc32/v4.60/bin/bin/../../lib/gcc/pic32c/8.3.1/../../../../pic32c/lib/thumb/v6-m/nofp\libg-musl.a(__printf_core.o)

.rodata%183     0x000000000000f704       0x14
 .rodata        0x000000000000f704       0x14 c:/program files/microchip/xc32/v4.60/bin/bin/../../lib/gcc/pic32c/8.3.1/../../../../pic32c/lib/thumb/v6-m/nofp\libpic32c.a(data_init.o)

.text.memcpy%184
                0x000000000000f718       0x14
 .text.memcpy   0x000000000000f718       0x14 c:/program files/microchip/xc32/v4.60/bin/bin/../../lib/gcc/pic32c/8.3.1/../../../../pic32c/lib/thumb/v6-m/nofp\libc-size-musl.a(memcpy.o)
                0x000000000000f718                memcpy

.text.memset%185
                0x000000000000f72c       0x14
 .text.memset   0x000000000000f72c       0x14 c:/program files/microchip/xc32/v4.60/bin/bin/../../lib/gcc/pic32c/8.3.1/../../../../pic32c/lib/thumb/v6-m/nofp\libc-size-musl.a(memset.o)
                0x000000000000f72c                memset

.text.strchr%186
                0x000000000000f740       0x14
 .text.strchr   0x000000000000f740       0x14 c:/program files/microchip/xc32/v4.60/bin/bin/../../lib/gcc/pic32c/8.3.1/../../../../pic32c/lib/thumb/v6-m/nofp\libc-size-musl.a(strchr.o)
                0x000000000000f740                strchr

.text.__init_stdout%187
                0x000000000000f754       0x14
 .text.__init_stdout
                0x000000000000f754       0x14 c:/program files/microchip/xc32/v4.60/bin/bin/../../lib/gcc/pic32c/8.3.1/../../../../pic32c/lib/thumb/v6-m/nofp\libg-musl.a(stdout.o)
                0x000000000000f754                __init_stdout

.text.__fwrite%188
                0x000000000000f768       0x14
 .text.__fwrite
                0x000000000000f768       0x14 c:/program files/microchip/xc32/v4.60/bin/bin/../../lib/gcc/pic32c/8.3.1/../../../../pic32c/lib/thumb/v6-m/nofp\libg-musl.a(__fwrite.o)
                0x000000000000f768                __fwrite
                0x000000000000f768                __fwrite_needed

.text.stpcpy%189
                0x000000000000f77c       0x14
 .text.stpcpy   0x000000000000f77c       0x14 c:/program files/microchip/xc32/v4.60/bin/bin/../../lib/gcc/pic32c/8.3.1/../../../../pic32c/lib/thumb/v6-m/nofp\libc-size-musl.a(stpcpy.o)
                0x000000000000f77c                __stpcpy
                0x000000000000f77c                stpcpy

.text.setbuf%190
                0x000000000000f790       0x12
 .text.setbuf   0x000000000000f790       0x12 c:/program files/microchip/xc32/v4.60/bin/bin/../../lib/gcc/pic32c/8.3.1/../../../../pic32c/lib/thumb/v6-m/nofp\libg-musl.a(setbuf.o)
                0x000000000000f790                setbuf

.text.__dinit_clear%191
                0x000000000000f7a2       0x12
 .text.__dinit_clear
                0x000000000000f7a2       0x12 c:/program files/microchip/xc32/v4.60/bin/bin/../../lib/gcc/pic32c/8.3.1/../../../../pic32c/lib/thumb/v6-m/nofp\libpic32c.a(pic32_data_init_clear.o)
                0x000000000000f7a2                __dinit_clear
                0x000000000000f7a2                __dinit_clear_needed

.rodata.str1.1%192
                0x000000000000f7b4       0x10
 .rodata.str1.1
                0x000000000000f7b4       0x10 c:/program files/microchip/xc32/v4.60/bin/bin/../../lib/gcc/pic32c/8.3.1/../../../../pic32c/lib/thumb/v6-m/nofp\libg-musl.a(__fmt_fp.o)

.text.gmtime%193
                0x000000000000f7c4       0x10
 .text.gmtime   0x000000000000f7c4       0x10 c:/program files/microchip/xc32/v4.60/bin/bin/../../lib/gcc/pic32c/8.3.1/../../../../pic32c/lib/thumb/v6-m/nofp\libg-musl.a(gmtime.o)
                0x000000000000f7c4                gmtime

.text.__init_stdio%194
                0x000000000000f7d4       0x10
 .text.__init_stdio
                0x000000000000f7d4       0x10 c:/program files/microchip/xc32/v4.60/bin/bin/../../lib/gcc/pic32c/8.3.1/../../../../pic32c/lib/thumb/v6-m/nofp\libg-musl.a(__init_stdio.o)
                0x000000000000f7d4                __init_stdio_needed
                0x000000000000f7d4                __init_stdio

.text.fma%195   0x000000000000f7e4       0x10
 .text.fma      0x000000000000f7e4       0x10 c:/program files/microchip/xc32/v4.60/bin/bin/../../lib/gcc/pic32c/8.3.1/../../../../pic32c/lib/thumb/v6-m/nofp\libm-fast-emfloat.a(fma.o)
                0x000000000000f7e4                fma

.text.tolower%196
                0x000000000000f7f4        0xe
 .text.tolower  0x000000000000f7f4        0xe c:/program files/microchip/xc32/v4.60/bin/bin/../../lib/gcc/pic32c/8.3.1/../../../../pic32c/lib/thumb/v6-m/nofp\libg-musl.a(tolower.o)
                0x000000000000f7f4                tolower

.rodata%197     0x000000000000f802        0xc
 .rodata        0x000000000000f802        0xc c:/program files/microchip/xc32/v4.60/bin/bin/../../lib/gcc/pic32c/8.3.1/../../../../pic32c/lib/thumb/v6-m/nofp\libg-musl.a(__secs_to_tm.o)

.text.strcpy%198
                0x000000000000f80e        0xc
 .text.strcpy   0x000000000000f80e        0xc c:/program files/microchip/xc32/v4.60/bin/bin/../../lib/gcc/pic32c/8.3.1/../../../../pic32c/lib/thumb/v6-m/nofp\libc-size-musl.a(strcpy.o)
                0x000000000000f80e                strcpy

.text.__fwrite_min%199
                0x000000000000f81a        0xa
 .text.__fwrite_min
                0x000000000000f81a        0xa c:/program files/microchip/xc32/v4.60/bin/bin/../../lib/gcc/pic32c/8.3.1/../../../../pic32c/lib/thumb/v6-m/nofp\libg-musl.a(__out.o)
                0x000000000000f81a                __stdio_write_unbuffered
                0x000000000000f81a                __stdio_write

.text%200       0x000000000000f824        0x8
 .text          0x000000000000f824        0x8 build/SAMD21_IOT_WG_ICM42688/debug/_ext/1832905403/exceptions.o
                0x000000000000f824                NonMaskableInt_Handler
                0x000000000000f828                HardFault_Handler

.text%201       0x000000000000f82c        0x8
 .text          0x000000000000f82c        0x8 build/SAMD21_IOT_WG_ICM42688/debug/_ext/1832905403/tasks.o
                0x000000000000f82c                SYS_Tasks

.rodata.str1.4%202
                0x000000000000f834        0x8
 .rodata.str1.4
                0x000000000000f834        0x8 build/SAMD21_IOT_WG_ICM42688/debug/_ext/1341251756/Icm426xxDriver_HL.o

.rodata.str1.1%203
                0x000000000000f83c        0x8
 .rodata.str1.1
                0x000000000000f83c        0x8 c:/program files/microchip/xc32/v4.60/bin/bin/../../lib/gcc/pic32c/8.3.1/../../../../pic32c/lib/thumb/v6-m/nofp\libg-musl.a(__printf_core.o)

.text.putc%204  0x000000000000f844        0x8
 .text.putc     0x000000000000f844        0x8 c:/program files/microchip/xc32/v4.60/bin/bin/../../lib/gcc/pic32c/8.3.1/../../../../pic32c/lib/thumb/v6-m/nofp\libg-musl.a(putc.o)
                0x000000000000f844                putc
                0x000000000000f844                fputc
                0x000000000000f844                _IO_putc
                0x000000000000f844                putc_unlocked

.text.__get_stdout%205
                0x000000000000f84c        0x8
 .text.__get_stdout
                0x000000000000f84c        0x8 c:/program files/microchip/xc32/v4.60/bin/bin/../../lib/gcc/pic32c/8.3.1/../../../../pic32c/lib/thumb/v6-m/nofp\libg-musl.a(__stdout.o)
                0x000000000000f84c                __get_stdout
                0x000000000000f84c                __init_stdout_needed

.rodata.str1.1%206
                0x000000000000f854        0x7
 .rodata.str1.1
                0x000000000000f854        0x7 c:/program files/microchip/xc32/v4.60/bin/bin/../../lib/gcc/pic32c/8.3.1/../../../../pic32c/lib/thumb/v6-m/nofp\libg-musl.a(__fmt_s.o)

.text.close%207
                0x000000000000f85c        0x6
 .text.close    0x000000000000f85c        0x6 c:/program files/microchip/xc32/v4.60/bin/bin/../../lib/gcc/pic32c/8.3.1/../../../../pic32c/lib/thumb/v6-m/nofp\libpic32c.a(close.o)
                0x000000000000f85c                close

.text.__dummy_decompress%208
                0x000000000000f862        0x4
 .text.__dummy_decompress
                0x000000000000f862        0x4 c:/program files/microchip/xc32/v4.60/bin/bin/../../lib/gcc/pic32c/8.3.1/../../../../pic32c/lib/thumb/v6-m/nofp\libpic32c.a(data_init.o)
                0x000000000000f862                __dinit_decompress
                0x000000000000f862                __dinit_copy_val_data
                0x000000000000f862                __dinit_copy_emb

.text.__dummy_fmt3%209
                0x000000000000f866        0x4
 .text.__dummy_fmt3
                0x000000000000f866        0x4 c:/program files/microchip/xc32/v4.60/bin/bin/../../lib/gcc/pic32c/8.3.1/../../../../pic32c/lib/thumb/v6-m/nofp\libg-musl.a(__printf_core.o)
                0x000000000000f866                __fmt_o

.text.__dummy_fmt4%210
                0x000000000000f86a        0x4
 .text.__dummy_fmt4
                0x000000000000f86a        0x4 c:/program files/microchip/xc32/v4.60/bin/bin/../../lib/gcc/pic32c/8.3.1/../../../../pic32c/lib/thumb/v6-m/nofp\libg-musl.a(__printf_core.o)
                0x000000000000f86a                __fmt_x
                0x000000000000f86a                __fmt_a

.text.__dummy%211
                0x000000000000f86e        0x4
 .text.__dummy  0x000000000000f86e        0x4 c:/program files/microchip/xc32/v4.60/bin/bin/../../lib/gcc/pic32c/8.3.1/../../../../pic32c/lib/thumb/v6-m/nofp\libg-musl.a(stdin.o)
                0x000000000000f86e                __stdio_seek_rw

.rodata.str1.1%212
                0x000000000000f872        0x4
 .rodata.str1.1
                0x000000000000f872        0x4 c:/program files/microchip/xc32/v4.60/bin/bin/../../lib/gcc/pic32c/8.3.1/../../../../pic32c/lib/thumb/v6-m/nofp\libg-musl.a(gmtime_r.o)

.rodata.str1.1%213
                0x000000000000f876        0x4
 .rodata.str1.1
                0x000000000000f876        0x4 c:/program files/microchip/xc32/v4.60/bin/bin/../../lib/gcc/pic32c/8.3.1/../../../../pic32c/lib/thumb/v6-m/nofp\libg-musl.a(mktime.o)

.text%214       0x000000000000f87c        0x4
 .text          0x000000000000f87c        0x4 c:/program files/microchip/xc32/v4.60/bin/bin/../../lib/gcc/pic32c/8.3.1/thumb/v6-m/nofp\libgcc.a(_dvmd_tls.o)
                0x000000000000f87c                __aeabi_idiv0
                0x000000000000f87c                __aeabi_ldiv0

.text.lseek%215
                0x000000000000f880        0x4
 .text.lseek    0x000000000000f880        0x4 c:/program files/microchip/xc32/v4.60/bin/bin/../../lib/gcc/pic32c/8.3.1/../../../../pic32c/lib/thumb/v6-m/nofp\libpic32c.a(lseek.o)
                0x000000000000f880                lseek

.text%216       0x000000000000c79a        0x2
 .text          0x000000000000c79a        0x2 build/SAMD21_IOT_WG_ICM42688/debug/_ext/1832905403/interrupts.o
                0x000000000000c79a                SVCall_Handler
                0x000000000000c79a                AC_Handler
                0x000000000000c79a                SysTick_Handler
                0x000000000000c79a                PendSV_Handler
                0x000000000000c79a                ADC_Handler
                0x000000000000c79a                TCC1_Handler
                0x000000000000c79a                TCC0_Handler
                0x000000000000c79a                RTC_Handler
                0x000000000000c79a                WDT_Handler
                0x000000000000c79a                USB_Handler
                0x000000000000c79a                Dummy_Handler
                0x000000000000c79a                PM_Handler
                0x000000000000c79a                TCC2_Handler
                0x000000000000c79a                EVSYS_Handler
                0x000000000000c79a                SERCOM3_Handler
                0x000000000000c79a                SERCOM4_Handler
                0x000000000000c79a                I2S_Handler
                0x000000000000c79a                NVMCTRL_Handler
                0x000000000000c79a                SERCOM0_Handler
                0x000000000000c79a                DAC_Handler
                0x000000000000c79a                PTC_Handler
                0x000000000000c79a                TC5_Handler
                0x000000000000c79a                SYSCTRL_Handler

.text%217       0x000000000000dbde        0x2
 .text          0x000000000000dbde        0x2 build/SAMD21_IOT_WG_ICM42688/debug/_ext/1832905403/startup_xc32.o
                0x000000000000dbde                _on_reset
                0x000000000000dbde                _on_bootstrap
                0x000000000000dbde                __xc32_on_reset
                0x000000000000dbde                Dummy_App_Func
                0x000000000000dbde                __xc32_on_bootstrap

.text.__dummy_init_tls%218
                0x000000000000dfba        0x2
 .text.__dummy_init_tls
                0x000000000000dfba        0x2 c:/program files/microchip/xc32/v4.60/bin/bin/../../lib/gcc/pic32c/8.3.1/../../../../pic32c/lib/thumb/v6-m/nofp\libpic32c.a(data_init.o)
                0x000000000000dfba                xc32_init_tls

.text.__dummy%219
                0x000000000000e122        0x2
 .text.__dummy  0x000000000000e122        0x2 c:/program files/microchip/xc32/v4.60/bin/bin/../../lib/gcc/pic32c/8.3.1/../../../../pic32c/lib/thumb/v6-m/nofp\libg-musl.a(__libc_start_main.o)
                0x000000000000e122                __init_host

.text.__dummy%220
                0x000000000000e5d2        0x2
 .text.__dummy  0x000000000000e5d2        0x2 c:/program files/microchip/xc32/v4.60/bin/bin/../../lib/gcc/pic32c/8.3.1/../../../../pic32c/lib/thumb/v6-m/nofp\libg-musl.a(__init_stdio.o)
                0x000000000000e5d2                __init_stdin
                0x000000000000e5d2                __init_stderr

.text.__dummy%221
                0x000000000000eb3e        0x2
 .text.__dummy  0x000000000000eb3e        0x2 c:/program files/microchip/xc32/v4.60/bin/bin/../../lib/gcc/pic32c/8.3.1/../../../../pic32c/lib/thumb/v6-m/nofp\libg-musl.a(__stderr.o)
                0x000000000000eb3e                __stdio_seek

.rodata%222     0x000000000000f85b        0x1
 .rodata        0x000000000000f85b        0x1 build/SAMD21_IOT_WG_ICM42688/debug/_ext/907429946/wdrv_winc_socket.o
