Archive member included to satisfy reference by file (symbol)

c:/program files/microchip/xc32/v4.60/bin/bin/../../lib/gcc/pic32c/8.3.1/../../../../pic32c/lib/thumb/v6-m/nofp\libpic32c.a(data_init.o)
                              build/SAMD21_IOT_WG_ICM42688/debug/_ext/1832905403/startup_xc32.o (__pic32c_data_initialization)
c:/program files/microchip/xc32/v4.60/bin/bin/../../lib/gcc/pic32c/8.3.1/../../../../pic32c/lib/thumb/v6-m/nofp\libc-size-musl.a(memcpy.o)
                              build/SAMD21_IOT_WG_ICM42688/debug/_ext/101005277/wdrv_winc_spi.o (memcpy)
c:/program files/microchip/xc32/v4.60/bin/bin/../../lib/gcc/pic32c/8.3.1/../../../../pic32c/lib/thumb/v6-m/nofp\libc-size-musl.a(memset.o)
                              build/SAMD21_IOT_WG_ICM42688/debug/_ext/2048461350/icm42688_sensor.o (memset)
c:/program files/microchip/xc32/v4.60/bin/bin/../../lib/gcc/pic32c/8.3.1/../../../../pic32c/lib/thumb/v6-m/nofp\libc-size-musl.a(strlen.o)
                              build/SAMD21_IOT_WG_ICM42688/debug/_ext/121554788/m2m_wifi.o (strlen)
c:/program files/microchip/xc32/v4.60/bin/bin/../../lib/gcc/pic32c/8.3.1/../../../../pic32c/lib/thumb/v6-m/nofp\libc-size-musl.a(strchr.o)
                              build/SAMD21_IOT_WG_ICM42688/debug/_ext/907429946/wdrv_winc_sta.o (strchr)
c:/program files/microchip/xc32/v4.60/bin/bin/../../lib/gcc/pic32c/8.3.1/../../../../pic32c/lib/thumb/v6-m/nofp\libc-size-musl.a(strchrnul.o)
                              c:/program files/microchip/xc32/v4.60/bin/bin/../../lib/gcc/pic32c/8.3.1/../../../../pic32c/lib/thumb/v6-m/nofp\libc-size-musl.a(strchr.o) (__strchrnul)
c:/program files/microchip/xc32/v4.60/bin/bin/../../lib/gcc/pic32c/8.3.1/../../../../pic32c/lib/thumb/v6-m/nofp\libc-size-musl.a(strcmp.o)
                              build/SAMD21_IOT_WG_ICM42688/debug/_ext/299863938/ssi_comms.o (strcmp)
c:/program files/microchip/xc32/v4.60/bin/bin/../../lib/gcc/pic32c/8.3.1/../../../../pic32c/lib/thumb/v6-m/nofp\libc-size-musl.a(strnlen.o)
                              build/SAMD21_IOT_WG_ICM42688/debug/_ext/121554788/m2m_ota.o (strnlen)
c:/program files/microchip/xc32/v4.60/bin/bin/../../lib/gcc/pic32c/8.3.1/../../../../pic32c/lib/thumb/v6-m/nofp\libc-size-musl.a(memchr.o)
                              c:/program files/microchip/xc32/v4.60/bin/bin/../../lib/gcc/pic32c/8.3.1/../../../../pic32c/lib/thumb/v6-m/nofp\libc-size-musl.a(strnlen.o) (memchr)
c:/program files/microchip/xc32/v4.60/bin/bin/../../lib/gcc/pic32c/8.3.1/../../../../pic32c/lib/thumb/v6-m/nofp\liblmalloc-musl.a(lite_free.o)
                              build/SAMD21_IOT_WG_ICM42688/debug/_ext/121554788/m2m_wifi.o (free)
c:/program files/microchip/xc32/v4.60/bin/bin/../../lib/gcc/pic32c/8.3.1/../../../../pic32c/lib/thumb/v6-m/nofp\liblmalloc-musl.a(lite_malloc.o)
                              build/SAMD21_IOT_WG_ICM42688/debug/_ext/121554788/m2m_wifi.o (malloc)
c:/program files/microchip/xc32/v4.60/bin/bin/../../lib/gcc/pic32c/8.3.1/../../../../pic32c/lib/thumb/v6-m/nofp\libm-fast-emfloat.a(modff.o)
                              build/SAMD21_IOT_WG_ICM42688/debug/_ext/336238826/stats_percentile_presorted.o (modff)
c:/program files/microchip/xc32/v4.60/bin/bin/../../lib/gcc/pic32c/8.3.1/../../../../pic32c/lib/thumb/v6-m/nofp\libm-fast-emfloat.a(cos.o)
                              build/SAMD21_IOT_WG_ICM42688/debug/_ext/336238826/utils_array.o (cos)
c:/program files/microchip/xc32/v4.60/bin/bin/../../lib/gcc/pic32c/8.3.1/../../../../pic32c/lib/thumb/v6-m/nofp\libm-fast-emfloat.a(sqrt.o)
                              build/SAMD21_IOT_WG_ICM42688/debug/_ext/336238826/std.o (sqrt)
c:/program files/microchip/xc32/v4.60/bin/bin/../../lib/gcc/pic32c/8.3.1/../../../../pic32c/lib/thumb/v6-m/nofp\libm-fast-emfloat.a(pow.o)
                              build/SAMD21_IOT_WG_ICM42688/debug/_ext/1341251756/Icm426xxSelfTest.o (pow)
c:/program files/microchip/xc32/v4.60/bin/bin/../../lib/gcc/pic32c/8.3.1/../../../../pic32c/lib/thumb/v6-m/nofp\libm-fast-emfloat.a(__SEGGER_RTL_float64_SinCos.o)
                              c:/program files/microchip/xc32/v4.60/bin/bin/../../lib/gcc/pic32c/8.3.1/../../../../pic32c/lib/thumb/v6-m/nofp\libm-fast-emfloat.a(cos.o) (__SEGGER_RTL_float64_SinCos)
c:/program files/microchip/xc32/v4.60/bin/bin/../../lib/gcc/pic32c/8.3.1/../../../../pic32c/lib/thumb/v6-m/nofp\libm-fast-emfloat.a(__SEGGER_RTL_kahan_aT2.o)
                              c:/program files/microchip/xc32/v4.60/bin/bin/../../lib/gcc/pic32c/8.3.1/../../../../pic32c/lib/thumb/v6-m/nofp\libm-fast-emfloat.a(sqrt.o) (__SEGGER_RTL_kahan_aT2)
c:/program files/microchip/xc32/v4.60/bin/bin/../../lib/gcc/pic32c/8.3.1/../../../../pic32c/lib/thumb/v6-m/nofp\libm-fast-emfloat.a(__aeabi_fadd.o)
                              build/SAMD21_IOT_WG_ICM42688/debug/_ext/336238826/calc_area.o (__aeabi_fadd)
c:/program files/microchip/xc32/v4.60/bin/bin/../../lib/gcc/pic32c/8.3.1/../../../../pic32c/lib/thumb/v6-m/nofp\libm-fast-emfloat.a(__aeabi_dadd.o)
                              build/SAMD21_IOT_WG_ICM42688/debug/_ext/1341251756/Icm426xxSelfTest.o (__aeabi_dadd)
c:/program files/microchip/xc32/v4.60/bin/bin/../../lib/gcc/pic32c/8.3.1/../../../../pic32c/lib/thumb/v6-m/nofp\libm-fast-emfloat.a(__aeabi_fsub.o)
                              build/SAMD21_IOT_WG_ICM42688/debug/_ext/336238826/calc_area.o (__aeabi_fsub)
c:/program files/microchip/xc32/v4.60/bin/bin/../../lib/gcc/pic32c/8.3.1/../../../../pic32c/lib/thumb/v6-m/nofp\libm-fast-emfloat.a(__aeabi_dsub.o)
                              build/SAMD21_IOT_WG_ICM42688/debug/_ext/336238826/utils_array.o (__aeabi_dsub)
c:/program files/microchip/xc32/v4.60/bin/bin/../../lib/gcc/pic32c/8.3.1/../../../../pic32c/lib/thumb/v6-m/nofp\libm-fast-emfloat.a(__aeabi_fmul.o)
                              build/SAMD21_IOT_WG_ICM42688/debug/_ext/336238826/ma_symmetric.o (__aeabi_fmul)
c:/program files/microchip/xc32/v4.60/bin/bin/../../lib/gcc/pic32c/8.3.1/../../../../pic32c/lib/thumb/v6-m/nofp\libm-fast-emfloat.a(__aeabi_dmul_aux.o)
                              build/SAMD21_IOT_WG_ICM42688/debug/_ext/1341251756/Icm426xxSelfTest.o (__aeabi_dmul)
c:/program files/microchip/xc32/v4.60/bin/bin/../../lib/gcc/pic32c/8.3.1/../../../../pic32c/lib/thumb/v6-m/nofp\libm-fast-emfloat.a(__aeabi_fdiv.o)
                              build/SAMD21_IOT_WG_ICM42688/debug/_ext/1341251756/Icm426xxSelfTest.o (__aeabi_fdiv)
c:/program files/microchip/xc32/v4.60/bin/bin/../../lib/gcc/pic32c/8.3.1/../../../../pic32c/lib/thumb/v6-m/nofp\libm-fast-emfloat.a(__aeabi_ddiv.o)
                              build/SAMD21_IOT_WG_ICM42688/debug/_ext/1341251756/Icm426xxSelfTest.o (__aeabi_ddiv)
c:/program files/microchip/xc32/v4.60/bin/bin/../../lib/gcc/pic32c/8.3.1/../../../../pic32c/lib/thumb/v6-m/nofp\libm-fast-emfloat.a(__aeabi_fcmple.o)
                              build/SAMD21_IOT_WG_ICM42688/debug/_ext/1341251756/Icm426xxSelfTest.o (__aeabi_fcmple)
c:/program files/microchip/xc32/v4.60/bin/bin/../../lib/gcc/pic32c/8.3.1/../../../../pic32c/lib/thumb/v6-m/nofp\libm-fast-emfloat.a(__aeabi_fcmpeq.o)
                              build/SAMD21_IOT_WG_ICM42688/debug/_ext/336238826/rb.o (__aeabi_fcmpeq)
c:/program files/microchip/xc32/v4.60/bin/bin/../../lib/gcc/pic32c/8.3.1/../../../../pic32c/lib/thumb/v6-m/nofp\libm-fast-emfloat.a(__aeabi_dcmpeq.o)
                              c:/program files/microchip/xc32/v4.60/bin/bin/../../lib/gcc/pic32c/8.3.1/../../../../pic32c/lib/thumb/v6-m/nofp\libm-fast-emfloat.a(pow.o) (__aeabi_dcmpeq)
c:/program files/microchip/xc32/v4.60/bin/bin/../../lib/gcc/pic32c/8.3.1/../../../../pic32c/lib/thumb/v6-m/nofp\libm-fast-emfloat.a(__aeabi_fcmpge.o)
                              build/SAMD21_IOT_WG_ICM42688/debug/_ext/1341251756/Icm426xxSelfTest.o (__aeabi_fcmpge)
c:/program files/microchip/xc32/v4.60/bin/bin/../../lib/gcc/pic32c/8.3.1/../../../../pic32c/lib/thumb/v6-m/nofp\libm-fast-emfloat.a(__aeabi_fcmpgt.o)
                              build/SAMD21_IOT_WG_ICM42688/debug/_ext/336238826/max_min_high_low_freq.o (__aeabi_fcmpgt)
c:/program files/microchip/xc32/v4.60/bin/bin/../../lib/gcc/pic32c/8.3.1/../../../../pic32c/lib/thumb/v6-m/nofp\libm-fast-emfloat.a(__aeabi_dcmpgt.o)
                              build/SAMD21_IOT_WG_ICM42688/debug/_ext/336238826/utils_buffer_pass_threshold.o (__aeabi_dcmpgt)
c:/program files/microchip/xc32/v4.60/bin/bin/../../lib/gcc/pic32c/8.3.1/../../../../pic32c/lib/thumb/v6-m/nofp\libm-fast-emfloat.a(__aeabi_fcmplt.o)
                              build/SAMD21_IOT_WG_ICM42688/debug/_ext/336238826/calc_area.o (__aeabi_fcmplt)
c:/program files/microchip/xc32/v4.60/bin/bin/../../lib/gcc/pic32c/8.3.1/../../../../pic32c/lib/thumb/v6-m/nofp\libm-fast-emfloat.a(__aeabi_dcmplt.o)
                              c:/program files/microchip/xc32/v4.60/bin/bin/../../lib/gcc/pic32c/8.3.1/../../../../pic32c/lib/thumb/v6-m/nofp\libm-fast-emfloat.a(pow.o) (__aeabi_dcmplt)
c:/program files/microchip/xc32/v4.60/bin/bin/../../lib/gcc/pic32c/8.3.1/../../../../pic32c/lib/thumb/v6-m/nofp\libm-fast-emfloat.a(__aeabi_f2iz.o)
                              build/SAMD21_IOT_WG_ICM42688/debug/_ext/336238826/fftr_utils.o (__aeabi_f2iz)
c:/program files/microchip/xc32/v4.60/bin/bin/../../lib/gcc/pic32c/8.3.1/../../../../pic32c/lib/thumb/v6-m/nofp\libm-fast-emfloat.a(__aeabi_d2iz.o)
                              build/SAMD21_IOT_WG_ICM42688/debug/_ext/336238826/std.o (__aeabi_d2iz)
c:/program files/microchip/xc32/v4.60/bin/bin/../../lib/gcc/pic32c/8.3.1/../../../../pic32c/lib/thumb/v6-m/nofp\libm-fast-emfloat.a(__aeabi_f2uiz.o)
                              build/SAMD21_IOT_WG_ICM42688/debug/_ext/336238826/tr_min_max_scale.o (__aeabi_f2uiz)
c:/program files/microchip/xc32/v4.60/bin/bin/../../lib/gcc/pic32c/8.3.1/../../../../pic32c/lib/thumb/v6-m/nofp\libm-fast-emfloat.a(__aeabi_d2uiz.o)
                              c:/program files/microchip/xc32/v4.60/bin/bin/../../lib/gcc/pic32c/8.3.1/../../../../pic32c/lib/thumb/v6-m/nofp\libm-fast-emfloat.a(__aeabi_d2iz.o) (.L__aeabi_d2uiz_fast_entry)
c:/program files/microchip/xc32/v4.60/bin/bin/../../lib/gcc/pic32c/8.3.1/../../../../pic32c/lib/thumb/v6-m/nofp\libm-fast-emfloat.a(__aeabi_i2f.o)
                              build/SAMD21_IOT_WG_ICM42688/debug/_ext/336238826/calc_area.o (__aeabi_i2f)
c:/program files/microchip/xc32/v4.60/bin/bin/../../lib/gcc/pic32c/8.3.1/../../../../pic32c/lib/thumb/v6-m/nofp\libm-fast-emfloat.a(__aeabi_i2d.o)
                              build/SAMD21_IOT_WG_ICM42688/debug/_ext/1341251756/Icm426xxSelfTest.o (__aeabi_i2d)
c:/program files/microchip/xc32/v4.60/bin/bin/../../lib/gcc/pic32c/8.3.1/../../../../pic32c/lib/thumb/v6-m/nofp\libm-fast-emfloat.a(__aeabi_l2f.o)
                              build/SAMD21_IOT_WG_ICM42688/debug/_ext/336238826/mean.o (__aeabi_l2f)
c:/program files/microchip/xc32/v4.60/bin/bin/../../lib/gcc/pic32c/8.3.1/../../../../pic32c/lib/thumb/v6-m/nofp\libm-fast-emfloat.a(__aeabi_ui2f.o)
                              build/SAMD21_IOT_WG_ICM42688/debug/_ext/1341251756/Icm426xxSelfTest.o (__aeabi_ui2f)
c:/program files/microchip/xc32/v4.60/bin/bin/../../lib/gcc/pic32c/8.3.1/../../../../pic32c/lib/thumb/v6-m/nofp\libm-fast-emfloat.a(__aeabi_ui2d.o)
                              c:/program files/microchip/xc32/v4.60/bin/bin/../../lib/gcc/pic32c/8.3.1/../../../../pic32c/lib/thumb/v6-m/nofp\libm-fast-emfloat.a(__aeabi_i2d.o) (__aeabi_ui2d)
c:/program files/microchip/xc32/v4.60/bin/bin/../../lib/gcc/pic32c/8.3.1/../../../../pic32c/lib/thumb/v6-m/nofp\libm-fast-emfloat.a(__aeabi_ul2f.o)
                              c:/program files/microchip/xc32/v4.60/bin/bin/../../lib/gcc/pic32c/8.3.1/../../../../pic32c/lib/thumb/v6-m/nofp\libm-fast-emfloat.a(__aeabi_l2f.o) (__aeabi_ul2f)
c:/program files/microchip/xc32/v4.60/bin/bin/../../lib/gcc/pic32c/8.3.1/../../../../pic32c/lib/thumb/v6-m/nofp\libm-fast-emfloat.a(__aeabi_f2d.o)
                              build/SAMD21_IOT_WG_ICM42688/debug/_ext/336238826/kb_output.o (__aeabi_f2d)
c:/program files/microchip/xc32/v4.60/bin/bin/../../lib/gcc/pic32c/8.3.1/../../../../pic32c/lib/thumb/v6-m/nofp\libm-fast-emfloat.a(__aeabi_d2f.o)
                              build/SAMD21_IOT_WG_ICM42688/debug/_ext/336238826/ma_symmetric.o (__aeabi_d2f)
c:/program files/microchip/xc32/v4.60/bin/bin/../../lib/gcc/pic32c/8.3.1/../../../../pic32c/lib/thumb/v6-m/nofp\libm-fast-emfloat.a(__SEGGER_RTL_float64_PolyEvalP.o)
                              c:/program files/microchip/xc32/v4.60/bin/bin/../../lib/gcc/pic32c/8.3.1/../../../../pic32c/lib/thumb/v6-m/nofp\libm-fast-emfloat.a(cos.o) (__SEGGER_RTL_float64_PolyEvalP)
c:/program files/microchip/xc32/v4.60/bin/bin/../../lib/gcc/pic32c/8.3.1/../../../../pic32c/lib/thumb/v6-m/nofp\libm-fast-emfloat.a(ldexp.o)
                              c:/program files/microchip/xc32/v4.60/bin/bin/../../lib/gcc/pic32c/8.3.1/../../../../pic32c/lib/thumb/v6-m/nofp\libm-fast-emfloat.a(sqrt.o) (ldexp)
c:/program files/microchip/xc32/v4.60/bin/bin/../../lib/gcc/pic32c/8.3.1/../../../../pic32c/lib/thumb/v6-m/nofp\libm-fast-emfloat.a(log.o)
                              c:/program files/microchip/xc32/v4.60/bin/bin/../../lib/gcc/pic32c/8.3.1/../../../../pic32c/lib/thumb/v6-m/nofp\libm-fast-emfloat.a(pow.o) (log)
c:/program files/microchip/xc32/v4.60/bin/bin/../../lib/gcc/pic32c/8.3.1/../../../../pic32c/lib/thumb/v6-m/nofp\libm-fast-emfloat.a(exp.o)
                              c:/program files/microchip/xc32/v4.60/bin/bin/../../lib/gcc/pic32c/8.3.1/../../../../pic32c/lib/thumb/v6-m/nofp\libm-fast-emfloat.a(pow.o) (exp)
c:/program files/microchip/xc32/v4.60/bin/bin/../../lib/gcc/pic32c/8.3.1/../../../../pic32c/lib/thumb/v6-m/nofp\libm-fast-emfloat.a(__SEGGER_RTL_float64_Log.o)
                              c:/program files/microchip/xc32/v4.60/bin/bin/../../lib/gcc/pic32c/8.3.1/../../../../pic32c/lib/thumb/v6-m/nofp\libm-fast-emfloat.a(log.o) (__SEGGER_RTL_float64_Log)
c:/program files/microchip/xc32/v4.60/bin/bin/../../lib/gcc/pic32c/8.3.1/../../../../pic32c/lib/thumb/v6-m/nofp\libm-fast-emfloat.a(__SEGGER_RTL_float64_PolyEvalQ.o)
                              c:/program files/microchip/xc32/v4.60/bin/bin/../../lib/gcc/pic32c/8.3.1/../../../../pic32c/lib/thumb/v6-m/nofp\libm-fast-emfloat.a(log.o) (__SEGGER_RTL_float64_PolyEvalQ)
c:/program files/microchip/xc32/v4.60/bin/bin/../../lib/gcc/pic32c/8.3.1/../../../../pic32c/lib/thumb/v6-m/nofp\libm-fast-emfloat.a(frexp.o)
                              c:/program files/microchip/xc32/v4.60/bin/bin/../../lib/gcc/pic32c/8.3.1/../../../../pic32c/lib/thumb/v6-m/nofp\libm-fast-emfloat.a(log.o) (frexp)
c:/program files/microchip/xc32/v4.60/bin/bin/../../lib/gcc/pic32c/8.3.1/../../../../pic32c/lib/thumb/v6-m/nofp\libg-musl.a(__libc_start_main.o)
                              build/SAMD21_IOT_WG_ICM42688/debug/_ext/1832905403/startup_xc32.o (__libc_init_array)
c:/program files/microchip/xc32/v4.60/bin/bin/../../lib/gcc/pic32c/8.3.1/../../../../pic32c/lib/thumb/v6-m/nofp\libg-musl.a(__errno_location.o)
                              c:/program files/microchip/xc32/v4.60/bin/bin/../../lib/gcc/pic32c/8.3.1/../../../../pic32c/lib/thumb/v6-m/nofp\liblmalloc-musl.a(lite_malloc.o) (__errno_val)
c:/program files/microchip/xc32/v4.60/bin/bin/../../lib/gcc/pic32c/8.3.1/../../../../pic32c/lib/thumb/v6-m/nofp\libg-musl.a(libc.o)
                              c:/program files/microchip/xc32/v4.60/bin/bin/../../lib/gcc/pic32c/8.3.1/../../../../pic32c/lib/thumb/v6-m/nofp\libg-musl.a(__libc_start_main.o) (__progname_full)
c:/program files/microchip/xc32/v4.60/bin/bin/../../lib/gcc/pic32c/8.3.1/../../../../pic32c/lib/thumb/v6-m/nofp\libg-musl.a(expand_heap.o)
                              c:/program files/microchip/xc32/v4.60/bin/bin/../../lib/gcc/pic32c/8.3.1/../../../../pic32c/lib/thumb/v6-m/nofp\liblmalloc-musl.a(lite_malloc.o) (__expand_heap)
c:/program files/microchip/xc32/v4.60/bin/bin/../../lib/gcc/pic32c/8.3.1/../../../../pic32c/lib/thumb/v6-m/nofp\libg-musl.a(__sio_printf_cdeEfFgGnpsuxX.o)
                              (_printf_cdeEfFgGnpsuxX)
c:/program files/microchip/xc32/v4.60/bin/bin/../../lib/gcc/pic32c/8.3.1/../../../../pic32c/lib/thumb/v6-m/nofp\libg-musl.a(__sio_sprintf_cdeEfFgGnpsuxX.o)
                              (_sprintf_cdeEfFgGnpsuxX)
c:/program files/microchip/xc32/v4.60/bin/bin/../../lib/gcc/pic32c/8.3.1/../../../../pic32c/lib/thumb/v6-m/nofp\libg-musl.a(__fmt_d.o)
                              c:/program files/microchip/xc32/v4.60/bin/bin/../../lib/gcc/pic32c/8.3.1/../../../../pic32c/lib/thumb/v6-m/nofp\libg-musl.a(__sio_printf_cdeEfFgGnpsuxX.o) (__fmt_d_needed)
c:/program files/microchip/xc32/v4.60/bin/bin/../../lib/gcc/pic32c/8.3.1/../../../../pic32c/lib/thumb/v6-m/nofp\libg-musl.a(__fmt_fp.o)
                              c:/program files/microchip/xc32/v4.60/bin/bin/../../lib/gcc/pic32c/8.3.1/../../../../pic32c/lib/thumb/v6-m/nofp\libg-musl.a(__sio_printf_cdeEfFgGnpsuxX.o) (__fmt_f_needed)
c:/program files/microchip/xc32/v4.60/bin/bin/../../lib/gcc/pic32c/8.3.1/../../../../pic32c/lib/thumb/v6-m/nofp\libg-musl.a(__fmt_s.o)
                              c:/program files/microchip/xc32/v4.60/bin/bin/../../lib/gcc/pic32c/8.3.1/../../../../pic32c/lib/thumb/v6-m/nofp\libg-musl.a(__sio_printf_cdeEfFgGnpsuxX.o) (__fmt_s_needed)
c:/program files/microchip/xc32/v4.60/bin/bin/../../lib/gcc/pic32c/8.3.1/../../../../pic32c/lib/thumb/v6-m/nofp\libg-musl.a(__fmt_u.o)
                              c:/program files/microchip/xc32/v4.60/bin/bin/../../lib/gcc/pic32c/8.3.1/../../../../pic32c/lib/thumb/v6-m/nofp\libg-musl.a(__sio_printf_cdeEfFgGnpsuxX.o) (__fmt_u_needed)
c:/program files/microchip/xc32/v4.60/bin/bin/../../lib/gcc/pic32c/8.3.1/../../../../pic32c/lib/thumb/v6-m/nofp\libg-musl.a(__fmt_x.o)
                              c:/program files/microchip/xc32/v4.60/bin/bin/../../lib/gcc/pic32c/8.3.1/../../../../pic32c/lib/thumb/v6-m/nofp\libg-musl.a(__sio_printf_cdeEfFgGnpsuxX.o) (__fmt_x_needed)
c:/program files/microchip/xc32/v4.60/bin/bin/../../lib/gcc/pic32c/8.3.1/../../../../pic32c/lib/thumb/v6-m/nofp\libg-musl.a(__pop_float.o)
                              c:/program files/microchip/xc32/v4.60/bin/bin/../../lib/gcc/pic32c/8.3.1/../../../../pic32c/lib/thumb/v6-m/nofp\libg-musl.a(__sio_printf_cdeEfFgGnpsuxX.o) (__pop_float_needed)
c:/program files/microchip/xc32/v4.60/bin/bin/../../lib/gcc/pic32c/8.3.1/../../../../pic32c/lib/thumb/v6-m/nofp\libg-musl.a(__pop_int.o)
                              c:/program files/microchip/xc32/v4.60/bin/bin/../../lib/gcc/pic32c/8.3.1/../../../../pic32c/lib/thumb/v6-m/nofp\libg-musl.a(__sio_printf_cdeEfFgGnpsuxX.o) (__pop_int_needed)
c:/program files/microchip/xc32/v4.60/bin/bin/../../lib/gcc/pic32c/8.3.1/../../../../pic32c/lib/thumb/v6-m/nofp\libg-musl.a(__pop_ptr.o)
                              c:/program files/microchip/xc32/v4.60/bin/bin/../../lib/gcc/pic32c/8.3.1/../../../../pic32c/lib/thumb/v6-m/nofp\libg-musl.a(__sio_printf_cdeEfFgGnpsuxX.o) (__pop_ptr_needed)
c:/program files/microchip/xc32/v4.60/bin/bin/../../lib/gcc/pic32c/8.3.1/../../../../pic32c/lib/thumb/v6-m/nofp\libg-musl.a(__printf_core.o)
                              c:/program files/microchip/xc32/v4.60/bin/bin/../../lib/gcc/pic32c/8.3.1/../../../../pic32c/lib/thumb/v6-m/nofp\libg-musl.a(__fmt_d.o) (__pad)
c:/program files/microchip/xc32/v4.60/bin/bin/../../lib/gcc/pic32c/8.3.1/../../../../pic32c/lib/thumb/v6-m/nofp\libg-musl.a(stdin.o)
                              build/SAMD21_IOT_WG_ICM42688/debug/_ext/1832905403/initialization.o (_stdin)
c:/program files/microchip/xc32/v4.60/bin/bin/../../lib/gcc/pic32c/8.3.1/../../../../pic32c/lib/thumb/v6-m/nofp\libg-musl.a(stdout.o)
                              build/SAMD21_IOT_WG_ICM42688/debug/_ext/1832905403/initialization.o (_stdout)
c:/program files/microchip/xc32/v4.60/bin/bin/../../lib/gcc/pic32c/8.3.1/../../../../pic32c/lib/thumb/v6-m/nofp\libg-musl.a(putchar.o)
                              build/SAMD21_IOT_WG_ICM42688/debug/_ext/1360937237/main.o (putchar)
c:/program files/microchip/xc32/v4.60/bin/bin/../../lib/gcc/pic32c/8.3.1/../../../../pic32c/lib/thumb/v6-m/nofp\libg-musl.a(puts.o)
                              build/SAMD21_IOT_WG_ICM42688/debug/_ext/1360937237/main.o (puts)
c:/program files/microchip/xc32/v4.60/bin/bin/../../lib/gcc/pic32c/8.3.1/../../../../pic32c/lib/thumb/v6-m/nofp\libg-musl.a(setbuf.o)
                              build/SAMD21_IOT_WG_ICM42688/debug/_ext/1832905403/initialization.o (setbuf)
c:/program files/microchip/xc32/v4.60/bin/bin/../../lib/gcc/pic32c/8.3.1/../../../../pic32c/lib/thumb/v6-m/nofp\libg-musl.a(atoi.o)
                              c:/program files/microchip/xc32/v4.60/bin/bin/../../lib/gcc/pic32c/8.3.1/../../../../pic32c/lib/thumb/v6-m/nofp\libg-musl.a(__printf_core.o) (atoi)
c:/program files/microchip/xc32/v4.60/bin/bin/../../lib/gcc/pic32c/8.3.1/../../../../pic32c/lib/thumb/v6-m/nofp\libg-musl.a(gmtime.o)
                              build/SAMD21_IOT_WG_ICM42688/debug/_ext/907429946/wdrv_winc_systime.o (gmtime)
c:/program files/microchip/xc32/v4.60/bin/bin/../../lib/gcc/pic32c/8.3.1/../../../../pic32c/lib/thumb/v6-m/nofp\libg-musl.a(gmtime_r.o)
                              c:/program files/microchip/xc32/v4.60/bin/bin/../../lib/gcc/pic32c/8.3.1/../../../../pic32c/lib/thumb/v6-m/nofp\libg-musl.a(gmtime.o) (__gmtime_r)
c:/program files/microchip/xc32/v4.60/bin/bin/../../lib/gcc/pic32c/8.3.1/../../../../pic32c/lib/thumb/v6-m/nofp\libg-musl.a(mktime.o)
                              build/SAMD21_IOT_WG_ICM42688/debug/_ext/907429946/wdrv_winc_systime.o (mktime)
c:/program files/microchip/xc32/v4.60/bin/bin/../../lib/gcc/pic32c/8.3.1/../../../../pic32c/lib/thumb/v6-m/nofp\libg-musl.a(tolower.o)
                              c:/program files/microchip/xc32/v4.60/bin/bin/../../lib/gcc/pic32c/8.3.1/../../../../pic32c/lib/thumb/v6-m/nofp\libg-musl.a(__fmt_fp.o) (tolower)
c:/program files/microchip/xc32/v4.60/bin/bin/../../lib/gcc/pic32c/8.3.1/../../../../pic32c/lib/thumb/v6-m/nofp\libg-musl.a(toupper.o)
                              c:/program files/microchip/xc32/v4.60/bin/bin/../../lib/gcc/pic32c/8.3.1/../../../../pic32c/lib/thumb/v6-m/nofp\libg-musl.a(__fmt_x.o) (toupper)
c:/program files/microchip/xc32/v4.60/bin/bin/../../lib/gcc/pic32c/8.3.1/../../../../pic32c/lib/thumb/v6-m/nofp\libg-musl.a(__environ.o)
                              c:/program files/microchip/xc32/v4.60/bin/bin/../../lib/gcc/pic32c/8.3.1/../../../../pic32c/lib/thumb/v6-m/nofp\libg-musl.a(__libc_start_main.o) (__environ)
c:/program files/microchip/xc32/v4.60/bin/bin/../../lib/gcc/pic32c/8.3.1/../../../../pic32c/lib/thumb/v6-m/nofp\libg-musl.a(__int_vfprintf.o)
                              c:/program files/microchip/xc32/v4.60/bin/bin/../../lib/gcc/pic32c/8.3.1/../../../../pic32c/lib/thumb/v6-m/nofp\libg-musl.a(__sio_printf_cdeEfFgGnpsuxX.o) (__vfprintf)
c:/program files/microchip/xc32/v4.60/bin/bin/../../lib/gcc/pic32c/8.3.1/../../../../pic32c/lib/thumb/v6-m/nofp\libg-musl.a(__int_vsprintf.o)
                              c:/program files/microchip/xc32/v4.60/bin/bin/../../lib/gcc/pic32c/8.3.1/../../../../pic32c/lib/thumb/v6-m/nofp\libg-musl.a(__sio_sprintf_cdeEfFgGnpsuxX.o) (__vsprintf)
c:/program files/microchip/xc32/v4.60/bin/bin/../../lib/gcc/pic32c/8.3.1/../../../../pic32c/lib/thumb/v6-m/nofp\libg-musl.a(fputs.o)
                              c:/program files/microchip/xc32/v4.60/bin/bin/../../lib/gcc/pic32c/8.3.1/../../../../pic32c/lib/thumb/v6-m/nofp\libg-musl.a(puts.o) (fputs)
c:/program files/microchip/xc32/v4.60/bin/bin/../../lib/gcc/pic32c/8.3.1/../../../../pic32c/lib/thumb/v6-m/nofp\libg-musl.a(__cvt_u.o)
                              c:/program files/microchip/xc32/v4.60/bin/bin/../../lib/gcc/pic32c/8.3.1/../../../../pic32c/lib/thumb/v6-m/nofp\libg-musl.a(__fmt_d.o) (__cvt_u)
c:/program files/microchip/xc32/v4.60/bin/bin/../../lib/gcc/pic32c/8.3.1/../../../../pic32c/lib/thumb/v6-m/nofp\libg-musl.a(__io_init_needed.o)
                              c:/program files/microchip/xc32/v4.60/bin/bin/../../lib/gcc/pic32c/8.3.1/../../../../pic32c/lib/thumb/v6-m/nofp\libg-musl.a(stdout.o) (__io_init_needed)
c:/program files/microchip/xc32/v4.60/bin/bin/../../lib/gcc/pic32c/8.3.1/../../../../pic32c/lib/thumb/v6-m/nofp\libg-musl.a(__io_rw_needed.o)
                              c:/program files/microchip/xc32/v4.60/bin/bin/../../lib/gcc/pic32c/8.3.1/../../../../pic32c/lib/thumb/v6-m/nofp\libg-musl.a(stdin.o) (__io_rw_needed)
c:/program files/microchip/xc32/v4.60/bin/bin/../../lib/gcc/pic32c/8.3.1/../../../../pic32c/lib/thumb/v6-m/nofp\libg-musl.a(__stdio_read.o)
                              c:/program files/microchip/xc32/v4.60/bin/bin/../../lib/gcc/pic32c/8.3.1/../../../../pic32c/lib/thumb/v6-m/nofp\libg-musl.a(stdin.o) (__stdio_read)
c:/program files/microchip/xc32/v4.60/bin/bin/../../lib/gcc/pic32c/8.3.1/../../../../pic32c/lib/thumb/v6-m/nofp\libg-musl.a(__towrite_rw.o)
                              c:/program files/microchip/xc32/v4.60/bin/bin/../../lib/gcc/pic32c/8.3.1/../../../../pic32c/lib/thumb/v6-m/nofp\libg-musl.a(__io_rw_needed.o) (__towrite_rw_needed)
c:/program files/microchip/xc32/v4.60/bin/bin/../../lib/gcc/pic32c/8.3.1/../../../../pic32c/lib/thumb/v6-m/nofp\libg-musl.a(fwrite.o)
                              c:/program files/microchip/xc32/v4.60/bin/bin/../../lib/gcc/pic32c/8.3.1/../../../../pic32c/lib/thumb/v6-m/nofp\libg-musl.a(fputs.o) (fwrite)
c:/program files/microchip/xc32/v4.60/bin/bin/../../lib/gcc/pic32c/8.3.1/../../../../pic32c/lib/thumb/v6-m/nofp\libg-musl.a(putc.o)
                              c:/program files/microchip/xc32/v4.60/bin/bin/../../lib/gcc/pic32c/8.3.1/../../../../pic32c/lib/thumb/v6-m/nofp\libg-musl.a(putchar.o) (fputc)
c:/program files/microchip/xc32/v4.60/bin/bin/../../lib/gcc/pic32c/8.3.1/../../../../pic32c/lib/thumb/v6-m/nofp\libg-musl.a(setvbuf.o)
                              c:/program files/microchip/xc32/v4.60/bin/bin/../../lib/gcc/pic32c/8.3.1/../../../../pic32c/lib/thumb/v6-m/nofp\libg-musl.a(setbuf.o) (setvbuf)
c:/program files/microchip/xc32/v4.60/bin/bin/../../lib/gcc/pic32c/8.3.1/../../../../pic32c/lib/thumb/v6-m/nofp\libg-musl.a(__tm_to_secs.o)
                              c:/program files/microchip/xc32/v4.60/bin/bin/../../lib/gcc/pic32c/8.3.1/../../../../pic32c/lib/thumb/v6-m/nofp\libg-musl.a(mktime.o) (__tm_to_secs)
c:/program files/microchip/xc32/v4.60/bin/bin/../../lib/gcc/pic32c/8.3.1/../../../../pic32c/lib/thumb/v6-m/nofp\libg-musl.a(__year_to_secs.o)
                              c:/program files/microchip/xc32/v4.60/bin/bin/../../lib/gcc/pic32c/8.3.1/../../../../pic32c/lib/thumb/v6-m/nofp\libg-musl.a(__tm_to_secs.o) (__year_to_secs)
c:/program files/microchip/xc32/v4.60/bin/bin/../../lib/gcc/pic32c/8.3.1/../../../../pic32c/lib/thumb/v6-m/nofp\libg-musl.a(__secs_to_tm.o)
                              c:/program files/microchip/xc32/v4.60/bin/bin/../../lib/gcc/pic32c/8.3.1/../../../../pic32c/lib/thumb/v6-m/nofp\libg-musl.a(gmtime_r.o) (__secs_to_tm)
c:/program files/microchip/xc32/v4.60/bin/bin/../../lib/gcc/pic32c/8.3.1/../../../../pic32c/lib/thumb/v6-m/nofp\libg-musl.a(readv.o)
                              c:/program files/microchip/xc32/v4.60/bin/bin/../../lib/gcc/pic32c/8.3.1/../../../../pic32c/lib/thumb/v6-m/nofp\libg-musl.a(__stdio_read.o) (readv)
c:/program files/microchip/xc32/v4.60/bin/bin/../../lib/gcc/pic32c/8.3.1/../../../../pic32c/lib/thumb/v6-m/nofp\libg-musl.a(__int_vsnprintf.o)
                              c:/program files/microchip/xc32/v4.60/bin/bin/../../lib/gcc/pic32c/8.3.1/../../../../pic32c/lib/thumb/v6-m/nofp\libg-musl.a(__int_vsprintf.o) (__vsnprintf)
c:/program files/microchip/xc32/v4.60/bin/bin/../../lib/gcc/pic32c/8.3.1/../../../../pic32c/lib/thumb/v6-m/nofp\libg-musl.a(__fopen_rw.o)
                              c:/program files/microchip/xc32/v4.60/bin/bin/../../lib/gcc/pic32c/8.3.1/../../../../pic32c/lib/thumb/v6-m/nofp\libg-musl.a(__io_rw_needed.o) (__fopen_rw_needed)
c:/program files/microchip/xc32/v4.60/bin/bin/../../lib/gcc/pic32c/8.3.1/../../../../pic32c/lib/thumb/v6-m/nofp\libg-musl.a(__ftello_rw.o)
                              c:/program files/microchip/xc32/v4.60/bin/bin/../../lib/gcc/pic32c/8.3.1/../../../../pic32c/lib/thumb/v6-m/nofp\libg-musl.a(__io_rw_needed.o) (__ftello_adj_rw_needed)
c:/program files/microchip/xc32/v4.60/bin/bin/../../lib/gcc/pic32c/8.3.1/../../../../pic32c/lib/thumb/v6-m/nofp\libg-musl.a(__init_stdio.o)
                              c:/program files/microchip/xc32/v4.60/bin/bin/../../lib/gcc/pic32c/8.3.1/../../../../pic32c/lib/thumb/v6-m/nofp\libg-musl.a(__io_init_needed.o) (__init_stdio_needed)
c:/program files/microchip/xc32/v4.60/bin/bin/../../lib/gcc/pic32c/8.3.1/../../../../pic32c/lib/thumb/v6-m/nofp\libg-musl.a(__io_buf_needed.o)
                              c:/program files/microchip/xc32/v4.60/bin/bin/../../lib/gcc/pic32c/8.3.1/../../../../pic32c/lib/thumb/v6-m/nofp\libg-musl.a(__io_rw_needed.o) (__io_buf_needed)
c:/program files/microchip/xc32/v4.60/bin/bin/../../lib/gcc/pic32c/8.3.1/../../../../pic32c/lib/thumb/v6-m/nofp\libg-musl.a(__io_file_needed.o)
                              c:/program files/microchip/xc32/v4.60/bin/bin/../../lib/gcc/pic32c/8.3.1/../../../../pic32c/lib/thumb/v6-m/nofp\libg-musl.a(__io_init_needed.o) (__io_file_needed)
c:/program files/microchip/xc32/v4.60/bin/bin/../../lib/gcc/pic32c/8.3.1/../../../../pic32c/lib/thumb/v6-m/nofp\libg-musl.a(__io_std_needed.o)
                              c:/program files/microchip/xc32/v4.60/bin/bin/../../lib/gcc/pic32c/8.3.1/../../../../pic32c/lib/thumb/v6-m/nofp\libg-musl.a(__io_buf_needed.o) (__io_std_needed)
c:/program files/microchip/xc32/v4.60/bin/bin/../../lib/gcc/pic32c/8.3.1/../../../../pic32c/lib/thumb/v6-m/nofp\libg-musl.a(__out.o)
                              c:/program files/microchip/xc32/v4.60/bin/bin/../../lib/gcc/pic32c/8.3.1/../../../../pic32c/lib/thumb/v6-m/nofp\libg-musl.a(__fopen_rw.o) (__stdio_write_unbuffered)
c:/program files/microchip/xc32/v4.60/bin/bin/../../lib/gcc/pic32c/8.3.1/../../../../pic32c/lib/thumb/v6-m/nofp\libg-musl.a(__putc.o)
                              c:/program files/microchip/xc32/v4.60/bin/bin/../../lib/gcc/pic32c/8.3.1/../../../../pic32c/lib/thumb/v6-m/nofp\libg-musl.a(__io_buf_needed.o) (__putc_needed)
c:/program files/microchip/xc32/v4.60/bin/bin/../../lib/gcc/pic32c/8.3.1/../../../../pic32c/lib/thumb/v6-m/nofp\libg-musl.a(__stderr.o)
                              c:/program files/microchip/xc32/v4.60/bin/bin/../../lib/gcc/pic32c/8.3.1/../../../../pic32c/lib/thumb/v6-m/nofp\libg-musl.a(__io_std_needed.o) (__init_stderr_needed)
c:/program files/microchip/xc32/v4.60/bin/bin/../../lib/gcc/pic32c/8.3.1/../../../../pic32c/lib/thumb/v6-m/nofp\libg-musl.a(__stdio_close.o)
                              c:/program files/microchip/xc32/v4.60/bin/bin/../../lib/gcc/pic32c/8.3.1/../../../../pic32c/lib/thumb/v6-m/nofp\libg-musl.a(__fopen_rw.o) (__stdio_close_rw)
c:/program files/microchip/xc32/v4.60/bin/bin/../../lib/gcc/pic32c/8.3.1/../../../../pic32c/lib/thumb/v6-m/nofp\libg-musl.a(__stdio_exit.o)
                              c:/program files/microchip/xc32/v4.60/bin/bin/../../lib/gcc/pic32c/8.3.1/../../../../pic32c/lib/thumb/v6-m/nofp\libg-musl.a(__io_buf_needed.o) (__stdio_exit_needed)
c:/program files/microchip/xc32/v4.60/bin/bin/../../lib/gcc/pic32c/8.3.1/../../../../pic32c/lib/thumb/v6-m/nofp\libg-musl.a(__stdio_write.o)
                              c:/program files/microchip/xc32/v4.60/bin/bin/../../lib/gcc/pic32c/8.3.1/../../../../pic32c/lib/thumb/v6-m/nofp\libg-musl.a(setvbuf.o) (__stdio_write_buffered)
c:/program files/microchip/xc32/v4.60/bin/bin/../../lib/gcc/pic32c/8.3.1/../../../../pic32c/lib/thumb/v6-m/nofp\libg-musl.a(__stdout.o)
                              c:/program files/microchip/xc32/v4.60/bin/bin/../../lib/gcc/pic32c/8.3.1/../../../../pic32c/lib/thumb/v6-m/nofp\libg-musl.a(__io_std_needed.o) (__init_stdout_needed)
c:/program files/microchip/xc32/v4.60/bin/bin/../../lib/gcc/pic32c/8.3.1/../../../../pic32c/lib/thumb/v6-m/nofp\libg-musl.a(__towrite.o)
                              c:/program files/microchip/xc32/v4.60/bin/bin/../../lib/gcc/pic32c/8.3.1/../../../../pic32c/lib/thumb/v6-m/nofp\libg-musl.a(__stdio_write.o) (__towrite)
c:/program files/microchip/xc32/v4.60/bin/bin/../../lib/gcc/pic32c/8.3.1/../../../../pic32c/lib/thumb/v6-m/nofp\libg-musl.a(__month_to_secs.o)
                              c:/program files/microchip/xc32/v4.60/bin/bin/../../lib/gcc/pic32c/8.3.1/../../../../pic32c/lib/thumb/v6-m/nofp\libg-musl.a(__tm_to_secs.o) (__month_to_secs)
c:/program files/microchip/xc32/v4.60/bin/bin/../../lib/gcc/pic32c/8.3.1/../../../../pic32c/lib/thumb/v6-m/nofp\libg-musl.a(writev.o)
                              c:/program files/microchip/xc32/v4.60/bin/bin/../../lib/gcc/pic32c/8.3.1/../../../../pic32c/lib/thumb/v6-m/nofp\libg-musl.a(__stdio_write.o) (writev)
c:/program files/microchip/xc32/v4.60/bin/bin/../../lib/gcc/pic32c/8.3.1/../../../../pic32c/lib/thumb/v6-m/nofp\libg-musl.a(__overflow.o)
                              c:/program files/microchip/xc32/v4.60/bin/bin/../../lib/gcc/pic32c/8.3.1/../../../../pic32c/lib/thumb/v6-m/nofp\libg-musl.a(__putc.o) (__overflow)
c:/program files/microchip/xc32/v4.60/bin/bin/../../lib/gcc/pic32c/8.3.1/../../../../pic32c/lib/thumb/v6-m/nofp\libg-musl.a(__fclose.o)
                              c:/program files/microchip/xc32/v4.60/bin/bin/../../lib/gcc/pic32c/8.3.1/../../../../pic32c/lib/thumb/v6-m/nofp\libg-musl.a(__io_buf_needed.o) (__fclose_needed)
c:/program files/microchip/xc32/v4.60/bin/bin/../../lib/gcc/pic32c/8.3.1/../../../../pic32c/lib/thumb/v6-m/nofp\libg-musl.a(__fopen.o)
                              c:/program files/microchip/xc32/v4.60/bin/bin/../../lib/gcc/pic32c/8.3.1/../../../../pic32c/lib/thumb/v6-m/nofp\libg-musl.a(__io_std_needed.o) (__fopen_needed)
c:/program files/microchip/xc32/v4.60/bin/bin/../../lib/gcc/pic32c/8.3.1/../../../../pic32c/lib/thumb/v6-m/nofp\libg-musl.a(__fseeko.o)
                              c:/program files/microchip/xc32/v4.60/bin/bin/../../lib/gcc/pic32c/8.3.1/../../../../pic32c/lib/thumb/v6-m/nofp\libg-musl.a(__io_buf_needed.o) (__fseeko_needed)
c:/program files/microchip/xc32/v4.60/bin/bin/../../lib/gcc/pic32c/8.3.1/../../../../pic32c/lib/thumb/v6-m/nofp\libg-musl.a(__ftello.o)
                              c:/program files/microchip/xc32/v4.60/bin/bin/../../lib/gcc/pic32c/8.3.1/../../../../pic32c/lib/thumb/v6-m/nofp\libg-musl.a(__io_buf_needed.o) (__ftello_adj_needed)
c:/program files/microchip/xc32/v4.60/bin/bin/../../lib/gcc/pic32c/8.3.1/../../../../pic32c/lib/thumb/v6-m/nofp\libg-musl.a(__fwrite.o)
                              c:/program files/microchip/xc32/v4.60/bin/bin/../../lib/gcc/pic32c/8.3.1/../../../../pic32c/lib/thumb/v6-m/nofp\libg-musl.a(__io_std_needed.o) (__fwrite_needed)
c:/program files/microchip/xc32/v4.60/bin/bin/../../lib/gcc/pic32c/8.3.1/../../../../pic32c/lib/thumb/v6-m/nofp\libm-fast-emfloat.a(fma.o)
                              c:/program files/microchip/xc32/v4.60/bin/bin/../../lib/gcc/pic32c/8.3.1/../../../../pic32c/lib/thumb/v6-m/nofp\libg-musl.a(__fmt_fp.o) (fma)
c:/program files/microchip/xc32/v4.60/bin/bin/../../lib/gcc/pic32c/8.3.1/../../../../pic32c/lib/thumb/v6-m/nofp\libm-fast-emfloat.a(floor.o)
                              c:/program files/microchip/xc32/v4.60/bin/bin/../../lib/gcc/pic32c/8.3.1/../../../../pic32c/lib/thumb/v6-m/nofp\libg-musl.a(__fmt_fp.o) (floor)
c:/program files/microchip/xc32/v4.60/bin/bin/../../lib/gcc/pic32c/8.3.1/../../../../pic32c/lib/thumb/v6-m/nofp\libm-fast-emfloat.a(__aeabi_dcmple.o)
                              c:/program files/microchip/xc32/v4.60/bin/bin/../../lib/gcc/pic32c/8.3.1/../../../../pic32c/lib/thumb/v6-m/nofp\libg-musl.a(__fmt_fp.o) (__aeabi_dcmple)
c:/program files/microchip/xc32/v4.60/bin/bin/../../lib/gcc/pic32c/8.3.1/thumb/v6-m/nofp\libgcc.a(_udivsi3.o)
                              build/SAMD21_IOT_WG_ICM42688/debug/_ext/548032175/inet_ntop.o (__aeabi_uidiv)
c:/program files/microchip/xc32/v4.60/bin/bin/../../lib/gcc/pic32c/8.3.1/thumb/v6-m/nofp\libgcc.a(_divsi3.o)
                              build/SAMD21_IOT_WG_ICM42688/debug/_ext/1341251756/Icm426xxSelfTest.o (__aeabi_idiv)
c:/program files/microchip/xc32/v4.60/bin/bin/../../lib/gcc/pic32c/8.3.1/thumb/v6-m/nofp\libgcc.a(_dvmd_tls.o)
                              c:/program files/microchip/xc32/v4.60/bin/bin/../../lib/gcc/pic32c/8.3.1/thumb/v6-m/nofp\libgcc.a(_udivsi3.o) (__aeabi_idiv0)
c:/program files/microchip/xc32/v4.60/bin/bin/../../lib/gcc/pic32c/8.3.1/thumb/v6-m/nofp\libgcc.a(_aeabi_ldivmod.o)
                              build/SAMD21_IOT_WG_ICM42688/debug/_ext/336238826/stat_moment.o (__aeabi_ldivmod)
c:/program files/microchip/xc32/v4.60/bin/bin/../../lib/gcc/pic32c/8.3.1/thumb/v6-m/nofp\libgcc.a(_aeabi_uldivmod.o)
                              build/SAMD21_IOT_WG_ICM42688/debug/_ext/177673482/plib_sercom5_usart.o (__aeabi_uldivmod)
c:/program files/microchip/xc32/v4.60/bin/bin/../../lib/gcc/pic32c/8.3.1/thumb/v6-m/nofp\libgcc.a(_muldi3.o)
                              build/SAMD21_IOT_WG_ICM42688/debug/_ext/177673482/plib_sercom5_usart.o (__aeabi_lmul)
c:/program files/microchip/xc32/v4.60/bin/bin/../../lib/gcc/pic32c/8.3.1/thumb/v6-m/nofp\libgcc.a(_udivmoddi4.o)
                              c:/program files/microchip/xc32/v4.60/bin/bin/../../lib/gcc/pic32c/8.3.1/thumb/v6-m/nofp\libgcc.a(_aeabi_uldivmod.o) (__udivmoddi4)
c:/program files/microchip/xc32/v4.60/bin/bin/../../lib/gcc/pic32c/8.3.1/thumb/v6-m/nofp\libgcc.a(bpabi.o)
                              c:/program files/microchip/xc32/v4.60/bin/bin/../../lib/gcc/pic32c/8.3.1/thumb/v6-m/nofp\libgcc.a(_aeabi_ldivmod.o) (__gnu_ldivmod_helper)
c:/program files/microchip/xc32/v4.60/bin/bin/../../lib/gcc/pic32c/8.3.1/thumb/v6-m/nofp\libgcc.a(_lshrdi3.o)
                              c:/program files/microchip/xc32/v4.60/bin/bin/../../lib/gcc/pic32c/8.3.1/thumb/v6-m/nofp\libgcc.a(_udivmoddi4.o) (__aeabi_llsr)
c:/program files/microchip/xc32/v4.60/bin/bin/../../lib/gcc/pic32c/8.3.1/thumb/v6-m/nofp\libgcc.a(_ashldi3.o)
                              c:/program files/microchip/xc32/v4.60/bin/bin/../../lib/gcc/pic32c/8.3.1/thumb/v6-m/nofp\libgcc.a(_udivmoddi4.o) (__aeabi_llsl)
c:/program files/microchip/xc32/v4.60/bin/bin/../../lib/gcc/pic32c/8.3.1/thumb/v6-m/nofp\libgcc.a(_clzdi2.o)
                              c:/program files/microchip/xc32/v4.60/bin/bin/../../lib/gcc/pic32c/8.3.1/thumb/v6-m/nofp\libgcc.a(_udivmoddi4.o) (__clzdi2)
c:/program files/microchip/xc32/v4.60/bin/bin/../../lib/gcc/pic32c/8.3.1/thumb/v6-m/nofp\libgcc.a(_divdi3.o)
                              c:/program files/microchip/xc32/v4.60/bin/bin/../../lib/gcc/pic32c/8.3.1/thumb/v6-m/nofp\libgcc.a(bpabi.o) (__divdi3)
c:/program files/microchip/xc32/v4.60/bin/bin/../../lib/gcc/pic32c/8.3.1/thumb/v6-m/nofp\libgcc.a(_clzsi2.o)
                              c:/program files/microchip/xc32/v4.60/bin/bin/../../lib/gcc/pic32c/8.3.1/thumb/v6-m/nofp\libgcc.a(_clzdi2.o) (__clzsi2)
c:/program files/microchip/xc32/v4.60/bin/bin/../../lib/gcc/pic32c/8.3.1/../../../../pic32c/lib/thumb/v6-m/nofp\libpic32c.a(close.o)
                              c:/program files/microchip/xc32/v4.60/bin/bin/../../lib/gcc/pic32c/8.3.1/../../../../pic32c/lib/thumb/v6-m/nofp\libg-musl.a(__stdio_close.o) (close)
c:/program files/microchip/xc32/v4.60/bin/bin/../../lib/gcc/pic32c/8.3.1/../../../../pic32c/lib/thumb/v6-m/nofp\libpic32c.a(lseek.o)
                              c:/program files/microchip/xc32/v4.60/bin/bin/../../lib/gcc/pic32c/8.3.1/../../../../pic32c/lib/thumb/v6-m/nofp\libg-musl.a(__stdio_close.o) (lseek)
c:/program files/microchip/xc32/v4.60/bin/bin/../../lib/gcc/pic32c/8.3.1/../../../../pic32c/lib/thumb/v6-m/nofp\libpic32c.a(sbrk.o)
                              c:/program files/microchip/xc32/v4.60/bin/bin/../../lib/gcc/pic32c/8.3.1/../../../../pic32c/lib/thumb/v6-m/nofp\liblmalloc-musl.a(lite_malloc.o) (_get_heap_left_space)
c:/program files/microchip/xc32/v4.60/bin/bin/../../lib/gcc/pic32c/8.3.1/../../../../pic32c/lib/thumb/v6-m/nofp\libc-size-musl.a(strcpy.o)
                              c:/program files/microchip/xc32/v4.60/bin/bin/../../lib/gcc/pic32c/8.3.1/../../../../pic32c/lib/thumb/v6-m/nofp\libg-musl.a(__fmt_fp.o) (strcpy)
c:/program files/microchip/xc32/v4.60/bin/bin/../../lib/gcc/pic32c/8.3.1/../../../../pic32c/lib/thumb/v6-m/nofp\libc-size-musl.a(stpcpy.o)
                              c:/program files/microchip/xc32/v4.60/bin/bin/../../lib/gcc/pic32c/8.3.1/../../../../pic32c/lib/thumb/v6-m/nofp\libc-size-musl.a(strcpy.o) (__stpcpy)
c:/program files/microchip/xc32/v4.60/bin/bin/../../lib/gcc/pic32c/8.3.1/../../../../pic32c/lib/thumb/v6-m/nofp\libpic32c.a(pic32_data_init_clear.o)
                              (__dinit_clear_needed)
c:/program files/microchip/xc32/v4.60/bin/bin/../../lib/gcc/pic32c/8.3.1/../../../../pic32c/lib/thumb/v6-m/nofp\libpic32c.a(pic32_data_init_copy.o)
                              (__dinit_copy_needed)

Microchip PIC32 Memory-Usage Report

ROM Program-Memory Usage
section                    address  length [bytes]      (dec)  Description
-------                 ----------  -------------------------  -----------
.vectors                         0           0xb0         176   
.text                         0xb0           0x20          32  App's exec code 
.ARM.exidx                    0xd0           0x10          16   
.text                         0xe0         0x34e0       13536  App's exec code 
.text                       0x35c0         0x2778       10104  App's exec code 
.text                       0x5d38         0x1d28        7464  App's exec code 
.text                       0x7a60         0x1b58        7000  App's exec code 
.text                       0x95b8         0x1660        5728  App's exec code 
.text                       0xac18         0x15ec        5612  App's exec code 
.text                       0xc204         0x14c4        5316  App's exec code 
.text                       0xd6c8         0x12ec        4844  App's exec code 
.text                       0xe9b4          0xdb0        3504  App's exec code 
.text                       0xf764          0xd5c        3420  App's exec code 
.text                      0x104c0          0xcb8        3256  App's exec code 
.text                      0x11178          0xb44        2884  App's exec code 
.text                      0x11cbc          0x9f8        2552  App's exec code 
.text                      0x126b4          0x894        2196  App's exec code 
.text                      0x12f48          0x866        2150  App's exec code 
.text                      0x137ae            0x2           2  App's exec code 
.text                      0x137b0          0x7f0        2032  App's exec code 
.text                      0x13fa0          0x714        1812  App's exec code 
.text                      0x146b4          0x6ec        1772  App's exec code 
.text                      0x14da0          0x6dc        1756  App's exec code 
.text                      0x1547c          0x644        1604  App's exec code 
.text                      0x15ac0          0x608        1544  App's exec code 
.text                      0x160c8          0x5bc        1468  App's exec code 
.text.__fmt_fp             0x16684          0x4c0        1216   
.text                      0x16b44          0x480        1152  App's exec code 
.dinit                     0x16fc4          0x480        1152   
.text                      0x17444          0x3f8        1016  App's exec code 
.text                      0x1783c          0x3e4         996  App's exec code 
.text                      0x17c20          0x38c         908  App's exec code 
.text                      0x17fac          0x384         900  App's exec code 
.text                      0x18330          0x384         900  App's exec code 
.text                      0x186b4          0x378         888  App's exec code 
.text.__printf_core        0x18a2c          0x33c         828   
.text                      0x18d68          0x2e4         740  App's exec code 
.text                      0x1904c          0x2e0         736  App's exec code 
.text                      0x1932c          0x2e0         736  App's exec code 
.text                      0x1960c          0x2dc         732  App's exec code 
.text                      0x198e8          0x2bc         700  App's exec code 
.text                      0x19ba4          0x276         630  App's exec code 
.text                      0x19e1a            0x2           2  App's exec code 
.text                      0x19e1c          0x268         616  App's exec code 
.text                      0x1a084          0x264         612  App's exec code 
.text                      0x1a2e8          0x240         576  App's exec code 
.text                      0x1a528          0x210         528  App's exec code 
.text                      0x1a738          0x1f8         504  App's exec code 
.rodata                    0x1a930          0x1dc         476  Read-only const 
.text.__secs_to_tm         0x1ab0c          0x1dc         476   
.text.__aeabi_dadd         0x1ace8          0x1c8         456   
.text                      0x1aeb0          0x1b4         436  App's exec code 
.text.__aeabi_dmul_aux     0x1b064          0x18a         394   
.text.__dummy_init_tls     0x1b1ee            0x2           2   
.rodata                    0x1b1f0          0x184         388  Read-only const 
.text                      0x1b374          0x170         368  App's exec code 
.text                      0x1b4e4          0x16c         364  App's exec code 
.text                      0x1b650          0x14c         332  App's exec code 
.text                      0x1b79c          0x13c         316  App's exec code 
.text.__aeabi_fadd         0x1b8d8          0x13a         314   
.text.__dummy              0x1ba12            0x2           2   
.rodata                    0x1ba14          0x134         308  Read-only const 
.text.__fmt_x              0x1bb48          0x132         306   
.text                      0x1bc7a          0x130         304  App's exec code 
.text                      0x1bdaa          0x128         296  App's exec code 
.text                      0x1bed2          0x11e         286  App's exec code 
.text                      0x1bff0          0x114         276  App's exec code 
.text.__year_to_secs       0x1c104          0x100         256   
.text                      0x1c204           0xe2         226  App's exec code 
.text.__dummy              0x1c2e6            0x2           2   
.rodata                    0x1c2e8           0xd4         212  Read-only const 
.rodata                    0x1c3bc           0xcc         204  Read-only const 
.text                      0x1c488           0xc4         196  App's exec code 
.text.__aeabi_ddiv         0x1c54c           0xc4         196   
.text.__pop_int            0x1c610           0xbe         190   
.text.__dummy              0x1c6ce            0x2           2   
.text                      0x1c6d0           0xb8         184  App's exec code 
.text.__aeabi_fmul         0x1c788           0xb6         182   
.text.floor                0x1c840           0xb4         180   
.text.__fmt_d              0x1c8f4           0xb2         178   
.text                      0x1c9a6           0xaa         170  App's exec code 
.text                      0x1ca50           0xa8         168  App's exec code 
.rodata                    0x1caf8           0xa8         168  Read-only const 
.text                      0x1cba0           0xa8         168  App's exec code 
.text.__tm_to_secs         0x1cc48           0xa0         160   
.text                      0x1cce8           0x9e         158  App's exec code 
.text                      0x1cd86           0x98         152  App's exec code 
.text.__aeabi_fdiv         0x1ce1e           0x94         148   
.text                      0x1ceb4           0x8c         140  App's exec code 
.text                      0x1cf40           0x86         134  App's exec code 
.text                      0x1cfc6           0x86         134  App's exec code 
.text                      0x1d04c           0x84         132  App's exec code 
.text.__write_buffered     0x1d0d0           0x82         130   
.text                      0x1d152           0x80         128  App's exec code 
.text.__simple_search_f    0x1d1d4           0x80         128   
.text.__stdio_write_buf    0x1d254           0x7c         124   
.text                      0x1d2d0           0x7a         122  App's exec code 
.text.__pad                0x1d34a           0x7a         122   
.text.__cvt_u              0x1d3c4           0x76         118   
.text                      0x1d43c           0x74         116  App's exec code 
.text                      0x1d4b0           0x6e         110  App's exec code 
.text                      0x1d51e           0x68         104  App's exec code 
.text.__pop_ptr            0x1d586           0x68         104   
.text.__simple_malloc      0x1d5f0           0x64         100   
.text.__stdio_read         0x1d654           0x64         100   
.text.__aeabi_d2f          0x1d6b8           0x62          98   
.text                      0x1d71c           0x60          96  App's exec code 
.text.__strchrnul          0x1d77c           0x60          96   
.text                      0x1d7dc           0x5e          94  App's exec code 
.text                      0x1d83a           0x5c          92  App's exec code 
.text.__libc_start_init    0x1d898           0x5c          92   
.text.__stdio_close_rw     0x1d8f4           0x5c          92   
.rodata                    0x1d950           0x58          88  Read-only const 
.text.__fmt_u              0x1d9a8           0x56          86   
.text                      0x1d9fe           0x52          82  App's exec code 
.text                      0x1da50           0x50          80  App's exec code 
.text.__fmt_s              0x1daa0           0x50          80   
.text.setvbuf              0x1daf0           0x50          80   
.text.__vsnprintf          0x1db40           0x50          80   
.text._sbrk                0x1db90           0x50          80   
.text.__overflow           0x1dbe0           0x4e          78   
.text                      0x1dc30           0x4c          76  App's exec code 
.text                      0x1dc7c           0x48          72  App's exec code 
.text.Reset_Handler        0x1dcc4           0x48          72   
.text.mktime               0x1dd0c           0x48          72   
.text                      0x1dd54           0x48          72  App's exec code 
.text                      0x1dd9c           0x44          68  App's exec code 
.text.__aeabi_f2d          0x1dde0           0x44          68   
.text.__aeabi_dcmple       0x1de24           0x44          68   
.text                      0x1de68           0x44          68  App's exec code 
.text                      0x1deac           0x42          66  App's exec code 
.text                      0x1def0           0x40          64  App's exec code 
.text.__simple_free        0x1df30           0x40          64   
.text.atoi                 0x1df70           0x40          64   
.text                      0x1dfb0           0x40          64  App's exec code 
.text.__aeabi_dcmpgt       0x1dff0           0x3e          62   
.text.__aeabi_dcmplt       0x1e02e           0x3e          62   
.text.__aeabi_f2iz         0x1e06c           0x3e          62   
.text.__out                0x1e0aa           0x3c          60   
.text.__putc               0x1e0e6           0x3c          60   
.text                      0x1e124           0x3c          60  App's exec code 
.text                      0x1e160           0x38          56  App's exec code 
.text.__pic32c_data_ini    0x1e198           0x38          56   
.text.__putc_unbuffered    0x1e1d0           0x36          54   
.text.__aeabi_d2iz         0x1e206           0x34          52   
.text.__fmt_state          0x1e23c           0x34          52   
.text.__gmtime_r           0x1e270           0x34          52   
.text                      0x1e2a4           0x34          52  App's exec code 
.text._sbrk_init           0x1e2d8           0x34          52   
.text.__aeabi_ul2f         0x1e30c           0x30          48   
.rodata                    0x1e33c           0x30          48  Read-only const 
.text.__aeabi_dcmpeq       0x1e36c           0x2e          46   
.text.__aeabi_fcmpgt       0x1e39a           0x2e          46   
.text.__aeabi_fcmplt       0x1e3c8           0x2e          46   
.text.__aeabi_d2uiz        0x1e3f6           0x2e          46   
.text.fwrite               0x1e424           0x2e          46   
.text                      0x1e452           0x2a          42  App's exec code 
.text                      0x1e47c           0x2a          42  App's exec code 
.text.__pop_float          0x1e4a6           0x2a          42   
.text.__towrite_rw         0x1e4d0           0x2a          42   
.rodata                    0x1e4fc           0x28          40  Read-only const 
.text.puts                 0x1e524           0x28          40   
.text.__readv              0x1e54c           0x28          40   
.text.__writev             0x1e574           0x28          40   
.text.__aeabi_i2f          0x1e59c           0x26          38   
.text.__aeabi_f2uiz        0x1e5c2           0x24          36   
.text.fputs                0x1e5e6           0x22          34   
.rodata                    0x1e608           0x20          32  Read-only const 
.rodata                    0x1e628           0x20          32  Read-only const 
.text.memchr               0x1e648           0x20          32   
.text.__aeabi_l2f          0x1e668           0x20          32   
.text.__wrap_printf        0x1e688           0x20          32   
.text.__month_to_secs      0x1e6a8           0x20          32   
.text._get_heap_left_sp    0x1e6c8           0x20          32   
.text.__aeabi_fcmpeq       0x1e6e8           0x1e          30   
.text.__aeabi_ui2f         0x1e706           0x1e          30   
.text.__dinit_copy         0x1e724           0x1e          30   
.text.__init_search_fl     0x1e744           0x1c          28   
.text.__towrite            0x1e760           0x1a          26   
.text.strlen               0x1e77c           0x18          24   
.text.strnlen              0x1e794           0x18          24   
.text.__vfprintf           0x1e7ac           0x18          24   
.text                      0x1e7c4           0x18          24  App's exec code 
.text                      0x1e7dc           0x18          24  App's exec code 
.text                      0x1e7f4           0x18          24  App's exec code 
.text.__expand_heap        0x1e80c           0x16          22   
.text.__wrap_sprintf       0x1e822           0x16          22   
.rodata                    0x1e838           0x16          22  Read-only const 
.rodata                    0x1e850           0x14          20  Read-only const 
.text.memcpy               0x1e864           0x14          20   
.text.memset               0x1e878           0x14          20   
.text.strchr               0x1e88c           0x14          20   
.text.__init_stdout        0x1e8a0           0x14          20   
.text.putchar              0x1e8b4           0x14          20   
.text.__vsprintf           0x1e8c8           0x14          20   
.text.__fwrite             0x1e8dc           0x14          20   
.text.stpcpy               0x1e8f0           0x14          20   
.text.setbuf               0x1e904           0x12          18   
.text.__dinit_clear        0x1e916           0x12          18   
.text                      0x1e928           0x10          16  App's exec code 
.text.__aeabi_fsub         0x1e938           0x10          16   
.rodata.str1.1             0x1e948           0x10          16   
.text.gmtime               0x1e958           0x10          16   
.text.__init_stdio         0x1e968           0x10          16   
.text.fma                  0x1e978           0x10          16   
.text                      0x1e988            0xe          14  App's exec code 
.text.tolower              0x1e996            0xe          14   
.text.toupper              0x1e9a4            0xe          14   
.rodata                    0x1e9b2            0xc          12  Read-only const 
.text.strcpy               0x1e9be            0xc          12   
.text.__fwrite_min         0x1e9ca            0xa          10   
.rodata.str1.1             0x1e9d4            0x8           8   
.text.putc                 0x1e9dc            0x8           8   
.text.__get_stdout         0x1e9e4            0x8           8   
.rodata.str1.1             0x1e9ec            0x7           7   
.text.close                0x1e9f4            0x6           6   
.text.__dummy_decompres    0x1e9fa            0x4           4   
.text.__dummy_fmt3         0x1e9fe            0x4           4   
.text.__dummy_fmt4         0x1ea02            0x4           4   
.text.__dummy              0x1ea06            0x4           4   
.rodata.str1.1             0x1ea0a            0x4           4   
.rodata.str1.1             0x1ea0e            0x4           4   
.text                      0x1ea14            0x4           4  App's exec code 
.text.lseek                0x1ea18            0x4           4   
      Total ROM used  :     0x1e9fb      125435  47.8% of 0x40000
        --------------------------------------------------------------------------
         Total Program Memory used  :     0x1e9fb      125435  47.8% of 0x40000
        --------------------------------------------------------------------------


RAM Data-Memory Usage
section                    address  length [bytes]      (dec)  Description
-------                 ----------  -------------------------  -----------
.bss                    0x20000000          0xf60        3936  Uninitialized data 
.bss                    0x20000f60          0x562        1378  Uninitialized data 
.bss                    0x200014c2          0x408        1032  Uninitialized data 
.bss                    0x200018ca            0x2           2  Uninitialized data 
.bss                    0x200018cc          0x200         512  Uninitialized data 
.bss                    0x20001acc          0x114         276  Uninitialized data 
.bss                    0x20001be0          0x102         258  Uninitialized data 
.data                   0x20001ce2            0x1           1  Initialized data 
.bss                    0x20001ce4            0x4           4  Uninitialized data 
.bss                    0x20001ce8           0xe0         224  Uninitialized data 
.bss                    0x20001dc8           0xd2         210  Uninitialized data 
.data                   0x20001e9a            0x2           2  Initialized data 
.bss                    0x20001e9c           0xc4         196  Uninitialized data 
.bss                    0x20001f60           0xc0         192  Uninitialized data 
.bss                    0x20002020           0x78         120  Uninitialized data 
.bss                    0x20002098           0x68         104  Uninitialized data 
.bss                    0x20002100           0x60          96  Uninitialized data 
.bss                    0x20002160           0x50          80  Uninitialized data 
.bss                    0x200021b0           0x48          72  Uninitialized data 
.bss                    0x200021f8           0x2d          45  Uninitialized data 
.bss                    0x20002228           0x2c          44  Uninitialized data 
.bss                    0x20002254           0x2c          44  Uninitialized data 
.bss                    0x20002280           0x2a          42  Uninitialized data 
.data                   0x200022aa            0x1           1  Initialized data 
.data                   0x200022ab            0x1           1  Initialized data 
.bss                    0x200022ac           0x1d          29  Uninitialized data 
.bss                    0x200022cc           0x1c          28  Uninitialized data 
.bss                    0x200022e8            0xc          12  Uninitialized data 
.bss                    0x200022f4            0x8           8  Uninitialized data 
.bss                    0x200022fc            0x8           8  Uninitialized data 
.bss                    0x20002304            0x8           8  Uninitialized data 
.bss                    0x2000230c            0x8           8  Uninitialized data 
.bss                    0x20002314            0x5           5  Uninitialized data 
.bss                    0x2000231c            0x4           4  Uninitialized data 
.bss                    0x20002320            0x4           4  Uninitialized data 
.bss                    0x20002324            0x4           4  Uninitialized data 
.bss                    0x20002328            0x4           4  Uninitialized data 
.bss                    0x2000232c            0x4           4  Uninitialized data 
.bss                    0x20002330            0x4           4  Uninitialized data 
.bss                    0x20002334            0x4           4  Uninitialized data 
.data                   0x20002338           0x88         136  Initialized data 
.data                   0x200023c0           0x6c         108  Initialized data 
.data                   0x2000242c           0x60          96  Initialized data 
.data                   0x2000248c           0x58          88  Initialized data 
.data                   0x200024e4           0x38          56  Initialized data 
.data                   0x2000251c           0x20          32  Initialized data 
.data                   0x2000253c           0x16          22  Initialized data 
.data                   0x20002554            0x4           4  Initialized data 
.data                   0x20002558            0x4           4  Initialized data 
.data                   0x2000255c            0x2           2  Initialized data 
         Total RAM used  :      0x2552        9554  29.2% of 0x8000
        --------------------------------------------------------------------------
            Total Data Memory used  :      0x2552        9554  29.2% of 0x8000
        --------------------------------------------------------------------------


Dynamic Data-Memory Reservation
section                    address  length [bytes]      (dec)  Description
-------                 ----------  -------------------------  -----------
heap                    0x20002560          0x200         512  Reserved for heap 
stack                   0x20002778         0x5878       22648  Reserved for stack 

        --------------------------------------------------------------------------

Microchip PIC32 Memory-Usage Report By Module

        text        data         bss         dec         hex    basename                                 filename
--------------------------------------------------------------------------------
       13624           0           0       13624        3538    Icm426xxDriver_HL.o                  build/SAMD21_IOT_WG_ICM42688/debug/_ext/1341251756/Icm426xxDriver_HL.o
       10104           4          42       10150        27a6    m2m_wifi.o                           build/SAMD21_IOT_WG_ICM42688/debug/_ext/121554788/m2m_wifi.o
        7676          22         276        7974        1f26    wdrv_winc.o                          build/SAMD21_IOT_WG_ICM42688/debug/_ext/907429946/wdrv_winc.o
        7000           0         210        7210        1c2a    socket.o                             build/SAMD21_IOT_WG_ICM42688/debug/_ext/548032175/socket.o
        5316          56        1378        6750        1a5e    kb.o                                 build/SAMD21_IOT_WG_ICM42688/debug/_ext/336238826/kb.o
        5896           0         258        6154        180a    pme.o                                build/SAMD21_IOT_WG_ICM42688/debug/_ext/336238826/pme.o
        1992           1        3936        5929        1729    main.o                               build/SAMD21_IOT_WG_ICM42688/debug/_ext/1360937237/main.o
        5612           0         120        5732        1664    drv_spi.o                            build/SAMD21_IOT_WG_ICM42688/debug/_ext/1660664302/drv_spi.o
        4844           2         224        5070        13ce    sys_time.o                           build/SAMD21_IOT_WG_ICM42688/debug/_ext/386530258/sys_time.o
        3728           0           2        3730         e92    nmspi.o                              build/SAMD21_IOT_WG_ICM42688/debug/_ext/121554788/nmspi.o
        3504           0           4        3508         db4    spi_flash.o                          build/SAMD21_IOT_WG_ICM42688/debug/_ext/609036575/spi_flash.o
        3256           0           4        3260         cbc    nmasic.o                             build/SAMD21_IOT_WG_ICM42688/debug/_ext/121554788/nmasic.o
        2916           0          44        2960         b90    m2m_hif.o                            build/SAMD21_IOT_WG_ICM42688/debug/_ext/121554788/m2m_hif.o
        2552           1         104        2657         a61    m2m_ota.o                            build/SAMD21_IOT_WG_ICM42688/debug/_ext/121554788/m2m_ota.o
        2196           0          96        2292         8f4    plib_dmac.o                          build/SAMD21_IOT_WG_ICM42688/debug/_ext/1580516298/plib_dmac.o
        2232           0           0        2232         8b8    kb_output.o                          build/SAMD21_IOT_WG_ICM42688/debug/_ext/336238826/kb_output.o
        2150           0           0        2150         866    wdrv_winc_host_file.o                build/SAMD21_IOT_WG_ICM42688/debug/_ext/907429946/wdrv_winc_host_file.o
        2032           1           8        2041         7f9    m2m_ssl.o                            build/SAMD21_IOT_WG_ICM42688/debug/_ext/121554788/m2m_ssl.o
        1812           0           0        1812         714    rb.o                                 build/SAMD21_IOT_WG_ICM42688/debug/_ext/336238826/rb.o
        1772           0           0        1772         6ec    nmdrv.o                              build/SAMD21_IOT_WG_ICM42688/debug/_ext/121554788/nmdrv.o
        1544           0          45        1589         635    plib_sercom2_spi_master.o            build/SAMD21_IOT_WG_ICM42688/debug/_ext/1014017276/plib_sercom2_spi_master.o
        1468           0           0        1468         5bc    plib_sercom5_usart.o                 build/SAMD21_IOT_WG_ICM42688/debug/_ext/177673482/plib_sercom5_usart.o
        1232           0           0        1232         4d0    __fmt_fp.o                           libg-musl.a
        1192           0           0        1192         4a8    wdrv_winc_authctx.o                  build/SAMD21_IOT_WG_ICM42688/debug/_ext/907429946/wdrv_winc_authctx.o
        1152           0           0        1152         480    data_init                            data_init
           4         108        1032        1144         478    stdin.o                              libg-musl.a
         900          88          72        1060         424    kb_pipeline.o                        build/SAMD21_IOT_WG_ICM42688/debug/_ext/336238826/kb_pipeline.o
        1040           0           0        1040         410    __printf_core.o                      libg-musl.a
         996           0          29        1025         401    wdrv_winc_spi.o                      build/SAMD21_IOT_WG_ICM42688/debug/_ext/101005277/wdrv_winc_spi.o
        1016           0           4        1020         3fc    icm42688_sensor.o                    build/SAMD21_IOT_WG_ICM42688/debug/_ext/2048461350/icm42688_sensor.o
         908           0           0         908         38c    plib_sercom0_spi_master.o            build/SAMD21_IOT_WG_ICM42688/debug/_ext/1014017276/plib_sercom0_spi_master.o
         900           0           0         900         384    plib_port.o                          build/SAMD21_IOT_WG_ICM42688/debug/_ext/1580876256/plib_port.o
         888           0           0         888         378    ringbuffer.o                         build/SAMD21_IOT_WG_ICM42688/debug/_ext/1360937237/ringbuffer.o
         616           0         192         808         328    plib_eic.o                           build/SAMD21_IOT_WG_ICM42688/debug/_ext/503204096/plib_eic.o
         764           0           0         764         2fc    Icm426xxTransport.o                  build/SAMD21_IOT_WG_ICM42688/debug/_ext/1341251756/Icm426xxTransport.o
         740           0           0         740         2e4    plib_nvic.o                          build/SAMD21_IOT_WG_ICM42688/debug/_ext/1580823105/plib_nvic.o
         736           0           0         736         2e0    wdrv_winc_systime.o                  build/SAMD21_IOT_WG_ICM42688/debug/_ext/907429946/wdrv_winc_systime.o
         736           0           0         736         2e0    plib_nvmctrl.o                       build/SAMD21_IOT_WG_ICM42688/debug/_ext/11470383/plib_nvmctrl.o
         700           2           0         702         2be    nmbus.o                              build/SAMD21_IOT_WG_ICM42688/debug/_ext/121554788/nmbus.o
         132           0         512         644         284    sml_recognition_run.o                build/SAMD21_IOT_WG_ICM42688/debug/_ext/431689064/sml_recognition_run.o
         630           0           0         630         276    wdrv_winc_bssctx.o                   build/SAMD21_IOT_WG_ICM42688/debug/_ext/907429946/wdrv_winc_bssctx.o
         612           0           4         616         268    ws2812.o                             build/SAMD21_IOT_WG_ICM42688/debug/_ext/1360937237/ws2812.o
         408           0         196         604         25c    initialization.o                     build/SAMD21_IOT_WG_ICM42688/debug/_ext/1832905403/initialization.o
         576           0           8         584         248    plib_tc4.o                           build/SAMD21_IOT_WG_ICM42688/debug/_ext/399410062/plib_tc4.o
         528           0           8         536         218    plib_tc3.o                           build/SAMD21_IOT_WG_ICM42688/debug/_ext/399410062/plib_tc3.o
         504           0           0         504         1f8    plib_systick.o                       build/SAMD21_IOT_WG_ICM42688/debug/_ext/223004715/plib_systick.o
         488           0           0         488         1e8    __secs_to_tm.o                       libg-musl.a
         456           0           0         456         1c8    __aeabi_dadd.o                       libm-fast-emfloat.a
         436           0           0         436         1b4    utils_model_cross_difference.o       build/SAMD21_IOT_WG_ICM42688/debug/_ext/336238826/utils_model_cross_difference.o
         394           0           0         394         18a    __aeabi_dmul_aux.o                   libm-fast-emfloat.a
         368           0           0         368         170    sys_int.o                            build/SAMD21_IOT_WG_ICM42688/debug/_ext/1318297016/sys_int.o
         364           0           0         364         16c    plib_clock.o                         build/SAMD21_IOT_WG_ICM42688/debug/_ext/1750425231/plib_clock.o
         332           0           0         332         14c    utils_model_stats_max_min.o          build/SAMD21_IOT_WG_ICM42688/debug/_ext/336238826/utils_model_stats_max_min.o
         316           0           0         316         13c    tr_min_max_scale.o                   build/SAMD21_IOT_WG_ICM42688/debug/_ext/336238826/tr_min_max_scale.o
         314           0           0         314         13a    __aeabi_fadd.o                       libm-fast-emfloat.a
         312           0           0         312         138    _divdi3.o                            libgcc.a
         306           0           0         306         132    __fmt_x.o                            libg-musl.a
         296           0           0         296         128    mean.o                               build/SAMD21_IOT_WG_ICM42688/debug/_ext/336238826/mean.o
         286           0           0         286         11e    utils_array_max_uint8.o              build/SAMD21_IOT_WG_ICM42688/debug/_ext/336238826/utils_array_max_uint8.o
         276           0           0         276         114    flexible_flash.o                     build/SAMD21_IOT_WG_ICM42688/debug/_ext/609036575/flexible_flash.o
         256           0           0         256         100    __year_to_secs.o                     libg-musl.a
         254           0           0         254          fe    __stdio_write.o                      libg-musl.a
         234           0           0         234          ea    _udivmoddi4.o                        libgcc.a
         220           0           4         224          e0    lite_free.o                          liblmalloc-musl.a
         196           0           0         196          c4    __aeabi_ddiv.o                       libm-fast-emfloat.a
         190           0           0         190          be    __pop_int.o                          libg-musl.a
         184           0           0         184          b8    utils_buffer_min_max.o               build/SAMD21_IOT_WG_ICM42688/debug/_ext/336238826/utils_buffer_min_max.o
         182           0           0         182          b6    __aeabi_fmul.o                       libm-fast-emfloat.a
         180           0           0         180          b4    floor.o                              libm-fast-emfloat.a
         178           0           0         178          b2    __fmt_d.o                            libg-musl.a
         178           0           0         178          b2    interrupts.o                         build/SAMD21_IOT_WG_ICM42688/debug/_ext/1832905403/interrupts.o
         164           0          12         176          b0    sbrk.o                               libpic32c.a
         170           0           0         170          aa    sortarray.o                          build/SAMD21_IOT_WG_ICM42688/debug/_ext/336238826/sortarray.o
         168           0           0         168          a8    _divsi3.o                            libgcc.a
         168           0           0         168          a8    sys_dma.o                            build/SAMD21_IOT_WG_ICM42688/debug/_ext/1584719636/sys_dma.o
         160           0           0         160          a0    __tm_to_secs.o                       libg-musl.a
         158           0           0         158          9e    fg_cross_peak_location_difference.o  build/SAMD21_IOT_WG_ICM42688/debug/_ext/336238826/fg_cross_peak_location_difference.o
         152           0           0         152          98    xc32_monitor.o                       build/SAMD21_IOT_WG_ICM42688/debug/_ext/1357625803/xc32_monitor.o
         148           0           0         148          94    __aeabi_fdiv.o                       libm-fast-emfloat.a
         140           0           0         140          8c    _udivsi3.o                           libgcc.a
           0         136           0         136          88    pme_trained_neurons.o                build/SAMD21_IOT_WG_ICM42688/debug/_ext/336238826/pme_trained_neurons.o
         134           0           0         134          86    utils_buffer_argmax.o                build/SAMD21_IOT_WG_ICM42688/debug/_ext/336238826/utils_buffer_argmax.o
         134           0           0         134          86    save_sensor_data.o                   build/SAMD21_IOT_WG_ICM42688/debug/_ext/336238826/save_sensor_data.o
         128           0           0         128          80    sf_downsample_by_averaging.o         build/SAMD21_IOT_WG_ICM42688/debug/_ext/336238826/sf_downsample_by_averaging.o
         122           0           0         122          7a    fg_amplitude_peak_to_peak.o          build/SAMD21_IOT_WG_ICM42688/debug/_ext/336238826/fg_amplitude_peak_to_peak.o
         118           0           0         118          76    __cvt_u.o                            libg-musl.a
         116           0           0         116          74    sorted_copy.o                        build/SAMD21_IOT_WG_ICM42688/debug/_ext/336238826/sorted_copy.o
         110           0           0         110          6e    fg_cross_mean_difference.o           build/SAMD21_IOT_WG_ICM42688/debug/_ext/336238826/fg_cross_mean_difference.o
          80           0          28         108          6c    crtbegin.o                           c:/program files/microchip/xc32/v4.60/bin/bin/../../lib/gcc/pic32c/8.3.1/thumb/v6-m/nofp/crtbegin.o
         104           0           0         104          68    dsp_lsup_distance.o                  build/SAMD21_IOT_WG_ICM42688/debug/_ext/336238826/dsp_lsup_distance.o
         104           0           0         104          68    __pop_ptr.o                          libg-musl.a
           8          96           0         104          68    __stdout.o                           libg-musl.a
         100           4           0         104          68    lite_malloc.o                        liblmalloc-musl.a
         100           0           0         100          64    __stdio_read.o                       libg-musl.a
          98           0           0          98          62    __aeabi_d2f.o                        libm-fast-emfloat.a
          96           0           0          96          60    wdrv_winc_gpio.o                     build/SAMD21_IOT_WG_ICM42688/debug/_ext/1164161090/wdrv_winc_gpio.o
          96           0           0          96          60    strchrnul.o                          libc-size-musl.a
          94           0           0          94          5e    __libc_start_main.o                  libg-musl.a
          94           0           0          94          5e    sg_windowing.o                       build/SAMD21_IOT_WG_ICM42688/debug/_ext/336238826/sg_windowing.o
          92           0           0          92          5c    __stdio_close.o                      libg-musl.a
          92           0           0          92          5c    dsp_l1_distance.o                    build/SAMD21_IOT_WG_ICM42688/debug/_ext/336238826/dsp_l1_distance.o
          87           0           0          87          57    __fmt_s.o                            libg-musl.a
          86           0           0          86          56    __fmt_u.o                            libg-musl.a
          82           0           4          86          56    data_init.o                          libpic32c.a
          82           0           0          82          52    dsp_dtw_distance.o                   build/SAMD21_IOT_WG_ICM42688/debug/_ext/336238826/dsp_dtw_distance.o
           0           0          80          80          50    libc.o                               libg-musl.a
          80           0           0          80          50    __month_to_secs.o                    libg-musl.a
          80           0           0          80          50    setvbuf.o                            libg-musl.a
          80           0           0          80          50    __int_vsnprintf.o                    libg-musl.a
          80           0           0          80          50    utils_tr_sensor.o                    build/SAMD21_IOT_WG_ICM42688/debug/_ext/336238826/utils_tr_sensor.o
          78           0           0          78          4e    __overflow.o                         libg-musl.a
          76           0           0          76          4c    mktime.o                             libg-musl.a
          76           0           0          76          4c    wdrv_winc_eint.o                     build/SAMD21_IOT_WG_ICM42688/debug/_ext/1164161090/wdrv_winc_eint.o
          74           0           0          74          4a    startup_xc32.o                       build/SAMD21_IOT_WG_ICM42688/debug/_ext/1832905403/startup_xc32.o
          72           0           0          72          48    _aeabi_ldivmod.o                     libgcc.a
          70           0           0          70          46    __out.o                              libg-musl.a
          64           0           5          69          45    app.o                                build/SAMD21_IOT_WG_ICM42688/debug/_ext/1360937237/app.o
          68           0           0          68          44    __aeabi_dcmple.o                     libm-fast-emfloat.a
          68           0           0          68          44    _muldi3.o                            libgcc.a
          68           0           0          68          44    nm_common.o                          build/SAMD21_IOT_WG_ICM42688/debug/_ext/90265895/nm_common.o
          68           0           0          68          44    __aeabi_f2d.o                        libm-fast-emfloat.a
          66           0           0          66          42    wdrv_winc_osal.o                     build/SAMD21_IOT_WG_ICM42688/debug/_ext/1784303044/wdrv_winc_osal.o
          64           0           0          64          40    atoi.o                               libg-musl.a
          64           0           0          64          40    _aeabi_uldivmod.o                    libgcc.a
          62           0           0          62          3e    __aeabi_dcmpgt.o                     libm-fast-emfloat.a
          62           0           0          62          3e    putc.o                               libg-musl.a
          62           0           0          62          3e    __aeabi_dcmplt.o                     libm-fast-emfloat.a
          62           0           0          62          3e    __aeabi_f2iz.o                       libm-fast-emfloat.a
          60           0           0          60          3c    _clzsi2.o                            libgcc.a
          16           0          44          60          3c    gmtime.o                             libg-musl.a
          60           0           0          60          3c    __putc.o                             libg-musl.a
          20          32           8          60          3c    stdout.o                             libg-musl.a
          56           0           0          56          38    gmtime_r.o                           libg-musl.a
          56           0           0          56          38    utils_bitwise_abs_val.o              build/SAMD21_IOT_WG_ICM42688/debug/_ext/336238826/utils_bitwise_abs_val.o
          52           0           0          52          34    bpabi.o                              libgcc.a
          52           0           0          52          34    __aeabi_d2iz.o                       libm-fast-emfloat.a
          48           0           0          48          30    __aeabi_ul2f.o                       libm-fast-emfloat.a
          46           0           0          46          2e    __aeabi_dcmpeq.o                     libm-fast-emfloat.a
          46           0           0          46          2e    __aeabi_fcmplt.o                     libm-fast-emfloat.a
          46           0           0          46          2e    __aeabi_fcmpgt.o                     libm-fast-emfloat.a
          46           0           0          46          2e    fwrite.o                             libg-musl.a
          46           0           0          46          2e    __aeabi_d2uiz.o                      libm-fast-emfloat.a
          42           0           0          42          2a    __towrite_rw.o                       libg-musl.a
          42           0           0          42          2a    fg_stats_minimum.o                   build/SAMD21_IOT_WG_ICM42688/debug/_ext/336238826/fg_stats_minimum.o
          42           0           0          42          2a    __pop_float.o                        libg-musl.a
          42           0           0          42          2a    fg_cross_p2p_difference.o            build/SAMD21_IOT_WG_ICM42688/debug/_ext/336238826/fg_cross_p2p_difference.o
          40           0           0          40          28    writev.o                             libg-musl.a
          40           0           0          40          28    puts.o                               libg-musl.a
          40           0           0          40          28    readv.o                              libg-musl.a
          38           0           0          38          26    __aeabi_i2f.o                        libm-fast-emfloat.a
          36           0           0          36          24    __aeabi_f2uiz.o                      libm-fast-emfloat.a
          34           0           0          34          22    fputs.o                              libg-musl.a
          32           0           0          32          20    __sio_printf_cdeEfFgGnpsuxX.o        libg-musl.a
          32           0           0          32          20    memchr.o                             libc-size-musl.a
          32           0           0          32          20    __aeabi_l2f.o                        libm-fast-emfloat.a
          30           0           0          30          1e    pic32_data_init_copy.o               libpic32c.a
          30           0           0          30          1e    __aeabi_ui2f.o                       libm-fast-emfloat.a
          30           0           0          30          1e    __aeabi_fcmpeq.o                     libm-fast-emfloat.a
          26           0           0          26          1a    __towrite.o                          libg-musl.a
          24           0           0          24          18    __int_vfprintf.o                     libg-musl.a
          24           0           0          24          18    strlen.o                             libc-size-musl.a
          24           0           0          24          18    strnlen.o                            libc-size-musl.a
          24           0           0          24          18    _ashldi3.o                           libgcc.a
          24           0           0          24          18    _clzdi2.o                            libgcc.a
          24           0           0          24          18    _lshrdi3.o                           libgcc.a
          22           0           0          22          16    expand_heap.o                        libg-musl.a
          22           0           0          22          16    __sio_sprintf_cdeEfFgGnpsuxX.o       libg-musl.a
          20           0           0          20          14    stpcpy.o                             libc-size-musl.a
          20           0           0          20          14    putchar.o                            libg-musl.a
          20           0           0          20          14    strchr.o                             libc-size-musl.a
          20           0           0          20          14    __fwrite.o                           libg-musl.a
          20           0           0          20          14    memset.o                             libc-size-musl.a
          20           0           0          20          14    __int_vsprintf.o                     libg-musl.a
          20           0           0          20          14    memcpy.o                             libc-size-musl.a
          18           0           0          18          12    setbuf.o                             libg-musl.a
          18           0           0          18          12    __init_stdio.o                       libg-musl.a
          18           0           0          18          12    pic32_data_init_clear.o              libpic32c.a
          16           0           0          16          10    exceptions.o                         build/SAMD21_IOT_WG_ICM42688/debug/_ext/1832905403/exceptions.o
          16           0           0          16          10    fma.o                                libm-fast-emfloat.a
          16           0           0          16          10    __aeabi_fsub.o                       libm-fast-emfloat.a
          16           0           0          16          10    crtn.o                               c:/program files/microchip/xc32/v4.60/bin/bin/../../lib/gcc/pic32c/8.3.1/thumb/v6-m/nofp/crtn.o
          14           0           0          14           e    tolower.o                            libg-musl.a
          14           0           0          14           e    toupper.o                            libg-musl.a
          14           0           0          14           e    tasks.o                              build/SAMD21_IOT_WG_ICM42688/debug/_ext/1832905403/tasks.o
          12           0           0          12           c    strcpy.o                             libc-size-musl.a
           8           0           0           8           8    crti.o                               c:/program files/microchip/xc32/v4.60/bin/bin/../../lib/gcc/pic32c/8.3.1/thumb/v6-m/nofp/crti.o
           6           0           0           6           6    close.o                              libpic32c.a
           0           0           4           4           4    __environ.o                          libg-musl.a
           4           0           0           4           4    _dvmd_tls.o                          libgcc.a
           4           0           0           4           4    lseek.o                              libpic32c.a
           0           0           4           4           4    __errno_location.o                   libg-musl.a
           2           0           0           2           2    __stderr.o                           libg-musl.a
--------------------------------------------------------------------------------
      125443         553        9001      134997       20f55    dist/SAMD21_IOT_WG_ICM42688/debug/samd21_iot_wand.X.debug.elf


Discarded input sections

 .text          0x0000000000000000        0x0 c:/program files/microchip/xc32/v4.60/bin/bin/../../lib/gcc/pic32c/8.3.1/thumb/v6-m/nofp/crti.o
 .data          0x0000000000000000        0x0 c:/program files/microchip/xc32/v4.60/bin/bin/../../lib/gcc/pic32c/8.3.1/thumb/v6-m/nofp/crti.o
 .bss           0x0000000000000000        0x0 c:/program files/microchip/xc32/v4.60/bin/bin/../../lib/gcc/pic32c/8.3.1/thumb/v6-m/nofp/crti.o
 .xc_stack_usage.hdr
                0x0000000000000000        0xe c:/program files/microchip/xc32/v4.60/bin/bin/../../lib/gcc/pic32c/8.3.1/thumb/v6-m/nofp/crti.o
 .xc_stack_usage
                0x0000000000000000       0x26 c:/program files/microchip/xc32/v4.60/bin/bin/../../lib/gcc/pic32c/8.3.1/thumb/v6-m/nofp/crti.o
 .data          0x0000000000000000        0x4 c:/program files/microchip/xc32/v4.60/bin/bin/../../lib/gcc/pic32c/8.3.1/thumb/v6-m/nofp/crtbegin.o
 .xc_stack_usage
                0x0000000000000000       0x3c c:/program files/microchip/xc32/v4.60/bin/bin/../../lib/gcc/pic32c/8.3.1/thumb/v6-m/nofp/crtbegin.o
 .xc_stack_usage.hdr
                0x0000000000000000        0xe c:/program files/microchip/xc32/v4.60/bin/bin/../../lib/gcc/pic32c/8.3.1/thumb/v6-m/nofp/crtbegin.o
 .data          0x0000000000000000        0x0 build/SAMD21_IOT_WG_ICM42688/debug/_ext/2048461350/icm42688_sensor.o
 .data          0x0000000000000000        0x0 build/SAMD21_IOT_WG_ICM42688/debug/_ext/1660664302/drv_spi.o
 .data          0x0000000000000000        0x0 build/SAMD21_IOT_WG_ICM42688/debug/_ext/1164161090/wdrv_winc_gpio.o
 .bss           0x0000000000000000        0x0 build/SAMD21_IOT_WG_ICM42688/debug/_ext/1164161090/wdrv_winc_gpio.o
 .data          0x0000000000000000        0x0 build/SAMD21_IOT_WG_ICM42688/debug/_ext/1164161090/wdrv_winc_eint.o
 .bss           0x0000000000000000        0x0 build/SAMD21_IOT_WG_ICM42688/debug/_ext/1164161090/wdrv_winc_eint.o
 .data          0x0000000000000000        0x0 build/SAMD21_IOT_WG_ICM42688/debug/_ext/101005277/wdrv_winc_spi.o
 .data          0x0000000000000000        0x0 build/SAMD21_IOT_WG_ICM42688/debug/_ext/90265895/nm_common.o
 .bss           0x0000000000000000        0x0 build/SAMD21_IOT_WG_ICM42688/debug/_ext/90265895/nm_common.o
 .data          0x0000000000000000        0x0 build/SAMD21_IOT_WG_ICM42688/debug/_ext/121554788/m2m_hif.o
 .data          0x0000000000000000        0x0 build/SAMD21_IOT_WG_ICM42688/debug/_ext/121554788/nmspi.o
 .data          0x0000000000000000        0x0 build/SAMD21_IOT_WG_ICM42688/debug/_ext/121554788/nmdrv.o
 .bss           0x0000000000000000        0x0 build/SAMD21_IOT_WG_ICM42688/debug/_ext/121554788/nmdrv.o
 .text          0x0000000000000000      0x16e build/SAMD21_IOT_WG_ICM42688/debug/_ext/121554788/m2m_periph.o
 .data          0x0000000000000000        0x0 build/SAMD21_IOT_WG_ICM42688/debug/_ext/121554788/m2m_periph.o
 .bss           0x0000000000000000        0x0 build/SAMD21_IOT_WG_ICM42688/debug/_ext/121554788/m2m_periph.o
 .debug_info    0x0000000000000000      0x267 build/SAMD21_IOT_WG_ICM42688/debug/_ext/121554788/m2m_periph.o
 .debug_abbrev  0x0000000000000000       0xe7 build/SAMD21_IOT_WG_ICM42688/debug/_ext/121554788/m2m_periph.o
 .debug_loc     0x0000000000000000      0x118 build/SAMD21_IOT_WG_ICM42688/debug/_ext/121554788/m2m_periph.o
 .debug_aranges
                0x0000000000000000       0x20 build/SAMD21_IOT_WG_ICM42688/debug/_ext/121554788/m2m_periph.o
 .debug_line    0x0000000000000000      0x168 build/SAMD21_IOT_WG_ICM42688/debug/_ext/121554788/m2m_periph.o
 .debug_str     0x0000000000000000      0x40e build/SAMD21_IOT_WG_ICM42688/debug/_ext/121554788/m2m_periph.o
 .comment       0x0000000000000000       0x2c build/SAMD21_IOT_WG_ICM42688/debug/_ext/121554788/m2m_periph.o
 .debug_frame   0x0000000000000000       0xb4 build/SAMD21_IOT_WG_ICM42688/debug/_ext/121554788/m2m_periph.o
 .ARM.attributes
                0x0000000000000000       0x2c build/SAMD21_IOT_WG_ICM42688/debug/_ext/121554788/m2m_periph.o
 .data          0x0000000000000000        0x0 build/SAMD21_IOT_WG_ICM42688/debug/_ext/121554788/nmasic.o
 .bss           0x0000000000000000        0x0 build/SAMD21_IOT_WG_ICM42688/debug/_ext/121554788/nmbus.o
 .data          0x0000000000000000        0x0 build/SAMD21_IOT_WG_ICM42688/debug/_ext/548032175/socket.o
 .text          0x0000000000000000      0x15e build/SAMD21_IOT_WG_ICM42688/debug/_ext/548032175/inet_addr.o
 .data          0x0000000000000000        0x0 build/SAMD21_IOT_WG_ICM42688/debug/_ext/548032175/inet_addr.o
 .bss           0x0000000000000000        0x0 build/SAMD21_IOT_WG_ICM42688/debug/_ext/548032175/inet_addr.o
 .debug_info    0x0000000000000000      0x131 build/SAMD21_IOT_WG_ICM42688/debug/_ext/548032175/inet_addr.o
 .debug_abbrev  0x0000000000000000       0x96 build/SAMD21_IOT_WG_ICM42688/debug/_ext/548032175/inet_addr.o
 .debug_loc     0x0000000000000000       0x38 build/SAMD21_IOT_WG_ICM42688/debug/_ext/548032175/inet_addr.o
 .debug_aranges
                0x0000000000000000       0x20 build/SAMD21_IOT_WG_ICM42688/debug/_ext/548032175/inet_addr.o
 .debug_line    0x0000000000000000      0x1a7 build/SAMD21_IOT_WG_ICM42688/debug/_ext/548032175/inet_addr.o
 .debug_str     0x0000000000000000      0x2d1 build/SAMD21_IOT_WG_ICM42688/debug/_ext/548032175/inet_addr.o
 .comment       0x0000000000000000       0x2c build/SAMD21_IOT_WG_ICM42688/debug/_ext/548032175/inet_addr.o
 .debug_frame   0x0000000000000000       0x30 build/SAMD21_IOT_WG_ICM42688/debug/_ext/548032175/inet_addr.o
 .ARM.attributes
                0x0000000000000000       0x2c build/SAMD21_IOT_WG_ICM42688/debug/_ext/548032175/inet_addr.o
 .text          0x0000000000000000      0x12c build/SAMD21_IOT_WG_ICM42688/debug/_ext/548032175/inet_ntop.o
 .data          0x0000000000000000        0x0 build/SAMD21_IOT_WG_ICM42688/debug/_ext/548032175/inet_ntop.o
 .bss           0x0000000000000000        0x0 build/SAMD21_IOT_WG_ICM42688/debug/_ext/548032175/inet_ntop.o
 .debug_info    0x0000000000000000      0x1a6 build/SAMD21_IOT_WG_ICM42688/debug/_ext/548032175/inet_ntop.o
 .debug_abbrev  0x0000000000000000       0xd0 build/SAMD21_IOT_WG_ICM42688/debug/_ext/548032175/inet_ntop.o
 .debug_loc     0x0000000000000000       0x38 build/SAMD21_IOT_WG_ICM42688/debug/_ext/548032175/inet_ntop.o
 .debug_aranges
                0x0000000000000000       0x20 build/SAMD21_IOT_WG_ICM42688/debug/_ext/548032175/inet_ntop.o
 .debug_line    0x0000000000000000      0x186 build/SAMD21_IOT_WG_ICM42688/debug/_ext/548032175/inet_ntop.o
 .debug_str     0x0000000000000000      0x2e3 build/SAMD21_IOT_WG_ICM42688/debug/_ext/548032175/inet_ntop.o
 .comment       0x0000000000000000       0x2c build/SAMD21_IOT_WG_ICM42688/debug/_ext/548032175/inet_ntop.o
 .debug_frame   0x0000000000000000       0x30 build/SAMD21_IOT_WG_ICM42688/debug/_ext/548032175/inet_ntop.o
 .ARM.attributes
                0x0000000000000000       0x2c build/SAMD21_IOT_WG_ICM42688/debug/_ext/548032175/inet_ntop.o
 .data          0x0000000000000000        0x0 build/SAMD21_IOT_WG_ICM42688/debug/_ext/609036575/flexible_flash.o
 .bss           0x0000000000000000        0x0 build/SAMD21_IOT_WG_ICM42688/debug/_ext/609036575/flexible_flash.o
 .data          0x0000000000000000        0x0 build/SAMD21_IOT_WG_ICM42688/debug/_ext/609036575/spi_flash.o
 .data          0x0000000000000000        0x0 build/SAMD21_IOT_WG_ICM42688/debug/_ext/1784303044/wdrv_winc_osal.o
 .bss           0x0000000000000000        0x0 build/SAMD21_IOT_WG_ICM42688/debug/_ext/1784303044/wdrv_winc_osal.o
 .text          0x0000000000000000      0x43c build/SAMD21_IOT_WG_ICM42688/debug/_ext/907429946/wdrv_winc_softap.o
 .data          0x0000000000000000        0x0 build/SAMD21_IOT_WG_ICM42688/debug/_ext/907429946/wdrv_winc_softap.o
 .bss           0x0000000000000000        0x0 build/SAMD21_IOT_WG_ICM42688/debug/_ext/907429946/wdrv_winc_softap.o
 .debug_info    0x0000000000000000     0x13fe build/SAMD21_IOT_WG_ICM42688/debug/_ext/907429946/wdrv_winc_softap.o
 .debug_abbrev  0x0000000000000000      0x226 build/SAMD21_IOT_WG_ICM42688/debug/_ext/907429946/wdrv_winc_softap.o
 .debug_loc     0x0000000000000000       0xaa build/SAMD21_IOT_WG_ICM42688/debug/_ext/907429946/wdrv_winc_softap.o
 .debug_aranges
                0x0000000000000000       0x20 build/SAMD21_IOT_WG_ICM42688/debug/_ext/907429946/wdrv_winc_softap.o
 .debug_line    0x0000000000000000      0x57f build/SAMD21_IOT_WG_ICM42688/debug/_ext/907429946/wdrv_winc_softap.o
 .debug_str     0x0000000000000000     0x1895 build/SAMD21_IOT_WG_ICM42688/debug/_ext/907429946/wdrv_winc_softap.o
 .comment       0x0000000000000000       0x2c build/SAMD21_IOT_WG_ICM42688/debug/_ext/907429946/wdrv_winc_softap.o
 .debug_frame   0x0000000000000000       0x74 build/SAMD21_IOT_WG_ICM42688/debug/_ext/907429946/wdrv_winc_softap.o
 .ARM.attributes
                0x0000000000000000       0x2c build/SAMD21_IOT_WG_ICM42688/debug/_ext/907429946/wdrv_winc_softap.o
 .text          0x0000000000000000      0x6c6 build/SAMD21_IOT_WG_ICM42688/debug/_ext/907429946/wdrv_winc_bssfind.o
 .data          0x0000000000000000        0x0 build/SAMD21_IOT_WG_ICM42688/debug/_ext/907429946/wdrv_winc_bssfind.o
 .bss           0x0000000000000000        0x0 build/SAMD21_IOT_WG_ICM42688/debug/_ext/907429946/wdrv_winc_bssfind.o
 .debug_info    0x0000000000000000     0x15e3 build/SAMD21_IOT_WG_ICM42688/debug/_ext/907429946/wdrv_winc_bssfind.o
 .debug_abbrev  0x0000000000000000      0x256 build/SAMD21_IOT_WG_ICM42688/debug/_ext/907429946/wdrv_winc_bssfind.o
 .debug_loc     0x0000000000000000      0x232 build/SAMD21_IOT_WG_ICM42688/debug/_ext/907429946/wdrv_winc_bssfind.o
 .debug_aranges
                0x0000000000000000       0x20 build/SAMD21_IOT_WG_ICM42688/debug/_ext/907429946/wdrv_winc_bssfind.o
 .debug_line    0x0000000000000000      0x696 build/SAMD21_IOT_WG_ICM42688/debug/_ext/907429946/wdrv_winc_bssfind.o
 .debug_str     0x0000000000000000     0x1b9f build/SAMD21_IOT_WG_ICM42688/debug/_ext/907429946/wdrv_winc_bssfind.o
 .comment       0x0000000000000000       0x2c build/SAMD21_IOT_WG_ICM42688/debug/_ext/907429946/wdrv_winc_bssfind.o
 .debug_frame   0x0000000000000000      0x154 build/SAMD21_IOT_WG_ICM42688/debug/_ext/907429946/wdrv_winc_bssfind.o
 .ARM.attributes
                0x0000000000000000       0x2c build/SAMD21_IOT_WG_ICM42688/debug/_ext/907429946/wdrv_winc_bssfind.o
 .text          0x0000000000000000      0x65e build/SAMD21_IOT_WG_ICM42688/debug/_ext/907429946/wdrv_winc_sta.o
 .data          0x0000000000000000        0x0 build/SAMD21_IOT_WG_ICM42688/debug/_ext/907429946/wdrv_winc_sta.o
 .bss           0x0000000000000000        0x0 build/SAMD21_IOT_WG_ICM42688/debug/_ext/907429946/wdrv_winc_sta.o
 .debug_info    0x0000000000000000     0x15ed build/SAMD21_IOT_WG_ICM42688/debug/_ext/907429946/wdrv_winc_sta.o
 .debug_abbrev  0x0000000000000000      0x24d build/SAMD21_IOT_WG_ICM42688/debug/_ext/907429946/wdrv_winc_sta.o
 .debug_loc     0x0000000000000000      0x11a build/SAMD21_IOT_WG_ICM42688/debug/_ext/907429946/wdrv_winc_sta.o
 .debug_aranges
                0x0000000000000000       0x20 build/SAMD21_IOT_WG_ICM42688/debug/_ext/907429946/wdrv_winc_sta.o
 .debug_line    0x0000000000000000      0x682 build/SAMD21_IOT_WG_ICM42688/debug/_ext/907429946/wdrv_winc_sta.o
 .debug_str     0x0000000000000000     0x1a9c build/SAMD21_IOT_WG_ICM42688/debug/_ext/907429946/wdrv_winc_sta.o
 .comment       0x0000000000000000       0x2c build/SAMD21_IOT_WG_ICM42688/debug/_ext/907429946/wdrv_winc_sta.o
 .debug_frame   0x0000000000000000       0xb0 build/SAMD21_IOT_WG_ICM42688/debug/_ext/907429946/wdrv_winc_sta.o
 .ARM.attributes
                0x0000000000000000       0x2c build/SAMD21_IOT_WG_ICM42688/debug/_ext/907429946/wdrv_winc_sta.o
 .text          0x0000000000000000      0x264 build/SAMD21_IOT_WG_ICM42688/debug/_ext/907429946/wdrv_winc_wps.o
 .data          0x0000000000000000        0x0 build/SAMD21_IOT_WG_ICM42688/debug/_ext/907429946/wdrv_winc_wps.o
 .bss           0x0000000000000000        0x0 build/SAMD21_IOT_WG_ICM42688/debug/_ext/907429946/wdrv_winc_wps.o
 .rodata        0x0000000000000000        0x8 build/SAMD21_IOT_WG_ICM42688/debug/_ext/907429946/wdrv_winc_wps.o
 .debug_info    0x0000000000000000     0x1196 build/SAMD21_IOT_WG_ICM42688/debug/_ext/907429946/wdrv_winc_wps.o
 .debug_abbrev  0x0000000000000000      0x20a build/SAMD21_IOT_WG_ICM42688/debug/_ext/907429946/wdrv_winc_wps.o
 .debug_loc     0x0000000000000000       0xe0 build/SAMD21_IOT_WG_ICM42688/debug/_ext/907429946/wdrv_winc_wps.o
 .debug_aranges
                0x0000000000000000       0x20 build/SAMD21_IOT_WG_ICM42688/debug/_ext/907429946/wdrv_winc_wps.o
 .debug_line    0x0000000000000000      0x416 build/SAMD21_IOT_WG_ICM42688/debug/_ext/907429946/wdrv_winc_wps.o
 .debug_str     0x0000000000000000     0x170a build/SAMD21_IOT_WG_ICM42688/debug/_ext/907429946/wdrv_winc_wps.o
 .comment       0x0000000000000000       0x2c build/SAMD21_IOT_WG_ICM42688/debug/_ext/907429946/wdrv_winc_wps.o
 .debug_frame   0x0000000000000000       0x90 build/SAMD21_IOT_WG_ICM42688/debug/_ext/907429946/wdrv_winc_wps.o
 .ARM.attributes
                0x0000000000000000       0x2c build/SAMD21_IOT_WG_ICM42688/debug/_ext/907429946/wdrv_winc_wps.o
 .text          0x0000000000000000      0x27e build/SAMD21_IOT_WG_ICM42688/debug/_ext/907429946/wdrv_winc_assoc.o
 .data          0x0000000000000000        0x0 build/SAMD21_IOT_WG_ICM42688/debug/_ext/907429946/wdrv_winc_assoc.o
 .bss           0x0000000000000000        0x0 build/SAMD21_IOT_WG_ICM42688/debug/_ext/907429946/wdrv_winc_assoc.o
 .debug_info    0x0000000000000000     0x1218 build/SAMD21_IOT_WG_ICM42688/debug/_ext/907429946/wdrv_winc_assoc.o
 .debug_abbrev  0x0000000000000000      0x23b build/SAMD21_IOT_WG_ICM42688/debug/_ext/907429946/wdrv_winc_assoc.o
 .debug_loc     0x0000000000000000      0x118 build/SAMD21_IOT_WG_ICM42688/debug/_ext/907429946/wdrv_winc_assoc.o
 .debug_aranges
                0x0000000000000000       0x20 build/SAMD21_IOT_WG_ICM42688/debug/_ext/907429946/wdrv_winc_assoc.o
 .debug_line    0x0000000000000000      0x499 build/SAMD21_IOT_WG_ICM42688/debug/_ext/907429946/wdrv_winc_assoc.o
 .debug_str     0x0000000000000000     0x16f5 build/SAMD21_IOT_WG_ICM42688/debug/_ext/907429946/wdrv_winc_assoc.o
 .comment       0x0000000000000000       0x2c build/SAMD21_IOT_WG_ICM42688/debug/_ext/907429946/wdrv_winc_assoc.o
 .debug_frame   0x0000000000000000       0xb0 build/SAMD21_IOT_WG_ICM42688/debug/_ext/907429946/wdrv_winc_assoc.o
 .ARM.attributes
                0x0000000000000000       0x2c build/SAMD21_IOT_WG_ICM42688/debug/_ext/907429946/wdrv_winc_assoc.o
 .text          0x0000000000000000      0x784 build/SAMD21_IOT_WG_ICM42688/debug/_ext/907429946/wdrv_winc_socket.o
 .data          0x0000000000000000        0x0 build/SAMD21_IOT_WG_ICM42688/debug/_ext/907429946/wdrv_winc_socket.o
 .bss           0x0000000000000000        0x0 build/SAMD21_IOT_WG_ICM42688/debug/_ext/907429946/wdrv_winc_socket.o
 .rodata        0x0000000000000000        0x1 build/SAMD21_IOT_WG_ICM42688/debug/_ext/907429946/wdrv_winc_socket.o
 .debug_info    0x0000000000000000     0x1847 build/SAMD21_IOT_WG_ICM42688/debug/_ext/907429946/wdrv_winc_socket.o
 .debug_abbrev  0x0000000000000000      0x2a3 build/SAMD21_IOT_WG_ICM42688/debug/_ext/907429946/wdrv_winc_socket.o
 .debug_loc     0x0000000000000000      0x498 build/SAMD21_IOT_WG_ICM42688/debug/_ext/907429946/wdrv_winc_socket.o
 .debug_aranges
                0x0000000000000000       0x20 build/SAMD21_IOT_WG_ICM42688/debug/_ext/907429946/wdrv_winc_socket.o
 .debug_line    0x0000000000000000      0x770 build/SAMD21_IOT_WG_ICM42688/debug/_ext/907429946/wdrv_winc_socket.o
 .debug_str     0x0000000000000000     0x1a03 build/SAMD21_IOT_WG_ICM42688/debug/_ext/907429946/wdrv_winc_socket.o
 .comment       0x0000000000000000       0x2c build/SAMD21_IOT_WG_ICM42688/debug/_ext/907429946/wdrv_winc_socket.o
 .debug_frame   0x0000000000000000      0x2c4 build/SAMD21_IOT_WG_ICM42688/debug/_ext/907429946/wdrv_winc_socket.o
 .ARM.attributes
                0x0000000000000000       0x2c build/SAMD21_IOT_WG_ICM42688/debug/_ext/907429946/wdrv_winc_socket.o
 .data          0x0000000000000000        0x0 build/SAMD21_IOT_WG_ICM42688/debug/_ext/907429946/wdrv_winc_systime.o
 .bss           0x0000000000000000        0x0 build/SAMD21_IOT_WG_ICM42688/debug/_ext/907429946/wdrv_winc_systime.o
 .text          0x0000000000000000      0x33a build/SAMD21_IOT_WG_ICM42688/debug/_ext/907429946/wdrv_winc_enterprise.o
 .data          0x0000000000000000        0x0 build/SAMD21_IOT_WG_ICM42688/debug/_ext/907429946/wdrv_winc_enterprise.o
 .bss           0x0000000000000000        0x0 build/SAMD21_IOT_WG_ICM42688/debug/_ext/907429946/wdrv_winc_enterprise.o
 .debug_info    0x0000000000000000     0x13b7 build/SAMD21_IOT_WG_ICM42688/debug/_ext/907429946/wdrv_winc_enterprise.o
 .debug_abbrev  0x0000000000000000      0x23b build/SAMD21_IOT_WG_ICM42688/debug/_ext/907429946/wdrv_winc_enterprise.o
 .debug_loc     0x0000000000000000      0x1c0 build/SAMD21_IOT_WG_ICM42688/debug/_ext/907429946/wdrv_winc_enterprise.o
 .debug_aranges
                0x0000000000000000       0x20 build/SAMD21_IOT_WG_ICM42688/debug/_ext/907429946/wdrv_winc_enterprise.o
 .debug_line    0x0000000000000000      0x4e9 build/SAMD21_IOT_WG_ICM42688/debug/_ext/907429946/wdrv_winc_enterprise.o
 .debug_str     0x0000000000000000     0x1942 build/SAMD21_IOT_WG_ICM42688/debug/_ext/907429946/wdrv_winc_enterprise.o
 .comment       0x0000000000000000       0x2c build/SAMD21_IOT_WG_ICM42688/debug/_ext/907429946/wdrv_winc_enterprise.o
 .debug_frame   0x0000000000000000      0x110 build/SAMD21_IOT_WG_ICM42688/debug/_ext/907429946/wdrv_winc_enterprise.o
 .ARM.attributes
                0x0000000000000000       0x2c build/SAMD21_IOT_WG_ICM42688/debug/_ext/907429946/wdrv_winc_enterprise.o
 .text          0x0000000000000000      0x52c build/SAMD21_IOT_WG_ICM42688/debug/_ext/907429946/wdrv_winc_nvm.o
 .data          0x0000000000000000        0x0 build/SAMD21_IOT_WG_ICM42688/debug/_ext/907429946/wdrv_winc_nvm.o
 .bss           0x0000000000000000        0x0 build/SAMD21_IOT_WG_ICM42688/debug/_ext/907429946/wdrv_winc_nvm.o
 .rodata        0x0000000000000000       0x18 build/SAMD21_IOT_WG_ICM42688/debug/_ext/907429946/wdrv_winc_nvm.o
 .debug_info    0x0000000000000000     0x163d build/SAMD21_IOT_WG_ICM42688/debug/_ext/907429946/wdrv_winc_nvm.o
 .debug_abbrev  0x0000000000000000      0x285 build/SAMD21_IOT_WG_ICM42688/debug/_ext/907429946/wdrv_winc_nvm.o
 .debug_loc     0x0000000000000000      0x18a build/SAMD21_IOT_WG_ICM42688/debug/_ext/907429946/wdrv_winc_nvm.o
 .debug_aranges
                0x0000000000000000       0x20 build/SAMD21_IOT_WG_ICM42688/debug/_ext/907429946/wdrv_winc_nvm.o
 .debug_line    0x0000000000000000      0x5ae build/SAMD21_IOT_WG_ICM42688/debug/_ext/907429946/wdrv_winc_nvm.o
 .debug_str     0x0000000000000000     0x1dfb build/SAMD21_IOT_WG_ICM42688/debug/_ext/907429946/wdrv_winc_nvm.o
 .comment       0x0000000000000000       0x2c build/SAMD21_IOT_WG_ICM42688/debug/_ext/907429946/wdrv_winc_nvm.o
 .debug_frame   0x0000000000000000       0xf0 build/SAMD21_IOT_WG_ICM42688/debug/_ext/907429946/wdrv_winc_nvm.o
 .ARM.attributes
                0x0000000000000000       0x2c build/SAMD21_IOT_WG_ICM42688/debug/_ext/907429946/wdrv_winc_nvm.o
 .text          0x0000000000000000       0xcc build/SAMD21_IOT_WG_ICM42688/debug/_ext/907429946/wdrv_winc_httpprovctx.o
 .data          0x0000000000000000        0x0 build/SAMD21_IOT_WG_ICM42688/debug/_ext/907429946/wdrv_winc_httpprovctx.o
 .bss           0x0000000000000000        0x0 build/SAMD21_IOT_WG_ICM42688/debug/_ext/907429946/wdrv_winc_httpprovctx.o
 .debug_info    0x0000000000000000      0x52e build/SAMD21_IOT_WG_ICM42688/debug/_ext/907429946/wdrv_winc_httpprovctx.o
 .debug_abbrev  0x0000000000000000      0x1a5 build/SAMD21_IOT_WG_ICM42688/debug/_ext/907429946/wdrv_winc_httpprovctx.o
 .debug_loc     0x0000000000000000       0xe0 build/SAMD21_IOT_WG_ICM42688/debug/_ext/907429946/wdrv_winc_httpprovctx.o
 .debug_aranges
                0x0000000000000000       0x20 build/SAMD21_IOT_WG_ICM42688/debug/_ext/907429946/wdrv_winc_httpprovctx.o
 .debug_line    0x0000000000000000      0x1e1 build/SAMD21_IOT_WG_ICM42688/debug/_ext/907429946/wdrv_winc_httpprovctx.o
 .debug_str     0x0000000000000000      0x7fb build/SAMD21_IOT_WG_ICM42688/debug/_ext/907429946/wdrv_winc_httpprovctx.o
 .comment       0x0000000000000000       0x2c build/SAMD21_IOT_WG_ICM42688/debug/_ext/907429946/wdrv_winc_httpprovctx.o
 .debug_frame   0x0000000000000000       0x90 build/SAMD21_IOT_WG_ICM42688/debug/_ext/907429946/wdrv_winc_httpprovctx.o
 .ARM.attributes
                0x0000000000000000       0x2c build/SAMD21_IOT_WG_ICM42688/debug/_ext/907429946/wdrv_winc_httpprovctx.o
 .text          0x0000000000000000      0x1aa build/SAMD21_IOT_WG_ICM42688/debug/_ext/907429946/wdrv_winc_powersave.o
 .data          0x0000000000000000        0x0 build/SAMD21_IOT_WG_ICM42688/debug/_ext/907429946/wdrv_winc_powersave.o
 .bss           0x0000000000000000        0x0 build/SAMD21_IOT_WG_ICM42688/debug/_ext/907429946/wdrv_winc_powersave.o
 .debug_info    0x0000000000000000     0x11e8 build/SAMD21_IOT_WG_ICM42688/debug/_ext/907429946/wdrv_winc_powersave.o
 .debug_abbrev  0x0000000000000000      0x1fb build/SAMD21_IOT_WG_ICM42688/debug/_ext/907429946/wdrv_winc_powersave.o
 .debug_loc     0x0000000000000000       0xe0 build/SAMD21_IOT_WG_ICM42688/debug/_ext/907429946/wdrv_winc_powersave.o
 .debug_aranges
                0x0000000000000000       0x20 build/SAMD21_IOT_WG_ICM42688/debug/_ext/907429946/wdrv_winc_powersave.o
 .debug_line    0x0000000000000000      0x41e build/SAMD21_IOT_WG_ICM42688/debug/_ext/907429946/wdrv_winc_powersave.o
 .debug_str     0x0000000000000000     0x17d8 build/SAMD21_IOT_WG_ICM42688/debug/_ext/907429946/wdrv_winc_powersave.o
 .comment       0x0000000000000000       0x2c build/SAMD21_IOT_WG_ICM42688/debug/_ext/907429946/wdrv_winc_powersave.o
 .debug_frame   0x0000000000000000       0x90 build/SAMD21_IOT_WG_ICM42688/debug/_ext/907429946/wdrv_winc_powersave.o
 .ARM.attributes
                0x0000000000000000       0x2c build/SAMD21_IOT_WG_ICM42688/debug/_ext/907429946/wdrv_winc_powersave.o
 .data          0x0000000000000000        0x0 build/SAMD21_IOT_WG_ICM42688/debug/_ext/907429946/wdrv_winc_authctx.o
 .bss           0x0000000000000000        0x0 build/SAMD21_IOT_WG_ICM42688/debug/_ext/907429946/wdrv_winc_authctx.o
 .text          0x0000000000000000      0x568 build/SAMD21_IOT_WG_ICM42688/debug/_ext/907429946/wdrv_winc_ssl.o
 .data          0x0000000000000000        0x0 build/SAMD21_IOT_WG_ICM42688/debug/_ext/907429946/wdrv_winc_ssl.o
 .bss           0x0000000000000000        0x0 build/SAMD21_IOT_WG_ICM42688/debug/_ext/907429946/wdrv_winc_ssl.o
 .rodata        0x0000000000000000       0x58 build/SAMD21_IOT_WG_ICM42688/debug/_ext/907429946/wdrv_winc_ssl.o
 .debug_info    0x0000000000000000     0x1782 build/SAMD21_IOT_WG_ICM42688/debug/_ext/907429946/wdrv_winc_ssl.o
 .debug_abbrev  0x0000000000000000      0x2ba build/SAMD21_IOT_WG_ICM42688/debug/_ext/907429946/wdrv_winc_ssl.o
 .debug_loc     0x0000000000000000      0x1fc build/SAMD21_IOT_WG_ICM42688/debug/_ext/907429946/wdrv_winc_ssl.o
 .debug_aranges
                0x0000000000000000       0x20 build/SAMD21_IOT_WG_ICM42688/debug/_ext/907429946/wdrv_winc_ssl.o
 .debug_line    0x0000000000000000      0x582 build/SAMD21_IOT_WG_ICM42688/debug/_ext/907429946/wdrv_winc_ssl.o
 .debug_str     0x0000000000000000     0x1cf7 build/SAMD21_IOT_WG_ICM42688/debug/_ext/907429946/wdrv_winc_ssl.o
 .comment       0x0000000000000000       0x2c build/SAMD21_IOT_WG_ICM42688/debug/_ext/907429946/wdrv_winc_ssl.o
 .debug_frame   0x0000000000000000      0x134 build/SAMD21_IOT_WG_ICM42688/debug/_ext/907429946/wdrv_winc_ssl.o
 .ARM.attributes
                0x0000000000000000       0x2c build/SAMD21_IOT_WG_ICM42688/debug/_ext/907429946/wdrv_winc_ssl.o
 .text          0x0000000000000000      0x21c build/SAMD21_IOT_WG_ICM42688/debug/_ext/907429946/wdrv_winc_custie.o
 .data          0x0000000000000000        0x0 build/SAMD21_IOT_WG_ICM42688/debug/_ext/907429946/wdrv_winc_custie.o
 .bss           0x0000000000000000        0x0 build/SAMD21_IOT_WG_ICM42688/debug/_ext/907429946/wdrv_winc_custie.o
 .debug_info    0x0000000000000000      0x2fd build/SAMD21_IOT_WG_ICM42688/debug/_ext/907429946/wdrv_winc_custie.o
 .debug_abbrev  0x0000000000000000      0x135 build/SAMD21_IOT_WG_ICM42688/debug/_ext/907429946/wdrv_winc_custie.o
 .debug_loc     0x0000000000000000       0xa8 build/SAMD21_IOT_WG_ICM42688/debug/_ext/907429946/wdrv_winc_custie.o
 .debug_aranges
                0x0000000000000000       0x20 build/SAMD21_IOT_WG_ICM42688/debug/_ext/907429946/wdrv_winc_custie.o
 .debug_line    0x0000000000000000      0x21a build/SAMD21_IOT_WG_ICM42688/debug/_ext/907429946/wdrv_winc_custie.o
 .debug_str     0x0000000000000000      0x5b5 build/SAMD21_IOT_WG_ICM42688/debug/_ext/907429946/wdrv_winc_custie.o
 .comment       0x0000000000000000       0x2c build/SAMD21_IOT_WG_ICM42688/debug/_ext/907429946/wdrv_winc_custie.o
 .debug_frame   0x0000000000000000       0x70 build/SAMD21_IOT_WG_ICM42688/debug/_ext/907429946/wdrv_winc_custie.o
 .ARM.attributes
                0x0000000000000000       0x2c build/SAMD21_IOT_WG_ICM42688/debug/_ext/907429946/wdrv_winc_custie.o
 .data          0x0000000000000000        0x0 build/SAMD21_IOT_WG_ICM42688/debug/_ext/907429946/wdrv_winc_host_file.o
 .bss           0x0000000000000000        0x0 build/SAMD21_IOT_WG_ICM42688/debug/_ext/907429946/wdrv_winc_host_file.o
 .data          0x0000000000000000        0x0 build/SAMD21_IOT_WG_ICM42688/debug/_ext/907429946/wdrv_winc_bssctx.o
 .bss           0x0000000000000000        0x0 build/SAMD21_IOT_WG_ICM42688/debug/_ext/907429946/wdrv_winc_bssctx.o
 .data          0x0000000000000000        0x0 build/SAMD21_IOT_WG_ICM42688/debug/_ext/1750425231/plib_clock.o
 .bss           0x0000000000000000        0x0 build/SAMD21_IOT_WG_ICM42688/debug/_ext/1750425231/plib_clock.o
 .data          0x0000000000000000        0x0 build/SAMD21_IOT_WG_ICM42688/debug/_ext/1580516298/plib_dmac.o
 .data          0x0000000000000000        0x0 build/SAMD21_IOT_WG_ICM42688/debug/_ext/503204096/plib_eic.o
 .text          0x0000000000000000        0xa build/SAMD21_IOT_WG_ICM42688/debug/_ext/1752574717/plib_evsys.o
 .data          0x0000000000000000        0x0 build/SAMD21_IOT_WG_ICM42688/debug/_ext/1752574717/plib_evsys.o
 .bss           0x0000000000000000        0x0 build/SAMD21_IOT_WG_ICM42688/debug/_ext/1752574717/plib_evsys.o
 .debug_info    0x0000000000000000       0x98 build/SAMD21_IOT_WG_ICM42688/debug/_ext/1752574717/plib_evsys.o
 .debug_abbrev  0x0000000000000000       0x44 build/SAMD21_IOT_WG_ICM42688/debug/_ext/1752574717/plib_evsys.o
 .debug_loc     0x0000000000000000       0x2c build/SAMD21_IOT_WG_ICM42688/debug/_ext/1752574717/plib_evsys.o
 .debug_aranges
                0x0000000000000000       0x20 build/SAMD21_IOT_WG_ICM42688/debug/_ext/1752574717/plib_evsys.o
 .debug_line    0x0000000000000000       0x75 build/SAMD21_IOT_WG_ICM42688/debug/_ext/1752574717/plib_evsys.o
 .debug_str     0x0000000000000000      0x2a9 build/SAMD21_IOT_WG_ICM42688/debug/_ext/1752574717/plib_evsys.o
 .comment       0x0000000000000000       0x2c build/SAMD21_IOT_WG_ICM42688/debug/_ext/1752574717/plib_evsys.o
 .debug_frame   0x0000000000000000       0x2c build/SAMD21_IOT_WG_ICM42688/debug/_ext/1752574717/plib_evsys.o
 .ARM.attributes
                0x0000000000000000       0x2c build/SAMD21_IOT_WG_ICM42688/debug/_ext/1752574717/plib_evsys.o
 .data          0x0000000000000000        0x0 build/SAMD21_IOT_WG_ICM42688/debug/_ext/1580823105/plib_nvic.o
 .bss           0x0000000000000000        0x0 build/SAMD21_IOT_WG_ICM42688/debug/_ext/1580823105/plib_nvic.o
 .data          0x0000000000000000        0x0 build/SAMD21_IOT_WG_ICM42688/debug/_ext/11470383/plib_nvmctrl.o
 .bss           0x0000000000000000        0x0 build/SAMD21_IOT_WG_ICM42688/debug/_ext/11470383/plib_nvmctrl.o
 .data          0x0000000000000000        0x0 build/SAMD21_IOT_WG_ICM42688/debug/_ext/1580876256/plib_port.o
 .bss           0x0000000000000000        0x0 build/SAMD21_IOT_WG_ICM42688/debug/_ext/1580876256/plib_port.o
 .data          0x0000000000000000        0x0 build/SAMD21_IOT_WG_ICM42688/debug/_ext/1014017276/plib_sercom0_spi_master.o
 .bss           0x0000000000000000        0x0 build/SAMD21_IOT_WG_ICM42688/debug/_ext/1014017276/plib_sercom0_spi_master.o
 .data          0x0000000000000000        0x0 build/SAMD21_IOT_WG_ICM42688/debug/_ext/1014017276/plib_sercom2_spi_master.o
 .data          0x0000000000000000        0x0 build/SAMD21_IOT_WG_ICM42688/debug/_ext/177673482/plib_sercom5_usart.o
 .bss           0x0000000000000000        0x0 build/SAMD21_IOT_WG_ICM42688/debug/_ext/177673482/plib_sercom5_usart.o
 .data          0x0000000000000000        0x0 build/SAMD21_IOT_WG_ICM42688/debug/_ext/223004715/plib_systick.o
 .bss           0x0000000000000000        0x0 build/SAMD21_IOT_WG_ICM42688/debug/_ext/223004715/plib_systick.o
 .data          0x0000000000000000        0x0 build/SAMD21_IOT_WG_ICM42688/debug/_ext/399410062/plib_tc3.o
 .data          0x0000000000000000        0x0 build/SAMD21_IOT_WG_ICM42688/debug/_ext/399410062/plib_tc4.o
 .data          0x0000000000000000        0x0 build/SAMD21_IOT_WG_ICM42688/debug/_ext/1357625803/xc32_monitor.o
 .bss           0x0000000000000000        0x0 build/SAMD21_IOT_WG_ICM42688/debug/_ext/1357625803/xc32_monitor.o
 .data          0x0000000000000000        0x0 build/SAMD21_IOT_WG_ICM42688/debug/_ext/1584719636/sys_dma.o
 .bss           0x0000000000000000        0x0 build/SAMD21_IOT_WG_ICM42688/debug/_ext/1584719636/sys_dma.o
 .data          0x0000000000000000        0x0 build/SAMD21_IOT_WG_ICM42688/debug/_ext/1318297016/sys_int.o
 .bss           0x0000000000000000        0x0 build/SAMD21_IOT_WG_ICM42688/debug/_ext/1318297016/sys_int.o
 .data          0x0000000000000000        0x0 build/SAMD21_IOT_WG_ICM42688/debug/_ext/1832905403/initialization.o
 .data          0x0000000000000000        0x0 build/SAMD21_IOT_WG_ICM42688/debug/_ext/1832905403/interrupts.o
 .bss           0x0000000000000000        0x0 build/SAMD21_IOT_WG_ICM42688/debug/_ext/1832905403/interrupts.o
 .data          0x0000000000000000        0x0 build/SAMD21_IOT_WG_ICM42688/debug/_ext/1832905403/exceptions.o
 .bss           0x0000000000000000        0x0 build/SAMD21_IOT_WG_ICM42688/debug/_ext/1832905403/exceptions.o
 .data          0x0000000000000000        0x0 build/SAMD21_IOT_WG_ICM42688/debug/_ext/1832905403/startup_xc32.o
 .bss           0x0000000000000000        0x0 build/SAMD21_IOT_WG_ICM42688/debug/_ext/1832905403/startup_xc32.o
 .text          0x0000000000000000        0xc build/SAMD21_IOT_WG_ICM42688/debug/_ext/1832905403/libc_syscalls.o
 .data          0x0000000000000000        0x0 build/SAMD21_IOT_WG_ICM42688/debug/_ext/1832905403/libc_syscalls.o
 .bss           0x0000000000000000        0x0 build/SAMD21_IOT_WG_ICM42688/debug/_ext/1832905403/libc_syscalls.o
 .debug_info    0x0000000000000000       0xa2 build/SAMD21_IOT_WG_ICM42688/debug/_ext/1832905403/libc_syscalls.o
 .debug_abbrev  0x0000000000000000       0x58 build/SAMD21_IOT_WG_ICM42688/debug/_ext/1832905403/libc_syscalls.o
 .debug_loc     0x0000000000000000       0x38 build/SAMD21_IOT_WG_ICM42688/debug/_ext/1832905403/libc_syscalls.o
 .debug_aranges
                0x0000000000000000       0x20 build/SAMD21_IOT_WG_ICM42688/debug/_ext/1832905403/libc_syscalls.o
 .debug_line    0x0000000000000000       0x6c build/SAMD21_IOT_WG_ICM42688/debug/_ext/1832905403/libc_syscalls.o
 .debug_str     0x0000000000000000      0x28b build/SAMD21_IOT_WG_ICM42688/debug/_ext/1832905403/libc_syscalls.o
 .comment       0x0000000000000000       0x2c build/SAMD21_IOT_WG_ICM42688/debug/_ext/1832905403/libc_syscalls.o
 .debug_frame   0x0000000000000000       0x30 build/SAMD21_IOT_WG_ICM42688/debug/_ext/1832905403/libc_syscalls.o
 .ARM.attributes
                0x0000000000000000       0x2c build/SAMD21_IOT_WG_ICM42688/debug/_ext/1832905403/libc_syscalls.o
 .data          0x0000000000000000        0x0 build/SAMD21_IOT_WG_ICM42688/debug/_ext/1832905403/tasks.o
 .bss           0x0000000000000000        0x0 build/SAMD21_IOT_WG_ICM42688/debug/_ext/1832905403/tasks.o
 .data          0x0000000000000000        0x0 build/SAMD21_IOT_WG_ICM42688/debug/_ext/1341251756/Icm426xxDriver_HL.o
 .bss           0x0000000000000000        0x0 build/SAMD21_IOT_WG_ICM42688/debug/_ext/1341251756/Icm426xxDriver_HL.o
 .text          0x0000000000000000     0x149c build/SAMD21_IOT_WG_ICM42688/debug/_ext/1341251756/Icm426xxDriver_HL_apex.o
 .data          0x0000000000000000        0x0 build/SAMD21_IOT_WG_ICM42688/debug/_ext/1341251756/Icm426xxDriver_HL_apex.o
 .bss           0x0000000000000000        0x0 build/SAMD21_IOT_WG_ICM42688/debug/_ext/1341251756/Icm426xxDriver_HL_apex.o
 .debug_info    0x0000000000000000     0x1af2 build/SAMD21_IOT_WG_ICM42688/debug/_ext/1341251756/Icm426xxDriver_HL_apex.o
 .debug_abbrev  0x0000000000000000      0x230 build/SAMD21_IOT_WG_ICM42688/debug/_ext/1341251756/Icm426xxDriver_HL_apex.o
 .debug_loc     0x0000000000000000      0x658 build/SAMD21_IOT_WG_ICM42688/debug/_ext/1341251756/Icm426xxDriver_HL_apex.o
 .debug_aranges
                0x0000000000000000       0x20 build/SAMD21_IOT_WG_ICM42688/debug/_ext/1341251756/Icm426xxDriver_HL_apex.o
 .debug_line    0x0000000000000000      0x882 build/SAMD21_IOT_WG_ICM42688/debug/_ext/1341251756/Icm426xxDriver_HL_apex.o
 .debug_str     0x0000000000000000     0x2b09 build/SAMD21_IOT_WG_ICM42688/debug/_ext/1341251756/Icm426xxDriver_HL_apex.o
 .comment       0x0000000000000000       0x2c build/SAMD21_IOT_WG_ICM42688/debug/_ext/1341251756/Icm426xxDriver_HL_apex.o
 .debug_frame   0x0000000000000000      0x3b8 build/SAMD21_IOT_WG_ICM42688/debug/_ext/1341251756/Icm426xxDriver_HL_apex.o
 .ARM.attributes
                0x0000000000000000       0x2c build/SAMD21_IOT_WG_ICM42688/debug/_ext/1341251756/Icm426xxDriver_HL_apex.o
 .text          0x0000000000000000     0x11ec build/SAMD21_IOT_WG_ICM42688/debug/_ext/1341251756/Icm426xxSelfTest.o
 .data          0x0000000000000000        0x0 build/SAMD21_IOT_WG_ICM42688/debug/_ext/1341251756/Icm426xxSelfTest.o
 .bss           0x0000000000000000        0x0 build/SAMD21_IOT_WG_ICM42688/debug/_ext/1341251756/Icm426xxSelfTest.o
 .debug_info    0x0000000000000000      0xf3d build/SAMD21_IOT_WG_ICM42688/debug/_ext/1341251756/Icm426xxSelfTest.o
 .debug_abbrev  0x0000000000000000      0x24e build/SAMD21_IOT_WG_ICM42688/debug/_ext/1341251756/Icm426xxSelfTest.o
 .debug_loc     0x0000000000000000      0x26e build/SAMD21_IOT_WG_ICM42688/debug/_ext/1341251756/Icm426xxSelfTest.o
 .debug_aranges
                0x0000000000000000       0x20 build/SAMD21_IOT_WG_ICM42688/debug/_ext/1341251756/Icm426xxSelfTest.o
 .debug_line    0x0000000000000000      0x6d5 build/SAMD21_IOT_WG_ICM42688/debug/_ext/1341251756/Icm426xxSelfTest.o
 .debug_str     0x0000000000000000     0x14eb build/SAMD21_IOT_WG_ICM42688/debug/_ext/1341251756/Icm426xxSelfTest.o
 .comment       0x0000000000000000       0x2c build/SAMD21_IOT_WG_ICM42688/debug/_ext/1341251756/Icm426xxSelfTest.o
 .debug_frame   0x0000000000000000      0x17c build/SAMD21_IOT_WG_ICM42688/debug/_ext/1341251756/Icm426xxSelfTest.o
 .ARM.attributes
                0x0000000000000000       0x2c build/SAMD21_IOT_WG_ICM42688/debug/_ext/1341251756/Icm426xxSelfTest.o
 .data          0x0000000000000000        0x0 build/SAMD21_IOT_WG_ICM42688/debug/_ext/1341251756/Icm426xxTransport.o
 .bss           0x0000000000000000        0x0 build/SAMD21_IOT_WG_ICM42688/debug/_ext/1341251756/Icm426xxTransport.o
 .text          0x0000000000000000      0x398 build/SAMD21_IOT_WG_ICM42688/debug/_ext/299863938/ssi_comms.o
 .data          0x0000000000000000        0x8 build/SAMD21_IOT_WG_ICM42688/debug/_ext/299863938/ssi_comms.o
 .bss           0x0000000000000000       0x20 build/SAMD21_IOT_WG_ICM42688/debug/_ext/299863938/ssi_comms.o
 .rodata        0x0000000000000000       0x14 build/SAMD21_IOT_WG_ICM42688/debug/_ext/299863938/ssi_comms.o
 .debug_info    0x0000000000000000      0x469 build/SAMD21_IOT_WG_ICM42688/debug/_ext/299863938/ssi_comms.o
 .debug_abbrev  0x0000000000000000      0x18f build/SAMD21_IOT_WG_ICM42688/debug/_ext/299863938/ssi_comms.o
 .debug_loc     0x0000000000000000      0x25e build/SAMD21_IOT_WG_ICM42688/debug/_ext/299863938/ssi_comms.o
 .debug_aranges
                0x0000000000000000       0x20 build/SAMD21_IOT_WG_ICM42688/debug/_ext/299863938/ssi_comms.o
 .debug_line    0x0000000000000000      0x1dc build/SAMD21_IOT_WG_ICM42688/debug/_ext/299863938/ssi_comms.o
 .debug_str     0x0000000000000000      0x427 build/SAMD21_IOT_WG_ICM42688/debug/_ext/299863938/ssi_comms.o
 .comment       0x0000000000000000       0x2c build/SAMD21_IOT_WG_ICM42688/debug/_ext/299863938/ssi_comms.o
 .debug_frame   0x0000000000000000      0x170 build/SAMD21_IOT_WG_ICM42688/debug/_ext/299863938/ssi_comms.o
 .ARM.attributes
                0x0000000000000000       0x2c build/SAMD21_IOT_WG_ICM42688/debug/_ext/299863938/ssi_comms.o
 .data          0x0000000000000000        0x0 build/SAMD21_IOT_WG_ICM42688/debug/_ext/1360937237/ringbuffer.o
 .bss           0x0000000000000000        0x0 build/SAMD21_IOT_WG_ICM42688/debug/_ext/1360937237/ringbuffer.o
 .data          0x0000000000000000        0x0 build/SAMD21_IOT_WG_ICM42688/debug/_ext/1360937237/app.o
 .text          0x0000000000000000      0x3b0 build/SAMD21_IOT_WG_ICM42688/debug/_ext/1360937237/winc1500_tcp_client.o
 .data          0x0000000000000000        0x0 build/SAMD21_IOT_WG_ICM42688/debug/_ext/1360937237/winc1500_tcp_client.o
 .bss           0x0000000000000000       0x12 build/SAMD21_IOT_WG_ICM42688/debug/_ext/1360937237/winc1500_tcp_client.o
 .rodata        0x0000000000000000      0x100 build/SAMD21_IOT_WG_ICM42688/debug/_ext/1360937237/winc1500_tcp_client.o
 .debug_info    0x0000000000000000      0xa90 build/SAMD21_IOT_WG_ICM42688/debug/_ext/1360937237/winc1500_tcp_client.o
 .debug_abbrev  0x0000000000000000      0x24d build/SAMD21_IOT_WG_ICM42688/debug/_ext/1360937237/winc1500_tcp_client.o
 .debug_loc     0x0000000000000000      0x17e build/SAMD21_IOT_WG_ICM42688/debug/_ext/1360937237/winc1500_tcp_client.o
 .debug_aranges
                0x0000000000000000       0x20 build/SAMD21_IOT_WG_ICM42688/debug/_ext/1360937237/winc1500_tcp_client.o
 .debug_ranges  0x0000000000000000       0x30 build/SAMD21_IOT_WG_ICM42688/debug/_ext/1360937237/winc1500_tcp_client.o
 .debug_line    0x0000000000000000      0x3c6 build/SAMD21_IOT_WG_ICM42688/debug/_ext/1360937237/winc1500_tcp_client.o
 .debug_str     0x0000000000000000     0x116e build/SAMD21_IOT_WG_ICM42688/debug/_ext/1360937237/winc1500_tcp_client.o
 .comment       0x0000000000000000       0x2c build/SAMD21_IOT_WG_ICM42688/debug/_ext/1360937237/winc1500_tcp_client.o
 .debug_frame   0x0000000000000000       0xf0 build/SAMD21_IOT_WG_ICM42688/debug/_ext/1360937237/winc1500_tcp_client.o
 .ARM.attributes
                0x0000000000000000       0x2c build/SAMD21_IOT_WG_ICM42688/debug/_ext/1360937237/winc1500_tcp_client.o
 .data          0x0000000000000000        0x0 build/SAMD21_IOT_WG_ICM42688/debug/_ext/1360937237/ws2812.o
 .data          0x0000000000000000        0x0 build/SAMD21_IOT_WG_ICM42688/debug/_ext/431689064/sml_recognition_run.o
 .text          0x0000000000000000       0x82 build/SAMD21_IOT_WG_ICM42688/debug/_ext/336238826/array_contains.o
 .data          0x0000000000000000        0x0 build/SAMD21_IOT_WG_ICM42688/debug/_ext/336238826/array_contains.o
 .bss           0x0000000000000000        0x0 build/SAMD21_IOT_WG_ICM42688/debug/_ext/336238826/array_contains.o
 .debug_info    0x0000000000000000      0x151 build/SAMD21_IOT_WG_ICM42688/debug/_ext/336238826/array_contains.o
 .debug_abbrev  0x0000000000000000       0x9e build/SAMD21_IOT_WG_ICM42688/debug/_ext/336238826/array_contains.o
 .debug_loc     0x0000000000000000       0x70 build/SAMD21_IOT_WG_ICM42688/debug/_ext/336238826/array_contains.o
 .debug_aranges
                0x0000000000000000       0x20 build/SAMD21_IOT_WG_ICM42688/debug/_ext/336238826/array_contains.o
 .debug_line    0x0000000000000000       0xea build/SAMD21_IOT_WG_ICM42688/debug/_ext/336238826/array_contains.o
 .debug_str     0x0000000000000000      0x2e3 build/SAMD21_IOT_WG_ICM42688/debug/_ext/336238826/array_contains.o
 .comment       0x0000000000000000       0x2c build/SAMD21_IOT_WG_ICM42688/debug/_ext/336238826/array_contains.o
 .debug_frame   0x0000000000000000       0x50 build/SAMD21_IOT_WG_ICM42688/debug/_ext/336238826/array_contains.o
 .ARM.attributes
                0x0000000000000000       0x2c build/SAMD21_IOT_WG_ICM42688/debug/_ext/336238826/array_contains.o
 .text          0x0000000000000000      0x190 build/SAMD21_IOT_WG_ICM42688/debug/_ext/336238826/calc_area.o
 .data          0x0000000000000000        0x0 build/SAMD21_IOT_WG_ICM42688/debug/_ext/336238826/calc_area.o
 .bss           0x0000000000000000        0x0 build/SAMD21_IOT_WG_ICM42688/debug/_ext/336238826/calc_area.o
 .debug_info    0x0000000000000000      0x2b3 build/SAMD21_IOT_WG_ICM42688/debug/_ext/336238826/calc_area.o
 .debug_abbrev  0x0000000000000000       0xfa build/SAMD21_IOT_WG_ICM42688/debug/_ext/336238826/calc_area.o
 .debug_loc     0x0000000000000000       0x3a build/SAMD21_IOT_WG_ICM42688/debug/_ext/336238826/calc_area.o
 .debug_aranges
                0x0000000000000000       0x20 build/SAMD21_IOT_WG_ICM42688/debug/_ext/336238826/calc_area.o
 .debug_line    0x0000000000000000      0x173 build/SAMD21_IOT_WG_ICM42688/debug/_ext/336238826/calc_area.o
 .debug_str     0x0000000000000000      0x381 build/SAMD21_IOT_WG_ICM42688/debug/_ext/336238826/calc_area.o
 .comment       0x0000000000000000       0x2c build/SAMD21_IOT_WG_ICM42688/debug/_ext/336238826/calc_area.o
 .debug_frame   0x0000000000000000       0x30 build/SAMD21_IOT_WG_ICM42688/debug/_ext/336238826/calc_area.o
 .ARM.attributes
                0x0000000000000000       0x2c build/SAMD21_IOT_WG_ICM42688/debug/_ext/336238826/calc_area.o
 .text          0x0000000000000000       0xa2 build/SAMD21_IOT_WG_ICM42688/debug/_ext/336238826/column_to_row_complex.o
 .data          0x0000000000000000        0x0 build/SAMD21_IOT_WG_ICM42688/debug/_ext/336238826/column_to_row_complex.o
 .bss           0x0000000000000000        0x0 build/SAMD21_IOT_WG_ICM42688/debug/_ext/336238826/column_to_row_complex.o
 .debug_info    0x0000000000000000      0x20d build/SAMD21_IOT_WG_ICM42688/debug/_ext/336238826/column_to_row_complex.o
 .debug_abbrev  0x0000000000000000       0xe2 build/SAMD21_IOT_WG_ICM42688/debug/_ext/336238826/column_to_row_complex.o
 .debug_loc     0x0000000000000000       0x38 build/SAMD21_IOT_WG_ICM42688/debug/_ext/336238826/column_to_row_complex.o
 .debug_aranges
                0x0000000000000000       0x20 build/SAMD21_IOT_WG_ICM42688/debug/_ext/336238826/column_to_row_complex.o
 .debug_line    0x0000000000000000      0x108 build/SAMD21_IOT_WG_ICM42688/debug/_ext/336238826/column_to_row_complex.o
 .debug_str     0x0000000000000000      0x330 build/SAMD21_IOT_WG_ICM42688/debug/_ext/336238826/column_to_row_complex.o
 .comment       0x0000000000000000       0x2c build/SAMD21_IOT_WG_ICM42688/debug/_ext/336238826/column_to_row_complex.o
 .debug_frame   0x0000000000000000       0x30 build/SAMD21_IOT_WG_ICM42688/debug/_ext/336238826/column_to_row_complex.o
 .ARM.attributes
                0x0000000000000000       0x2c build/SAMD21_IOT_WG_ICM42688/debug/_ext/336238826/column_to_row_complex.o
 .text          0x0000000000000000      0x2e2 build/SAMD21_IOT_WG_ICM42688/debug/_ext/336238826/crossing_rate.o
 .data          0x0000000000000000        0x0 build/SAMD21_IOT_WG_ICM42688/debug/_ext/336238826/crossing_rate.o
 .bss           0x0000000000000000        0x0 build/SAMD21_IOT_WG_ICM42688/debug/_ext/336238826/crossing_rate.o
 .debug_info    0x0000000000000000      0x48c build/SAMD21_IOT_WG_ICM42688/debug/_ext/336238826/crossing_rate.o
 .debug_abbrev  0x0000000000000000       0xb8 build/SAMD21_IOT_WG_ICM42688/debug/_ext/336238826/crossing_rate.o
 .debug_loc     0x0000000000000000      0x150 build/SAMD21_IOT_WG_ICM42688/debug/_ext/336238826/crossing_rate.o
 .debug_aranges
                0x0000000000000000       0x20 build/SAMD21_IOT_WG_ICM42688/debug/_ext/336238826/crossing_rate.o
 .debug_line    0x0000000000000000      0x1ec build/SAMD21_IOT_WG_ICM42688/debug/_ext/336238826/crossing_rate.o
 .debug_str     0x0000000000000000      0x444 build/SAMD21_IOT_WG_ICM42688/debug/_ext/336238826/crossing_rate.o
 .comment       0x0000000000000000       0x2c build/SAMD21_IOT_WG_ICM42688/debug/_ext/336238826/crossing_rate.o
 .debug_frame   0x0000000000000000       0xd0 build/SAMD21_IOT_WG_ICM42688/debug/_ext/336238826/crossing_rate.o
 .ARM.attributes
                0x0000000000000000       0x2c build/SAMD21_IOT_WG_ICM42688/debug/_ext/336238826/crossing_rate.o
 .data          0x0000000000000000        0x0 build/SAMD21_IOT_WG_ICM42688/debug/_ext/336238826/dsp_dtw_distance.o
 .bss           0x0000000000000000        0x0 build/SAMD21_IOT_WG_ICM42688/debug/_ext/336238826/dsp_dtw_distance.o
 .data          0x0000000000000000        0x0 build/SAMD21_IOT_WG_ICM42688/debug/_ext/336238826/dsp_l1_distance.o
 .bss           0x0000000000000000        0x0 build/SAMD21_IOT_WG_ICM42688/debug/_ext/336238826/dsp_l1_distance.o
 .data          0x0000000000000000        0x0 build/SAMD21_IOT_WG_ICM42688/debug/_ext/336238826/dsp_lsup_distance.o
 .bss           0x0000000000000000        0x0 build/SAMD21_IOT_WG_ICM42688/debug/_ext/336238826/dsp_lsup_distance.o
 .text          0x0000000000000000      0x49c build/SAMD21_IOT_WG_ICM42688/debug/_ext/336238826/fftr.o
 .data          0x0000000000000000        0x0 build/SAMD21_IOT_WG_ICM42688/debug/_ext/336238826/fftr.o
 .bss           0x0000000000000000        0x0 build/SAMD21_IOT_WG_ICM42688/debug/_ext/336238826/fftr.o
 .rodata        0x0000000000000000      0x400 build/SAMD21_IOT_WG_ICM42688/debug/_ext/336238826/fftr.o
 .debug_info    0x0000000000000000      0x436 build/SAMD21_IOT_WG_ICM42688/debug/_ext/336238826/fftr.o
 .debug_abbrev  0x0000000000000000      0x13d build/SAMD21_IOT_WG_ICM42688/debug/_ext/336238826/fftr.o
 .debug_loc     0x0000000000000000       0xd8 build/SAMD21_IOT_WG_ICM42688/debug/_ext/336238826/fftr.o
 .debug_aranges
                0x0000000000000000       0x20 build/SAMD21_IOT_WG_ICM42688/debug/_ext/336238826/fftr.o
 .debug_line    0x0000000000000000      0x25c build/SAMD21_IOT_WG_ICM42688/debug/_ext/336238826/fftr.o
 .debug_str     0x0000000000000000      0x3e1 build/SAMD21_IOT_WG_ICM42688/debug/_ext/336238826/fftr.o
 .comment       0x0000000000000000       0x2c build/SAMD21_IOT_WG_ICM42688/debug/_ext/336238826/fftr.o
 .debug_frame   0x0000000000000000       0x94 build/SAMD21_IOT_WG_ICM42688/debug/_ext/336238826/fftr.o
 .ARM.attributes
                0x0000000000000000       0x2c build/SAMD21_IOT_WG_ICM42688/debug/_ext/336238826/fftr.o
 .text          0x0000000000000000      0x2c4 build/SAMD21_IOT_WG_ICM42688/debug/_ext/336238826/fftr_utils.o
 .data          0x0000000000000000        0x0 build/SAMD21_IOT_WG_ICM42688/debug/_ext/336238826/fftr_utils.o
 .bss           0x0000000000000000        0x2 build/SAMD21_IOT_WG_ICM42688/debug/_ext/336238826/fftr_utils.o
 .debug_info    0x0000000000000000      0x361 build/SAMD21_IOT_WG_ICM42688/debug/_ext/336238826/fftr_utils.o
 .debug_abbrev  0x0000000000000000      0x133 build/SAMD21_IOT_WG_ICM42688/debug/_ext/336238826/fftr_utils.o
 .debug_loc     0x0000000000000000      0x150 build/SAMD21_IOT_WG_ICM42688/debug/_ext/336238826/fftr_utils.o
 .debug_aranges
                0x0000000000000000       0x20 build/SAMD21_IOT_WG_ICM42688/debug/_ext/336238826/fftr_utils.o
 .debug_line    0x0000000000000000      0x1c3 build/SAMD21_IOT_WG_ICM42688/debug/_ext/336238826/fftr_utils.o
 .debug_str     0x0000000000000000      0x334 build/SAMD21_IOT_WG_ICM42688/debug/_ext/336238826/fftr_utils.o
 .comment       0x0000000000000000       0x2c build/SAMD21_IOT_WG_ICM42688/debug/_ext/336238826/fftr_utils.o
 .debug_frame   0x0000000000000000       0xd0 build/SAMD21_IOT_WG_ICM42688/debug/_ext/336238826/fftr_utils.o
 .ARM.attributes
                0x0000000000000000       0x2c build/SAMD21_IOT_WG_ICM42688/debug/_ext/336238826/fftr_utils.o
 .data          0x0000000000000000        0x0 build/SAMD21_IOT_WG_ICM42688/debug/_ext/336238826/fg_amplitude_peak_to_peak.o
 .bss           0x0000000000000000        0x0 build/SAMD21_IOT_WG_ICM42688/debug/_ext/336238826/fg_amplitude_peak_to_peak.o
 .data          0x0000000000000000        0x0 build/SAMD21_IOT_WG_ICM42688/debug/_ext/336238826/fg_cross_mean_difference.o
 .bss           0x0000000000000000        0x0 build/SAMD21_IOT_WG_ICM42688/debug/_ext/336238826/fg_cross_mean_difference.o
 .data          0x0000000000000000        0x0 build/SAMD21_IOT_WG_ICM42688/debug/_ext/336238826/fg_cross_p2p_difference.o
 .bss           0x0000000000000000        0x0 build/SAMD21_IOT_WG_ICM42688/debug/_ext/336238826/fg_cross_p2p_difference.o
 .data          0x0000000000000000        0x0 build/SAMD21_IOT_WG_ICM42688/debug/_ext/336238826/fg_cross_peak_location_difference.o
 .bss           0x0000000000000000        0x0 build/SAMD21_IOT_WG_ICM42688/debug/_ext/336238826/fg_cross_peak_location_difference.o
 .data          0x0000000000000000        0x0 build/SAMD21_IOT_WG_ICM42688/debug/_ext/336238826/fg_stats_minimum.o
 .bss           0x0000000000000000        0x0 build/SAMD21_IOT_WG_ICM42688/debug/_ext/336238826/fg_stats_minimum.o
 .text          0x0000000000000000      0x124 build/SAMD21_IOT_WG_ICM42688/debug/_ext/336238826/fixlog.o
 .data          0x0000000000000000        0x0 build/SAMD21_IOT_WG_ICM42688/debug/_ext/336238826/fixlog.o
 .bss           0x0000000000000000        0x0 build/SAMD21_IOT_WG_ICM42688/debug/_ext/336238826/fixlog.o
 .rodata        0x0000000000000000      0x6c4 build/SAMD21_IOT_WG_ICM42688/debug/_ext/336238826/fixlog.o
 .debug_info    0x0000000000000000      0x204 build/SAMD21_IOT_WG_ICM42688/debug/_ext/336238826/fixlog.o
 .debug_abbrev  0x0000000000000000      0x133 build/SAMD21_IOT_WG_ICM42688/debug/_ext/336238826/fixlog.o
 .debug_loc     0x0000000000000000       0xd4 build/SAMD21_IOT_WG_ICM42688/debug/_ext/336238826/fixlog.o
 .debug_aranges
                0x0000000000000000       0x20 build/SAMD21_IOT_WG_ICM42688/debug/_ext/336238826/fixlog.o
 .debug_line    0x0000000000000000      0x110 build/SAMD21_IOT_WG_ICM42688/debug/_ext/336238826/fixlog.o
 .debug_str     0x0000000000000000      0x305 build/SAMD21_IOT_WG_ICM42688/debug/_ext/336238826/fixlog.o
 .comment       0x0000000000000000       0x2c build/SAMD21_IOT_WG_ICM42688/debug/_ext/336238826/fixlog.o
 .debug_frame   0x0000000000000000       0x90 build/SAMD21_IOT_WG_ICM42688/debug/_ext/336238826/fixlog.o
 .ARM.attributes
                0x0000000000000000       0x2c build/SAMD21_IOT_WG_ICM42688/debug/_ext/336238826/fixlog.o
 .text          0x0000000000000000      0x680 build/SAMD21_IOT_WG_ICM42688/debug/_ext/336238826/imfcc.o
 .data          0x0000000000000000        0x0 build/SAMD21_IOT_WG_ICM42688/debug/_ext/336238826/imfcc.o
 .bss           0x0000000000000000        0x0 build/SAMD21_IOT_WG_ICM42688/debug/_ext/336238826/imfcc.o
 .rodata        0x0000000000000000      0x9d4 build/SAMD21_IOT_WG_ICM42688/debug/_ext/336238826/imfcc.o
 .debug_info    0x0000000000000000      0x678 build/SAMD21_IOT_WG_ICM42688/debug/_ext/336238826/imfcc.o
 .debug_abbrev  0x0000000000000000      0x13b build/SAMD21_IOT_WG_ICM42688/debug/_ext/336238826/imfcc.o
 .debug_loc     0x0000000000000000      0x18e build/SAMD21_IOT_WG_ICM42688/debug/_ext/336238826/imfcc.o
 .debug_aranges
                0x0000000000000000       0x20 build/SAMD21_IOT_WG_ICM42688/debug/_ext/336238826/imfcc.o
 .debug_line    0x0000000000000000      0x336 build/SAMD21_IOT_WG_ICM42688/debug/_ext/336238826/imfcc.o
 .debug_str     0x0000000000000000      0x460 build/SAMD21_IOT_WG_ICM42688/debug/_ext/336238826/imfcc.o
 .comment       0x0000000000000000       0x2c build/SAMD21_IOT_WG_ICM42688/debug/_ext/336238826/imfcc.o
 .debug_frame   0x0000000000000000       0xf8 build/SAMD21_IOT_WG_ICM42688/debug/_ext/336238826/imfcc.o
 .ARM.attributes
                0x0000000000000000       0x2c build/SAMD21_IOT_WG_ICM42688/debug/_ext/336238826/imfcc.o
 .data          0x0000000000000000        0x0 build/SAMD21_IOT_WG_ICM42688/debug/_ext/336238826/kb_output.o
 .bss           0x0000000000000000        0x0 build/SAMD21_IOT_WG_ICM42688/debug/_ext/336238826/kb_output.o
 .text          0x0000000000000000      0x628 build/SAMD21_IOT_WG_ICM42688/debug/_ext/336238826/kb_post_processing.o
 .data          0x0000000000000000        0x0 build/SAMD21_IOT_WG_ICM42688/debug/_ext/336238826/kb_post_processing.o
 .bss           0x0000000000000000        0x0 build/SAMD21_IOT_WG_ICM42688/debug/_ext/336238826/kb_post_processing.o
 .debug_info    0x0000000000000000      0x6f8 build/SAMD21_IOT_WG_ICM42688/debug/_ext/336238826/kb_post_processing.o
 .debug_abbrev  0x0000000000000000      0x16a build/SAMD21_IOT_WG_ICM42688/debug/_ext/336238826/kb_post_processing.o
 .debug_loc     0x0000000000000000      0x2da build/SAMD21_IOT_WG_ICM42688/debug/_ext/336238826/kb_post_processing.o
 .debug_aranges
                0x0000000000000000       0x20 build/SAMD21_IOT_WG_ICM42688/debug/_ext/336238826/kb_post_processing.o
 .debug_line    0x0000000000000000      0x359 build/SAMD21_IOT_WG_ICM42688/debug/_ext/336238826/kb_post_processing.o
 .debug_str     0x0000000000000000      0x42c build/SAMD21_IOT_WG_ICM42688/debug/_ext/336238826/kb_post_processing.o
 .comment       0x0000000000000000       0x2c build/SAMD21_IOT_WG_ICM42688/debug/_ext/336238826/kb_post_processing.o
 .debug_frame   0x0000000000000000      0x1c4 build/SAMD21_IOT_WG_ICM42688/debug/_ext/336238826/kb_post_processing.o
 .ARM.attributes
                0x0000000000000000       0x2c build/SAMD21_IOT_WG_ICM42688/debug/_ext/336238826/kb_post_processing.o
 .text          0x0000000000000000      0x2a8 build/SAMD21_IOT_WG_ICM42688/debug/_ext/336238826/max_min_high_low_freq.o
 .data          0x0000000000000000        0x0 build/SAMD21_IOT_WG_ICM42688/debug/_ext/336238826/max_min_high_low_freq.o
 .bss           0x0000000000000000        0x0 build/SAMD21_IOT_WG_ICM42688/debug/_ext/336238826/max_min_high_low_freq.o
 .debug_info    0x0000000000000000      0x2e8 build/SAMD21_IOT_WG_ICM42688/debug/_ext/336238826/max_min_high_low_freq.o
 .debug_abbrev  0x0000000000000000       0xfa build/SAMD21_IOT_WG_ICM42688/debug/_ext/336238826/max_min_high_low_freq.o
 .debug_loc     0x0000000000000000       0x3a build/SAMD21_IOT_WG_ICM42688/debug/_ext/336238826/max_min_high_low_freq.o
 .debug_aranges
                0x0000000000000000       0x20 build/SAMD21_IOT_WG_ICM42688/debug/_ext/336238826/max_min_high_low_freq.o
 .debug_line    0x0000000000000000      0x1fb build/SAMD21_IOT_WG_ICM42688/debug/_ext/336238826/max_min_high_low_freq.o
 .debug_str     0x0000000000000000      0x373 build/SAMD21_IOT_WG_ICM42688/debug/_ext/336238826/max_min_high_low_freq.o
 .comment       0x0000000000000000       0x2c build/SAMD21_IOT_WG_ICM42688/debug/_ext/336238826/max_min_high_low_freq.o
 .debug_frame   0x0000000000000000       0x30 build/SAMD21_IOT_WG_ICM42688/debug/_ext/336238826/max_min_high_low_freq.o
 .ARM.attributes
                0x0000000000000000       0x2c build/SAMD21_IOT_WG_ICM42688/debug/_ext/336238826/max_min_high_low_freq.o
 .text          0x0000000000000000      0x604 build/SAMD21_IOT_WG_ICM42688/debug/_ext/336238826/ma_symmetric.o
 .data          0x0000000000000000        0x0 build/SAMD21_IOT_WG_ICM42688/debug/_ext/336238826/ma_symmetric.o
 .bss           0x0000000000000000        0x0 build/SAMD21_IOT_WG_ICM42688/debug/_ext/336238826/ma_symmetric.o
 .debug_info    0x0000000000000000      0x54c build/SAMD21_IOT_WG_ICM42688/debug/_ext/336238826/ma_symmetric.o
 .debug_abbrev  0x0000000000000000      0x127 build/SAMD21_IOT_WG_ICM42688/debug/_ext/336238826/ma_symmetric.o
 .debug_loc     0x0000000000000000       0xad build/SAMD21_IOT_WG_ICM42688/debug/_ext/336238826/ma_symmetric.o
 .debug_aranges
                0x0000000000000000       0x20 build/SAMD21_IOT_WG_ICM42688/debug/_ext/336238826/ma_symmetric.o
 .debug_line    0x0000000000000000      0x2d3 build/SAMD21_IOT_WG_ICM42688/debug/_ext/336238826/ma_symmetric.o
 .debug_str     0x0000000000000000      0x4ef build/SAMD21_IOT_WG_ICM42688/debug/_ext/336238826/ma_symmetric.o
 .comment       0x0000000000000000       0x2c build/SAMD21_IOT_WG_ICM42688/debug/_ext/336238826/ma_symmetric.o
 .debug_frame   0x0000000000000000       0x74 build/SAMD21_IOT_WG_ICM42688/debug/_ext/336238826/ma_symmetric.o
 .ARM.attributes
                0x0000000000000000       0x2c build/SAMD21_IOT_WG_ICM42688/debug/_ext/336238826/ma_symmetric.o
 .data          0x0000000000000000        0x0 build/SAMD21_IOT_WG_ICM42688/debug/_ext/336238826/mean.o
 .bss           0x0000000000000000        0x0 build/SAMD21_IOT_WG_ICM42688/debug/_ext/336238826/mean.o
 .data          0x0000000000000000        0x0 build/SAMD21_IOT_WG_ICM42688/debug/_ext/336238826/pme.o
 .text          0x0000000000000000        0x0 build/SAMD21_IOT_WG_ICM42688/debug/_ext/336238826/pme_trained_neurons.o
 .bss           0x0000000000000000        0x0 build/SAMD21_IOT_WG_ICM42688/debug/_ext/336238826/pme_trained_neurons.o
 .rodata        0x0000000000000000        0x4 build/SAMD21_IOT_WG_ICM42688/debug/_ext/336238826/pme_trained_neurons.o
 .text          0x0000000000000000      0x17c build/SAMD21_IOT_WG_ICM42688/debug/_ext/336238826/ratio_diff_impl.o
 .data          0x0000000000000000        0x0 build/SAMD21_IOT_WG_ICM42688/debug/_ext/336238826/ratio_diff_impl.o
 .bss           0x0000000000000000        0x0 build/SAMD21_IOT_WG_ICM42688/debug/_ext/336238826/ratio_diff_impl.o
 .debug_info    0x0000000000000000      0x22e build/SAMD21_IOT_WG_ICM42688/debug/_ext/336238826/ratio_diff_impl.o
 .debug_abbrev  0x0000000000000000       0xd3 build/SAMD21_IOT_WG_ICM42688/debug/_ext/336238826/ratio_diff_impl.o
 .debug_loc     0x0000000000000000       0x3a build/SAMD21_IOT_WG_ICM42688/debug/_ext/336238826/ratio_diff_impl.o
 .debug_aranges
                0x0000000000000000       0x20 build/SAMD21_IOT_WG_ICM42688/debug/_ext/336238826/ratio_diff_impl.o
 .debug_line    0x0000000000000000      0x147 build/SAMD21_IOT_WG_ICM42688/debug/_ext/336238826/ratio_diff_impl.o
 .debug_str     0x0000000000000000      0x334 build/SAMD21_IOT_WG_ICM42688/debug/_ext/336238826/ratio_diff_impl.o
 .comment       0x0000000000000000       0x2c build/SAMD21_IOT_WG_ICM42688/debug/_ext/336238826/ratio_diff_impl.o
 .debug_frame   0x0000000000000000       0x30 build/SAMD21_IOT_WG_ICM42688/debug/_ext/336238826/ratio_diff_impl.o
 .ARM.attributes
                0x0000000000000000       0x2c build/SAMD21_IOT_WG_ICM42688/debug/_ext/336238826/ratio_diff_impl.o
 .data          0x0000000000000000        0x0 build/SAMD21_IOT_WG_ICM42688/debug/_ext/336238826/rb.o
 .bss           0x0000000000000000        0x0 build/SAMD21_IOT_WG_ICM42688/debug/_ext/336238826/rb.o
 .data          0x0000000000000000        0x0 build/SAMD21_IOT_WG_ICM42688/debug/_ext/336238826/save_sensor_data.o
 .bss           0x0000000000000000        0x0 build/SAMD21_IOT_WG_ICM42688/debug/_ext/336238826/save_sensor_data.o
 .data          0x0000000000000000        0x0 build/SAMD21_IOT_WG_ICM42688/debug/_ext/336238826/sf_downsample_by_averaging.o
 .bss           0x0000000000000000        0x0 build/SAMD21_IOT_WG_ICM42688/debug/_ext/336238826/sf_downsample_by_averaging.o
 .text          0x0000000000000000       0x4a build/SAMD21_IOT_WG_ICM42688/debug/_ext/336238826/sf_downsample_by_decimation.o
 .data          0x0000000000000000        0x0 build/SAMD21_IOT_WG_ICM42688/debug/_ext/336238826/sf_downsample_by_decimation.o
 .bss           0x0000000000000000        0x0 build/SAMD21_IOT_WG_ICM42688/debug/_ext/336238826/sf_downsample_by_decimation.o
 .debug_info    0x0000000000000000      0x1f8 build/SAMD21_IOT_WG_ICM42688/debug/_ext/336238826/sf_downsample_by_decimation.o
 .debug_abbrev  0x0000000000000000       0xb1 build/SAMD21_IOT_WG_ICM42688/debug/_ext/336238826/sf_downsample_by_decimation.o
 .debug_loc     0x0000000000000000       0x38 build/SAMD21_IOT_WG_ICM42688/debug/_ext/336238826/sf_downsample_by_decimation.o
 .debug_aranges
                0x0000000000000000       0x20 build/SAMD21_IOT_WG_ICM42688/debug/_ext/336238826/sf_downsample_by_decimation.o
 .debug_line    0x0000000000000000       0xe6 build/SAMD21_IOT_WG_ICM42688/debug/_ext/336238826/sf_downsample_by_decimation.o
 .debug_str     0x0000000000000000      0x34d build/SAMD21_IOT_WG_ICM42688/debug/_ext/336238826/sf_downsample_by_decimation.o
 .comment       0x0000000000000000       0x2c build/SAMD21_IOT_WG_ICM42688/debug/_ext/336238826/sf_downsample_by_decimation.o
 .debug_frame   0x0000000000000000       0x30 build/SAMD21_IOT_WG_ICM42688/debug/_ext/336238826/sf_downsample_by_decimation.o
 .ARM.attributes
                0x0000000000000000       0x2c build/SAMD21_IOT_WG_ICM42688/debug/_ext/336238826/sf_downsample_by_decimation.o
 .data          0x0000000000000000        0x0 build/SAMD21_IOT_WG_ICM42688/debug/_ext/336238826/sg_windowing.o
 .bss           0x0000000000000000        0x0 build/SAMD21_IOT_WG_ICM42688/debug/_ext/336238826/sg_windowing.o
 .data          0x0000000000000000        0x0 build/SAMD21_IOT_WG_ICM42688/debug/_ext/336238826/sortarray.o
 .bss           0x0000000000000000        0x0 build/SAMD21_IOT_WG_ICM42688/debug/_ext/336238826/sortarray.o
 .data          0x0000000000000000        0x0 build/SAMD21_IOT_WG_ICM42688/debug/_ext/336238826/sorted_copy.o
 .bss           0x0000000000000000        0x0 build/SAMD21_IOT_WG_ICM42688/debug/_ext/336238826/sorted_copy.o
 .text          0x0000000000000000      0x158 build/SAMD21_IOT_WG_ICM42688/debug/_ext/336238826/stats_percentile_presorted.o
 .data          0x0000000000000000        0x0 build/SAMD21_IOT_WG_ICM42688/debug/_ext/336238826/stats_percentile_presorted.o
 .bss           0x0000000000000000        0x0 build/SAMD21_IOT_WG_ICM42688/debug/_ext/336238826/stats_percentile_presorted.o
 .debug_info    0x0000000000000000      0x165 build/SAMD21_IOT_WG_ICM42688/debug/_ext/336238826/stats_percentile_presorted.o
 .debug_abbrev  0x0000000000000000       0xab build/SAMD21_IOT_WG_ICM42688/debug/_ext/336238826/stats_percentile_presorted.o
 .debug_loc     0x0000000000000000       0x38 build/SAMD21_IOT_WG_ICM42688/debug/_ext/336238826/stats_percentile_presorted.o
 .debug_aranges
                0x0000000000000000       0x20 build/SAMD21_IOT_WG_ICM42688/debug/_ext/336238826/stats_percentile_presorted.o
 .debug_line    0x0000000000000000      0x119 build/SAMD21_IOT_WG_ICM42688/debug/_ext/336238826/stats_percentile_presorted.o
 .debug_str     0x0000000000000000      0x2fa build/SAMD21_IOT_WG_ICM42688/debug/_ext/336238826/stats_percentile_presorted.o
 .comment       0x0000000000000000       0x2c build/SAMD21_IOT_WG_ICM42688/debug/_ext/336238826/stats_percentile_presorted.o
 .debug_frame   0x0000000000000000       0x30 build/SAMD21_IOT_WG_ICM42688/debug/_ext/336238826/stats_percentile_presorted.o
 .ARM.attributes
                0x0000000000000000       0x2c build/SAMD21_IOT_WG_ICM42688/debug/_ext/336238826/stats_percentile_presorted.o
 .text          0x0000000000000000       0x6e build/SAMD21_IOT_WG_ICM42688/debug/_ext/336238826/stat_mean.o
 .data          0x0000000000000000        0x0 build/SAMD21_IOT_WG_ICM42688/debug/_ext/336238826/stat_mean.o
 .bss           0x0000000000000000        0x0 build/SAMD21_IOT_WG_ICM42688/debug/_ext/336238826/stat_mean.o
 .debug_info    0x0000000000000000      0x1bf build/SAMD21_IOT_WG_ICM42688/debug/_ext/336238826/stat_mean.o
 .debug_abbrev  0x0000000000000000       0xd3 build/SAMD21_IOT_WG_ICM42688/debug/_ext/336238826/stat_mean.o
 .debug_loc     0x0000000000000000       0x38 build/SAMD21_IOT_WG_ICM42688/debug/_ext/336238826/stat_mean.o
 .debug_aranges
                0x0000000000000000       0x20 build/SAMD21_IOT_WG_ICM42688/debug/_ext/336238826/stat_mean.o
 .debug_line    0x0000000000000000       0xd7 build/SAMD21_IOT_WG_ICM42688/debug/_ext/336238826/stat_mean.o
 .debug_str     0x0000000000000000      0x2f6 build/SAMD21_IOT_WG_ICM42688/debug/_ext/336238826/stat_mean.o
 .comment       0x0000000000000000       0x2c build/SAMD21_IOT_WG_ICM42688/debug/_ext/336238826/stat_mean.o
 .debug_frame   0x0000000000000000       0x30 build/SAMD21_IOT_WG_ICM42688/debug/_ext/336238826/stat_mean.o
 .ARM.attributes
                0x0000000000000000       0x2c build/SAMD21_IOT_WG_ICM42688/debug/_ext/336238826/stat_mean.o
 .text          0x0000000000000000      0x2ec build/SAMD21_IOT_WG_ICM42688/debug/_ext/336238826/stat_moment.o
 .data          0x0000000000000000        0x0 build/SAMD21_IOT_WG_ICM42688/debug/_ext/336238826/stat_moment.o
 .bss           0x0000000000000000        0x0 build/SAMD21_IOT_WG_ICM42688/debug/_ext/336238826/stat_moment.o
 .debug_info    0x0000000000000000      0x2f5 build/SAMD21_IOT_WG_ICM42688/debug/_ext/336238826/stat_moment.o
 .debug_abbrev  0x0000000000000000       0xef build/SAMD21_IOT_WG_ICM42688/debug/_ext/336238826/stat_moment.o
 .debug_loc     0x0000000000000000       0xaa build/SAMD21_IOT_WG_ICM42688/debug/_ext/336238826/stat_moment.o
 .debug_aranges
                0x0000000000000000       0x20 build/SAMD21_IOT_WG_ICM42688/debug/_ext/336238826/stat_moment.o
 .debug_line    0x0000000000000000      0x190 build/SAMD21_IOT_WG_ICM42688/debug/_ext/336238826/stat_moment.o
 .debug_str     0x0000000000000000      0x325 build/SAMD21_IOT_WG_ICM42688/debug/_ext/336238826/stat_moment.o
 .comment       0x0000000000000000       0x2c build/SAMD21_IOT_WG_ICM42688/debug/_ext/336238826/stat_moment.o
 .debug_frame   0x0000000000000000       0x78 build/SAMD21_IOT_WG_ICM42688/debug/_ext/336238826/stat_moment.o
 .ARM.attributes
                0x0000000000000000       0x2c build/SAMD21_IOT_WG_ICM42688/debug/_ext/336238826/stat_moment.o
 .text          0x0000000000000000      0x22c build/SAMD21_IOT_WG_ICM42688/debug/_ext/336238826/std.o
 .data          0x0000000000000000        0x0 build/SAMD21_IOT_WG_ICM42688/debug/_ext/336238826/std.o
 .bss           0x0000000000000000        0x0 build/SAMD21_IOT_WG_ICM42688/debug/_ext/336238826/std.o
 .debug_info    0x0000000000000000      0x329 build/SAMD21_IOT_WG_ICM42688/debug/_ext/336238826/std.o
 .debug_abbrev  0x0000000000000000       0xef build/SAMD21_IOT_WG_ICM42688/debug/_ext/336238826/std.o
 .debug_loc     0x0000000000000000       0xe2 build/SAMD21_IOT_WG_ICM42688/debug/_ext/336238826/std.o
 .debug_aranges
                0x0000000000000000       0x20 build/SAMD21_IOT_WG_ICM42688/debug/_ext/336238826/std.o
 .debug_line    0x0000000000000000      0x130 build/SAMD21_IOT_WG_ICM42688/debug/_ext/336238826/std.o
 .debug_str     0x0000000000000000      0x316 build/SAMD21_IOT_WG_ICM42688/debug/_ext/336238826/std.o
 .comment       0x0000000000000000       0x2c build/SAMD21_IOT_WG_ICM42688/debug/_ext/336238826/std.o
 .debug_frame   0x0000000000000000       0x98 build/SAMD21_IOT_WG_ICM42688/debug/_ext/336238826/std.o
 .ARM.attributes
                0x0000000000000000       0x2c build/SAMD21_IOT_WG_ICM42688/debug/_ext/336238826/std.o
 .text          0x0000000000000000       0x6c build/SAMD21_IOT_WG_ICM42688/debug/_ext/336238826/st_absolute_average.o
 .data          0x0000000000000000        0x0 build/SAMD21_IOT_WG_ICM42688/debug/_ext/336238826/st_absolute_average.o
 .bss           0x0000000000000000        0x0 build/SAMD21_IOT_WG_ICM42688/debug/_ext/336238826/st_absolute_average.o
 .debug_info    0x0000000000000000      0x16e build/SAMD21_IOT_WG_ICM42688/debug/_ext/336238826/st_absolute_average.o
 .debug_abbrev  0x0000000000000000       0xc2 build/SAMD21_IOT_WG_ICM42688/debug/_ext/336238826/st_absolute_average.o
 .debug_loc     0x0000000000000000       0x38 build/SAMD21_IOT_WG_ICM42688/debug/_ext/336238826/st_absolute_average.o
 .debug_aranges
                0x0000000000000000       0x20 build/SAMD21_IOT_WG_ICM42688/debug/_ext/336238826/st_absolute_average.o
 .debug_line    0x0000000000000000       0xf1 build/SAMD21_IOT_WG_ICM42688/debug/_ext/336238826/st_absolute_average.o
 .debug_str     0x0000000000000000      0x2f7 build/SAMD21_IOT_WG_ICM42688/debug/_ext/336238826/st_absolute_average.o
 .comment       0x0000000000000000       0x2c build/SAMD21_IOT_WG_ICM42688/debug/_ext/336238826/st_absolute_average.o
 .debug_frame   0x0000000000000000       0x30 build/SAMD21_IOT_WG_ICM42688/debug/_ext/336238826/st_absolute_average.o
 .ARM.attributes
                0x0000000000000000       0x2c build/SAMD21_IOT_WG_ICM42688/debug/_ext/336238826/st_absolute_average.o
 .text          0x0000000000000000       0x68 build/SAMD21_IOT_WG_ICM42688/debug/_ext/336238826/st_average.o
 .data          0x0000000000000000        0x0 build/SAMD21_IOT_WG_ICM42688/debug/_ext/336238826/st_average.o
 .bss           0x0000000000000000        0x0 build/SAMD21_IOT_WG_ICM42688/debug/_ext/336238826/st_average.o
 .debug_info    0x0000000000000000      0x16e build/SAMD21_IOT_WG_ICM42688/debug/_ext/336238826/st_average.o
 .debug_abbrev  0x0000000000000000       0xc2 build/SAMD21_IOT_WG_ICM42688/debug/_ext/336238826/st_average.o
 .debug_loc     0x0000000000000000       0x38 build/SAMD21_IOT_WG_ICM42688/debug/_ext/336238826/st_average.o
 .debug_aranges
                0x0000000000000000       0x20 build/SAMD21_IOT_WG_ICM42688/debug/_ext/336238826/st_average.o
 .debug_line    0x0000000000000000       0xe5 build/SAMD21_IOT_WG_ICM42688/debug/_ext/336238826/st_average.o
 .debug_str     0x0000000000000000      0x2ea build/SAMD21_IOT_WG_ICM42688/debug/_ext/336238826/st_average.o
 .comment       0x0000000000000000       0x2c build/SAMD21_IOT_WG_ICM42688/debug/_ext/336238826/st_average.o
 .debug_frame   0x0000000000000000       0x30 build/SAMD21_IOT_WG_ICM42688/debug/_ext/336238826/st_average.o
 .ARM.attributes
                0x0000000000000000       0x2c build/SAMD21_IOT_WG_ICM42688/debug/_ext/336238826/st_average.o
 .text          0x0000000000000000      0x104 build/SAMD21_IOT_WG_ICM42688/debug/_ext/336238826/st_high_pass_filter.o
 .data          0x0000000000000000        0x0 build/SAMD21_IOT_WG_ICM42688/debug/_ext/336238826/st_high_pass_filter.o
 .bss           0x0000000000000000        0x0 build/SAMD21_IOT_WG_ICM42688/debug/_ext/336238826/st_high_pass_filter.o
 .debug_info    0x0000000000000000      0x239 build/SAMD21_IOT_WG_ICM42688/debug/_ext/336238826/st_high_pass_filter.o
 .debug_abbrev  0x0000000000000000       0xc5 build/SAMD21_IOT_WG_ICM42688/debug/_ext/336238826/st_high_pass_filter.o
 .debug_loc     0x0000000000000000       0x38 build/SAMD21_IOT_WG_ICM42688/debug/_ext/336238826/st_high_pass_filter.o
 .debug_aranges
                0x0000000000000000       0x20 build/SAMD21_IOT_WG_ICM42688/debug/_ext/336238826/st_high_pass_filter.o
 .debug_line    0x0000000000000000      0x142 build/SAMD21_IOT_WG_ICM42688/debug/_ext/336238826/st_high_pass_filter.o
 .debug_str     0x0000000000000000      0x335 build/SAMD21_IOT_WG_ICM42688/debug/_ext/336238826/st_high_pass_filter.o
 .comment       0x0000000000000000       0x2c build/SAMD21_IOT_WG_ICM42688/debug/_ext/336238826/st_high_pass_filter.o
 .debug_frame   0x0000000000000000       0x30 build/SAMD21_IOT_WG_ICM42688/debug/_ext/336238826/st_high_pass_filter.o
 .ARM.attributes
                0x0000000000000000       0x2c build/SAMD21_IOT_WG_ICM42688/debug/_ext/336238826/st_high_pass_filter.o
 .text          0x0000000000000000      0x124 build/SAMD21_IOT_WG_ICM42688/debug/_ext/336238826/st_moving_average.o
 .data          0x0000000000000000        0x0 build/SAMD21_IOT_WG_ICM42688/debug/_ext/336238826/st_moving_average.o
 .bss           0x0000000000000000        0x0 build/SAMD21_IOT_WG_ICM42688/debug/_ext/336238826/st_moving_average.o
 .debug_info    0x0000000000000000      0x2bc build/SAMD21_IOT_WG_ICM42688/debug/_ext/336238826/st_moving_average.o
 .debug_abbrev  0x0000000000000000       0xe7 build/SAMD21_IOT_WG_ICM42688/debug/_ext/336238826/st_moving_average.o
 .debug_loc     0x0000000000000000       0xa8 build/SAMD21_IOT_WG_ICM42688/debug/_ext/336238826/st_moving_average.o
 .debug_aranges
                0x0000000000000000       0x20 build/SAMD21_IOT_WG_ICM42688/debug/_ext/336238826/st_moving_average.o
 .debug_line    0x0000000000000000      0x139 build/SAMD21_IOT_WG_ICM42688/debug/_ext/336238826/st_moving_average.o
 .debug_str     0x0000000000000000      0x35b build/SAMD21_IOT_WG_ICM42688/debug/_ext/336238826/st_moving_average.o
 .comment       0x0000000000000000       0x2c build/SAMD21_IOT_WG_ICM42688/debug/_ext/336238826/st_moving_average.o
 .debug_frame   0x0000000000000000       0x70 build/SAMD21_IOT_WG_ICM42688/debug/_ext/336238826/st_moving_average.o
 .ARM.attributes
                0x0000000000000000       0x2c build/SAMD21_IOT_WG_ICM42688/debug/_ext/336238826/st_moving_average.o
 .text          0x0000000000000000       0x78 build/SAMD21_IOT_WG_ICM42688/debug/_ext/336238826/sum.o
 .data          0x0000000000000000        0x0 build/SAMD21_IOT_WG_ICM42688/debug/_ext/336238826/sum.o
 .bss           0x0000000000000000        0x0 build/SAMD21_IOT_WG_ICM42688/debug/_ext/336238826/sum.o
 .debug_info    0x0000000000000000      0x1fc build/SAMD21_IOT_WG_ICM42688/debug/_ext/336238826/sum.o
 .debug_abbrev  0x0000000000000000       0xde build/SAMD21_IOT_WG_ICM42688/debug/_ext/336238826/sum.o
 .debug_loc     0x0000000000000000       0x70 build/SAMD21_IOT_WG_ICM42688/debug/_ext/336238826/sum.o
 .debug_aranges
                0x0000000000000000       0x20 build/SAMD21_IOT_WG_ICM42688/debug/_ext/336238826/sum.o
 .debug_line    0x0000000000000000       0xd8 build/SAMD21_IOT_WG_ICM42688/debug/_ext/336238826/sum.o
 .debug_str     0x0000000000000000      0x2f0 build/SAMD21_IOT_WG_ICM42688/debug/_ext/336238826/sum.o
 .comment       0x0000000000000000       0x2c build/SAMD21_IOT_WG_ICM42688/debug/_ext/336238826/sum.o
 .debug_frame   0x0000000000000000       0x50 build/SAMD21_IOT_WG_ICM42688/debug/_ext/336238826/sum.o
 .ARM.attributes
                0x0000000000000000       0x2c build/SAMD21_IOT_WG_ICM42688/debug/_ext/336238826/sum.o
 .data          0x0000000000000000        0x0 build/SAMD21_IOT_WG_ICM42688/debug/_ext/336238826/tr_min_max_scale.o
 .bss           0x0000000000000000        0x0 build/SAMD21_IOT_WG_ICM42688/debug/_ext/336238826/tr_min_max_scale.o
 .text          0x0000000000000000      0x628 build/SAMD21_IOT_WG_ICM42688/debug/_ext/336238826/utils_array.o
 .data          0x0000000000000000        0x0 build/SAMD21_IOT_WG_ICM42688/debug/_ext/336238826/utils_array.o
 .bss           0x0000000000000000      0x403 build/SAMD21_IOT_WG_ICM42688/debug/_ext/336238826/utils_array.o
 .debug_info    0x0000000000000000      0x466 build/SAMD21_IOT_WG_ICM42688/debug/_ext/336238826/utils_array.o
 .debug_abbrev  0x0000000000000000      0x148 build/SAMD21_IOT_WG_ICM42688/debug/_ext/336238826/utils_array.o
 .debug_loc     0x0000000000000000      0x1c0 build/SAMD21_IOT_WG_ICM42688/debug/_ext/336238826/utils_array.o
 .debug_aranges
                0x0000000000000000       0x20 build/SAMD21_IOT_WG_ICM42688/debug/_ext/336238826/utils_array.o
 .debug_line    0x0000000000000000      0x2e9 build/SAMD21_IOT_WG_ICM42688/debug/_ext/336238826/utils_array.o
 .debug_str     0x0000000000000000      0x387 build/SAMD21_IOT_WG_ICM42688/debug/_ext/336238826/utils_array.o
 .comment       0x0000000000000000       0x2c build/SAMD21_IOT_WG_ICM42688/debug/_ext/336238826/utils_array.o
 .debug_frame   0x0000000000000000      0x110 build/SAMD21_IOT_WG_ICM42688/debug/_ext/336238826/utils_array.o
 .ARM.attributes
                0x0000000000000000       0x2c build/SAMD21_IOT_WG_ICM42688/debug/_ext/336238826/utils_array.o
 .data          0x0000000000000000        0x0 build/SAMD21_IOT_WG_ICM42688/debug/_ext/336238826/utils_array_max_uint8.o
 .bss           0x0000000000000000        0x0 build/SAMD21_IOT_WG_ICM42688/debug/_ext/336238826/utils_array_max_uint8.o
 .data          0x0000000000000000        0x0 build/SAMD21_IOT_WG_ICM42688/debug/_ext/336238826/utils_bitwise_abs_val.o
 .bss           0x0000000000000000        0x0 build/SAMD21_IOT_WG_ICM42688/debug/_ext/336238826/utils_bitwise_abs_val.o
 .text          0x0000000000000000       0x3c build/SAMD21_IOT_WG_ICM42688/debug/_ext/336238826/utils_buffer_absmean.o
 .data          0x0000000000000000        0x0 build/SAMD21_IOT_WG_ICM42688/debug/_ext/336238826/utils_buffer_absmean.o
 .bss           0x0000000000000000        0x0 build/SAMD21_IOT_WG_ICM42688/debug/_ext/336238826/utils_buffer_absmean.o
 .debug_info    0x0000000000000000      0x1a4 build/SAMD21_IOT_WG_ICM42688/debug/_ext/336238826/utils_buffer_absmean.o
 .debug_abbrev  0x0000000000000000       0xa0 build/SAMD21_IOT_WG_ICM42688/debug/_ext/336238826/utils_buffer_absmean.o
 .debug_loc     0x0000000000000000       0x38 build/SAMD21_IOT_WG_ICM42688/debug/_ext/336238826/utils_buffer_absmean.o
 .debug_aranges
                0x0000000000000000       0x20 build/SAMD21_IOT_WG_ICM42688/debug/_ext/336238826/utils_buffer_absmean.o
 .debug_line    0x0000000000000000       0xd0 build/SAMD21_IOT_WG_ICM42688/debug/_ext/336238826/utils_buffer_absmean.o
 .debug_str     0x0000000000000000      0x311 build/SAMD21_IOT_WG_ICM42688/debug/_ext/336238826/utils_buffer_absmean.o
 .comment       0x0000000000000000       0x2c build/SAMD21_IOT_WG_ICM42688/debug/_ext/336238826/utils_buffer_absmean.o
 .debug_frame   0x0000000000000000       0x30 build/SAMD21_IOT_WG_ICM42688/debug/_ext/336238826/utils_buffer_absmean.o
 .ARM.attributes
                0x0000000000000000       0x2c build/SAMD21_IOT_WG_ICM42688/debug/_ext/336238826/utils_buffer_absmean.o
 .text          0x0000000000000000       0x2a build/SAMD21_IOT_WG_ICM42688/debug/_ext/336238826/utils_buffer_abssum.o
 .data          0x0000000000000000        0x0 build/SAMD21_IOT_WG_ICM42688/debug/_ext/336238826/utils_buffer_abssum.o
 .bss           0x0000000000000000        0x0 build/SAMD21_IOT_WG_ICM42688/debug/_ext/336238826/utils_buffer_abssum.o
 .debug_info    0x0000000000000000      0x1a4 build/SAMD21_IOT_WG_ICM42688/debug/_ext/336238826/utils_buffer_abssum.o
 .debug_abbrev  0x0000000000000000       0xa0 build/SAMD21_IOT_WG_ICM42688/debug/_ext/336238826/utils_buffer_abssum.o
 .debug_loc     0x0000000000000000       0x38 build/SAMD21_IOT_WG_ICM42688/debug/_ext/336238826/utils_buffer_abssum.o
 .debug_aranges
                0x0000000000000000       0x20 build/SAMD21_IOT_WG_ICM42688/debug/_ext/336238826/utils_buffer_abssum.o
 .debug_line    0x0000000000000000       0xc9 build/SAMD21_IOT_WG_ICM42688/debug/_ext/336238826/utils_buffer_abssum.o
 .debug_str     0x0000000000000000      0x31a build/SAMD21_IOT_WG_ICM42688/debug/_ext/336238826/utils_buffer_abssum.o
 .comment       0x0000000000000000       0x2c build/SAMD21_IOT_WG_ICM42688/debug/_ext/336238826/utils_buffer_abssum.o
 .debug_frame   0x0000000000000000       0x30 build/SAMD21_IOT_WG_ICM42688/debug/_ext/336238826/utils_buffer_abssum.o
 .ARM.attributes
                0x0000000000000000       0x2c build/SAMD21_IOT_WG_ICM42688/debug/_ext/336238826/utils_buffer_abssum.o
 .text          0x0000000000000000       0x2a build/SAMD21_IOT_WG_ICM42688/debug/_ext/336238826/utils_buffer_abs_max.o
 .data          0x0000000000000000        0x0 build/SAMD21_IOT_WG_ICM42688/debug/_ext/336238826/utils_buffer_abs_max.o
 .bss           0x0000000000000000        0x0 build/SAMD21_IOT_WG_ICM42688/debug/_ext/336238826/utils_buffer_abs_max.o
 .debug_info    0x0000000000000000      0x198 build/SAMD21_IOT_WG_ICM42688/debug/_ext/336238826/utils_buffer_abs_max.o
 .debug_abbrev  0x0000000000000000       0xa0 build/SAMD21_IOT_WG_ICM42688/debug/_ext/336238826/utils_buffer_abs_max.o
 .debug_loc     0x0000000000000000       0x38 build/SAMD21_IOT_WG_ICM42688/debug/_ext/336238826/utils_buffer_abs_max.o
 .debug_aranges
                0x0000000000000000       0x20 build/SAMD21_IOT_WG_ICM42688/debug/_ext/336238826/utils_buffer_abs_max.o
 .debug_line    0x0000000000000000       0xb9 build/SAMD21_IOT_WG_ICM42688/debug/_ext/336238826/utils_buffer_abs_max.o
 .debug_str     0x0000000000000000      0x305 build/SAMD21_IOT_WG_ICM42688/debug/_ext/336238826/utils_buffer_abs_max.o
 .comment       0x0000000000000000       0x2c build/SAMD21_IOT_WG_ICM42688/debug/_ext/336238826/utils_buffer_abs_max.o
 .debug_frame   0x0000000000000000       0x30 build/SAMD21_IOT_WG_ICM42688/debug/_ext/336238826/utils_buffer_abs_max.o
 .ARM.attributes
                0x0000000000000000       0x2c build/SAMD21_IOT_WG_ICM42688/debug/_ext/336238826/utils_buffer_abs_max.o
 .data          0x0000000000000000        0x0 build/SAMD21_IOT_WG_ICM42688/debug/_ext/336238826/utils_buffer_argmax.o
 .bss           0x0000000000000000        0x0 build/SAMD21_IOT_WG_ICM42688/debug/_ext/336238826/utils_buffer_argmax.o
 .text          0x0000000000000000      0x11c build/SAMD21_IOT_WG_ICM42688/debug/_ext/336238826/utils_buffer_autoscale.o
 .data          0x0000000000000000        0x0 build/SAMD21_IOT_WG_ICM42688/debug/_ext/336238826/utils_buffer_autoscale.o
 .bss           0x0000000000000000        0x0 build/SAMD21_IOT_WG_ICM42688/debug/_ext/336238826/utils_buffer_autoscale.o
 .debug_info    0x0000000000000000      0x1de build/SAMD21_IOT_WG_ICM42688/debug/_ext/336238826/utils_buffer_autoscale.o
 .debug_abbrev  0x0000000000000000       0xc0 build/SAMD21_IOT_WG_ICM42688/debug/_ext/336238826/utils_buffer_autoscale.o
 .debug_loc     0x0000000000000000       0x38 build/SAMD21_IOT_WG_ICM42688/debug/_ext/336238826/utils_buffer_autoscale.o
 .debug_aranges
                0x0000000000000000       0x20 build/SAMD21_IOT_WG_ICM42688/debug/_ext/336238826/utils_buffer_autoscale.o
 .debug_line    0x0000000000000000      0x124 build/SAMD21_IOT_WG_ICM42688/debug/_ext/336238826/utils_buffer_autoscale.o
 .debug_str     0x0000000000000000      0x313 build/SAMD21_IOT_WG_ICM42688/debug/_ext/336238826/utils_buffer_autoscale.o
 .comment       0x0000000000000000       0x2c build/SAMD21_IOT_WG_ICM42688/debug/_ext/336238826/utils_buffer_autoscale.o
 .debug_frame   0x0000000000000000       0x30 build/SAMD21_IOT_WG_ICM42688/debug/_ext/336238826/utils_buffer_autoscale.o
 .ARM.attributes
                0x0000000000000000       0x2c build/SAMD21_IOT_WG_ICM42688/debug/_ext/336238826/utils_buffer_autoscale.o
 .text          0x0000000000000000       0xb2 build/SAMD21_IOT_WG_ICM42688/debug/_ext/336238826/utils_buffer_cumsum.o
 .data          0x0000000000000000        0x0 build/SAMD21_IOT_WG_ICM42688/debug/_ext/336238826/utils_buffer_cumsum.o
 .bss           0x0000000000000000        0x0 build/SAMD21_IOT_WG_ICM42688/debug/_ext/336238826/utils_buffer_cumsum.o
 .debug_info    0x0000000000000000      0x236 build/SAMD21_IOT_WG_ICM42688/debug/_ext/336238826/utils_buffer_cumsum.o
 .debug_abbrev  0x0000000000000000       0xde build/SAMD21_IOT_WG_ICM42688/debug/_ext/336238826/utils_buffer_cumsum.o
 .debug_loc     0x0000000000000000       0x70 build/SAMD21_IOT_WG_ICM42688/debug/_ext/336238826/utils_buffer_cumsum.o
 .debug_aranges
                0x0000000000000000       0x20 build/SAMD21_IOT_WG_ICM42688/debug/_ext/336238826/utils_buffer_cumsum.o
 .debug_line    0x0000000000000000      0x10d build/SAMD21_IOT_WG_ICM42688/debug/_ext/336238826/utils_buffer_cumsum.o
 .debug_str     0x0000000000000000      0x33d build/SAMD21_IOT_WG_ICM42688/debug/_ext/336238826/utils_buffer_cumsum.o
 .comment       0x0000000000000000       0x2c build/SAMD21_IOT_WG_ICM42688/debug/_ext/336238826/utils_buffer_cumsum.o
 .debug_frame   0x0000000000000000       0x50 build/SAMD21_IOT_WG_ICM42688/debug/_ext/336238826/utils_buffer_cumsum.o
 .ARM.attributes
                0x0000000000000000       0x2c build/SAMD21_IOT_WG_ICM42688/debug/_ext/336238826/utils_buffer_cumsum.o
 .text          0x0000000000000000       0xd8 build/SAMD21_IOT_WG_ICM42688/debug/_ext/336238826/utils_buffer_max.o
 .data          0x0000000000000000        0x0 build/SAMD21_IOT_WG_ICM42688/debug/_ext/336238826/utils_buffer_max.o
 .bss           0x0000000000000000        0x0 build/SAMD21_IOT_WG_ICM42688/debug/_ext/336238826/utils_buffer_max.o
 .debug_info    0x0000000000000000      0x23b build/SAMD21_IOT_WG_ICM42688/debug/_ext/336238826/utils_buffer_max.o
 .debug_abbrev  0x0000000000000000       0xde build/SAMD21_IOT_WG_ICM42688/debug/_ext/336238826/utils_buffer_max.o
 .debug_loc     0x0000000000000000       0x70 build/SAMD21_IOT_WG_ICM42688/debug/_ext/336238826/utils_buffer_max.o
 .debug_aranges
                0x0000000000000000       0x20 build/SAMD21_IOT_WG_ICM42688/debug/_ext/336238826/utils_buffer_max.o
 .debug_line    0x0000000000000000      0x105 build/SAMD21_IOT_WG_ICM42688/debug/_ext/336238826/utils_buffer_max.o
 .debug_str     0x0000000000000000      0x328 build/SAMD21_IOT_WG_ICM42688/debug/_ext/336238826/utils_buffer_max.o
 .comment       0x0000000000000000       0x2c build/SAMD21_IOT_WG_ICM42688/debug/_ext/336238826/utils_buffer_max.o
 .debug_frame   0x0000000000000000       0x50 build/SAMD21_IOT_WG_ICM42688/debug/_ext/336238826/utils_buffer_max.o
 .ARM.attributes
                0x0000000000000000       0x2c build/SAMD21_IOT_WG_ICM42688/debug/_ext/336238826/utils_buffer_max.o
 .text          0x0000000000000000       0x3c build/SAMD21_IOT_WG_ICM42688/debug/_ext/336238826/utils_buffer_mean.o
 .data          0x0000000000000000        0x0 build/SAMD21_IOT_WG_ICM42688/debug/_ext/336238826/utils_buffer_mean.o
 .bss           0x0000000000000000        0x0 build/SAMD21_IOT_WG_ICM42688/debug/_ext/336238826/utils_buffer_mean.o
 .debug_info    0x0000000000000000      0x1a4 build/SAMD21_IOT_WG_ICM42688/debug/_ext/336238826/utils_buffer_mean.o
 .debug_abbrev  0x0000000000000000       0xa0 build/SAMD21_IOT_WG_ICM42688/debug/_ext/336238826/utils_buffer_mean.o
 .debug_loc     0x0000000000000000       0x38 build/SAMD21_IOT_WG_ICM42688/debug/_ext/336238826/utils_buffer_mean.o
 .debug_aranges
                0x0000000000000000       0x20 build/SAMD21_IOT_WG_ICM42688/debug/_ext/336238826/utils_buffer_mean.o
 .debug_line    0x0000000000000000       0xcd build/SAMD21_IOT_WG_ICM42688/debug/_ext/336238826/utils_buffer_mean.o
 .debug_str     0x0000000000000000      0x305 build/SAMD21_IOT_WG_ICM42688/debug/_ext/336238826/utils_buffer_mean.o
 .comment       0x0000000000000000       0x2c build/SAMD21_IOT_WG_ICM42688/debug/_ext/336238826/utils_buffer_mean.o
 .debug_frame   0x0000000000000000       0x30 build/SAMD21_IOT_WG_ICM42688/debug/_ext/336238826/utils_buffer_mean.o
 .ARM.attributes
                0x0000000000000000       0x2c build/SAMD21_IOT_WG_ICM42688/debug/_ext/336238826/utils_buffer_mean.o
 .text          0x0000000000000000       0x84 build/SAMD21_IOT_WG_ICM42688/debug/_ext/336238826/utils_buffer_median.o
 .data          0x0000000000000000        0x0 build/SAMD21_IOT_WG_ICM42688/debug/_ext/336238826/utils_buffer_median.o
 .bss           0x0000000000000000        0x0 build/SAMD21_IOT_WG_ICM42688/debug/_ext/336238826/utils_buffer_median.o
 .debug_info    0x0000000000000000      0x1b9 build/SAMD21_IOT_WG_ICM42688/debug/_ext/336238826/utils_buffer_median.o
 .debug_abbrev  0x0000000000000000       0xb1 build/SAMD21_IOT_WG_ICM42688/debug/_ext/336238826/utils_buffer_median.o
 .debug_loc     0x0000000000000000       0x38 build/SAMD21_IOT_WG_ICM42688/debug/_ext/336238826/utils_buffer_median.o
 .debug_aranges
                0x0000000000000000       0x20 build/SAMD21_IOT_WG_ICM42688/debug/_ext/336238826/utils_buffer_median.o
 .debug_line    0x0000000000000000       0xe7 build/SAMD21_IOT_WG_ICM42688/debug/_ext/336238826/utils_buffer_median.o
 .debug_str     0x0000000000000000      0x30f build/SAMD21_IOT_WG_ICM42688/debug/_ext/336238826/utils_buffer_median.o
 .comment       0x0000000000000000       0x2c build/SAMD21_IOT_WG_ICM42688/debug/_ext/336238826/utils_buffer_median.o
 .debug_frame   0x0000000000000000       0x30 build/SAMD21_IOT_WG_ICM42688/debug/_ext/336238826/utils_buffer_median.o
 .ARM.attributes
                0x0000000000000000       0x2c build/SAMD21_IOT_WG_ICM42688/debug/_ext/336238826/utils_buffer_median.o
 .text          0x0000000000000000       0x88 build/SAMD21_IOT_WG_ICM42688/debug/_ext/336238826/utils_buffer_min.o
 .data          0x0000000000000000        0x0 build/SAMD21_IOT_WG_ICM42688/debug/_ext/336238826/utils_buffer_min.o
 .bss           0x0000000000000000        0x0 build/SAMD21_IOT_WG_ICM42688/debug/_ext/336238826/utils_buffer_min.o
 .debug_info    0x0000000000000000      0x1d4 build/SAMD21_IOT_WG_ICM42688/debug/_ext/336238826/utils_buffer_min.o
 .debug_abbrev  0x0000000000000000       0xc2 build/SAMD21_IOT_WG_ICM42688/debug/_ext/336238826/utils_buffer_min.o
 .debug_loc     0x0000000000000000       0x38 build/SAMD21_IOT_WG_ICM42688/debug/_ext/336238826/utils_buffer_min.o
 .debug_aranges
                0x0000000000000000       0x20 build/SAMD21_IOT_WG_ICM42688/debug/_ext/336238826/utils_buffer_min.o
 .debug_line    0x0000000000000000       0xdf build/SAMD21_IOT_WG_ICM42688/debug/_ext/336238826/utils_buffer_min.o
 .debug_str     0x0000000000000000      0x313 build/SAMD21_IOT_WG_ICM42688/debug/_ext/336238826/utils_buffer_min.o
 .comment       0x0000000000000000       0x2c build/SAMD21_IOT_WG_ICM42688/debug/_ext/336238826/utils_buffer_min.o
 .debug_frame   0x0000000000000000       0x30 build/SAMD21_IOT_WG_ICM42688/debug/_ext/336238826/utils_buffer_min.o
 .ARM.attributes
                0x0000000000000000       0x2c build/SAMD21_IOT_WG_ICM42688/debug/_ext/336238826/utils_buffer_min.o
 .data          0x0000000000000000        0x0 build/SAMD21_IOT_WG_ICM42688/debug/_ext/336238826/utils_buffer_min_max.o
 .bss           0x0000000000000000        0x0 build/SAMD21_IOT_WG_ICM42688/debug/_ext/336238826/utils_buffer_min_max.o
 .text          0x0000000000000000      0x14c build/SAMD21_IOT_WG_ICM42688/debug/_ext/336238826/utils_buffer_pass_threshold.o
 .data          0x0000000000000000        0x0 build/SAMD21_IOT_WG_ICM42688/debug/_ext/336238826/utils_buffer_pass_threshold.o
 .bss           0x0000000000000000        0x0 build/SAMD21_IOT_WG_ICM42688/debug/_ext/336238826/utils_buffer_pass_threshold.o
 .debug_info    0x0000000000000000      0x2b0 build/SAMD21_IOT_WG_ICM42688/debug/_ext/336238826/utils_buffer_pass_threshold.o
 .debug_abbrev  0x0000000000000000       0xde build/SAMD21_IOT_WG_ICM42688/debug/_ext/336238826/utils_buffer_pass_threshold.o
 .debug_loc     0x0000000000000000       0x70 build/SAMD21_IOT_WG_ICM42688/debug/_ext/336238826/utils_buffer_pass_threshold.o
 .debug_aranges
                0x0000000000000000       0x20 build/SAMD21_IOT_WG_ICM42688/debug/_ext/336238826/utils_buffer_pass_threshold.o
 .debug_line    0x0000000000000000      0x128 build/SAMD21_IOT_WG_ICM42688/debug/_ext/336238826/utils_buffer_pass_threshold.o
 .debug_str     0x0000000000000000      0x394 build/SAMD21_IOT_WG_ICM42688/debug/_ext/336238826/utils_buffer_pass_threshold.o
 .comment       0x0000000000000000       0x2c build/SAMD21_IOT_WG_ICM42688/debug/_ext/336238826/utils_buffer_pass_threshold.o
 .debug_frame   0x0000000000000000       0x54 build/SAMD21_IOT_WG_ICM42688/debug/_ext/336238826/utils_buffer_pass_threshold.o
 .ARM.attributes
                0x0000000000000000       0x2c build/SAMD21_IOT_WG_ICM42688/debug/_ext/336238826/utils_buffer_pass_threshold.o
 .text          0x0000000000000000       0x44 build/SAMD21_IOT_WG_ICM42688/debug/_ext/336238826/utils_buffer_std.o
 .data          0x0000000000000000        0x0 build/SAMD21_IOT_WG_ICM42688/debug/_ext/336238826/utils_buffer_std.o
 .bss           0x0000000000000000        0x0 build/SAMD21_IOT_WG_ICM42688/debug/_ext/336238826/utils_buffer_std.o
 .debug_info    0x0000000000000000      0x1a4 build/SAMD21_IOT_WG_ICM42688/debug/_ext/336238826/utils_buffer_std.o
 .debug_abbrev  0x0000000000000000       0xa0 build/SAMD21_IOT_WG_ICM42688/debug/_ext/336238826/utils_buffer_std.o
 .debug_loc     0x0000000000000000       0x38 build/SAMD21_IOT_WG_ICM42688/debug/_ext/336238826/utils_buffer_std.o
 .debug_aranges
                0x0000000000000000       0x20 build/SAMD21_IOT_WG_ICM42688/debug/_ext/336238826/utils_buffer_std.o
 .debug_line    0x0000000000000000       0xc7 build/SAMD21_IOT_WG_ICM42688/debug/_ext/336238826/utils_buffer_std.o
 .debug_str     0x0000000000000000      0x310 build/SAMD21_IOT_WG_ICM42688/debug/_ext/336238826/utils_buffer_std.o
 .comment       0x0000000000000000       0x2c build/SAMD21_IOT_WG_ICM42688/debug/_ext/336238826/utils_buffer_std.o
 .debug_frame   0x0000000000000000       0x30 build/SAMD21_IOT_WG_ICM42688/debug/_ext/336238826/utils_buffer_std.o
 .ARM.attributes
                0x0000000000000000       0x2c build/SAMD21_IOT_WG_ICM42688/debug/_ext/336238826/utils_buffer_std.o
 .text          0x0000000000000000       0x9a build/SAMD21_IOT_WG_ICM42688/debug/_ext/336238826/utils_buffer_variance.o
 .data          0x0000000000000000        0x0 build/SAMD21_IOT_WG_ICM42688/debug/_ext/336238826/utils_buffer_variance.o
 .bss           0x0000000000000000        0x0 build/SAMD21_IOT_WG_ICM42688/debug/_ext/336238826/utils_buffer_variance.o
 .debug_info    0x0000000000000000      0x1f7 build/SAMD21_IOT_WG_ICM42688/debug/_ext/336238826/utils_buffer_variance.o
 .debug_abbrev  0x0000000000000000       0xcb build/SAMD21_IOT_WG_ICM42688/debug/_ext/336238826/utils_buffer_variance.o
 .debug_loc     0x0000000000000000       0x38 build/SAMD21_IOT_WG_ICM42688/debug/_ext/336238826/utils_buffer_variance.o
 .debug_aranges
                0x0000000000000000       0x20 build/SAMD21_IOT_WG_ICM42688/debug/_ext/336238826/utils_buffer_variance.o
 .debug_line    0x0000000000000000       0xf2 build/SAMD21_IOT_WG_ICM42688/debug/_ext/336238826/utils_buffer_variance.o
 .debug_str     0x0000000000000000      0x31d build/SAMD21_IOT_WG_ICM42688/debug/_ext/336238826/utils_buffer_variance.o
 .comment       0x0000000000000000       0x2c build/SAMD21_IOT_WG_ICM42688/debug/_ext/336238826/utils_buffer_variance.o
 .debug_frame   0x0000000000000000       0x30 build/SAMD21_IOT_WG_ICM42688/debug/_ext/336238826/utils_buffer_variance.o
 .ARM.attributes
                0x0000000000000000       0x2c build/SAMD21_IOT_WG_ICM42688/debug/_ext/336238826/utils_buffer_variance.o
 .text          0x0000000000000000      0x178 build/SAMD21_IOT_WG_ICM42688/debug/_ext/336238826/utils_model_crossing_rate.o
 .data          0x0000000000000000        0x0 build/SAMD21_IOT_WG_ICM42688/debug/_ext/336238826/utils_model_crossing_rate.o
 .bss           0x0000000000000000        0x0 build/SAMD21_IOT_WG_ICM42688/debug/_ext/336238826/utils_model_crossing_rate.o
 .rodata        0x0000000000000000       0x14 build/SAMD21_IOT_WG_ICM42688/debug/_ext/336238826/utils_model_crossing_rate.o
 .debug_info    0x0000000000000000      0x325 build/SAMD21_IOT_WG_ICM42688/debug/_ext/336238826/utils_model_crossing_rate.o
 .debug_abbrev  0x0000000000000000      0x12b build/SAMD21_IOT_WG_ICM42688/debug/_ext/336238826/utils_model_crossing_rate.o
 .debug_loc     0x0000000000000000       0xa8 build/SAMD21_IOT_WG_ICM42688/debug/_ext/336238826/utils_model_crossing_rate.o
 .debug_aranges
                0x0000000000000000       0x20 build/SAMD21_IOT_WG_ICM42688/debug/_ext/336238826/utils_model_crossing_rate.o
 .debug_line    0x0000000000000000      0x157 build/SAMD21_IOT_WG_ICM42688/debug/_ext/336238826/utils_model_crossing_rate.o
 .debug_str     0x0000000000000000      0x50a build/SAMD21_IOT_WG_ICM42688/debug/_ext/336238826/utils_model_crossing_rate.o
 .comment       0x0000000000000000       0x2c build/SAMD21_IOT_WG_ICM42688/debug/_ext/336238826/utils_model_crossing_rate.o
 .debug_frame   0x0000000000000000       0x70 build/SAMD21_IOT_WG_ICM42688/debug/_ext/336238826/utils_model_crossing_rate.o
 .ARM.attributes
                0x0000000000000000       0x2c build/SAMD21_IOT_WG_ICM42688/debug/_ext/336238826/utils_model_crossing_rate.o
 .text          0x0000000000000000      0x150 build/SAMD21_IOT_WG_ICM42688/debug/_ext/336238826/utils_model_cross_column.o
 .data          0x0000000000000000        0x0 build/SAMD21_IOT_WG_ICM42688/debug/_ext/336238826/utils_model_cross_column.o
 .bss           0x0000000000000000        0x0 build/SAMD21_IOT_WG_ICM42688/debug/_ext/336238826/utils_model_cross_column.o
 .debug_info    0x0000000000000000      0x6bf build/SAMD21_IOT_WG_ICM42688/debug/_ext/336238826/utils_model_cross_column.o
 .debug_abbrev  0x0000000000000000       0xfd build/SAMD21_IOT_WG_ICM42688/debug/_ext/336238826/utils_model_cross_column.o
 .debug_loc     0x0000000000000000       0x38 build/SAMD21_IOT_WG_ICM42688/debug/_ext/336238826/utils_model_cross_column.o
 .debug_aranges
                0x0000000000000000       0x20 build/SAMD21_IOT_WG_ICM42688/debug/_ext/336238826/utils_model_cross_column.o
 .debug_line    0x0000000000000000      0x18e build/SAMD21_IOT_WG_ICM42688/debug/_ext/336238826/utils_model_cross_column.o
 .debug_str     0x0000000000000000      0x673 build/SAMD21_IOT_WG_ICM42688/debug/_ext/336238826/utils_model_cross_column.o
 .comment       0x0000000000000000       0x2c build/SAMD21_IOT_WG_ICM42688/debug/_ext/336238826/utils_model_cross_column.o
 .debug_frame   0x0000000000000000       0x30 build/SAMD21_IOT_WG_ICM42688/debug/_ext/336238826/utils_model_cross_column.o
 .ARM.attributes
                0x0000000000000000       0x2c build/SAMD21_IOT_WG_ICM42688/debug/_ext/336238826/utils_model_cross_column.o
 .data          0x0000000000000000        0x0 build/SAMD21_IOT_WG_ICM42688/debug/_ext/336238826/utils_model_cross_difference.o
 .bss           0x0000000000000000        0x0 build/SAMD21_IOT_WG_ICM42688/debug/_ext/336238826/utils_model_cross_difference.o
 .text          0x0000000000000000      0x11c build/SAMD21_IOT_WG_ICM42688/debug/_ext/336238826/utils_model_mean_crossing_rate.o
 .data          0x0000000000000000        0x0 build/SAMD21_IOT_WG_ICM42688/debug/_ext/336238826/utils_model_mean_crossing_rate.o
 .bss           0x0000000000000000        0x0 build/SAMD21_IOT_WG_ICM42688/debug/_ext/336238826/utils_model_mean_crossing_rate.o
 .debug_info    0x0000000000000000      0x6b3 build/SAMD21_IOT_WG_ICM42688/debug/_ext/336238826/utils_model_mean_crossing_rate.o
 .debug_abbrev  0x0000000000000000      0x127 build/SAMD21_IOT_WG_ICM42688/debug/_ext/336238826/utils_model_mean_crossing_rate.o
 .debug_loc     0x0000000000000000       0x38 build/SAMD21_IOT_WG_ICM42688/debug/_ext/336238826/utils_model_mean_crossing_rate.o
 .debug_aranges
                0x0000000000000000       0x20 build/SAMD21_IOT_WG_ICM42688/debug/_ext/336238826/utils_model_mean_crossing_rate.o
 .debug_line    0x0000000000000000      0x16a build/SAMD21_IOT_WG_ICM42688/debug/_ext/336238826/utils_model_mean_crossing_rate.o
 .debug_str     0x0000000000000000      0x678 build/SAMD21_IOT_WG_ICM42688/debug/_ext/336238826/utils_model_mean_crossing_rate.o
 .comment       0x0000000000000000       0x2c build/SAMD21_IOT_WG_ICM42688/debug/_ext/336238826/utils_model_mean_crossing_rate.o
 .debug_frame   0x0000000000000000       0x30 build/SAMD21_IOT_WG_ICM42688/debug/_ext/336238826/utils_model_mean_crossing_rate.o
 .ARM.attributes
                0x0000000000000000       0x2c build/SAMD21_IOT_WG_ICM42688/debug/_ext/336238826/utils_model_mean_crossing_rate.o
 .text          0x0000000000000000      0x134 build/SAMD21_IOT_WG_ICM42688/debug/_ext/336238826/utils_model_pct_time_over_sigma.o
 .data          0x0000000000000000        0x0 build/SAMD21_IOT_WG_ICM42688/debug/_ext/336238826/utils_model_pct_time_over_sigma.o
 .bss           0x0000000000000000        0x0 build/SAMD21_IOT_WG_ICM42688/debug/_ext/336238826/utils_model_pct_time_over_sigma.o
 .debug_info    0x0000000000000000      0x6e2 build/SAMD21_IOT_WG_ICM42688/debug/_ext/336238826/utils_model_pct_time_over_sigma.o
 .debug_abbrev  0x0000000000000000      0x106 build/SAMD21_IOT_WG_ICM42688/debug/_ext/336238826/utils_model_pct_time_over_sigma.o
 .debug_loc     0x0000000000000000       0x3a build/SAMD21_IOT_WG_ICM42688/debug/_ext/336238826/utils_model_pct_time_over_sigma.o
 .debug_aranges
                0x0000000000000000       0x20 build/SAMD21_IOT_WG_ICM42688/debug/_ext/336238826/utils_model_pct_time_over_sigma.o
 .debug_line    0x0000000000000000      0x169 build/SAMD21_IOT_WG_ICM42688/debug/_ext/336238826/utils_model_pct_time_over_sigma.o
 .debug_str     0x0000000000000000      0x683 build/SAMD21_IOT_WG_ICM42688/debug/_ext/336238826/utils_model_pct_time_over_sigma.o
 .comment       0x0000000000000000       0x2c build/SAMD21_IOT_WG_ICM42688/debug/_ext/336238826/utils_model_pct_time_over_sigma.o
 .debug_frame   0x0000000000000000       0x34 build/SAMD21_IOT_WG_ICM42688/debug/_ext/336238826/utils_model_pct_time_over_sigma.o
 .ARM.attributes
                0x0000000000000000       0x2c build/SAMD21_IOT_WG_ICM42688/debug/_ext/336238826/utils_model_pct_time_over_sigma.o
 .text          0x0000000000000000      0x104 build/SAMD21_IOT_WG_ICM42688/debug/_ext/336238826/utils_model_pct_time_over_threshold.o
 .data          0x0000000000000000        0x0 build/SAMD21_IOT_WG_ICM42688/debug/_ext/336238826/utils_model_pct_time_over_threshold.o
 .bss           0x0000000000000000        0x0 build/SAMD21_IOT_WG_ICM42688/debug/_ext/336238826/utils_model_pct_time_over_threshold.o
 .debug_info    0x0000000000000000      0x6d8 build/SAMD21_IOT_WG_ICM42688/debug/_ext/336238826/utils_model_pct_time_over_threshold.o
 .debug_abbrev  0x0000000000000000      0x106 build/SAMD21_IOT_WG_ICM42688/debug/_ext/336238826/utils_model_pct_time_over_threshold.o
 .debug_loc     0x0000000000000000       0x3a build/SAMD21_IOT_WG_ICM42688/debug/_ext/336238826/utils_model_pct_time_over_threshold.o
 .debug_aranges
                0x0000000000000000       0x20 build/SAMD21_IOT_WG_ICM42688/debug/_ext/336238826/utils_model_pct_time_over_threshold.o
 .debug_line    0x0000000000000000      0x16b build/SAMD21_IOT_WG_ICM42688/debug/_ext/336238826/utils_model_pct_time_over_threshold.o
 .debug_str     0x0000000000000000      0x697 build/SAMD21_IOT_WG_ICM42688/debug/_ext/336238826/utils_model_pct_time_over_threshold.o
 .comment       0x0000000000000000       0x2c build/SAMD21_IOT_WG_ICM42688/debug/_ext/336238826/utils_model_pct_time_over_threshold.o
 .debug_frame   0x0000000000000000       0x34 build/SAMD21_IOT_WG_ICM42688/debug/_ext/336238826/utils_model_pct_time_over_threshold.o
 .ARM.attributes
                0x0000000000000000       0x2c build/SAMD21_IOT_WG_ICM42688/debug/_ext/336238826/utils_model_pct_time_over_threshold.o
 .data          0x0000000000000000        0x0 build/SAMD21_IOT_WG_ICM42688/debug/_ext/336238826/utils_model_stats_max_min.o
 .bss           0x0000000000000000        0x0 build/SAMD21_IOT_WG_ICM42688/debug/_ext/336238826/utils_model_stats_max_min.o
 .text          0x0000000000000000      0x104 build/SAMD21_IOT_WG_ICM42688/debug/_ext/336238826/utils_model_total_area.o
 .data          0x0000000000000000        0x0 build/SAMD21_IOT_WG_ICM42688/debug/_ext/336238826/utils_model_total_area.o
 .bss           0x0000000000000000        0x0 build/SAMD21_IOT_WG_ICM42688/debug/_ext/336238826/utils_model_total_area.o
 .debug_info    0x0000000000000000      0x69f build/SAMD21_IOT_WG_ICM42688/debug/_ext/336238826/utils_model_total_area.o
 .debug_abbrev  0x0000000000000000       0xfd build/SAMD21_IOT_WG_ICM42688/debug/_ext/336238826/utils_model_total_area.o
 .debug_loc     0x0000000000000000       0x38 build/SAMD21_IOT_WG_ICM42688/debug/_ext/336238826/utils_model_total_area.o
 .debug_aranges
                0x0000000000000000       0x20 build/SAMD21_IOT_WG_ICM42688/debug/_ext/336238826/utils_model_total_area.o
 .debug_line    0x0000000000000000      0x172 build/SAMD21_IOT_WG_ICM42688/debug/_ext/336238826/utils_model_total_area.o
 .debug_str     0x0000000000000000      0x663 build/SAMD21_IOT_WG_ICM42688/debug/_ext/336238826/utils_model_total_area.o
 .comment       0x0000000000000000       0x2c build/SAMD21_IOT_WG_ICM42688/debug/_ext/336238826/utils_model_total_area.o
 .debug_frame   0x0000000000000000       0x30 build/SAMD21_IOT_WG_ICM42688/debug/_ext/336238826/utils_model_total_area.o
 .ARM.attributes
                0x0000000000000000       0x2c build/SAMD21_IOT_WG_ICM42688/debug/_ext/336238826/utils_model_total_area.o
 .text          0x0000000000000000      0x12e build/SAMD21_IOT_WG_ICM42688/debug/_ext/336238826/utils_model_total_energy.o
 .data          0x0000000000000000        0x0 build/SAMD21_IOT_WG_ICM42688/debug/_ext/336238826/utils_model_total_energy.o
 .bss           0x0000000000000000        0x0 build/SAMD21_IOT_WG_ICM42688/debug/_ext/336238826/utils_model_total_energy.o
 .debug_info    0x0000000000000000      0x6b0 build/SAMD21_IOT_WG_ICM42688/debug/_ext/336238826/utils_model_total_energy.o
 .debug_abbrev  0x0000000000000000       0xfd build/SAMD21_IOT_WG_ICM42688/debug/_ext/336238826/utils_model_total_energy.o
 .debug_loc     0x0000000000000000       0x38 build/SAMD21_IOT_WG_ICM42688/debug/_ext/336238826/utils_model_total_energy.o
 .debug_aranges
                0x0000000000000000       0x20 build/SAMD21_IOT_WG_ICM42688/debug/_ext/336238826/utils_model_total_energy.o
 .debug_line    0x0000000000000000      0x15c build/SAMD21_IOT_WG_ICM42688/debug/_ext/336238826/utils_model_total_energy.o
 .debug_str     0x0000000000000000      0x660 build/SAMD21_IOT_WG_ICM42688/debug/_ext/336238826/utils_model_total_energy.o
 .comment       0x0000000000000000       0x2c build/SAMD21_IOT_WG_ICM42688/debug/_ext/336238826/utils_model_total_energy.o
 .debug_frame   0x0000000000000000       0x30 build/SAMD21_IOT_WG_ICM42688/debug/_ext/336238826/utils_model_total_energy.o
 .ARM.attributes
                0x0000000000000000       0x2c build/SAMD21_IOT_WG_ICM42688/debug/_ext/336238826/utils_model_total_energy.o
 .data          0x0000000000000000        0x0 build/SAMD21_IOT_WG_ICM42688/debug/_ext/336238826/utils_tr_sensor.o
 .bss           0x0000000000000000        0x0 build/SAMD21_IOT_WG_ICM42688/debug/_ext/336238826/utils_tr_sensor.o
 .text          0x0000000000000000        0x0 c:/program files/microchip/xc32/v4.60/bin/bin/../../lib/gcc/pic32c/8.3.1/../../../../pic32c/lib/thumb/v6-m/nofp\libpic32c.a(data_init.o)
 .data          0x0000000000000000        0x0 c:/program files/microchip/xc32/v4.60/bin/bin/../../lib/gcc/pic32c/8.3.1/../../../../pic32c/lib/thumb/v6-m/nofp\libpic32c.a(data_init.o)
 .xc_stack_usage
                0x0000000000000000       0x68 c:/program files/microchip/xc32/v4.60/bin/bin/../../lib/gcc/pic32c/8.3.1/../../../../pic32c/lib/thumb/v6-m/nofp\libpic32c.a(data_init.o)
 .xc_stack_usage.hdr
                0x0000000000000000        0xe c:/program files/microchip/xc32/v4.60/bin/bin/../../lib/gcc/pic32c/8.3.1/../../../../pic32c/lib/thumb/v6-m/nofp\libpic32c.a(data_init.o)
 .text          0x0000000000000000        0x0 c:/program files/microchip/xc32/v4.60/bin/bin/../../lib/gcc/pic32c/8.3.1/../../../../pic32c/lib/thumb/v6-m/nofp\libc-size-musl.a(memcpy.o)
 .data          0x0000000000000000        0x0 c:/program files/microchip/xc32/v4.60/bin/bin/../../lib/gcc/pic32c/8.3.1/../../../../pic32c/lib/thumb/v6-m/nofp\libc-size-musl.a(memcpy.o)
 .bss           0x0000000000000000        0x0 c:/program files/microchip/xc32/v4.60/bin/bin/../../lib/gcc/pic32c/8.3.1/../../../../pic32c/lib/thumb/v6-m/nofp\libc-size-musl.a(memcpy.o)
 .xc_stack_usage
                0x0000000000000000       0x14 c:/program files/microchip/xc32/v4.60/bin/bin/../../lib/gcc/pic32c/8.3.1/../../../../pic32c/lib/thumb/v6-m/nofp\libc-size-musl.a(memcpy.o)
 .xc_stack_usage.hdr
                0x0000000000000000        0xe c:/program files/microchip/xc32/v4.60/bin/bin/../../lib/gcc/pic32c/8.3.1/../../../../pic32c/lib/thumb/v6-m/nofp\libc-size-musl.a(memcpy.o)
 .text          0x0000000000000000        0x0 c:/program files/microchip/xc32/v4.60/bin/bin/../../lib/gcc/pic32c/8.3.1/../../../../pic32c/lib/thumb/v6-m/nofp\libc-size-musl.a(memset.o)
 .data          0x0000000000000000        0x0 c:/program files/microchip/xc32/v4.60/bin/bin/../../lib/gcc/pic32c/8.3.1/../../../../pic32c/lib/thumb/v6-m/nofp\libc-size-musl.a(memset.o)
 .bss           0x0000000000000000        0x0 c:/program files/microchip/xc32/v4.60/bin/bin/../../lib/gcc/pic32c/8.3.1/../../../../pic32c/lib/thumb/v6-m/nofp\libc-size-musl.a(memset.o)
 .xc_stack_usage
                0x0000000000000000       0x14 c:/program files/microchip/xc32/v4.60/bin/bin/../../lib/gcc/pic32c/8.3.1/../../../../pic32c/lib/thumb/v6-m/nofp\libc-size-musl.a(memset.o)
 .xc_stack_usage.hdr
                0x0000000000000000        0xe c:/program files/microchip/xc32/v4.60/bin/bin/../../lib/gcc/pic32c/8.3.1/../../../../pic32c/lib/thumb/v6-m/nofp\libc-size-musl.a(memset.o)
 .text          0x0000000000000000        0x0 c:/program files/microchip/xc32/v4.60/bin/bin/../../lib/gcc/pic32c/8.3.1/../../../../pic32c/lib/thumb/v6-m/nofp\libc-size-musl.a(strlen.o)
 .data          0x0000000000000000        0x0 c:/program files/microchip/xc32/v4.60/bin/bin/../../lib/gcc/pic32c/8.3.1/../../../../pic32c/lib/thumb/v6-m/nofp\libc-size-musl.a(strlen.o)
 .bss           0x0000000000000000        0x0 c:/program files/microchip/xc32/v4.60/bin/bin/../../lib/gcc/pic32c/8.3.1/../../../../pic32c/lib/thumb/v6-m/nofp\libc-size-musl.a(strlen.o)
 .xc_stack_usage
                0x0000000000000000       0x14 c:/program files/microchip/xc32/v4.60/bin/bin/../../lib/gcc/pic32c/8.3.1/../../../../pic32c/lib/thumb/v6-m/nofp\libc-size-musl.a(strlen.o)
 .xc_stack_usage.hdr
                0x0000000000000000        0xe c:/program files/microchip/xc32/v4.60/bin/bin/../../lib/gcc/pic32c/8.3.1/../../../../pic32c/lib/thumb/v6-m/nofp\libc-size-musl.a(strlen.o)
 .text          0x0000000000000000        0x0 c:/program files/microchip/xc32/v4.60/bin/bin/../../lib/gcc/pic32c/8.3.1/../../../../pic32c/lib/thumb/v6-m/nofp\libc-size-musl.a(strchr.o)
 .data          0x0000000000000000        0x0 c:/program files/microchip/xc32/v4.60/bin/bin/../../lib/gcc/pic32c/8.3.1/../../../../pic32c/lib/thumb/v6-m/nofp\libc-size-musl.a(strchr.o)
 .bss           0x0000000000000000        0x0 c:/program files/microchip/xc32/v4.60/bin/bin/../../lib/gcc/pic32c/8.3.1/../../../../pic32c/lib/thumb/v6-m/nofp\libc-size-musl.a(strchr.o)
 .xc_stack_usage
                0x0000000000000000       0x14 c:/program files/microchip/xc32/v4.60/bin/bin/../../lib/gcc/pic32c/8.3.1/../../../../pic32c/lib/thumb/v6-m/nofp\libc-size-musl.a(strchr.o)
 .xc_stack_usage.hdr
                0x0000000000000000        0xe c:/program files/microchip/xc32/v4.60/bin/bin/../../lib/gcc/pic32c/8.3.1/../../../../pic32c/lib/thumb/v6-m/nofp\libc-size-musl.a(strchr.o)
 .text          0x0000000000000000        0x0 c:/program files/microchip/xc32/v4.60/bin/bin/../../lib/gcc/pic32c/8.3.1/../../../../pic32c/lib/thumb/v6-m/nofp\libc-size-musl.a(strchrnul.o)
 .data          0x0000000000000000        0x0 c:/program files/microchip/xc32/v4.60/bin/bin/../../lib/gcc/pic32c/8.3.1/../../../../pic32c/lib/thumb/v6-m/nofp\libc-size-musl.a(strchrnul.o)
 .bss           0x0000000000000000        0x0 c:/program files/microchip/xc32/v4.60/bin/bin/../../lib/gcc/pic32c/8.3.1/../../../../pic32c/lib/thumb/v6-m/nofp\libc-size-musl.a(strchrnul.o)
 .xc_stack_usage
                0x0000000000000000       0x19 c:/program files/microchip/xc32/v4.60/bin/bin/../../lib/gcc/pic32c/8.3.1/../../../../pic32c/lib/thumb/v6-m/nofp\libc-size-musl.a(strchrnul.o)
 .xc_stack_usage.hdr
                0x0000000000000000        0xe c:/program files/microchip/xc32/v4.60/bin/bin/../../lib/gcc/pic32c/8.3.1/../../../../pic32c/lib/thumb/v6-m/nofp\libc-size-musl.a(strchrnul.o)
 .text          0x0000000000000000        0x0 c:/program files/microchip/xc32/v4.60/bin/bin/../../lib/gcc/pic32c/8.3.1/../../../../pic32c/lib/thumb/v6-m/nofp\libc-size-musl.a(strcmp.o)
 .data          0x0000000000000000        0x0 c:/program files/microchip/xc32/v4.60/bin/bin/../../lib/gcc/pic32c/8.3.1/../../../../pic32c/lib/thumb/v6-m/nofp\libc-size-musl.a(strcmp.o)
 .bss           0x0000000000000000        0x0 c:/program files/microchip/xc32/v4.60/bin/bin/../../lib/gcc/pic32c/8.3.1/../../../../pic32c/lib/thumb/v6-m/nofp\libc-size-musl.a(strcmp.o)
 .xc_stack_usage
                0x0000000000000000       0x14 c:/program files/microchip/xc32/v4.60/bin/bin/../../lib/gcc/pic32c/8.3.1/../../../../pic32c/lib/thumb/v6-m/nofp\libc-size-musl.a(strcmp.o)
 .text.strcmp   0x0000000000000000       0x16 c:/program files/microchip/xc32/v4.60/bin/bin/../../lib/gcc/pic32c/8.3.1/../../../../pic32c/lib/thumb/v6-m/nofp\libc-size-musl.a(strcmp.o)
 .xc_stack_usage.hdr
                0x0000000000000000        0xe c:/program files/microchip/xc32/v4.60/bin/bin/../../lib/gcc/pic32c/8.3.1/../../../../pic32c/lib/thumb/v6-m/nofp\libc-size-musl.a(strcmp.o)
 .debug_info    0x0000000000000000       0x95 c:/program files/microchip/xc32/v4.60/bin/bin/../../lib/gcc/pic32c/8.3.1/../../../../pic32c/lib/thumb/v6-m/nofp\libc-size-musl.a(strcmp.o)
 .debug_abbrev  0x0000000000000000       0x6e c:/program files/microchip/xc32/v4.60/bin/bin/../../lib/gcc/pic32c/8.3.1/../../../../pic32c/lib/thumb/v6-m/nofp\libc-size-musl.a(strcmp.o)
 .debug_loc     0x0000000000000000       0x96 c:/program files/microchip/xc32/v4.60/bin/bin/../../lib/gcc/pic32c/8.3.1/../../../../pic32c/lib/thumb/v6-m/nofp\libc-size-musl.a(strcmp.o)
 .debug_aranges
                0x0000000000000000       0x20 c:/program files/microchip/xc32/v4.60/bin/bin/../../lib/gcc/pic32c/8.3.1/../../../../pic32c/lib/thumb/v6-m/nofp\libc-size-musl.a(strcmp.o)
 .debug_ranges  0x0000000000000000       0x10 c:/program files/microchip/xc32/v4.60/bin/bin/../../lib/gcc/pic32c/8.3.1/../../../../pic32c/lib/thumb/v6-m/nofp\libc-size-musl.a(strcmp.o)
 .debug_line    0x0000000000000000       0xb9 c:/program files/microchip/xc32/v4.60/bin/bin/../../lib/gcc/pic32c/8.3.1/../../../../pic32c/lib/thumb/v6-m/nofp\libc-size-musl.a(strcmp.o)
 .debug_str     0x0000000000000000      0x1ff c:/program files/microchip/xc32/v4.60/bin/bin/../../lib/gcc/pic32c/8.3.1/../../../../pic32c/lib/thumb/v6-m/nofp\libc-size-musl.a(strcmp.o)
 .comment       0x0000000000000000       0x2c c:/program files/microchip/xc32/v4.60/bin/bin/../../lib/gcc/pic32c/8.3.1/../../../../pic32c/lib/thumb/v6-m/nofp\libc-size-musl.a(strcmp.o)
 .note.GNU-stack
                0x0000000000000000        0x0 c:/program files/microchip/xc32/v4.60/bin/bin/../../lib/gcc/pic32c/8.3.1/../../../../pic32c/lib/thumb/v6-m/nofp\libc-size-musl.a(strcmp.o)
 .debug_frame   0x0000000000000000       0x28 c:/program files/microchip/xc32/v4.60/bin/bin/../../lib/gcc/pic32c/8.3.1/../../../../pic32c/lib/thumb/v6-m/nofp\libc-size-musl.a(strcmp.o)
 .ARM.attributes
                0x0000000000000000       0x2e c:/program files/microchip/xc32/v4.60/bin/bin/../../lib/gcc/pic32c/8.3.1/../../../../pic32c/lib/thumb/v6-m/nofp\libc-size-musl.a(strcmp.o)
 .text          0x0000000000000000        0x0 c:/program files/microchip/xc32/v4.60/bin/bin/../../lib/gcc/pic32c/8.3.1/../../../../pic32c/lib/thumb/v6-m/nofp\libc-size-musl.a(strnlen.o)
 .data          0x0000000000000000        0x0 c:/program files/microchip/xc32/v4.60/bin/bin/../../lib/gcc/pic32c/8.3.1/../../../../pic32c/lib/thumb/v6-m/nofp\libc-size-musl.a(strnlen.o)
 .bss           0x0000000000000000        0x0 c:/program files/microchip/xc32/v4.60/bin/bin/../../lib/gcc/pic32c/8.3.1/../../../../pic32c/lib/thumb/v6-m/nofp\libc-size-musl.a(strnlen.o)
 .xc_stack_usage
                0x0000000000000000       0x15 c:/program files/microchip/xc32/v4.60/bin/bin/../../lib/gcc/pic32c/8.3.1/../../../../pic32c/lib/thumb/v6-m/nofp\libc-size-musl.a(strnlen.o)
 .xc_stack_usage.hdr
                0x0000000000000000        0xe c:/program files/microchip/xc32/v4.60/bin/bin/../../lib/gcc/pic32c/8.3.1/../../../../pic32c/lib/thumb/v6-m/nofp\libc-size-musl.a(strnlen.o)
 .text          0x0000000000000000        0x0 c:/program files/microchip/xc32/v4.60/bin/bin/../../lib/gcc/pic32c/8.3.1/../../../../pic32c/lib/thumb/v6-m/nofp\libc-size-musl.a(memchr.o)
 .data          0x0000000000000000        0x0 c:/program files/microchip/xc32/v4.60/bin/bin/../../lib/gcc/pic32c/8.3.1/../../../../pic32c/lib/thumb/v6-m/nofp\libc-size-musl.a(memchr.o)
 .bss           0x0000000000000000        0x0 c:/program files/microchip/xc32/v4.60/bin/bin/../../lib/gcc/pic32c/8.3.1/../../../../pic32c/lib/thumb/v6-m/nofp\libc-size-musl.a(memchr.o)
 .xc_stack_usage
                0x0000000000000000       0x14 c:/program files/microchip/xc32/v4.60/bin/bin/../../lib/gcc/pic32c/8.3.1/../../../../pic32c/lib/thumb/v6-m/nofp\libc-size-musl.a(memchr.o)
 .xc_stack_usage.hdr
                0x0000000000000000        0xe c:/program files/microchip/xc32/v4.60/bin/bin/../../lib/gcc/pic32c/8.3.1/../../../../pic32c/lib/thumb/v6-m/nofp\libc-size-musl.a(memchr.o)
 .text          0x0000000000000000        0x0 c:/program files/microchip/xc32/v4.60/bin/bin/../../lib/gcc/pic32c/8.3.1/../../../../pic32c/lib/thumb/v6-m/nofp\liblmalloc-musl.a(lite_free.o)
 .data          0x0000000000000000        0x0 c:/program files/microchip/xc32/v4.60/bin/bin/../../lib/gcc/pic32c/8.3.1/../../../../pic32c/lib/thumb/v6-m/nofp\liblmalloc-musl.a(lite_free.o)
 .xc_stack_usage
                0x0000000000000000       0x59 c:/program files/microchip/xc32/v4.60/bin/bin/../../lib/gcc/pic32c/8.3.1/../../../../pic32c/lib/thumb/v6-m/nofp\liblmalloc-musl.a(lite_free.o)
 .xc_stack_usage.hdr
                0x0000000000000000        0xe c:/program files/microchip/xc32/v4.60/bin/bin/../../lib/gcc/pic32c/8.3.1/../../../../pic32c/lib/thumb/v6-m/nofp\liblmalloc-musl.a(lite_free.o)
 .text          0x0000000000000000        0x0 c:/program files/microchip/xc32/v4.60/bin/bin/../../lib/gcc/pic32c/8.3.1/../../../../pic32c/lib/thumb/v6-m/nofp\liblmalloc-musl.a(lite_malloc.o)
 .bss           0x0000000000000000        0x0 c:/program files/microchip/xc32/v4.60/bin/bin/../../lib/gcc/pic32c/8.3.1/../../../../pic32c/lib/thumb/v6-m/nofp\liblmalloc-musl.a(lite_malloc.o)
 .xc_stack_usage
                0x0000000000000000       0x1d c:/program files/microchip/xc32/v4.60/bin/bin/../../lib/gcc/pic32c/8.3.1/../../../../pic32c/lib/thumb/v6-m/nofp\liblmalloc-musl.a(lite_malloc.o)
 .xc_stack_usage.hdr
                0x0000000000000000        0xe c:/program files/microchip/xc32/v4.60/bin/bin/../../lib/gcc/pic32c/8.3.1/../../../../pic32c/lib/thumb/v6-m/nofp\liblmalloc-musl.a(lite_malloc.o)
 .ARM.attributes
                0x0000000000000000       0x2c c:/program files/microchip/xc32/v4.60/bin/bin/../../lib/gcc/pic32c/8.3.1/../../../../pic32c/lib/thumb/v6-m/nofp\libm-fast-emfloat.a(modff.o)
 .comment       0x0000000000000000       0x2c c:/program files/microchip/xc32/v4.60/bin/bin/../../lib/gcc/pic32c/8.3.1/../../../../pic32c/lib/thumb/v6-m/nofp\libm-fast-emfloat.a(modff.o)
 .text.modff    0x0000000000000000       0x34 c:/program files/microchip/xc32/v4.60/bin/bin/../../lib/gcc/pic32c/8.3.1/../../../../pic32c/lib/thumb/v6-m/nofp\libm-fast-emfloat.a(modff.o)
 .xc_stack_usage.hdr
                0x0000000000000000        0xe c:/program files/microchip/xc32/v4.60/bin/bin/../../lib/gcc/pic32c/8.3.1/../../../../pic32c/lib/thumb/v6-m/nofp\libm-fast-emfloat.a(modff.o)
 .xc_stack_usage
                0x0000000000000000       0x13 c:/program files/microchip/xc32/v4.60/bin/bin/../../lib/gcc/pic32c/8.3.1/../../../../pic32c/lib/thumb/v6-m/nofp\libm-fast-emfloat.a(modff.o)
 .ARM.attributes
                0x0000000000000000       0x2c c:/program files/microchip/xc32/v4.60/bin/bin/../../lib/gcc/pic32c/8.3.1/../../../../pic32c/lib/thumb/v6-m/nofp\libm-fast-emfloat.a(cos.o)
 .comment       0x0000000000000000       0x2c c:/program files/microchip/xc32/v4.60/bin/bin/../../lib/gcc/pic32c/8.3.1/../../../../pic32c/lib/thumb/v6-m/nofp\libm-fast-emfloat.a(cos.o)
 .text.cos      0x0000000000000000      0x120 c:/program files/microchip/xc32/v4.60/bin/bin/../../lib/gcc/pic32c/8.3.1/../../../../pic32c/lib/thumb/v6-m/nofp\libm-fast-emfloat.a(cos.o)
 .xc_stack_usage.hdr
                0x0000000000000000        0xe c:/program files/microchip/xc32/v4.60/bin/bin/../../lib/gcc/pic32c/8.3.1/../../../../pic32c/lib/thumb/v6-m/nofp\libm-fast-emfloat.a(cos.o)
 .xc_stack_usage
                0x0000000000000000       0x11 c:/program files/microchip/xc32/v4.60/bin/bin/../../lib/gcc/pic32c/8.3.1/../../../../pic32c/lib/thumb/v6-m/nofp\libm-fast-emfloat.a(cos.o)
 .ARM.attributes
                0x0000000000000000       0x2c c:/program files/microchip/xc32/v4.60/bin/bin/../../lib/gcc/pic32c/8.3.1/../../../../pic32c/lib/thumb/v6-m/nofp\libm-fast-emfloat.a(sqrt.o)
 .comment       0x0000000000000000       0x2c c:/program files/microchip/xc32/v4.60/bin/bin/../../lib/gcc/pic32c/8.3.1/../../../../pic32c/lib/thumb/v6-m/nofp\libm-fast-emfloat.a(sqrt.o)
 .text.sqrt     0x0000000000000000      0x118 c:/program files/microchip/xc32/v4.60/bin/bin/../../lib/gcc/pic32c/8.3.1/../../../../pic32c/lib/thumb/v6-m/nofp\libm-fast-emfloat.a(sqrt.o)
 .xc_stack_usage.hdr
                0x0000000000000000        0xe c:/program files/microchip/xc32/v4.60/bin/bin/../../lib/gcc/pic32c/8.3.1/../../../../pic32c/lib/thumb/v6-m/nofp\libm-fast-emfloat.a(sqrt.o)
 .xc_stack_usage
                0x0000000000000000       0x12 c:/program files/microchip/xc32/v4.60/bin/bin/../../lib/gcc/pic32c/8.3.1/../../../../pic32c/lib/thumb/v6-m/nofp\libm-fast-emfloat.a(sqrt.o)
 .ARM.attributes
                0x0000000000000000       0x2c c:/program files/microchip/xc32/v4.60/bin/bin/../../lib/gcc/pic32c/8.3.1/../../../../pic32c/lib/thumb/v6-m/nofp\libm-fast-emfloat.a(pow.o)
 .comment       0x0000000000000000       0x2c c:/program files/microchip/xc32/v4.60/bin/bin/../../lib/gcc/pic32c/8.3.1/../../../../pic32c/lib/thumb/v6-m/nofp\libm-fast-emfloat.a(pow.o)
 .text.pow      0x0000000000000000      0x460 c:/program files/microchip/xc32/v4.60/bin/bin/../../lib/gcc/pic32c/8.3.1/../../../../pic32c/lib/thumb/v6-m/nofp\libm-fast-emfloat.a(pow.o)
 .xc_stack_usage.hdr
                0x0000000000000000        0xe c:/program files/microchip/xc32/v4.60/bin/bin/../../lib/gcc/pic32c/8.3.1/../../../../pic32c/lib/thumb/v6-m/nofp\libm-fast-emfloat.a(pow.o)
 .xc_stack_usage
                0x0000000000000000       0x11 c:/program files/microchip/xc32/v4.60/bin/bin/../../lib/gcc/pic32c/8.3.1/../../../../pic32c/lib/thumb/v6-m/nofp\libm-fast-emfloat.a(pow.o)
 .ARM.attributes
                0x0000000000000000       0x2c c:/program files/microchip/xc32/v4.60/bin/bin/../../lib/gcc/pic32c/8.3.1/../../../../pic32c/lib/thumb/v6-m/nofp\libm-fast-emfloat.a(__SEGGER_RTL_float64_SinCos.o)
 .comment       0x0000000000000000       0x2c c:/program files/microchip/xc32/v4.60/bin/bin/../../lib/gcc/pic32c/8.3.1/../../../../pic32c/lib/thumb/v6-m/nofp\libm-fast-emfloat.a(__SEGGER_RTL_float64_SinCos.o)
 .rodata.__SEGGER_RTL_float64_SinCos
                0x0000000000000000       0x40 c:/program files/microchip/xc32/v4.60/bin/bin/../../lib/gcc/pic32c/8.3.1/../../../../pic32c/lib/thumb/v6-m/nofp\libm-fast-emfloat.a(__SEGGER_RTL_float64_SinCos.o)
 .xc_stack_usage.hdr
                0x0000000000000000        0xe c:/program files/microchip/xc32/v4.60/bin/bin/../../lib/gcc/pic32c/8.3.1/../../../../pic32c/lib/thumb/v6-m/nofp\libm-fast-emfloat.a(__SEGGER_RTL_float64_SinCos.o)
 .xc_stack_usage
                0x0000000000000000        0x0 c:/program files/microchip/xc32/v4.60/bin/bin/../../lib/gcc/pic32c/8.3.1/../../../../pic32c/lib/thumb/v6-m/nofp\libm-fast-emfloat.a(__SEGGER_RTL_float64_SinCos.o)
 .ARM.attributes
                0x0000000000000000       0x2c c:/program files/microchip/xc32/v4.60/bin/bin/../../lib/gcc/pic32c/8.3.1/../../../../pic32c/lib/thumb/v6-m/nofp\libm-fast-emfloat.a(__SEGGER_RTL_kahan_aT2.o)
 .comment       0x0000000000000000       0x2c c:/program files/microchip/xc32/v4.60/bin/bin/../../lib/gcc/pic32c/8.3.1/../../../../pic32c/lib/thumb/v6-m/nofp\libm-fast-emfloat.a(__SEGGER_RTL_kahan_aT2.o)
 .rodata.__SEGGER_RTL_kahan_aT2
                0x0000000000000000      0x100 c:/program files/microchip/xc32/v4.60/bin/bin/../../lib/gcc/pic32c/8.3.1/../../../../pic32c/lib/thumb/v6-m/nofp\libm-fast-emfloat.a(__SEGGER_RTL_kahan_aT2.o)
 .xc_stack_usage.hdr
                0x0000000000000000        0xe c:/program files/microchip/xc32/v4.60/bin/bin/../../lib/gcc/pic32c/8.3.1/../../../../pic32c/lib/thumb/v6-m/nofp\libm-fast-emfloat.a(__SEGGER_RTL_kahan_aT2.o)
 .xc_stack_usage
                0x0000000000000000        0x0 c:/program files/microchip/xc32/v4.60/bin/bin/../../lib/gcc/pic32c/8.3.1/../../../../pic32c/lib/thumb/v6-m/nofp\libm-fast-emfloat.a(__SEGGER_RTL_kahan_aT2.o)
 .xc_stack_usage.hdr
                0x0000000000000000        0xe c:/program files/microchip/xc32/v4.60/bin/bin/../../lib/gcc/pic32c/8.3.1/../../../../pic32c/lib/thumb/v6-m/nofp\libm-fast-emfloat.a(__aeabi_fadd.o)
 .xc_stack_usage
                0x0000000000000000       0x41 c:/program files/microchip/xc32/v4.60/bin/bin/../../lib/gcc/pic32c/8.3.1/../../../../pic32c/lib/thumb/v6-m/nofp\libm-fast-emfloat.a(__aeabi_fadd.o)
 .xc_stack_usage.hdr
                0x0000000000000000        0xe c:/program files/microchip/xc32/v4.60/bin/bin/../../lib/gcc/pic32c/8.3.1/../../../../pic32c/lib/thumb/v6-m/nofp\libm-fast-emfloat.a(__aeabi_dadd.o)
 .xc_stack_usage
                0x0000000000000000       0x41 c:/program files/microchip/xc32/v4.60/bin/bin/../../lib/gcc/pic32c/8.3.1/../../../../pic32c/lib/thumb/v6-m/nofp\libm-fast-emfloat.a(__aeabi_dadd.o)
 .xc_stack_usage.hdr
                0x0000000000000000        0xe c:/program files/microchip/xc32/v4.60/bin/bin/../../lib/gcc/pic32c/8.3.1/../../../../pic32c/lib/thumb/v6-m/nofp\libm-fast-emfloat.a(__aeabi_fsub.o)
 .xc_stack_usage
                0x0000000000000000       0x1a c:/program files/microchip/xc32/v4.60/bin/bin/../../lib/gcc/pic32c/8.3.1/../../../../pic32c/lib/thumb/v6-m/nofp\libm-fast-emfloat.a(__aeabi_fsub.o)
 .ARM.attributes
                0x0000000000000000       0x1c c:/program files/microchip/xc32/v4.60/bin/bin/../../lib/gcc/pic32c/8.3.1/../../../../pic32c/lib/thumb/v6-m/nofp\libm-fast-emfloat.a(__aeabi_dsub.o)
 .text.__aeabi_dsub
                0x0000000000000000       0x10 c:/program files/microchip/xc32/v4.60/bin/bin/../../lib/gcc/pic32c/8.3.1/../../../../pic32c/lib/thumb/v6-m/nofp\libm-fast-emfloat.a(__aeabi_dsub.o)
 .xc_stack_usage.hdr
                0x0000000000000000        0xe c:/program files/microchip/xc32/v4.60/bin/bin/../../lib/gcc/pic32c/8.3.1/../../../../pic32c/lib/thumb/v6-m/nofp\libm-fast-emfloat.a(__aeabi_dsub.o)
 .xc_stack_usage
                0x0000000000000000       0x1a c:/program files/microchip/xc32/v4.60/bin/bin/../../lib/gcc/pic32c/8.3.1/../../../../pic32c/lib/thumb/v6-m/nofp\libm-fast-emfloat.a(__aeabi_dsub.o)
 .xc_stack_usage.hdr
                0x0000000000000000        0xe c:/program files/microchip/xc32/v4.60/bin/bin/../../lib/gcc/pic32c/8.3.1/../../../../pic32c/lib/thumb/v6-m/nofp\libm-fast-emfloat.a(__aeabi_fmul.o)
 .xc_stack_usage
                0x0000000000000000       0x1a c:/program files/microchip/xc32/v4.60/bin/bin/../../lib/gcc/pic32c/8.3.1/../../../../pic32c/lib/thumb/v6-m/nofp\libm-fast-emfloat.a(__aeabi_fmul.o)
 .xc_stack_usage.hdr
                0x0000000000000000        0xe c:/program files/microchip/xc32/v4.60/bin/bin/../../lib/gcc/pic32c/8.3.1/../../../../pic32c/lib/thumb/v6-m/nofp\libm-fast-emfloat.a(__aeabi_dmul_aux.o)
 .xc_stack_usage
                0x0000000000000000       0x38 c:/program files/microchip/xc32/v4.60/bin/bin/../../lib/gcc/pic32c/8.3.1/../../../../pic32c/lib/thumb/v6-m/nofp\libm-fast-emfloat.a(__aeabi_dmul_aux.o)
 .xc_stack_usage.hdr
                0x0000000000000000        0xe c:/program files/microchip/xc32/v4.60/bin/bin/../../lib/gcc/pic32c/8.3.1/../../../../pic32c/lib/thumb/v6-m/nofp\libm-fast-emfloat.a(__aeabi_fdiv.o)
 .xc_stack_usage
                0x0000000000000000       0x1a c:/program files/microchip/xc32/v4.60/bin/bin/../../lib/gcc/pic32c/8.3.1/../../../../pic32c/lib/thumb/v6-m/nofp\libm-fast-emfloat.a(__aeabi_fdiv.o)
 .xc_stack_usage.hdr
                0x0000000000000000        0xe c:/program files/microchip/xc32/v4.60/bin/bin/../../lib/gcc/pic32c/8.3.1/../../../../pic32c/lib/thumb/v6-m/nofp\libm-fast-emfloat.a(__aeabi_ddiv.o)
 .xc_stack_usage
                0x0000000000000000       0x1a c:/program files/microchip/xc32/v4.60/bin/bin/../../lib/gcc/pic32c/8.3.1/../../../../pic32c/lib/thumb/v6-m/nofp\libm-fast-emfloat.a(__aeabi_ddiv.o)
 .ARM.attributes
                0x0000000000000000       0x1c c:/program files/microchip/xc32/v4.60/bin/bin/../../lib/gcc/pic32c/8.3.1/../../../../pic32c/lib/thumb/v6-m/nofp\libm-fast-emfloat.a(__aeabi_fcmple.o)
 .text.__aeabi_fcmple
                0x0000000000000000       0x32 c:/program files/microchip/xc32/v4.60/bin/bin/../../lib/gcc/pic32c/8.3.1/../../../../pic32c/lib/thumb/v6-m/nofp\libm-fast-emfloat.a(__aeabi_fcmple.o)
 .xc_stack_usage.hdr
                0x0000000000000000        0xe c:/program files/microchip/xc32/v4.60/bin/bin/../../lib/gcc/pic32c/8.3.1/../../../../pic32c/lib/thumb/v6-m/nofp\libm-fast-emfloat.a(__aeabi_fcmple.o)
 .xc_stack_usage
                0x0000000000000000       0x1c c:/program files/microchip/xc32/v4.60/bin/bin/../../lib/gcc/pic32c/8.3.1/../../../../pic32c/lib/thumb/v6-m/nofp\libm-fast-emfloat.a(__aeabi_fcmple.o)
 .xc_stack_usage.hdr
                0x0000000000000000        0xe c:/program files/microchip/xc32/v4.60/bin/bin/../../lib/gcc/pic32c/8.3.1/../../../../pic32c/lib/thumb/v6-m/nofp\libm-fast-emfloat.a(__aeabi_fcmpeq.o)
 .xc_stack_usage
                0x0000000000000000       0x1c c:/program files/microchip/xc32/v4.60/bin/bin/../../lib/gcc/pic32c/8.3.1/../../../../pic32c/lib/thumb/v6-m/nofp\libm-fast-emfloat.a(__aeabi_fcmpeq.o)
 .xc_stack_usage.hdr
                0x0000000000000000        0xe c:/program files/microchip/xc32/v4.60/bin/bin/../../lib/gcc/pic32c/8.3.1/../../../../pic32c/lib/thumb/v6-m/nofp\libm-fast-emfloat.a(__aeabi_dcmpeq.o)
 .xc_stack_usage
                0x0000000000000000       0x1c c:/program files/microchip/xc32/v4.60/bin/bin/../../lib/gcc/pic32c/8.3.1/../../../../pic32c/lib/thumb/v6-m/nofp\libm-fast-emfloat.a(__aeabi_dcmpeq.o)
 .ARM.attributes
                0x0000000000000000       0x1c c:/program files/microchip/xc32/v4.60/bin/bin/../../lib/gcc/pic32c/8.3.1/../../../../pic32c/lib/thumb/v6-m/nofp\libm-fast-emfloat.a(__aeabi_fcmpge.o)
 .text.__aeabi_fcmpge
                0x0000000000000000       0x32 c:/program files/microchip/xc32/v4.60/bin/bin/../../lib/gcc/pic32c/8.3.1/../../../../pic32c/lib/thumb/v6-m/nofp\libm-fast-emfloat.a(__aeabi_fcmpge.o)
 .xc_stack_usage.hdr
                0x0000000000000000        0xe c:/program files/microchip/xc32/v4.60/bin/bin/../../lib/gcc/pic32c/8.3.1/../../../../pic32c/lib/thumb/v6-m/nofp\libm-fast-emfloat.a(__aeabi_fcmpge.o)
 .xc_stack_usage
                0x0000000000000000       0x1c c:/program files/microchip/xc32/v4.60/bin/bin/../../lib/gcc/pic32c/8.3.1/../../../../pic32c/lib/thumb/v6-m/nofp\libm-fast-emfloat.a(__aeabi_fcmpge.o)
 .xc_stack_usage.hdr
                0x0000000000000000        0xe c:/program files/microchip/xc32/v4.60/bin/bin/../../lib/gcc/pic32c/8.3.1/../../../../pic32c/lib/thumb/v6-m/nofp\libm-fast-emfloat.a(__aeabi_fcmpgt.o)
 .xc_stack_usage
                0x0000000000000000       0x1c c:/program files/microchip/xc32/v4.60/bin/bin/../../lib/gcc/pic32c/8.3.1/../../../../pic32c/lib/thumb/v6-m/nofp\libm-fast-emfloat.a(__aeabi_fcmpgt.o)
 .xc_stack_usage.hdr
                0x0000000000000000        0xe c:/program files/microchip/xc32/v4.60/bin/bin/../../lib/gcc/pic32c/8.3.1/../../../../pic32c/lib/thumb/v6-m/nofp\libm-fast-emfloat.a(__aeabi_dcmpgt.o)
 .xc_stack_usage
                0x0000000000000000       0x1c c:/program files/microchip/xc32/v4.60/bin/bin/../../lib/gcc/pic32c/8.3.1/../../../../pic32c/lib/thumb/v6-m/nofp\libm-fast-emfloat.a(__aeabi_dcmpgt.o)
 .xc_stack_usage.hdr
                0x0000000000000000        0xe c:/program files/microchip/xc32/v4.60/bin/bin/../../lib/gcc/pic32c/8.3.1/../../../../pic32c/lib/thumb/v6-m/nofp\libm-fast-emfloat.a(__aeabi_fcmplt.o)
 .xc_stack_usage
                0x0000000000000000       0x1c c:/program files/microchip/xc32/v4.60/bin/bin/../../lib/gcc/pic32c/8.3.1/../../../../pic32c/lib/thumb/v6-m/nofp\libm-fast-emfloat.a(__aeabi_fcmplt.o)
 .xc_stack_usage.hdr
                0x0000000000000000        0xe c:/program files/microchip/xc32/v4.60/bin/bin/../../lib/gcc/pic32c/8.3.1/../../../../pic32c/lib/thumb/v6-m/nofp\libm-fast-emfloat.a(__aeabi_dcmplt.o)
 .xc_stack_usage
                0x0000000000000000       0x1c c:/program files/microchip/xc32/v4.60/bin/bin/../../lib/gcc/pic32c/8.3.1/../../../../pic32c/lib/thumb/v6-m/nofp\libm-fast-emfloat.a(__aeabi_dcmplt.o)
 .xc_stack_usage.hdr
                0x0000000000000000        0xe c:/program files/microchip/xc32/v4.60/bin/bin/../../lib/gcc/pic32c/8.3.1/../../../../pic32c/lib/thumb/v6-m/nofp\libm-fast-emfloat.a(__aeabi_f2iz.o)
 .xc_stack_usage
                0x0000000000000000       0x1a c:/program files/microchip/xc32/v4.60/bin/bin/../../lib/gcc/pic32c/8.3.1/../../../../pic32c/lib/thumb/v6-m/nofp\libm-fast-emfloat.a(__aeabi_f2iz.o)
 .xc_stack_usage.hdr
                0x0000000000000000        0xe c:/program files/microchip/xc32/v4.60/bin/bin/../../lib/gcc/pic32c/8.3.1/../../../../pic32c/lib/thumb/v6-m/nofp\libm-fast-emfloat.a(__aeabi_d2iz.o)
 .xc_stack_usage
                0x0000000000000000       0x1a c:/program files/microchip/xc32/v4.60/bin/bin/../../lib/gcc/pic32c/8.3.1/../../../../pic32c/lib/thumb/v6-m/nofp\libm-fast-emfloat.a(__aeabi_d2iz.o)
 .xc_stack_usage.hdr
                0x0000000000000000        0xe c:/program files/microchip/xc32/v4.60/bin/bin/../../lib/gcc/pic32c/8.3.1/../../../../pic32c/lib/thumb/v6-m/nofp\libm-fast-emfloat.a(__aeabi_f2uiz.o)
 .xc_stack_usage
                0x0000000000000000       0x1b c:/program files/microchip/xc32/v4.60/bin/bin/../../lib/gcc/pic32c/8.3.1/../../../../pic32c/lib/thumb/v6-m/nofp\libm-fast-emfloat.a(__aeabi_f2uiz.o)
 .xc_stack_usage.hdr
                0x0000000000000000        0xe c:/program files/microchip/xc32/v4.60/bin/bin/../../lib/gcc/pic32c/8.3.1/../../../../pic32c/lib/thumb/v6-m/nofp\libm-fast-emfloat.a(__aeabi_d2uiz.o)
 .xc_stack_usage
                0x0000000000000000       0x43 c:/program files/microchip/xc32/v4.60/bin/bin/../../lib/gcc/pic32c/8.3.1/../../../../pic32c/lib/thumb/v6-m/nofp\libm-fast-emfloat.a(__aeabi_d2uiz.o)
 .xc_stack_usage.hdr
                0x0000000000000000        0xe c:/program files/microchip/xc32/v4.60/bin/bin/../../lib/gcc/pic32c/8.3.1/../../../../pic32c/lib/thumb/v6-m/nofp\libm-fast-emfloat.a(__aeabi_i2f.o)
 .xc_stack_usage
                0x0000000000000000       0x19 c:/program files/microchip/xc32/v4.60/bin/bin/../../lib/gcc/pic32c/8.3.1/../../../../pic32c/lib/thumb/v6-m/nofp\libm-fast-emfloat.a(__aeabi_i2f.o)
 .ARM.attributes
                0x0000000000000000       0x1c c:/program files/microchip/xc32/v4.60/bin/bin/../../lib/gcc/pic32c/8.3.1/../../../../pic32c/lib/thumb/v6-m/nofp\libm-fast-emfloat.a(__aeabi_i2d.o)
 .text.__aeabi_i2d
                0x0000000000000000       0x1c c:/program files/microchip/xc32/v4.60/bin/bin/../../lib/gcc/pic32c/8.3.1/../../../../pic32c/lib/thumb/v6-m/nofp\libm-fast-emfloat.a(__aeabi_i2d.o)
 .xc_stack_usage.hdr
                0x0000000000000000        0xe c:/program files/microchip/xc32/v4.60/bin/bin/../../lib/gcc/pic32c/8.3.1/../../../../pic32c/lib/thumb/v6-m/nofp\libm-fast-emfloat.a(__aeabi_i2d.o)
 .xc_stack_usage
                0x0000000000000000       0x19 c:/program files/microchip/xc32/v4.60/bin/bin/../../lib/gcc/pic32c/8.3.1/../../../../pic32c/lib/thumb/v6-m/nofp\libm-fast-emfloat.a(__aeabi_i2d.o)
 .xc_stack_usage.hdr
                0x0000000000000000        0xe c:/program files/microchip/xc32/v4.60/bin/bin/../../lib/gcc/pic32c/8.3.1/../../../../pic32c/lib/thumb/v6-m/nofp\libm-fast-emfloat.a(__aeabi_l2f.o)
 .xc_stack_usage
                0x0000000000000000       0x19 c:/program files/microchip/xc32/v4.60/bin/bin/../../lib/gcc/pic32c/8.3.1/../../../../pic32c/lib/thumb/v6-m/nofp\libm-fast-emfloat.a(__aeabi_l2f.o)
 .xc_stack_usage.hdr
                0x0000000000000000        0xe c:/program files/microchip/xc32/v4.60/bin/bin/../../lib/gcc/pic32c/8.3.1/../../../../pic32c/lib/thumb/v6-m/nofp\libm-fast-emfloat.a(__aeabi_ui2f.o)
 .xc_stack_usage
                0x0000000000000000       0x1a c:/program files/microchip/xc32/v4.60/bin/bin/../../lib/gcc/pic32c/8.3.1/../../../../pic32c/lib/thumb/v6-m/nofp\libm-fast-emfloat.a(__aeabi_ui2f.o)
 .ARM.attributes
                0x0000000000000000       0x1c c:/program files/microchip/xc32/v4.60/bin/bin/../../lib/gcc/pic32c/8.3.1/../../../../pic32c/lib/thumb/v6-m/nofp\libm-fast-emfloat.a(__aeabi_ui2d.o)
 .text.__aeabi_ui2d
                0x0000000000000000       0x1c c:/program files/microchip/xc32/v4.60/bin/bin/../../lib/gcc/pic32c/8.3.1/../../../../pic32c/lib/thumb/v6-m/nofp\libm-fast-emfloat.a(__aeabi_ui2d.o)
 .xc_stack_usage.hdr
                0x0000000000000000        0xe c:/program files/microchip/xc32/v4.60/bin/bin/../../lib/gcc/pic32c/8.3.1/../../../../pic32c/lib/thumb/v6-m/nofp\libm-fast-emfloat.a(__aeabi_ui2d.o)
 .xc_stack_usage
                0x0000000000000000       0x1a c:/program files/microchip/xc32/v4.60/bin/bin/../../lib/gcc/pic32c/8.3.1/../../../../pic32c/lib/thumb/v6-m/nofp\libm-fast-emfloat.a(__aeabi_ui2d.o)
 .xc_stack_usage.hdr
                0x0000000000000000        0xe c:/program files/microchip/xc32/v4.60/bin/bin/../../lib/gcc/pic32c/8.3.1/../../../../pic32c/lib/thumb/v6-m/nofp\libm-fast-emfloat.a(__aeabi_ul2f.o)
 .xc_stack_usage
                0x0000000000000000       0x1a c:/program files/microchip/xc32/v4.60/bin/bin/../../lib/gcc/pic32c/8.3.1/../../../../pic32c/lib/thumb/v6-m/nofp\libm-fast-emfloat.a(__aeabi_ul2f.o)
 .xc_stack_usage.hdr
                0x0000000000000000        0xe c:/program files/microchip/xc32/v4.60/bin/bin/../../lib/gcc/pic32c/8.3.1/../../../../pic32c/lib/thumb/v6-m/nofp\libm-fast-emfloat.a(__aeabi_f2d.o)
 .xc_stack_usage
                0x0000000000000000       0x19 c:/program files/microchip/xc32/v4.60/bin/bin/../../lib/gcc/pic32c/8.3.1/../../../../pic32c/lib/thumb/v6-m/nofp\libm-fast-emfloat.a(__aeabi_f2d.o)
 .xc_stack_usage.hdr
                0x0000000000000000        0xe c:/program files/microchip/xc32/v4.60/bin/bin/../../lib/gcc/pic32c/8.3.1/../../../../pic32c/lib/thumb/v6-m/nofp\libm-fast-emfloat.a(__aeabi_d2f.o)
 .xc_stack_usage
                0x0000000000000000       0x19 c:/program files/microchip/xc32/v4.60/bin/bin/../../lib/gcc/pic32c/8.3.1/../../../../pic32c/lib/thumb/v6-m/nofp\libm-fast-emfloat.a(__aeabi_d2f.o)
 .ARM.attributes
                0x0000000000000000       0x2c c:/program files/microchip/xc32/v4.60/bin/bin/../../lib/gcc/pic32c/8.3.1/../../../../pic32c/lib/thumb/v6-m/nofp\libm-fast-emfloat.a(__SEGGER_RTL_float64_PolyEvalP.o)
 .comment       0x0000000000000000       0x2c c:/program files/microchip/xc32/v4.60/bin/bin/../../lib/gcc/pic32c/8.3.1/../../../../pic32c/lib/thumb/v6-m/nofp\libm-fast-emfloat.a(__SEGGER_RTL_float64_PolyEvalP.o)
 .text.__SEGGER_RTL_float64_PolyEvalP
                0x0000000000000000       0xd4 c:/program files/microchip/xc32/v4.60/bin/bin/../../lib/gcc/pic32c/8.3.1/../../../../pic32c/lib/thumb/v6-m/nofp\libm-fast-emfloat.a(__SEGGER_RTL_float64_PolyEvalP.o)
 .xc_stack_usage.hdr
                0x0000000000000000        0xe c:/program files/microchip/xc32/v4.60/bin/bin/../../lib/gcc/pic32c/8.3.1/../../../../pic32c/lib/thumb/v6-m/nofp\libm-fast-emfloat.a(__SEGGER_RTL_float64_PolyEvalP.o)
 .xc_stack_usage
                0x0000000000000000       0x2c c:/program files/microchip/xc32/v4.60/bin/bin/../../lib/gcc/pic32c/8.3.1/../../../../pic32c/lib/thumb/v6-m/nofp\libm-fast-emfloat.a(__SEGGER_RTL_float64_PolyEvalP.o)
 .ARM.attributes
                0x0000000000000000       0x2c c:/program files/microchip/xc32/v4.60/bin/bin/../../lib/gcc/pic32c/8.3.1/../../../../pic32c/lib/thumb/v6-m/nofp\libm-fast-emfloat.a(ldexp.o)
 .comment       0x0000000000000000       0x2c c:/program files/microchip/xc32/v4.60/bin/bin/../../lib/gcc/pic32c/8.3.1/../../../../pic32c/lib/thumb/v6-m/nofp\libm-fast-emfloat.a(ldexp.o)
 .text.ldexp    0x0000000000000000       0x54 c:/program files/microchip/xc32/v4.60/bin/bin/../../lib/gcc/pic32c/8.3.1/../../../../pic32c/lib/thumb/v6-m/nofp\libm-fast-emfloat.a(ldexp.o)
 .xc_stack_usage.hdr
                0x0000000000000000        0xe c:/program files/microchip/xc32/v4.60/bin/bin/../../lib/gcc/pic32c/8.3.1/../../../../pic32c/lib/thumb/v6-m/nofp\libm-fast-emfloat.a(ldexp.o)
 .xc_stack_usage
                0x0000000000000000       0x13 c:/program files/microchip/xc32/v4.60/bin/bin/../../lib/gcc/pic32c/8.3.1/../../../../pic32c/lib/thumb/v6-m/nofp\libm-fast-emfloat.a(ldexp.o)
 .ARM.attributes
                0x0000000000000000       0x2c c:/program files/microchip/xc32/v4.60/bin/bin/../../lib/gcc/pic32c/8.3.1/../../../../pic32c/lib/thumb/v6-m/nofp\libm-fast-emfloat.a(log.o)
 .comment       0x0000000000000000       0x2c c:/program files/microchip/xc32/v4.60/bin/bin/../../lib/gcc/pic32c/8.3.1/../../../../pic32c/lib/thumb/v6-m/nofp\libm-fast-emfloat.a(log.o)
 .text.log      0x0000000000000000      0x1dc c:/program files/microchip/xc32/v4.60/bin/bin/../../lib/gcc/pic32c/8.3.1/../../../../pic32c/lib/thumb/v6-m/nofp\libm-fast-emfloat.a(log.o)
 .xc_stack_usage.hdr
                0x0000000000000000        0xe c:/program files/microchip/xc32/v4.60/bin/bin/../../lib/gcc/pic32c/8.3.1/../../../../pic32c/lib/thumb/v6-m/nofp\libm-fast-emfloat.a(log.o)
 .xc_stack_usage
                0x0000000000000000       0x11 c:/program files/microchip/xc32/v4.60/bin/bin/../../lib/gcc/pic32c/8.3.1/../../../../pic32c/lib/thumb/v6-m/nofp\libm-fast-emfloat.a(log.o)
 .ARM.attributes
                0x0000000000000000       0x2c c:/program files/microchip/xc32/v4.60/bin/bin/../../lib/gcc/pic32c/8.3.1/../../../../pic32c/lib/thumb/v6-m/nofp\libm-fast-emfloat.a(exp.o)
 .comment       0x0000000000000000       0x2c c:/program files/microchip/xc32/v4.60/bin/bin/../../lib/gcc/pic32c/8.3.1/../../../../pic32c/lib/thumb/v6-m/nofp\libm-fast-emfloat.a(exp.o)
 .text.exp      0x0000000000000000      0x20c c:/program files/microchip/xc32/v4.60/bin/bin/../../lib/gcc/pic32c/8.3.1/../../../../pic32c/lib/thumb/v6-m/nofp\libm-fast-emfloat.a(exp.o)
 .xc_stack_usage.hdr
                0x0000000000000000        0xe c:/program files/microchip/xc32/v4.60/bin/bin/../../lib/gcc/pic32c/8.3.1/../../../../pic32c/lib/thumb/v6-m/nofp\libm-fast-emfloat.a(exp.o)
 .xc_stack_usage
                0x0000000000000000       0x11 c:/program files/microchip/xc32/v4.60/bin/bin/../../lib/gcc/pic32c/8.3.1/../../../../pic32c/lib/thumb/v6-m/nofp\libm-fast-emfloat.a(exp.o)
 .ARM.attributes
                0x0000000000000000       0x2c c:/program files/microchip/xc32/v4.60/bin/bin/../../lib/gcc/pic32c/8.3.1/../../../../pic32c/lib/thumb/v6-m/nofp\libm-fast-emfloat.a(__SEGGER_RTL_float64_Log.o)
 .comment       0x0000000000000000       0x2c c:/program files/microchip/xc32/v4.60/bin/bin/../../lib/gcc/pic32c/8.3.1/../../../../pic32c/lib/thumb/v6-m/nofp\libm-fast-emfloat.a(__SEGGER_RTL_float64_Log.o)
 .rodata.__SEGGER_RTL_float64_Log
                0x0000000000000000       0x28 c:/program files/microchip/xc32/v4.60/bin/bin/../../lib/gcc/pic32c/8.3.1/../../../../pic32c/lib/thumb/v6-m/nofp\libm-fast-emfloat.a(__SEGGER_RTL_float64_Log.o)
 .xc_stack_usage.hdr
                0x0000000000000000        0xe c:/program files/microchip/xc32/v4.60/bin/bin/../../lib/gcc/pic32c/8.3.1/../../../../pic32c/lib/thumb/v6-m/nofp\libm-fast-emfloat.a(__SEGGER_RTL_float64_Log.o)
 .xc_stack_usage
                0x0000000000000000        0x0 c:/program files/microchip/xc32/v4.60/bin/bin/../../lib/gcc/pic32c/8.3.1/../../../../pic32c/lib/thumb/v6-m/nofp\libm-fast-emfloat.a(__SEGGER_RTL_float64_Log.o)
 .ARM.attributes
                0x0000000000000000       0x2c c:/program files/microchip/xc32/v4.60/bin/bin/../../lib/gcc/pic32c/8.3.1/../../../../pic32c/lib/thumb/v6-m/nofp\libm-fast-emfloat.a(__SEGGER_RTL_float64_PolyEvalQ.o)
 .comment       0x0000000000000000       0x2c c:/program files/microchip/xc32/v4.60/bin/bin/../../lib/gcc/pic32c/8.3.1/../../../../pic32c/lib/thumb/v6-m/nofp\libm-fast-emfloat.a(__SEGGER_RTL_float64_PolyEvalQ.o)
 .text.__SEGGER_RTL_float64_PolyEvalQ
                0x0000000000000000       0x80 c:/program files/microchip/xc32/v4.60/bin/bin/../../lib/gcc/pic32c/8.3.1/../../../../pic32c/lib/thumb/v6-m/nofp\libm-fast-emfloat.a(__SEGGER_RTL_float64_PolyEvalQ.o)
 .xc_stack_usage.hdr
                0x0000000000000000        0xe c:/program files/microchip/xc32/v4.60/bin/bin/../../lib/gcc/pic32c/8.3.1/../../../../pic32c/lib/thumb/v6-m/nofp\libm-fast-emfloat.a(__SEGGER_RTL_float64_PolyEvalQ.o)
 .xc_stack_usage
                0x0000000000000000       0x2c c:/program files/microchip/xc32/v4.60/bin/bin/../../lib/gcc/pic32c/8.3.1/../../../../pic32c/lib/thumb/v6-m/nofp\libm-fast-emfloat.a(__SEGGER_RTL_float64_PolyEvalQ.o)
 .ARM.attributes
                0x0000000000000000       0x2c c:/program files/microchip/xc32/v4.60/bin/bin/../../lib/gcc/pic32c/8.3.1/../../../../pic32c/lib/thumb/v6-m/nofp\libm-fast-emfloat.a(frexp.o)
 .comment       0x0000000000000000       0x2c c:/program files/microchip/xc32/v4.60/bin/bin/../../lib/gcc/pic32c/8.3.1/../../../../pic32c/lib/thumb/v6-m/nofp\libm-fast-emfloat.a(frexp.o)
 .text.frexp    0x0000000000000000       0x40 c:/program files/microchip/xc32/v4.60/bin/bin/../../lib/gcc/pic32c/8.3.1/../../../../pic32c/lib/thumb/v6-m/nofp\libm-fast-emfloat.a(frexp.o)
 .xc_stack_usage.hdr
                0x0000000000000000        0xe c:/program files/microchip/xc32/v4.60/bin/bin/../../lib/gcc/pic32c/8.3.1/../../../../pic32c/lib/thumb/v6-m/nofp\libm-fast-emfloat.a(frexp.o)
 .xc_stack_usage
                0x0000000000000000       0x13 c:/program files/microchip/xc32/v4.60/bin/bin/../../lib/gcc/pic32c/8.3.1/../../../../pic32c/lib/thumb/v6-m/nofp\libm-fast-emfloat.a(frexp.o)
 .text          0x0000000000000000        0x0 c:/program files/microchip/xc32/v4.60/bin/bin/../../lib/gcc/pic32c/8.3.1/../../../../pic32c/lib/thumb/v6-m/nofp\libg-musl.a(__libc_start_main.o)
 .data          0x0000000000000000        0x0 c:/program files/microchip/xc32/v4.60/bin/bin/../../lib/gcc/pic32c/8.3.1/../../../../pic32c/lib/thumb/v6-m/nofp\libg-musl.a(__libc_start_main.o)
 .bss           0x0000000000000000        0x0 c:/program files/microchip/xc32/v4.60/bin/bin/../../lib/gcc/pic32c/8.3.1/../../../../pic32c/lib/thumb/v6-m/nofp\libg-musl.a(__libc_start_main.o)
 .xc_stack_usage
                0x0000000000000000       0x34 c:/program files/microchip/xc32/v4.60/bin/bin/../../lib/gcc/pic32c/8.3.1/../../../../pic32c/lib/thumb/v6-m/nofp\libg-musl.a(__libc_start_main.o)
 .xc_stack_usage.hdr
                0x0000000000000000        0xe c:/program files/microchip/xc32/v4.60/bin/bin/../../lib/gcc/pic32c/8.3.1/../../../../pic32c/lib/thumb/v6-m/nofp\libg-musl.a(__libc_start_main.o)
 .text          0x0000000000000000        0x0 c:/program files/microchip/xc32/v4.60/bin/bin/../../lib/gcc/pic32c/8.3.1/../../../../pic32c/lib/thumb/v6-m/nofp\libg-musl.a(__errno_location.o)
 .data          0x0000000000000000        0x0 c:/program files/microchip/xc32/v4.60/bin/bin/../../lib/gcc/pic32c/8.3.1/../../../../pic32c/lib/thumb/v6-m/nofp\libg-musl.a(__errno_location.o)
 .xc_stack_usage.hdr
                0x0000000000000000        0xe c:/program files/microchip/xc32/v4.60/bin/bin/../../lib/gcc/pic32c/8.3.1/../../../../pic32c/lib/thumb/v6-m/nofp\libg-musl.a(__errno_location.o)
 .text          0x0000000000000000        0x0 c:/program files/microchip/xc32/v4.60/bin/bin/../../lib/gcc/pic32c/8.3.1/../../../../pic32c/lib/thumb/v6-m/nofp\libg-musl.a(libc.o)
 .data          0x0000000000000000        0x0 c:/program files/microchip/xc32/v4.60/bin/bin/../../lib/gcc/pic32c/8.3.1/../../../../pic32c/lib/thumb/v6-m/nofp\libg-musl.a(libc.o)
 .xc_stack_usage.hdr
                0x0000000000000000        0xe c:/program files/microchip/xc32/v4.60/bin/bin/../../lib/gcc/pic32c/8.3.1/../../../../pic32c/lib/thumb/v6-m/nofp\libg-musl.a(libc.o)
 .text          0x0000000000000000        0x0 c:/program files/microchip/xc32/v4.60/bin/bin/../../lib/gcc/pic32c/8.3.1/../../../../pic32c/lib/thumb/v6-m/nofp\libg-musl.a(expand_heap.o)
 .data          0x0000000000000000        0x0 c:/program files/microchip/xc32/v4.60/bin/bin/../../lib/gcc/pic32c/8.3.1/../../../../pic32c/lib/thumb/v6-m/nofp\libg-musl.a(expand_heap.o)
 .bss           0x0000000000000000        0x0 c:/program files/microchip/xc32/v4.60/bin/bin/../../lib/gcc/pic32c/8.3.1/../../../../pic32c/lib/thumb/v6-m/nofp\libg-musl.a(expand_heap.o)
 .xc_stack_usage
                0x0000000000000000       0x1b c:/program files/microchip/xc32/v4.60/bin/bin/../../lib/gcc/pic32c/8.3.1/../../../../pic32c/lib/thumb/v6-m/nofp\libg-musl.a(expand_heap.o)
 .xc_stack_usage.hdr
                0x0000000000000000        0xe c:/program files/microchip/xc32/v4.60/bin/bin/../../lib/gcc/pic32c/8.3.1/../../../../pic32c/lib/thumb/v6-m/nofp\libg-musl.a(expand_heap.o)
 .text          0x0000000000000000        0x0 c:/program files/microchip/xc32/v4.60/bin/bin/../../lib/gcc/pic32c/8.3.1/../../../../pic32c/lib/thumb/v6-m/nofp\libg-musl.a(__sio_printf_cdeEfFgGnpsuxX.o)
 .data          0x0000000000000000        0x0 c:/program files/microchip/xc32/v4.60/bin/bin/../../lib/gcc/pic32c/8.3.1/../../../../pic32c/lib/thumb/v6-m/nofp\libg-musl.a(__sio_printf_cdeEfFgGnpsuxX.o)
 .bss           0x0000000000000000        0x0 c:/program files/microchip/xc32/v4.60/bin/bin/../../lib/gcc/pic32c/8.3.1/../../../../pic32c/lib/thumb/v6-m/nofp\libg-musl.a(__sio_printf_cdeEfFgGnpsuxX.o)
 .xc_stack_usage
                0x0000000000000000       0x44 c:/program files/microchip/xc32/v4.60/bin/bin/../../lib/gcc/pic32c/8.3.1/../../../../pic32c/lib/thumb/v6-m/nofp\libg-musl.a(__sio_printf_cdeEfFgGnpsuxX.o)
 .text.__sio_printf_cdeEfFgGnpsuxX
                0x0000000000000000       0x24 c:/program files/microchip/xc32/v4.60/bin/bin/../../lib/gcc/pic32c/8.3.1/../../../../pic32c/lib/thumb/v6-m/nofp\libg-musl.a(__sio_printf_cdeEfFgGnpsuxX.o)
 .xc_stack_usage.hdr
                0x0000000000000000        0xe c:/program files/microchip/xc32/v4.60/bin/bin/../../lib/gcc/pic32c/8.3.1/../../../../pic32c/lib/thumb/v6-m/nofp\libg-musl.a(__sio_printf_cdeEfFgGnpsuxX.o)
 .text          0x0000000000000000        0x0 c:/program files/microchip/xc32/v4.60/bin/bin/../../lib/gcc/pic32c/8.3.1/../../../../pic32c/lib/thumb/v6-m/nofp\libg-musl.a(__sio_sprintf_cdeEfFgGnpsuxX.o)
 .data          0x0000000000000000        0x0 c:/program files/microchip/xc32/v4.60/bin/bin/../../lib/gcc/pic32c/8.3.1/../../../../pic32c/lib/thumb/v6-m/nofp\libg-musl.a(__sio_sprintf_cdeEfFgGnpsuxX.o)
 .bss           0x0000000000000000        0x0 c:/program files/microchip/xc32/v4.60/bin/bin/../../lib/gcc/pic32c/8.3.1/../../../../pic32c/lib/thumb/v6-m/nofp\libg-musl.a(__sio_sprintf_cdeEfFgGnpsuxX.o)
 .xc_stack_usage
                0x0000000000000000       0x46 c:/program files/microchip/xc32/v4.60/bin/bin/../../lib/gcc/pic32c/8.3.1/../../../../pic32c/lib/thumb/v6-m/nofp\libg-musl.a(__sio_sprintf_cdeEfFgGnpsuxX.o)
 .text.__sio_sprintf_cdeEfFgGnpsuxX
                0x0000000000000000       0x24 c:/program files/microchip/xc32/v4.60/bin/bin/../../lib/gcc/pic32c/8.3.1/../../../../pic32c/lib/thumb/v6-m/nofp\libg-musl.a(__sio_sprintf_cdeEfFgGnpsuxX.o)
 .xc_stack_usage.hdr
                0x0000000000000000        0xe c:/program files/microchip/xc32/v4.60/bin/bin/../../lib/gcc/pic32c/8.3.1/../../../../pic32c/lib/thumb/v6-m/nofp\libg-musl.a(__sio_sprintf_cdeEfFgGnpsuxX.o)
 .text          0x0000000000000000        0x0 c:/program files/microchip/xc32/v4.60/bin/bin/../../lib/gcc/pic32c/8.3.1/../../../../pic32c/lib/thumb/v6-m/nofp\libg-musl.a(__fmt_d.o)
 .data          0x0000000000000000        0x0 c:/program files/microchip/xc32/v4.60/bin/bin/../../lib/gcc/pic32c/8.3.1/../../../../pic32c/lib/thumb/v6-m/nofp\libg-musl.a(__fmt_d.o)
 .bss           0x0000000000000000        0x0 c:/program files/microchip/xc32/v4.60/bin/bin/../../lib/gcc/pic32c/8.3.1/../../../../pic32c/lib/thumb/v6-m/nofp\libg-musl.a(__fmt_d.o)
 .xc_stack_usage
                0x0000000000000000       0x15 c:/program files/microchip/xc32/v4.60/bin/bin/../../lib/gcc/pic32c/8.3.1/../../../../pic32c/lib/thumb/v6-m/nofp\libg-musl.a(__fmt_d.o)
 .xc_stack_usage.hdr
                0x0000000000000000        0xe c:/program files/microchip/xc32/v4.60/bin/bin/../../lib/gcc/pic32c/8.3.1/../../../../pic32c/lib/thumb/v6-m/nofp\libg-musl.a(__fmt_d.o)
 .text          0x0000000000000000        0x0 c:/program files/microchip/xc32/v4.60/bin/bin/../../lib/gcc/pic32c/8.3.1/../../../../pic32c/lib/thumb/v6-m/nofp\libg-musl.a(__fmt_fp.o)
 .data          0x0000000000000000        0x0 c:/program files/microchip/xc32/v4.60/bin/bin/../../lib/gcc/pic32c/8.3.1/../../../../pic32c/lib/thumb/v6-m/nofp\libg-musl.a(__fmt_fp.o)
 .bss           0x0000000000000000        0x0 c:/program files/microchip/xc32/v4.60/bin/bin/../../lib/gcc/pic32c/8.3.1/../../../../pic32c/lib/thumb/v6-m/nofp\libg-musl.a(__fmt_fp.o)
 .xc_stack_usage
                0x0000000000000000       0x16 c:/program files/microchip/xc32/v4.60/bin/bin/../../lib/gcc/pic32c/8.3.1/../../../../pic32c/lib/thumb/v6-m/nofp\libg-musl.a(__fmt_fp.o)
 .xc_stack_usage.hdr
                0x0000000000000000        0xe c:/program files/microchip/xc32/v4.60/bin/bin/../../lib/gcc/pic32c/8.3.1/../../../../pic32c/lib/thumb/v6-m/nofp\libg-musl.a(__fmt_fp.o)
 .text          0x0000000000000000        0x0 c:/program files/microchip/xc32/v4.60/bin/bin/../../lib/gcc/pic32c/8.3.1/../../../../pic32c/lib/thumb/v6-m/nofp\libg-musl.a(__fmt_s.o)
 .data          0x0000000000000000        0x0 c:/program files/microchip/xc32/v4.60/bin/bin/../../lib/gcc/pic32c/8.3.1/../../../../pic32c/lib/thumb/v6-m/nofp\libg-musl.a(__fmt_s.o)
 .bss           0x0000000000000000        0x0 c:/program files/microchip/xc32/v4.60/bin/bin/../../lib/gcc/pic32c/8.3.1/../../../../pic32c/lib/thumb/v6-m/nofp\libg-musl.a(__fmt_s.o)
 .xc_stack_usage
                0x0000000000000000       0x15 c:/program files/microchip/xc32/v4.60/bin/bin/../../lib/gcc/pic32c/8.3.1/../../../../pic32c/lib/thumb/v6-m/nofp\libg-musl.a(__fmt_s.o)
 .xc_stack_usage.hdr
                0x0000000000000000        0xe c:/program files/microchip/xc32/v4.60/bin/bin/../../lib/gcc/pic32c/8.3.1/../../../../pic32c/lib/thumb/v6-m/nofp\libg-musl.a(__fmt_s.o)
 .text          0x0000000000000000        0x0 c:/program files/microchip/xc32/v4.60/bin/bin/../../lib/gcc/pic32c/8.3.1/../../../../pic32c/lib/thumb/v6-m/nofp\libg-musl.a(__fmt_u.o)
 .data          0x0000000000000000        0x0 c:/program files/microchip/xc32/v4.60/bin/bin/../../lib/gcc/pic32c/8.3.1/../../../../pic32c/lib/thumb/v6-m/nofp\libg-musl.a(__fmt_u.o)
 .bss           0x0000000000000000        0x0 c:/program files/microchip/xc32/v4.60/bin/bin/../../lib/gcc/pic32c/8.3.1/../../../../pic32c/lib/thumb/v6-m/nofp\libg-musl.a(__fmt_u.o)
 .xc_stack_usage
                0x0000000000000000       0x15 c:/program files/microchip/xc32/v4.60/bin/bin/../../lib/gcc/pic32c/8.3.1/../../../../pic32c/lib/thumb/v6-m/nofp\libg-musl.a(__fmt_u.o)
 .xc_stack_usage.hdr
                0x0000000000000000        0xe c:/program files/microchip/xc32/v4.60/bin/bin/../../lib/gcc/pic32c/8.3.1/../../../../pic32c/lib/thumb/v6-m/nofp\libg-musl.a(__fmt_u.o)
 .text          0x0000000000000000        0x0 c:/program files/microchip/xc32/v4.60/bin/bin/../../lib/gcc/pic32c/8.3.1/../../../../pic32c/lib/thumb/v6-m/nofp\libg-musl.a(__fmt_x.o)
 .data          0x0000000000000000        0x0 c:/program files/microchip/xc32/v4.60/bin/bin/../../lib/gcc/pic32c/8.3.1/../../../../pic32c/lib/thumb/v6-m/nofp\libg-musl.a(__fmt_x.o)
 .bss           0x0000000000000000        0x0 c:/program files/microchip/xc32/v4.60/bin/bin/../../lib/gcc/pic32c/8.3.1/../../../../pic32c/lib/thumb/v6-m/nofp\libg-musl.a(__fmt_x.o)
 .xc_stack_usage
                0x0000000000000000       0x15 c:/program files/microchip/xc32/v4.60/bin/bin/../../lib/gcc/pic32c/8.3.1/../../../../pic32c/lib/thumb/v6-m/nofp\libg-musl.a(__fmt_x.o)
 .xc_stack_usage.hdr
                0x0000000000000000        0xe c:/program files/microchip/xc32/v4.60/bin/bin/../../lib/gcc/pic32c/8.3.1/../../../../pic32c/lib/thumb/v6-m/nofp\libg-musl.a(__fmt_x.o)
 .text          0x0000000000000000        0x0 c:/program files/microchip/xc32/v4.60/bin/bin/../../lib/gcc/pic32c/8.3.1/../../../../pic32c/lib/thumb/v6-m/nofp\libg-musl.a(__pop_float.o)
 .data          0x0000000000000000        0x0 c:/program files/microchip/xc32/v4.60/bin/bin/../../lib/gcc/pic32c/8.3.1/../../../../pic32c/lib/thumb/v6-m/nofp\libg-musl.a(__pop_float.o)
 .bss           0x0000000000000000        0x0 c:/program files/microchip/xc32/v4.60/bin/bin/../../lib/gcc/pic32c/8.3.1/../../../../pic32c/lib/thumb/v6-m/nofp\libg-musl.a(__pop_float.o)
 .xc_stack_usage
                0x0000000000000000       0x19 c:/program files/microchip/xc32/v4.60/bin/bin/../../lib/gcc/pic32c/8.3.1/../../../../pic32c/lib/thumb/v6-m/nofp\libg-musl.a(__pop_float.o)
 .xc_stack_usage.hdr
                0x0000000000000000        0xe c:/program files/microchip/xc32/v4.60/bin/bin/../../lib/gcc/pic32c/8.3.1/../../../../pic32c/lib/thumb/v6-m/nofp\libg-musl.a(__pop_float.o)
 .text          0x0000000000000000        0x0 c:/program files/microchip/xc32/v4.60/bin/bin/../../lib/gcc/pic32c/8.3.1/../../../../pic32c/lib/thumb/v6-m/nofp\libg-musl.a(__pop_int.o)
 .data          0x0000000000000000        0x0 c:/program files/microchip/xc32/v4.60/bin/bin/../../lib/gcc/pic32c/8.3.1/../../../../pic32c/lib/thumb/v6-m/nofp\libg-musl.a(__pop_int.o)
 .bss           0x0000000000000000        0x0 c:/program files/microchip/xc32/v4.60/bin/bin/../../lib/gcc/pic32c/8.3.1/../../../../pic32c/lib/thumb/v6-m/nofp\libg-musl.a(__pop_int.o)
 .xc_stack_usage
                0x0000000000000000       0x17 c:/program files/microchip/xc32/v4.60/bin/bin/../../lib/gcc/pic32c/8.3.1/../../../../pic32c/lib/thumb/v6-m/nofp\libg-musl.a(__pop_int.o)
 .xc_stack_usage.hdr
                0x0000000000000000        0xe c:/program files/microchip/xc32/v4.60/bin/bin/../../lib/gcc/pic32c/8.3.1/../../../../pic32c/lib/thumb/v6-m/nofp\libg-musl.a(__pop_int.o)
 .text          0x0000000000000000        0x0 c:/program files/microchip/xc32/v4.60/bin/bin/../../lib/gcc/pic32c/8.3.1/../../../../pic32c/lib/thumb/v6-m/nofp\libg-musl.a(__pop_ptr.o)
 .data          0x0000000000000000        0x0 c:/program files/microchip/xc32/v4.60/bin/bin/../../lib/gcc/pic32c/8.3.1/../../../../pic32c/lib/thumb/v6-m/nofp\libg-musl.a(__pop_ptr.o)
 .bss           0x0000000000000000        0x0 c:/program files/microchip/xc32/v4.60/bin/bin/../../lib/gcc/pic32c/8.3.1/../../../../pic32c/lib/thumb/v6-m/nofp\libg-musl.a(__pop_ptr.o)
 .xc_stack_usage
                0x0000000000000000       0x17 c:/program files/microchip/xc32/v4.60/bin/bin/../../lib/gcc/pic32c/8.3.1/../../../../pic32c/lib/thumb/v6-m/nofp\libg-musl.a(__pop_ptr.o)
 .xc_stack_usage.hdr
                0x0000000000000000        0xe c:/program files/microchip/xc32/v4.60/bin/bin/../../lib/gcc/pic32c/8.3.1/../../../../pic32c/lib/thumb/v6-m/nofp\libg-musl.a(__pop_ptr.o)
 .text          0x0000000000000000        0x0 c:/program files/microchip/xc32/v4.60/bin/bin/../../lib/gcc/pic32c/8.3.1/../../../../pic32c/lib/thumb/v6-m/nofp\libg-musl.a(__printf_core.o)
 .data          0x0000000000000000        0x0 c:/program files/microchip/xc32/v4.60/bin/bin/../../lib/gcc/pic32c/8.3.1/../../../../pic32c/lib/thumb/v6-m/nofp\libg-musl.a(__printf_core.o)
 .bss           0x0000000000000000        0x0 c:/program files/microchip/xc32/v4.60/bin/bin/../../lib/gcc/pic32c/8.3.1/../../../../pic32c/lib/thumb/v6-m/nofp\libg-musl.a(__printf_core.o)
 .xc_stack_usage
                0x0000000000000000       0xaf c:/program files/microchip/xc32/v4.60/bin/bin/../../lib/gcc/pic32c/8.3.1/../../../../pic32c/lib/thumb/v6-m/nofp\libg-musl.a(__printf_core.o)
 .text.__string_out
                0x0000000000000000       0x2a c:/program files/microchip/xc32/v4.60/bin/bin/../../lib/gcc/pic32c/8.3.1/../../../../pic32c/lib/thumb/v6-m/nofp\libg-musl.a(__printf_core.o)
 .text.__dummy_fmts
                0x0000000000000000        0x4 c:/program files/microchip/xc32/v4.60/bin/bin/../../lib/gcc/pic32c/8.3.1/../../../../pic32c/lib/thumb/v6-m/nofp\libg-musl.a(__printf_core.o)
 .xc_stack_usage.hdr
                0x0000000000000000        0xe c:/program files/microchip/xc32/v4.60/bin/bin/../../lib/gcc/pic32c/8.3.1/../../../../pic32c/lib/thumb/v6-m/nofp\libg-musl.a(__printf_core.o)
 .text          0x0000000000000000        0x0 c:/program files/microchip/xc32/v4.60/bin/bin/../../lib/gcc/pic32c/8.3.1/../../../../pic32c/lib/thumb/v6-m/nofp\libg-musl.a(stdin.o)
 .xc_stack_usage
                0x0000000000000000       0x33 c:/program files/microchip/xc32/v4.60/bin/bin/../../lib/gcc/pic32c/8.3.1/../../../../pic32c/lib/thumb/v6-m/nofp\libg-musl.a(stdin.o)
 .xc_stack_usage.hdr
                0x0000000000000000        0xe c:/program files/microchip/xc32/v4.60/bin/bin/../../lib/gcc/pic32c/8.3.1/../../../../pic32c/lib/thumb/v6-m/nofp\libg-musl.a(stdin.o)
 .text          0x0000000000000000        0x0 c:/program files/microchip/xc32/v4.60/bin/bin/../../lib/gcc/pic32c/8.3.1/../../../../pic32c/lib/thumb/v6-m/nofp\libg-musl.a(stdout.o)
 .xc_stack_usage
                0x0000000000000000       0x51 c:/program files/microchip/xc32/v4.60/bin/bin/../../lib/gcc/pic32c/8.3.1/../../../../pic32c/lib/thumb/v6-m/nofp\libg-musl.a(stdout.o)
 .text.__dummy  0x0000000000000000        0x8 c:/program files/microchip/xc32/v4.60/bin/bin/../../lib/gcc/pic32c/8.3.1/../../../../pic32c/lib/thumb/v6-m/nofp\libg-musl.a(stdout.o)
 .xc_stack_usage.hdr
                0x0000000000000000        0xe c:/program files/microchip/xc32/v4.60/bin/bin/../../lib/gcc/pic32c/8.3.1/../../../../pic32c/lib/thumb/v6-m/nofp\libg-musl.a(stdout.o)
 .text          0x0000000000000000        0x0 c:/program files/microchip/xc32/v4.60/bin/bin/../../lib/gcc/pic32c/8.3.1/../../../../pic32c/lib/thumb/v6-m/nofp\libg-musl.a(putchar.o)
 .data          0x0000000000000000        0x0 c:/program files/microchip/xc32/v4.60/bin/bin/../../lib/gcc/pic32c/8.3.1/../../../../pic32c/lib/thumb/v6-m/nofp\libg-musl.a(putchar.o)
 .bss           0x0000000000000000        0x0 c:/program files/microchip/xc32/v4.60/bin/bin/../../lib/gcc/pic32c/8.3.1/../../../../pic32c/lib/thumb/v6-m/nofp\libg-musl.a(putchar.o)
 .xc_stack_usage
                0x0000000000000000       0x15 c:/program files/microchip/xc32/v4.60/bin/bin/../../lib/gcc/pic32c/8.3.1/../../../../pic32c/lib/thumb/v6-m/nofp\libg-musl.a(putchar.o)
 .xc_stack_usage.hdr
                0x0000000000000000        0xe c:/program files/microchip/xc32/v4.60/bin/bin/../../lib/gcc/pic32c/8.3.1/../../../../pic32c/lib/thumb/v6-m/nofp\libg-musl.a(putchar.o)
 .text          0x0000000000000000        0x0 c:/program files/microchip/xc32/v4.60/bin/bin/../../lib/gcc/pic32c/8.3.1/../../../../pic32c/lib/thumb/v6-m/nofp\libg-musl.a(puts.o)
 .data          0x0000000000000000        0x0 c:/program files/microchip/xc32/v4.60/bin/bin/../../lib/gcc/pic32c/8.3.1/../../../../pic32c/lib/thumb/v6-m/nofp\libg-musl.a(puts.o)
 .bss           0x0000000000000000        0x0 c:/program files/microchip/xc32/v4.60/bin/bin/../../lib/gcc/pic32c/8.3.1/../../../../pic32c/lib/thumb/v6-m/nofp\libg-musl.a(puts.o)
 .xc_stack_usage
                0x0000000000000000       0x12 c:/program files/microchip/xc32/v4.60/bin/bin/../../lib/gcc/pic32c/8.3.1/../../../../pic32c/lib/thumb/v6-m/nofp\libg-musl.a(puts.o)
 .xc_stack_usage.hdr
                0x0000000000000000        0xe c:/program files/microchip/xc32/v4.60/bin/bin/../../lib/gcc/pic32c/8.3.1/../../../../pic32c/lib/thumb/v6-m/nofp\libg-musl.a(puts.o)
 .text          0x0000000000000000        0x0 c:/program files/microchip/xc32/v4.60/bin/bin/../../lib/gcc/pic32c/8.3.1/../../../../pic32c/lib/thumb/v6-m/nofp\libg-musl.a(setbuf.o)
 .data          0x0000000000000000        0x0 c:/program files/microchip/xc32/v4.60/bin/bin/../../lib/gcc/pic32c/8.3.1/../../../../pic32c/lib/thumb/v6-m/nofp\libg-musl.a(setbuf.o)
 .bss           0x0000000000000000        0x0 c:/program files/microchip/xc32/v4.60/bin/bin/../../lib/gcc/pic32c/8.3.1/../../../../pic32c/lib/thumb/v6-m/nofp\libg-musl.a(setbuf.o)
 .xc_stack_usage
                0x0000000000000000       0x14 c:/program files/microchip/xc32/v4.60/bin/bin/../../lib/gcc/pic32c/8.3.1/../../../../pic32c/lib/thumb/v6-m/nofp\libg-musl.a(setbuf.o)
 .xc_stack_usage.hdr
                0x0000000000000000        0xe c:/program files/microchip/xc32/v4.60/bin/bin/../../lib/gcc/pic32c/8.3.1/../../../../pic32c/lib/thumb/v6-m/nofp\libg-musl.a(setbuf.o)
 .text          0x0000000000000000        0x0 c:/program files/microchip/xc32/v4.60/bin/bin/../../lib/gcc/pic32c/8.3.1/../../../../pic32c/lib/thumb/v6-m/nofp\libg-musl.a(atoi.o)
 .data          0x0000000000000000        0x0 c:/program files/microchip/xc32/v4.60/bin/bin/../../lib/gcc/pic32c/8.3.1/../../../../pic32c/lib/thumb/v6-m/nofp\libg-musl.a(atoi.o)
 .bss           0x0000000000000000        0x0 c:/program files/microchip/xc32/v4.60/bin/bin/../../lib/gcc/pic32c/8.3.1/../../../../pic32c/lib/thumb/v6-m/nofp\libg-musl.a(atoi.o)
 .xc_stack_usage
                0x0000000000000000       0x12 c:/program files/microchip/xc32/v4.60/bin/bin/../../lib/gcc/pic32c/8.3.1/../../../../pic32c/lib/thumb/v6-m/nofp\libg-musl.a(atoi.o)
 .xc_stack_usage.hdr
                0x0000000000000000        0xe c:/program files/microchip/xc32/v4.60/bin/bin/../../lib/gcc/pic32c/8.3.1/../../../../pic32c/lib/thumb/v6-m/nofp\libg-musl.a(atoi.o)
 .text          0x0000000000000000        0x0 c:/program files/microchip/xc32/v4.60/bin/bin/../../lib/gcc/pic32c/8.3.1/../../../../pic32c/lib/thumb/v6-m/nofp\libg-musl.a(gmtime.o)
 .data          0x0000000000000000        0x0 c:/program files/microchip/xc32/v4.60/bin/bin/../../lib/gcc/pic32c/8.3.1/../../../../pic32c/lib/thumb/v6-m/nofp\libg-musl.a(gmtime.o)
 .xc_stack_usage
                0x0000000000000000       0x14 c:/program files/microchip/xc32/v4.60/bin/bin/../../lib/gcc/pic32c/8.3.1/../../../../pic32c/lib/thumb/v6-m/nofp\libg-musl.a(gmtime.o)
 .xc_stack_usage.hdr
                0x0000000000000000        0xe c:/program files/microchip/xc32/v4.60/bin/bin/../../lib/gcc/pic32c/8.3.1/../../../../pic32c/lib/thumb/v6-m/nofp\libg-musl.a(gmtime.o)
 .text          0x0000000000000000        0x0 c:/program files/microchip/xc32/v4.60/bin/bin/../../lib/gcc/pic32c/8.3.1/../../../../pic32c/lib/thumb/v6-m/nofp\libg-musl.a(gmtime_r.o)
 .data          0x0000000000000000        0x0 c:/program files/microchip/xc32/v4.60/bin/bin/../../lib/gcc/pic32c/8.3.1/../../../../pic32c/lib/thumb/v6-m/nofp\libg-musl.a(gmtime_r.o)
 .bss           0x0000000000000000        0x0 c:/program files/microchip/xc32/v4.60/bin/bin/../../lib/gcc/pic32c/8.3.1/../../../../pic32c/lib/thumb/v6-m/nofp\libg-musl.a(gmtime_r.o)
 .xc_stack_usage
                0x0000000000000000       0x18 c:/program files/microchip/xc32/v4.60/bin/bin/../../lib/gcc/pic32c/8.3.1/../../../../pic32c/lib/thumb/v6-m/nofp\libg-musl.a(gmtime_r.o)
 .xc_stack_usage.hdr
                0x0000000000000000        0xe c:/program files/microchip/xc32/v4.60/bin/bin/../../lib/gcc/pic32c/8.3.1/../../../../pic32c/lib/thumb/v6-m/nofp\libg-musl.a(gmtime_r.o)
 .text          0x0000000000000000        0x0 c:/program files/microchip/xc32/v4.60/bin/bin/../../lib/gcc/pic32c/8.3.1/../../../../pic32c/lib/thumb/v6-m/nofp\libg-musl.a(mktime.o)
 .data          0x0000000000000000        0x0 c:/program files/microchip/xc32/v4.60/bin/bin/../../lib/gcc/pic32c/8.3.1/../../../../pic32c/lib/thumb/v6-m/nofp\libg-musl.a(mktime.o)
 .bss           0x0000000000000000        0x0 c:/program files/microchip/xc32/v4.60/bin/bin/../../lib/gcc/pic32c/8.3.1/../../../../pic32c/lib/thumb/v6-m/nofp\libg-musl.a(mktime.o)
 .xc_stack_usage
                0x0000000000000000       0x14 c:/program files/microchip/xc32/v4.60/bin/bin/../../lib/gcc/pic32c/8.3.1/../../../../pic32c/lib/thumb/v6-m/nofp\libg-musl.a(mktime.o)
 .xc_stack_usage.hdr
                0x0000000000000000        0xe c:/program files/microchip/xc32/v4.60/bin/bin/../../lib/gcc/pic32c/8.3.1/../../../../pic32c/lib/thumb/v6-m/nofp\libg-musl.a(mktime.o)
 .text          0x0000000000000000        0x0 c:/program files/microchip/xc32/v4.60/bin/bin/../../lib/gcc/pic32c/8.3.1/../../../../pic32c/lib/thumb/v6-m/nofp\libg-musl.a(tolower.o)
 .data          0x0000000000000000        0x0 c:/program files/microchip/xc32/v4.60/bin/bin/../../lib/gcc/pic32c/8.3.1/../../../../pic32c/lib/thumb/v6-m/nofp\libg-musl.a(tolower.o)
 .bss           0x0000000000000000        0x0 c:/program files/microchip/xc32/v4.60/bin/bin/../../lib/gcc/pic32c/8.3.1/../../../../pic32c/lib/thumb/v6-m/nofp\libg-musl.a(tolower.o)
 .xc_stack_usage
                0x0000000000000000       0x2e c:/program files/microchip/xc32/v4.60/bin/bin/../../lib/gcc/pic32c/8.3.1/../../../../pic32c/lib/thumb/v6-m/nofp\libg-musl.a(tolower.o)
 .text.__tolower_l
                0x0000000000000000        0x8 c:/program files/microchip/xc32/v4.60/bin/bin/../../lib/gcc/pic32c/8.3.1/../../../../pic32c/lib/thumb/v6-m/nofp\libg-musl.a(tolower.o)
 .xc_stack_usage.hdr
                0x0000000000000000        0xe c:/program files/microchip/xc32/v4.60/bin/bin/../../lib/gcc/pic32c/8.3.1/../../../../pic32c/lib/thumb/v6-m/nofp\libg-musl.a(tolower.o)
 .text          0x0000000000000000        0x0 c:/program files/microchip/xc32/v4.60/bin/bin/../../lib/gcc/pic32c/8.3.1/../../../../pic32c/lib/thumb/v6-m/nofp\libg-musl.a(toupper.o)
 .data          0x0000000000000000        0x0 c:/program files/microchip/xc32/v4.60/bin/bin/../../lib/gcc/pic32c/8.3.1/../../../../pic32c/lib/thumb/v6-m/nofp\libg-musl.a(toupper.o)
 .bss           0x0000000000000000        0x0 c:/program files/microchip/xc32/v4.60/bin/bin/../../lib/gcc/pic32c/8.3.1/../../../../pic32c/lib/thumb/v6-m/nofp\libg-musl.a(toupper.o)
 .xc_stack_usage
                0x0000000000000000       0x2e c:/program files/microchip/xc32/v4.60/bin/bin/../../lib/gcc/pic32c/8.3.1/../../../../pic32c/lib/thumb/v6-m/nofp\libg-musl.a(toupper.o)
 .text.__toupper_l
                0x0000000000000000        0x8 c:/program files/microchip/xc32/v4.60/bin/bin/../../lib/gcc/pic32c/8.3.1/../../../../pic32c/lib/thumb/v6-m/nofp\libg-musl.a(toupper.o)
 .xc_stack_usage.hdr
                0x0000000000000000        0xe c:/program files/microchip/xc32/v4.60/bin/bin/../../lib/gcc/pic32c/8.3.1/../../../../pic32c/lib/thumb/v6-m/nofp\libg-musl.a(toupper.o)
 .text          0x0000000000000000        0x0 c:/program files/microchip/xc32/v4.60/bin/bin/../../lib/gcc/pic32c/8.3.1/../../../../pic32c/lib/thumb/v6-m/nofp\libg-musl.a(__environ.o)
 .data          0x0000000000000000        0x0 c:/program files/microchip/xc32/v4.60/bin/bin/../../lib/gcc/pic32c/8.3.1/../../../../pic32c/lib/thumb/v6-m/nofp\libg-musl.a(__environ.o)
 .xc_stack_usage.hdr
                0x0000000000000000        0xe c:/program files/microchip/xc32/v4.60/bin/bin/../../lib/gcc/pic32c/8.3.1/../../../../pic32c/lib/thumb/v6-m/nofp\libg-musl.a(__environ.o)
 .text          0x0000000000000000        0x0 c:/program files/microchip/xc32/v4.60/bin/bin/../../lib/gcc/pic32c/8.3.1/../../../../pic32c/lib/thumb/v6-m/nofp\libg-musl.a(__int_vfprintf.o)
 .data          0x0000000000000000        0x0 c:/program files/microchip/xc32/v4.60/bin/bin/../../lib/gcc/pic32c/8.3.1/../../../../pic32c/lib/thumb/v6-m/nofp\libg-musl.a(__int_vfprintf.o)
 .bss           0x0000000000000000        0x0 c:/program files/microchip/xc32/v4.60/bin/bin/../../lib/gcc/pic32c/8.3.1/../../../../pic32c/lib/thumb/v6-m/nofp\libg-musl.a(__int_vfprintf.o)
 .xc_stack_usage
                0x0000000000000000       0x18 c:/program files/microchip/xc32/v4.60/bin/bin/../../lib/gcc/pic32c/8.3.1/../../../../pic32c/lib/thumb/v6-m/nofp\libg-musl.a(__int_vfprintf.o)
 .xc_stack_usage.hdr
                0x0000000000000000        0xe c:/program files/microchip/xc32/v4.60/bin/bin/../../lib/gcc/pic32c/8.3.1/../../../../pic32c/lib/thumb/v6-m/nofp\libg-musl.a(__int_vfprintf.o)
 .text          0x0000000000000000        0x0 c:/program files/microchip/xc32/v4.60/bin/bin/../../lib/gcc/pic32c/8.3.1/../../../../pic32c/lib/thumb/v6-m/nofp\libg-musl.a(__int_vsprintf.o)
 .data          0x0000000000000000        0x0 c:/program files/microchip/xc32/v4.60/bin/bin/../../lib/gcc/pic32c/8.3.1/../../../../pic32c/lib/thumb/v6-m/nofp\libg-musl.a(__int_vsprintf.o)
 .bss           0x0000000000000000        0x0 c:/program files/microchip/xc32/v4.60/bin/bin/../../lib/gcc/pic32c/8.3.1/../../../../pic32c/lib/thumb/v6-m/nofp\libg-musl.a(__int_vsprintf.o)
 .xc_stack_usage
                0x0000000000000000       0x18 c:/program files/microchip/xc32/v4.60/bin/bin/../../lib/gcc/pic32c/8.3.1/../../../../pic32c/lib/thumb/v6-m/nofp\libg-musl.a(__int_vsprintf.o)
 .xc_stack_usage.hdr
                0x0000000000000000        0xe c:/program files/microchip/xc32/v4.60/bin/bin/../../lib/gcc/pic32c/8.3.1/../../../../pic32c/lib/thumb/v6-m/nofp\libg-musl.a(__int_vsprintf.o)
 .text          0x0000000000000000        0x0 c:/program files/microchip/xc32/v4.60/bin/bin/../../lib/gcc/pic32c/8.3.1/../../../../pic32c/lib/thumb/v6-m/nofp\libg-musl.a(fputs.o)
 .data          0x0000000000000000        0x0 c:/program files/microchip/xc32/v4.60/bin/bin/../../lib/gcc/pic32c/8.3.1/../../../../pic32c/lib/thumb/v6-m/nofp\libg-musl.a(fputs.o)
 .bss           0x0000000000000000        0x0 c:/program files/microchip/xc32/v4.60/bin/bin/../../lib/gcc/pic32c/8.3.1/../../../../pic32c/lib/thumb/v6-m/nofp\libg-musl.a(fputs.o)
 .xc_stack_usage
                0x0000000000000000       0x13 c:/program files/microchip/xc32/v4.60/bin/bin/../../lib/gcc/pic32c/8.3.1/../../../../pic32c/lib/thumb/v6-m/nofp\libg-musl.a(fputs.o)
 .xc_stack_usage.hdr
                0x0000000000000000        0xe c:/program files/microchip/xc32/v4.60/bin/bin/../../lib/gcc/pic32c/8.3.1/../../../../pic32c/lib/thumb/v6-m/nofp\libg-musl.a(fputs.o)
 .text          0x0000000000000000        0x0 c:/program files/microchip/xc32/v4.60/bin/bin/../../lib/gcc/pic32c/8.3.1/../../../../pic32c/lib/thumb/v6-m/nofp\libg-musl.a(__cvt_u.o)
 .data          0x0000000000000000        0x0 c:/program files/microchip/xc32/v4.60/bin/bin/../../lib/gcc/pic32c/8.3.1/../../../../pic32c/lib/thumb/v6-m/nofp\libg-musl.a(__cvt_u.o)
 .bss           0x0000000000000000        0x0 c:/program files/microchip/xc32/v4.60/bin/bin/../../lib/gcc/pic32c/8.3.1/../../../../pic32c/lib/thumb/v6-m/nofp\libg-musl.a(__cvt_u.o)
 .xc_stack_usage
                0x0000000000000000       0x15 c:/program files/microchip/xc32/v4.60/bin/bin/../../lib/gcc/pic32c/8.3.1/../../../../pic32c/lib/thumb/v6-m/nofp\libg-musl.a(__cvt_u.o)
 .xc_stack_usage.hdr
                0x0000000000000000        0xe c:/program files/microchip/xc32/v4.60/bin/bin/../../lib/gcc/pic32c/8.3.1/../../../../pic32c/lib/thumb/v6-m/nofp\libg-musl.a(__cvt_u.o)
 .text          0x0000000000000000        0x0 c:/program files/microchip/xc32/v4.60/bin/bin/../../lib/gcc/pic32c/8.3.1/../../../../pic32c/lib/thumb/v6-m/nofp\libg-musl.a(__io_init_needed.o)
 .data          0x0000000000000000        0x0 c:/program files/microchip/xc32/v4.60/bin/bin/../../lib/gcc/pic32c/8.3.1/../../../../pic32c/lib/thumb/v6-m/nofp\libg-musl.a(__io_init_needed.o)
 .bss           0x0000000000000000        0x0 c:/program files/microchip/xc32/v4.60/bin/bin/../../lib/gcc/pic32c/8.3.1/../../../../pic32c/lib/thumb/v6-m/nofp\libg-musl.a(__io_init_needed.o)
 .xc_stack_usage
                0x0000000000000000       0x40 c:/program files/microchip/xc32/v4.60/bin/bin/../../lib/gcc/pic32c/8.3.1/../../../../pic32c/lib/thumb/v6-m/nofp\libg-musl.a(__io_init_needed.o)
 .xc_stack_usage.hdr
                0x0000000000000000        0xe c:/program files/microchip/xc32/v4.60/bin/bin/../../lib/gcc/pic32c/8.3.1/../../../../pic32c/lib/thumb/v6-m/nofp\libg-musl.a(__io_init_needed.o)
 .debug_info    0x0000000000000000       0xea c:/program files/microchip/xc32/v4.60/bin/bin/../../lib/gcc/pic32c/8.3.1/../../../../pic32c/lib/thumb/v6-m/nofp\libg-musl.a(__io_init_needed.o)
 .debug_abbrev  0x0000000000000000       0x81 c:/program files/microchip/xc32/v4.60/bin/bin/../../lib/gcc/pic32c/8.3.1/../../../../pic32c/lib/thumb/v6-m/nofp\libg-musl.a(__io_init_needed.o)
 .debug_loc     0x0000000000000000       0x40 c:/program files/microchip/xc32/v4.60/bin/bin/../../lib/gcc/pic32c/8.3.1/../../../../pic32c/lib/thumb/v6-m/nofp\libg-musl.a(__io_init_needed.o)
 .debug_aranges
                0x0000000000000000       0x28 c:/program files/microchip/xc32/v4.60/bin/bin/../../lib/gcc/pic32c/8.3.1/../../../../pic32c/lib/thumb/v6-m/nofp\libg-musl.a(__io_init_needed.o)
 .debug_ranges  0x0000000000000000       0x18 c:/program files/microchip/xc32/v4.60/bin/bin/../../lib/gcc/pic32c/8.3.1/../../../../pic32c/lib/thumb/v6-m/nofp\libg-musl.a(__io_init_needed.o)
 .debug_line    0x0000000000000000      0x137 c:/program files/microchip/xc32/v4.60/bin/bin/../../lib/gcc/pic32c/8.3.1/../../../../pic32c/lib/thumb/v6-m/nofp\libg-musl.a(__io_init_needed.o)
 .debug_str     0x0000000000000000      0x2d4 c:/program files/microchip/xc32/v4.60/bin/bin/../../lib/gcc/pic32c/8.3.1/../../../../pic32c/lib/thumb/v6-m/nofp\libg-musl.a(__io_init_needed.o)
 .comment       0x0000000000000000       0x2c c:/program files/microchip/xc32/v4.60/bin/bin/../../lib/gcc/pic32c/8.3.1/../../../../pic32c/lib/thumb/v6-m/nofp\libg-musl.a(__io_init_needed.o)
 .note.GNU-stack
                0x0000000000000000        0x0 c:/program files/microchip/xc32/v4.60/bin/bin/../../lib/gcc/pic32c/8.3.1/../../../../pic32c/lib/thumb/v6-m/nofp\libg-musl.a(__io_init_needed.o)
 .debug_frame   0x0000000000000000       0x40 c:/program files/microchip/xc32/v4.60/bin/bin/../../lib/gcc/pic32c/8.3.1/../../../../pic32c/lib/thumb/v6-m/nofp\libg-musl.a(__io_init_needed.o)
 .ARM.attributes
                0x0000000000000000       0x2e c:/program files/microchip/xc32/v4.60/bin/bin/../../lib/gcc/pic32c/8.3.1/../../../../pic32c/lib/thumb/v6-m/nofp\libg-musl.a(__io_init_needed.o)
 .text          0x0000000000000000        0x0 c:/program files/microchip/xc32/v4.60/bin/bin/../../lib/gcc/pic32c/8.3.1/../../../../pic32c/lib/thumb/v6-m/nofp\libg-musl.a(__io_rw_needed.o)
 .data          0x0000000000000000        0x0 c:/program files/microchip/xc32/v4.60/bin/bin/../../lib/gcc/pic32c/8.3.1/../../../../pic32c/lib/thumb/v6-m/nofp\libg-musl.a(__io_rw_needed.o)
 .bss           0x0000000000000000        0x0 c:/program files/microchip/xc32/v4.60/bin/bin/../../lib/gcc/pic32c/8.3.1/../../../../pic32c/lib/thumb/v6-m/nofp\libg-musl.a(__io_rw_needed.o)
 .xc_stack_usage
                0x0000000000000000       0x1c c:/program files/microchip/xc32/v4.60/bin/bin/../../lib/gcc/pic32c/8.3.1/../../../../pic32c/lib/thumb/v6-m/nofp\libg-musl.a(__io_rw_needed.o)
 .xc_stack_usage.hdr
                0x0000000000000000        0xe c:/program files/microchip/xc32/v4.60/bin/bin/../../lib/gcc/pic32c/8.3.1/../../../../pic32c/lib/thumb/v6-m/nofp\libg-musl.a(__io_rw_needed.o)
 .debug_info    0x0000000000000000       0xfd c:/program files/microchip/xc32/v4.60/bin/bin/../../lib/gcc/pic32c/8.3.1/../../../../pic32c/lib/thumb/v6-m/nofp\libg-musl.a(__io_rw_needed.o)
 .debug_abbrev  0x0000000000000000       0x67 c:/program files/microchip/xc32/v4.60/bin/bin/../../lib/gcc/pic32c/8.3.1/../../../../pic32c/lib/thumb/v6-m/nofp\libg-musl.a(__io_rw_needed.o)
 .debug_loc     0x0000000000000000       0x20 c:/program files/microchip/xc32/v4.60/bin/bin/../../lib/gcc/pic32c/8.3.1/../../../../pic32c/lib/thumb/v6-m/nofp\libg-musl.a(__io_rw_needed.o)
 .debug_aranges
                0x0000000000000000       0x20 c:/program files/microchip/xc32/v4.60/bin/bin/../../lib/gcc/pic32c/8.3.1/../../../../pic32c/lib/thumb/v6-m/nofp\libg-musl.a(__io_rw_needed.o)
 .debug_ranges  0x0000000000000000       0x10 c:/program files/microchip/xc32/v4.60/bin/bin/../../lib/gcc/pic32c/8.3.1/../../../../pic32c/lib/thumb/v6-m/nofp\libg-musl.a(__io_rw_needed.o)
 .debug_line    0x0000000000000000      0x12d c:/program files/microchip/xc32/v4.60/bin/bin/../../lib/gcc/pic32c/8.3.1/../../../../pic32c/lib/thumb/v6-m/nofp\libg-musl.a(__io_rw_needed.o)
 .debug_str     0x0000000000000000      0x2e3 c:/program files/microchip/xc32/v4.60/bin/bin/../../lib/gcc/pic32c/8.3.1/../../../../pic32c/lib/thumb/v6-m/nofp\libg-musl.a(__io_rw_needed.o)
 .comment       0x0000000000000000       0x2c c:/program files/microchip/xc32/v4.60/bin/bin/../../lib/gcc/pic32c/8.3.1/../../../../pic32c/lib/thumb/v6-m/nofp\libg-musl.a(__io_rw_needed.o)
 .note.GNU-stack
                0x0000000000000000        0x0 c:/program files/microchip/xc32/v4.60/bin/bin/../../lib/gcc/pic32c/8.3.1/../../../../pic32c/lib/thumb/v6-m/nofp\libg-musl.a(__io_rw_needed.o)
 .debug_frame   0x0000000000000000       0x28 c:/program files/microchip/xc32/v4.60/bin/bin/../../lib/gcc/pic32c/8.3.1/../../../../pic32c/lib/thumb/v6-m/nofp\libg-musl.a(__io_rw_needed.o)
 .ARM.attributes
                0x0000000000000000       0x2e c:/program files/microchip/xc32/v4.60/bin/bin/../../lib/gcc/pic32c/8.3.1/../../../../pic32c/lib/thumb/v6-m/nofp\libg-musl.a(__io_rw_needed.o)
 .text          0x0000000000000000        0x0 c:/program files/microchip/xc32/v4.60/bin/bin/../../lib/gcc/pic32c/8.3.1/../../../../pic32c/lib/thumb/v6-m/nofp\libg-musl.a(__stdio_read.o)
 .data          0x0000000000000000        0x0 c:/program files/microchip/xc32/v4.60/bin/bin/../../lib/gcc/pic32c/8.3.1/../../../../pic32c/lib/thumb/v6-m/nofp\libg-musl.a(__stdio_read.o)
 .bss           0x0000000000000000        0x0 c:/program files/microchip/xc32/v4.60/bin/bin/../../lib/gcc/pic32c/8.3.1/../../../../pic32c/lib/thumb/v6-m/nofp\libg-musl.a(__stdio_read.o)
 .xc_stack_usage
                0x0000000000000000       0x1a c:/program files/microchip/xc32/v4.60/bin/bin/../../lib/gcc/pic32c/8.3.1/../../../../pic32c/lib/thumb/v6-m/nofp\libg-musl.a(__stdio_read.o)
 .xc_stack_usage.hdr
                0x0000000000000000        0xe c:/program files/microchip/xc32/v4.60/bin/bin/../../lib/gcc/pic32c/8.3.1/../../../../pic32c/lib/thumb/v6-m/nofp\libg-musl.a(__stdio_read.o)
 .text          0x0000000000000000        0x0 c:/program files/microchip/xc32/v4.60/bin/bin/../../lib/gcc/pic32c/8.3.1/../../../../pic32c/lib/thumb/v6-m/nofp\libg-musl.a(__towrite_rw.o)
 .data          0x0000000000000000        0x0 c:/program files/microchip/xc32/v4.60/bin/bin/../../lib/gcc/pic32c/8.3.1/../../../../pic32c/lib/thumb/v6-m/nofp\libg-musl.a(__towrite_rw.o)
 .bss           0x0000000000000000        0x0 c:/program files/microchip/xc32/v4.60/bin/bin/../../lib/gcc/pic32c/8.3.1/../../../../pic32c/lib/thumb/v6-m/nofp\libg-musl.a(__towrite_rw.o)
 .xc_stack_usage
                0x0000000000000000       0x1a c:/program files/microchip/xc32/v4.60/bin/bin/../../lib/gcc/pic32c/8.3.1/../../../../pic32c/lib/thumb/v6-m/nofp\libg-musl.a(__towrite_rw.o)
 .xc_stack_usage.hdr
                0x0000000000000000        0xe c:/program files/microchip/xc32/v4.60/bin/bin/../../lib/gcc/pic32c/8.3.1/../../../../pic32c/lib/thumb/v6-m/nofp\libg-musl.a(__towrite_rw.o)
 .text          0x0000000000000000        0x0 c:/program files/microchip/xc32/v4.60/bin/bin/../../lib/gcc/pic32c/8.3.1/../../../../pic32c/lib/thumb/v6-m/nofp\libg-musl.a(fwrite.o)
 .data          0x0000000000000000        0x0 c:/program files/microchip/xc32/v4.60/bin/bin/../../lib/gcc/pic32c/8.3.1/../../../../pic32c/lib/thumb/v6-m/nofp\libg-musl.a(fwrite.o)
 .bss           0x0000000000000000        0x0 c:/program files/microchip/xc32/v4.60/bin/bin/../../lib/gcc/pic32c/8.3.1/../../../../pic32c/lib/thumb/v6-m/nofp\libg-musl.a(fwrite.o)
 .xc_stack_usage
                0x0000000000000000       0x2e c:/program files/microchip/xc32/v4.60/bin/bin/../../lib/gcc/pic32c/8.3.1/../../../../pic32c/lib/thumb/v6-m/nofp\libg-musl.a(fwrite.o)
 .text.__fwrite_min
                0x0000000000000000        0xa c:/program files/microchip/xc32/v4.60/bin/bin/../../lib/gcc/pic32c/8.3.1/../../../../pic32c/lib/thumb/v6-m/nofp\libg-musl.a(fwrite.o)
 .xc_stack_usage.hdr
                0x0000000000000000        0xe c:/program files/microchip/xc32/v4.60/bin/bin/../../lib/gcc/pic32c/8.3.1/../../../../pic32c/lib/thumb/v6-m/nofp\libg-musl.a(fwrite.o)
 .text          0x0000000000000000        0x0 c:/program files/microchip/xc32/v4.60/bin/bin/../../lib/gcc/pic32c/8.3.1/../../../../pic32c/lib/thumb/v6-m/nofp\libg-musl.a(putc.o)
 .data          0x0000000000000000        0x0 c:/program files/microchip/xc32/v4.60/bin/bin/../../lib/gcc/pic32c/8.3.1/../../../../pic32c/lib/thumb/v6-m/nofp\libg-musl.a(putc.o)
 .bss           0x0000000000000000        0x0 c:/program files/microchip/xc32/v4.60/bin/bin/../../lib/gcc/pic32c/8.3.1/../../../../pic32c/lib/thumb/v6-m/nofp\libg-musl.a(putc.o)
 .xc_stack_usage
                0x0000000000000000       0x4f c:/program files/microchip/xc32/v4.60/bin/bin/../../lib/gcc/pic32c/8.3.1/../../../../pic32c/lib/thumb/v6-m/nofp\libg-musl.a(putc.o)
 .xc_stack_usage.hdr
                0x0000000000000000        0xe c:/program files/microchip/xc32/v4.60/bin/bin/../../lib/gcc/pic32c/8.3.1/../../../../pic32c/lib/thumb/v6-m/nofp\libg-musl.a(putc.o)
 .text          0x0000000000000000        0x0 c:/program files/microchip/xc32/v4.60/bin/bin/../../lib/gcc/pic32c/8.3.1/../../../../pic32c/lib/thumb/v6-m/nofp\libg-musl.a(setvbuf.o)
 .data          0x0000000000000000        0x0 c:/program files/microchip/xc32/v4.60/bin/bin/../../lib/gcc/pic32c/8.3.1/../../../../pic32c/lib/thumb/v6-m/nofp\libg-musl.a(setvbuf.o)
 .bss           0x0000000000000000        0x0 c:/program files/microchip/xc32/v4.60/bin/bin/../../lib/gcc/pic32c/8.3.1/../../../../pic32c/lib/thumb/v6-m/nofp\libg-musl.a(setvbuf.o)
 .xc_stack_usage
                0x0000000000000000       0x36 c:/program files/microchip/xc32/v4.60/bin/bin/../../lib/gcc/pic32c/8.3.1/../../../../pic32c/lib/thumb/v6-m/nofp\libg-musl.a(setvbuf.o)
 .xc_stack_usage.hdr
                0x0000000000000000        0xe c:/program files/microchip/xc32/v4.60/bin/bin/../../lib/gcc/pic32c/8.3.1/../../../../pic32c/lib/thumb/v6-m/nofp\libg-musl.a(setvbuf.o)
 .text          0x0000000000000000        0x0 c:/program files/microchip/xc32/v4.60/bin/bin/../../lib/gcc/pic32c/8.3.1/../../../../pic32c/lib/thumb/v6-m/nofp\libg-musl.a(__tm_to_secs.o)
 .data          0x0000000000000000        0x0 c:/program files/microchip/xc32/v4.60/bin/bin/../../lib/gcc/pic32c/8.3.1/../../../../pic32c/lib/thumb/v6-m/nofp\libg-musl.a(__tm_to_secs.o)
 .bss           0x0000000000000000        0x0 c:/program files/microchip/xc32/v4.60/bin/bin/../../lib/gcc/pic32c/8.3.1/../../../../pic32c/lib/thumb/v6-m/nofp\libg-musl.a(__tm_to_secs.o)
 .xc_stack_usage
                0x0000000000000000       0x1a c:/program files/microchip/xc32/v4.60/bin/bin/../../lib/gcc/pic32c/8.3.1/../../../../pic32c/lib/thumb/v6-m/nofp\libg-musl.a(__tm_to_secs.o)
 .xc_stack_usage.hdr
                0x0000000000000000        0xe c:/program files/microchip/xc32/v4.60/bin/bin/../../lib/gcc/pic32c/8.3.1/../../../../pic32c/lib/thumb/v6-m/nofp\libg-musl.a(__tm_to_secs.o)
 .text          0x0000000000000000        0x0 c:/program files/microchip/xc32/v4.60/bin/bin/../../lib/gcc/pic32c/8.3.1/../../../../pic32c/lib/thumb/v6-m/nofp\libg-musl.a(__year_to_secs.o)
 .data          0x0000000000000000        0x0 c:/program files/microchip/xc32/v4.60/bin/bin/../../lib/gcc/pic32c/8.3.1/../../../../pic32c/lib/thumb/v6-m/nofp\libg-musl.a(__year_to_secs.o)
 .bss           0x0000000000000000        0x0 c:/program files/microchip/xc32/v4.60/bin/bin/../../lib/gcc/pic32c/8.3.1/../../../../pic32c/lib/thumb/v6-m/nofp\libg-musl.a(__year_to_secs.o)
 .xc_stack_usage
                0x0000000000000000       0x1c c:/program files/microchip/xc32/v4.60/bin/bin/../../lib/gcc/pic32c/8.3.1/../../../../pic32c/lib/thumb/v6-m/nofp\libg-musl.a(__year_to_secs.o)
 .xc_stack_usage.hdr
                0x0000000000000000        0xe c:/program files/microchip/xc32/v4.60/bin/bin/../../lib/gcc/pic32c/8.3.1/../../../../pic32c/lib/thumb/v6-m/nofp\libg-musl.a(__year_to_secs.o)
 .text          0x0000000000000000        0x0 c:/program files/microchip/xc32/v4.60/bin/bin/../../lib/gcc/pic32c/8.3.1/../../../../pic32c/lib/thumb/v6-m/nofp\libg-musl.a(__secs_to_tm.o)
 .data          0x0000000000000000        0x0 c:/program files/microchip/xc32/v4.60/bin/bin/../../lib/gcc/pic32c/8.3.1/../../../../pic32c/lib/thumb/v6-m/nofp\libg-musl.a(__secs_to_tm.o)
 .bss           0x0000000000000000        0x0 c:/program files/microchip/xc32/v4.60/bin/bin/../../lib/gcc/pic32c/8.3.1/../../../../pic32c/lib/thumb/v6-m/nofp\libg-musl.a(__secs_to_tm.o)
 .xc_stack_usage
                0x0000000000000000       0x1a c:/program files/microchip/xc32/v4.60/bin/bin/../../lib/gcc/pic32c/8.3.1/../../../../pic32c/lib/thumb/v6-m/nofp\libg-musl.a(__secs_to_tm.o)
 .xc_stack_usage.hdr
                0x0000000000000000        0xe c:/program files/microchip/xc32/v4.60/bin/bin/../../lib/gcc/pic32c/8.3.1/../../../../pic32c/lib/thumb/v6-m/nofp\libg-musl.a(__secs_to_tm.o)
 .text          0x0000000000000000        0x0 c:/program files/microchip/xc32/v4.60/bin/bin/../../lib/gcc/pic32c/8.3.1/../../../../pic32c/lib/thumb/v6-m/nofp\libg-musl.a(readv.o)
 .data          0x0000000000000000        0x0 c:/program files/microchip/xc32/v4.60/bin/bin/../../lib/gcc/pic32c/8.3.1/../../../../pic32c/lib/thumb/v6-m/nofp\libg-musl.a(readv.o)
 .bss           0x0000000000000000        0x0 c:/program files/microchip/xc32/v4.60/bin/bin/../../lib/gcc/pic32c/8.3.1/../../../../pic32c/lib/thumb/v6-m/nofp\libg-musl.a(readv.o)
 .xc_stack_usage
                0x0000000000000000       0x15 c:/program files/microchip/xc32/v4.60/bin/bin/../../lib/gcc/pic32c/8.3.1/../../../../pic32c/lib/thumb/v6-m/nofp\libg-musl.a(readv.o)
 .xc_stack_usage.hdr
                0x0000000000000000        0xe c:/program files/microchip/xc32/v4.60/bin/bin/../../lib/gcc/pic32c/8.3.1/../../../../pic32c/lib/thumb/v6-m/nofp\libg-musl.a(readv.o)
 .text          0x0000000000000000        0x0 c:/program files/microchip/xc32/v4.60/bin/bin/../../lib/gcc/pic32c/8.3.1/../../../../pic32c/lib/thumb/v6-m/nofp\libg-musl.a(__int_vsnprintf.o)
 .data          0x0000000000000000        0x0 c:/program files/microchip/xc32/v4.60/bin/bin/../../lib/gcc/pic32c/8.3.1/../../../../pic32c/lib/thumb/v6-m/nofp\libg-musl.a(__int_vsnprintf.o)
 .bss           0x0000000000000000        0x0 c:/program files/microchip/xc32/v4.60/bin/bin/../../lib/gcc/pic32c/8.3.1/../../../../pic32c/lib/thumb/v6-m/nofp\libg-musl.a(__int_vsnprintf.o)
 .xc_stack_usage
                0x0000000000000000       0x19 c:/program files/microchip/xc32/v4.60/bin/bin/../../lib/gcc/pic32c/8.3.1/../../../../pic32c/lib/thumb/v6-m/nofp\libg-musl.a(__int_vsnprintf.o)
 .xc_stack_usage.hdr
                0x0000000000000000        0xe c:/program files/microchip/xc32/v4.60/bin/bin/../../lib/gcc/pic32c/8.3.1/../../../../pic32c/lib/thumb/v6-m/nofp\libg-musl.a(__int_vsnprintf.o)
 .text          0x0000000000000000        0x0 c:/program files/microchip/xc32/v4.60/bin/bin/../../lib/gcc/pic32c/8.3.1/../../../../pic32c/lib/thumb/v6-m/nofp\libg-musl.a(__fopen_rw.o)
 .data          0x0000000000000000        0x0 c:/program files/microchip/xc32/v4.60/bin/bin/../../lib/gcc/pic32c/8.3.1/../../../../pic32c/lib/thumb/v6-m/nofp\libg-musl.a(__fopen_rw.o)
 .bss           0x0000000000000000        0x0 c:/program files/microchip/xc32/v4.60/bin/bin/../../lib/gcc/pic32c/8.3.1/../../../../pic32c/lib/thumb/v6-m/nofp\libg-musl.a(__fopen_rw.o)
 .xc_stack_usage
                0x0000000000000000       0x18 c:/program files/microchip/xc32/v4.60/bin/bin/../../lib/gcc/pic32c/8.3.1/../../../../pic32c/lib/thumb/v6-m/nofp\libg-musl.a(__fopen_rw.o)
 .text.__fopen_rw
                0x0000000000000000       0x4c c:/program files/microchip/xc32/v4.60/bin/bin/../../lib/gcc/pic32c/8.3.1/../../../../pic32c/lib/thumb/v6-m/nofp\libg-musl.a(__fopen_rw.o)
 .xc_stack_usage.hdr
                0x0000000000000000        0xe c:/program files/microchip/xc32/v4.60/bin/bin/../../lib/gcc/pic32c/8.3.1/../../../../pic32c/lib/thumb/v6-m/nofp\libg-musl.a(__fopen_rw.o)
 .debug_info    0x0000000000000000      0x3dc c:/program files/microchip/xc32/v4.60/bin/bin/../../lib/gcc/pic32c/8.3.1/../../../../pic32c/lib/thumb/v6-m/nofp\libg-musl.a(__fopen_rw.o)
 .debug_abbrev  0x0000000000000000      0x12c c:/program files/microchip/xc32/v4.60/bin/bin/../../lib/gcc/pic32c/8.3.1/../../../../pic32c/lib/thumb/v6-m/nofp\libg-musl.a(__fopen_rw.o)
 .debug_loc     0x0000000000000000       0x4f c:/program files/microchip/xc32/v4.60/bin/bin/../../lib/gcc/pic32c/8.3.1/../../../../pic32c/lib/thumb/v6-m/nofp\libg-musl.a(__fopen_rw.o)
 .debug_aranges
                0x0000000000000000       0x20 c:/program files/microchip/xc32/v4.60/bin/bin/../../lib/gcc/pic32c/8.3.1/../../../../pic32c/lib/thumb/v6-m/nofp\libg-musl.a(__fopen_rw.o)
 .debug_ranges  0x0000000000000000       0x10 c:/program files/microchip/xc32/v4.60/bin/bin/../../lib/gcc/pic32c/8.3.1/../../../../pic32c/lib/thumb/v6-m/nofp\libg-musl.a(__fopen_rw.o)
 .debug_line    0x0000000000000000      0x28e c:/program files/microchip/xc32/v4.60/bin/bin/../../lib/gcc/pic32c/8.3.1/../../../../pic32c/lib/thumb/v6-m/nofp\libg-musl.a(__fopen_rw.o)
 .debug_str     0x0000000000000000      0x355 c:/program files/microchip/xc32/v4.60/bin/bin/../../lib/gcc/pic32c/8.3.1/../../../../pic32c/lib/thumb/v6-m/nofp\libg-musl.a(__fopen_rw.o)
 .comment       0x0000000000000000       0x2c c:/program files/microchip/xc32/v4.60/bin/bin/../../lib/gcc/pic32c/8.3.1/../../../../pic32c/lib/thumb/v6-m/nofp\libg-musl.a(__fopen_rw.o)
 .note.GNU-stack
                0x0000000000000000        0x0 c:/program files/microchip/xc32/v4.60/bin/bin/../../lib/gcc/pic32c/8.3.1/../../../../pic32c/lib/thumb/v6-m/nofp\libg-musl.a(__fopen_rw.o)
 .debug_frame   0x0000000000000000       0x28 c:/program files/microchip/xc32/v4.60/bin/bin/../../lib/gcc/pic32c/8.3.1/../../../../pic32c/lib/thumb/v6-m/nofp\libg-musl.a(__fopen_rw.o)
 .ARM.attributes
                0x0000000000000000       0x2e c:/program files/microchip/xc32/v4.60/bin/bin/../../lib/gcc/pic32c/8.3.1/../../../../pic32c/lib/thumb/v6-m/nofp\libg-musl.a(__fopen_rw.o)
 .text          0x0000000000000000        0x0 c:/program files/microchip/xc32/v4.60/bin/bin/../../lib/gcc/pic32c/8.3.1/../../../../pic32c/lib/thumb/v6-m/nofp\libg-musl.a(__ftello_rw.o)
 .data          0x0000000000000000        0x0 c:/program files/microchip/xc32/v4.60/bin/bin/../../lib/gcc/pic32c/8.3.1/../../../../pic32c/lib/thumb/v6-m/nofp\libg-musl.a(__ftello_rw.o)
 .bss           0x0000000000000000        0x0 c:/program files/microchip/xc32/v4.60/bin/bin/../../lib/gcc/pic32c/8.3.1/../../../../pic32c/lib/thumb/v6-m/nofp\libg-musl.a(__ftello_rw.o)
 .xc_stack_usage
                0x0000000000000000       0x1d c:/program files/microchip/xc32/v4.60/bin/bin/../../lib/gcc/pic32c/8.3.1/../../../../pic32c/lib/thumb/v6-m/nofp\libg-musl.a(__ftello_rw.o)
 .text.__ftello_adj_rw
                0x0000000000000000       0x28 c:/program files/microchip/xc32/v4.60/bin/bin/../../lib/gcc/pic32c/8.3.1/../../../../pic32c/lib/thumb/v6-m/nofp\libg-musl.a(__ftello_rw.o)
 .xc_stack_usage.hdr
                0x0000000000000000        0xe c:/program files/microchip/xc32/v4.60/bin/bin/../../lib/gcc/pic32c/8.3.1/../../../../pic32c/lib/thumb/v6-m/nofp\libg-musl.a(__ftello_rw.o)
 .debug_info    0x0000000000000000      0x34a c:/program files/microchip/xc32/v4.60/bin/bin/../../lib/gcc/pic32c/8.3.1/../../../../pic32c/lib/thumb/v6-m/nofp\libg-musl.a(__ftello_rw.o)
 .debug_abbrev  0x0000000000000000      0x10b c:/program files/microchip/xc32/v4.60/bin/bin/../../lib/gcc/pic32c/8.3.1/../../../../pic32c/lib/thumb/v6-m/nofp\libg-musl.a(__ftello_rw.o)
 .debug_loc     0x0000000000000000       0x45 c:/program files/microchip/xc32/v4.60/bin/bin/../../lib/gcc/pic32c/8.3.1/../../../../pic32c/lib/thumb/v6-m/nofp\libg-musl.a(__ftello_rw.o)
 .debug_aranges
                0x0000000000000000       0x20 c:/program files/microchip/xc32/v4.60/bin/bin/../../lib/gcc/pic32c/8.3.1/../../../../pic32c/lib/thumb/v6-m/nofp\libg-musl.a(__ftello_rw.o)
 .debug_ranges  0x0000000000000000       0x10 c:/program files/microchip/xc32/v4.60/bin/bin/../../lib/gcc/pic32c/8.3.1/../../../../pic32c/lib/thumb/v6-m/nofp\libg-musl.a(__ftello_rw.o)
 .debug_line    0x0000000000000000      0x1d2 c:/program files/microchip/xc32/v4.60/bin/bin/../../lib/gcc/pic32c/8.3.1/../../../../pic32c/lib/thumb/v6-m/nofp\libg-musl.a(__ftello_rw.o)
 .debug_str     0x0000000000000000      0x33f c:/program files/microchip/xc32/v4.60/bin/bin/../../lib/gcc/pic32c/8.3.1/../../../../pic32c/lib/thumb/v6-m/nofp\libg-musl.a(__ftello_rw.o)
 .comment       0x0000000000000000       0x2c c:/program files/microchip/xc32/v4.60/bin/bin/../../lib/gcc/pic32c/8.3.1/../../../../pic32c/lib/thumb/v6-m/nofp\libg-musl.a(__ftello_rw.o)
 .note.GNU-stack
                0x0000000000000000        0x0 c:/program files/microchip/xc32/v4.60/bin/bin/../../lib/gcc/pic32c/8.3.1/../../../../pic32c/lib/thumb/v6-m/nofp\libg-musl.a(__ftello_rw.o)
 .debug_frame   0x0000000000000000       0x2c c:/program files/microchip/xc32/v4.60/bin/bin/../../lib/gcc/pic32c/8.3.1/../../../../pic32c/lib/thumb/v6-m/nofp\libg-musl.a(__ftello_rw.o)
 .ARM.attributes
                0x0000000000000000       0x2e c:/program files/microchip/xc32/v4.60/bin/bin/../../lib/gcc/pic32c/8.3.1/../../../../pic32c/lib/thumb/v6-m/nofp\libg-musl.a(__ftello_rw.o)
 .text          0x0000000000000000        0x0 c:/program files/microchip/xc32/v4.60/bin/bin/../../lib/gcc/pic32c/8.3.1/../../../../pic32c/lib/thumb/v6-m/nofp\libg-musl.a(__init_stdio.o)
 .data          0x0000000000000000        0x0 c:/program files/microchip/xc32/v4.60/bin/bin/../../lib/gcc/pic32c/8.3.1/../../../../pic32c/lib/thumb/v6-m/nofp\libg-musl.a(__init_stdio.o)
 .bss           0x0000000000000000        0x0 c:/program files/microchip/xc32/v4.60/bin/bin/../../lib/gcc/pic32c/8.3.1/../../../../pic32c/lib/thumb/v6-m/nofp\libg-musl.a(__init_stdio.o)
 .xc_stack_usage
                0x0000000000000000       0x2f c:/program files/microchip/xc32/v4.60/bin/bin/../../lib/gcc/pic32c/8.3.1/../../../../pic32c/lib/thumb/v6-m/nofp\libg-musl.a(__init_stdio.o)
 .xc_stack_usage.hdr
                0x0000000000000000        0xe c:/program files/microchip/xc32/v4.60/bin/bin/../../lib/gcc/pic32c/8.3.1/../../../../pic32c/lib/thumb/v6-m/nofp\libg-musl.a(__init_stdio.o)
 .text          0x0000000000000000        0x0 c:/program files/microchip/xc32/v4.60/bin/bin/../../lib/gcc/pic32c/8.3.1/../../../../pic32c/lib/thumb/v6-m/nofp\libg-musl.a(__io_buf_needed.o)
 .data          0x0000000000000000        0x0 c:/program files/microchip/xc32/v4.60/bin/bin/../../lib/gcc/pic32c/8.3.1/../../../../pic32c/lib/thumb/v6-m/nofp\libg-musl.a(__io_buf_needed.o)
 .bss           0x0000000000000000        0x0 c:/program files/microchip/xc32/v4.60/bin/bin/../../lib/gcc/pic32c/8.3.1/../../../../pic32c/lib/thumb/v6-m/nofp\libg-musl.a(__io_buf_needed.o)
 .xc_stack_usage
                0x0000000000000000       0x1d c:/program files/microchip/xc32/v4.60/bin/bin/../../lib/gcc/pic32c/8.3.1/../../../../pic32c/lib/thumb/v6-m/nofp\libg-musl.a(__io_buf_needed.o)
 .xc_stack_usage.hdr
                0x0000000000000000        0xe c:/program files/microchip/xc32/v4.60/bin/bin/../../lib/gcc/pic32c/8.3.1/../../../../pic32c/lib/thumb/v6-m/nofp\libg-musl.a(__io_buf_needed.o)
 .debug_info    0x0000000000000000      0x142 c:/program files/microchip/xc32/v4.60/bin/bin/../../lib/gcc/pic32c/8.3.1/../../../../pic32c/lib/thumb/v6-m/nofp\libg-musl.a(__io_buf_needed.o)
 .debug_abbrev  0x0000000000000000       0x67 c:/program files/microchip/xc32/v4.60/bin/bin/../../lib/gcc/pic32c/8.3.1/../../../../pic32c/lib/thumb/v6-m/nofp\libg-musl.a(__io_buf_needed.o)
 .debug_loc     0x0000000000000000       0x20 c:/program files/microchip/xc32/v4.60/bin/bin/../../lib/gcc/pic32c/8.3.1/../../../../pic32c/lib/thumb/v6-m/nofp\libg-musl.a(__io_buf_needed.o)
 .debug_aranges
                0x0000000000000000       0x20 c:/program files/microchip/xc32/v4.60/bin/bin/../../lib/gcc/pic32c/8.3.1/../../../../pic32c/lib/thumb/v6-m/nofp\libg-musl.a(__io_buf_needed.o)
 .debug_ranges  0x0000000000000000       0x10 c:/program files/microchip/xc32/v4.60/bin/bin/../../lib/gcc/pic32c/8.3.1/../../../../pic32c/lib/thumb/v6-m/nofp\libg-musl.a(__io_buf_needed.o)
 .debug_line    0x0000000000000000      0x131 c:/program files/microchip/xc32/v4.60/bin/bin/../../lib/gcc/pic32c/8.3.1/../../../../pic32c/lib/thumb/v6-m/nofp\libg-musl.a(__io_buf_needed.o)
 .debug_str     0x0000000000000000      0x30f c:/program files/microchip/xc32/v4.60/bin/bin/../../lib/gcc/pic32c/8.3.1/../../../../pic32c/lib/thumb/v6-m/nofp\libg-musl.a(__io_buf_needed.o)
 .comment       0x0000000000000000       0x2c c:/program files/microchip/xc32/v4.60/bin/bin/../../lib/gcc/pic32c/8.3.1/../../../../pic32c/lib/thumb/v6-m/nofp\libg-musl.a(__io_buf_needed.o)
 .note.GNU-stack
                0x0000000000000000        0x0 c:/program files/microchip/xc32/v4.60/bin/bin/../../lib/gcc/pic32c/8.3.1/../../../../pic32c/lib/thumb/v6-m/nofp\libg-musl.a(__io_buf_needed.o)
 .debug_frame   0x0000000000000000       0x28 c:/program files/microchip/xc32/v4.60/bin/bin/../../lib/gcc/pic32c/8.3.1/../../../../pic32c/lib/thumb/v6-m/nofp\libg-musl.a(__io_buf_needed.o)
 .ARM.attributes
                0x0000000000000000       0x2e c:/program files/microchip/xc32/v4.60/bin/bin/../../lib/gcc/pic32c/8.3.1/../../../../pic32c/lib/thumb/v6-m/nofp\libg-musl.a(__io_buf_needed.o)
 .text          0x0000000000000000        0x0 c:/program files/microchip/xc32/v4.60/bin/bin/../../lib/gcc/pic32c/8.3.1/../../../../pic32c/lib/thumb/v6-m/nofp\libg-musl.a(__io_file_needed.o)
 .data          0x0000000000000000        0x0 c:/program files/microchip/xc32/v4.60/bin/bin/../../lib/gcc/pic32c/8.3.1/../../../../pic32c/lib/thumb/v6-m/nofp\libg-musl.a(__io_file_needed.o)
 .bss           0x0000000000000000        0x0 c:/program files/microchip/xc32/v4.60/bin/bin/../../lib/gcc/pic32c/8.3.1/../../../../pic32c/lib/thumb/v6-m/nofp\libg-musl.a(__io_file_needed.o)
 .xc_stack_usage
                0x0000000000000000       0x1e c:/program files/microchip/xc32/v4.60/bin/bin/../../lib/gcc/pic32c/8.3.1/../../../../pic32c/lib/thumb/v6-m/nofp\libg-musl.a(__io_file_needed.o)
 .xc_stack_usage.hdr
                0x0000000000000000        0xe c:/program files/microchip/xc32/v4.60/bin/bin/../../lib/gcc/pic32c/8.3.1/../../../../pic32c/lib/thumb/v6-m/nofp\libg-musl.a(__io_file_needed.o)
 .debug_info    0x0000000000000000       0xb8 c:/program files/microchip/xc32/v4.60/bin/bin/../../lib/gcc/pic32c/8.3.1/../../../../pic32c/lib/thumb/v6-m/nofp\libg-musl.a(__io_file_needed.o)
 .debug_abbrev  0x0000000000000000       0x67 c:/program files/microchip/xc32/v4.60/bin/bin/../../lib/gcc/pic32c/8.3.1/../../../../pic32c/lib/thumb/v6-m/nofp\libg-musl.a(__io_file_needed.o)
 .debug_loc     0x0000000000000000       0x20 c:/program files/microchip/xc32/v4.60/bin/bin/../../lib/gcc/pic32c/8.3.1/../../../../pic32c/lib/thumb/v6-m/nofp\libg-musl.a(__io_file_needed.o)
 .debug_aranges
                0x0000000000000000       0x20 c:/program files/microchip/xc32/v4.60/bin/bin/../../lib/gcc/pic32c/8.3.1/../../../../pic32c/lib/thumb/v6-m/nofp\libg-musl.a(__io_file_needed.o)
 .debug_ranges  0x0000000000000000       0x10 c:/program files/microchip/xc32/v4.60/bin/bin/../../lib/gcc/pic32c/8.3.1/../../../../pic32c/lib/thumb/v6-m/nofp\libg-musl.a(__io_file_needed.o)
 .debug_line    0x0000000000000000       0xb6 c:/program files/microchip/xc32/v4.60/bin/bin/../../lib/gcc/pic32c/8.3.1/../../../../pic32c/lib/thumb/v6-m/nofp\libg-musl.a(__io_file_needed.o)
 .debug_str     0x0000000000000000      0x2a7 c:/program files/microchip/xc32/v4.60/bin/bin/../../lib/gcc/pic32c/8.3.1/../../../../pic32c/lib/thumb/v6-m/nofp\libg-musl.a(__io_file_needed.o)
 .comment       0x0000000000000000       0x2c c:/program files/microchip/xc32/v4.60/bin/bin/../../lib/gcc/pic32c/8.3.1/../../../../pic32c/lib/thumb/v6-m/nofp\libg-musl.a(__io_file_needed.o)
 .note.GNU-stack
                0x0000000000000000        0x0 c:/program files/microchip/xc32/v4.60/bin/bin/../../lib/gcc/pic32c/8.3.1/../../../../pic32c/lib/thumb/v6-m/nofp\libg-musl.a(__io_file_needed.o)
 .debug_frame   0x0000000000000000       0x28 c:/program files/microchip/xc32/v4.60/bin/bin/../../lib/gcc/pic32c/8.3.1/../../../../pic32c/lib/thumb/v6-m/nofp\libg-musl.a(__io_file_needed.o)
 .ARM.attributes
                0x0000000000000000       0x2e c:/program files/microchip/xc32/v4.60/bin/bin/../../lib/gcc/pic32c/8.3.1/../../../../pic32c/lib/thumb/v6-m/nofp\libg-musl.a(__io_file_needed.o)
 .text          0x0000000000000000        0x0 c:/program files/microchip/xc32/v4.60/bin/bin/../../lib/gcc/pic32c/8.3.1/../../../../pic32c/lib/thumb/v6-m/nofp\libg-musl.a(__io_std_needed.o)
 .data          0x0000000000000000        0x0 c:/program files/microchip/xc32/v4.60/bin/bin/../../lib/gcc/pic32c/8.3.1/../../../../pic32c/lib/thumb/v6-m/nofp\libg-musl.a(__io_std_needed.o)
 .bss           0x0000000000000000        0x0 c:/program files/microchip/xc32/v4.60/bin/bin/../../lib/gcc/pic32c/8.3.1/../../../../pic32c/lib/thumb/v6-m/nofp\libg-musl.a(__io_std_needed.o)
 .xc_stack_usage
                0x0000000000000000       0x1d c:/program files/microchip/xc32/v4.60/bin/bin/../../lib/gcc/pic32c/8.3.1/../../../../pic32c/lib/thumb/v6-m/nofp\libg-musl.a(__io_std_needed.o)
 .xc_stack_usage.hdr
                0x0000000000000000        0xe c:/program files/microchip/xc32/v4.60/bin/bin/../../lib/gcc/pic32c/8.3.1/../../../../pic32c/lib/thumb/v6-m/nofp\libg-musl.a(__io_std_needed.o)
 .debug_info    0x0000000000000000      0x12b c:/program files/microchip/xc32/v4.60/bin/bin/../../lib/gcc/pic32c/8.3.1/../../../../pic32c/lib/thumb/v6-m/nofp\libg-musl.a(__io_std_needed.o)
 .debug_abbrev  0x0000000000000000       0x67 c:/program files/microchip/xc32/v4.60/bin/bin/../../lib/gcc/pic32c/8.3.1/../../../../pic32c/lib/thumb/v6-m/nofp\libg-musl.a(__io_std_needed.o)
 .debug_loc     0x0000000000000000       0x20 c:/program files/microchip/xc32/v4.60/bin/bin/../../lib/gcc/pic32c/8.3.1/../../../../pic32c/lib/thumb/v6-m/nofp\libg-musl.a(__io_std_needed.o)
 .debug_aranges
                0x0000000000000000       0x20 c:/program files/microchip/xc32/v4.60/bin/bin/../../lib/gcc/pic32c/8.3.1/../../../../pic32c/lib/thumb/v6-m/nofp\libg-musl.a(__io_std_needed.o)
 .debug_ranges  0x0000000000000000       0x10 c:/program files/microchip/xc32/v4.60/bin/bin/../../lib/gcc/pic32c/8.3.1/../../../../pic32c/lib/thumb/v6-m/nofp\libg-musl.a(__io_std_needed.o)
 .debug_line    0x0000000000000000      0x130 c:/program files/microchip/xc32/v4.60/bin/bin/../../lib/gcc/pic32c/8.3.1/../../../../pic32c/lib/thumb/v6-m/nofp\libg-musl.a(__io_std_needed.o)
 .debug_str     0x0000000000000000      0x303 c:/program files/microchip/xc32/v4.60/bin/bin/../../lib/gcc/pic32c/8.3.1/../../../../pic32c/lib/thumb/v6-m/nofp\libg-musl.a(__io_std_needed.o)
 .comment       0x0000000000000000       0x2c c:/program files/microchip/xc32/v4.60/bin/bin/../../lib/gcc/pic32c/8.3.1/../../../../pic32c/lib/thumb/v6-m/nofp\libg-musl.a(__io_std_needed.o)
 .note.GNU-stack
                0x0000000000000000        0x0 c:/program files/microchip/xc32/v4.60/bin/bin/../../lib/gcc/pic32c/8.3.1/../../../../pic32c/lib/thumb/v6-m/nofp\libg-musl.a(__io_std_needed.o)
 .debug_frame   0x0000000000000000       0x28 c:/program files/microchip/xc32/v4.60/bin/bin/../../lib/gcc/pic32c/8.3.1/../../../../pic32c/lib/thumb/v6-m/nofp\libg-musl.a(__io_std_needed.o)
 .ARM.attributes
                0x0000000000000000       0x2e c:/program files/microchip/xc32/v4.60/bin/bin/../../lib/gcc/pic32c/8.3.1/../../../../pic32c/lib/thumb/v6-m/nofp\libg-musl.a(__io_std_needed.o)
 .text          0x0000000000000000        0x0 c:/program files/microchip/xc32/v4.60/bin/bin/../../lib/gcc/pic32c/8.3.1/../../../../pic32c/lib/thumb/v6-m/nofp\libg-musl.a(__out.o)
 .data          0x0000000000000000        0x0 c:/program files/microchip/xc32/v4.60/bin/bin/../../lib/gcc/pic32c/8.3.1/../../../../pic32c/lib/thumb/v6-m/nofp\libg-musl.a(__out.o)
 .bss           0x0000000000000000        0x0 c:/program files/microchip/xc32/v4.60/bin/bin/../../lib/gcc/pic32c/8.3.1/../../../../pic32c/lib/thumb/v6-m/nofp\libg-musl.a(__out.o)
 .xc_stack_usage
                0x0000000000000000       0x2d c:/program files/microchip/xc32/v4.60/bin/bin/../../lib/gcc/pic32c/8.3.1/../../../../pic32c/lib/thumb/v6-m/nofp\libg-musl.a(__out.o)
 .xc_stack_usage.hdr
                0x0000000000000000        0xe c:/program files/microchip/xc32/v4.60/bin/bin/../../lib/gcc/pic32c/8.3.1/../../../../pic32c/lib/thumb/v6-m/nofp\libg-musl.a(__out.o)
 .text          0x0000000000000000        0x0 c:/program files/microchip/xc32/v4.60/bin/bin/../../lib/gcc/pic32c/8.3.1/../../../../pic32c/lib/thumb/v6-m/nofp\libg-musl.a(__putc.o)
 .data          0x0000000000000000        0x0 c:/program files/microchip/xc32/v4.60/bin/bin/../../lib/gcc/pic32c/8.3.1/../../../../pic32c/lib/thumb/v6-m/nofp\libg-musl.a(__putc.o)
 .bss           0x0000000000000000        0x0 c:/program files/microchip/xc32/v4.60/bin/bin/../../lib/gcc/pic32c/8.3.1/../../../../pic32c/lib/thumb/v6-m/nofp\libg-musl.a(__putc.o)
 .xc_stack_usage
                0x0000000000000000       0x14 c:/program files/microchip/xc32/v4.60/bin/bin/../../lib/gcc/pic32c/8.3.1/../../../../pic32c/lib/thumb/v6-m/nofp\libg-musl.a(__putc.o)
 .xc_stack_usage.hdr
                0x0000000000000000        0xe c:/program files/microchip/xc32/v4.60/bin/bin/../../lib/gcc/pic32c/8.3.1/../../../../pic32c/lib/thumb/v6-m/nofp\libg-musl.a(__putc.o)
 .text          0x0000000000000000        0x0 c:/program files/microchip/xc32/v4.60/bin/bin/../../lib/gcc/pic32c/8.3.1/../../../../pic32c/lib/thumb/v6-m/nofp\libg-musl.a(__stderr.o)
 .data          0x0000000000000000       0x60 c:/program files/microchip/xc32/v4.60/bin/bin/../../lib/gcc/pic32c/8.3.1/../../../../pic32c/lib/thumb/v6-m/nofp\libg-musl.a(__stderr.o)
 .bss           0x0000000000000000        0x0 c:/program files/microchip/xc32/v4.60/bin/bin/../../lib/gcc/pic32c/8.3.1/../../../../pic32c/lib/thumb/v6-m/nofp\libg-musl.a(__stderr.o)
 .xc_stack_usage
                0x0000000000000000       0x50 c:/program files/microchip/xc32/v4.60/bin/bin/../../lib/gcc/pic32c/8.3.1/../../../../pic32c/lib/thumb/v6-m/nofp\libg-musl.a(__stderr.o)
 .text.__get_stderr
                0x0000000000000000        0x8 c:/program files/microchip/xc32/v4.60/bin/bin/../../lib/gcc/pic32c/8.3.1/../../../../pic32c/lib/thumb/v6-m/nofp\libg-musl.a(__stderr.o)
 .xc_stack_usage.hdr
                0x0000000000000000        0xe c:/program files/microchip/xc32/v4.60/bin/bin/../../lib/gcc/pic32c/8.3.1/../../../../pic32c/lib/thumb/v6-m/nofp\libg-musl.a(__stderr.o)
 .text          0x0000000000000000        0x0 c:/program files/microchip/xc32/v4.60/bin/bin/../../lib/gcc/pic32c/8.3.1/../../../../pic32c/lib/thumb/v6-m/nofp\libg-musl.a(__stdio_close.o)
 .data          0x0000000000000000        0x0 c:/program files/microchip/xc32/v4.60/bin/bin/../../lib/gcc/pic32c/8.3.1/../../../../pic32c/lib/thumb/v6-m/nofp\libg-musl.a(__stdio_close.o)
 .bss           0x0000000000000000        0x0 c:/program files/microchip/xc32/v4.60/bin/bin/../../lib/gcc/pic32c/8.3.1/../../../../pic32c/lib/thumb/v6-m/nofp\libg-musl.a(__stdio_close.o)
 .xc_stack_usage
                0x0000000000000000       0x39 c:/program files/microchip/xc32/v4.60/bin/bin/../../lib/gcc/pic32c/8.3.1/../../../../pic32c/lib/thumb/v6-m/nofp\libg-musl.a(__stdio_close.o)
 .text.__stdio_close
                0x0000000000000000       0x44 c:/program files/microchip/xc32/v4.60/bin/bin/../../lib/gcc/pic32c/8.3.1/../../../../pic32c/lib/thumb/v6-m/nofp\libg-musl.a(__stdio_close.o)
 .xc_stack_usage.hdr
                0x0000000000000000        0xe c:/program files/microchip/xc32/v4.60/bin/bin/../../lib/gcc/pic32c/8.3.1/../../../../pic32c/lib/thumb/v6-m/nofp\libg-musl.a(__stdio_close.o)
 .text          0x0000000000000000        0x0 c:/program files/microchip/xc32/v4.60/bin/bin/../../lib/gcc/pic32c/8.3.1/../../../../pic32c/lib/thumb/v6-m/nofp\libg-musl.a(__stdio_exit.o)
 .data          0x0000000000000000        0x0 c:/program files/microchip/xc32/v4.60/bin/bin/../../lib/gcc/pic32c/8.3.1/../../../../pic32c/lib/thumb/v6-m/nofp\libg-musl.a(__stdio_exit.o)
 .bss           0x0000000000000000        0x4 c:/program files/microchip/xc32/v4.60/bin/bin/../../lib/gcc/pic32c/8.3.1/../../../../pic32c/lib/thumb/v6-m/nofp\libg-musl.a(__stdio_exit.o)
 .xc_stack_usage
                0x0000000000000000       0x45 c:/program files/microchip/xc32/v4.60/bin/bin/../../lib/gcc/pic32c/8.3.1/../../../../pic32c/lib/thumb/v6-m/nofp\libg-musl.a(__stdio_exit.o)
 .text.__dummy  0x0000000000000000        0x2 c:/program files/microchip/xc32/v4.60/bin/bin/../../lib/gcc/pic32c/8.3.1/../../../../pic32c/lib/thumb/v6-m/nofp\libg-musl.a(__stdio_exit.o)
 .text.__dummy1
                0x0000000000000000        0x4 c:/program files/microchip/xc32/v4.60/bin/bin/../../lib/gcc/pic32c/8.3.1/../../../../pic32c/lib/thumb/v6-m/nofp\libg-musl.a(__stdio_exit.o)
 .text.__stdio_exit
                0x0000000000000000       0x34 c:/program files/microchip/xc32/v4.60/bin/bin/../../lib/gcc/pic32c/8.3.1/../../../../pic32c/lib/thumb/v6-m/nofp\libg-musl.a(__stdio_exit.o)
 .xc_stack_usage.hdr
                0x0000000000000000        0xe c:/program files/microchip/xc32/v4.60/bin/bin/../../lib/gcc/pic32c/8.3.1/../../../../pic32c/lib/thumb/v6-m/nofp\libg-musl.a(__stdio_exit.o)
 .debug_info    0x0000000000000000      0x2dd c:/program files/microchip/xc32/v4.60/bin/bin/../../lib/gcc/pic32c/8.3.1/../../../../pic32c/lib/thumb/v6-m/nofp\libg-musl.a(__stdio_exit.o)
 .debug_abbrev  0x0000000000000000      0x173 c:/program files/microchip/xc32/v4.60/bin/bin/../../lib/gcc/pic32c/8.3.1/../../../../pic32c/lib/thumb/v6-m/nofp\libg-musl.a(__stdio_exit.o)
 .debug_loc     0x0000000000000000       0x45 c:/program files/microchip/xc32/v4.60/bin/bin/../../lib/gcc/pic32c/8.3.1/../../../../pic32c/lib/thumb/v6-m/nofp\libg-musl.a(__stdio_exit.o)
 .debug_aranges
                0x0000000000000000       0x30 c:/program files/microchip/xc32/v4.60/bin/bin/../../lib/gcc/pic32c/8.3.1/../../../../pic32c/lib/thumb/v6-m/nofp\libg-musl.a(__stdio_exit.o)
 .debug_ranges  0x0000000000000000       0x20 c:/program files/microchip/xc32/v4.60/bin/bin/../../lib/gcc/pic32c/8.3.1/../../../../pic32c/lib/thumb/v6-m/nofp\libg-musl.a(__stdio_exit.o)
 .debug_line    0x0000000000000000      0x178 c:/program files/microchip/xc32/v4.60/bin/bin/../../lib/gcc/pic32c/8.3.1/../../../../pic32c/lib/thumb/v6-m/nofp\libg-musl.a(__stdio_exit.o)
 .debug_str     0x0000000000000000      0x32c c:/program files/microchip/xc32/v4.60/bin/bin/../../lib/gcc/pic32c/8.3.1/../../../../pic32c/lib/thumb/v6-m/nofp\libg-musl.a(__stdio_exit.o)
 .comment       0x0000000000000000       0x2c c:/program files/microchip/xc32/v4.60/bin/bin/../../lib/gcc/pic32c/8.3.1/../../../../pic32c/lib/thumb/v6-m/nofp\libg-musl.a(__stdio_exit.o)
 .note.GNU-stack
                0x0000000000000000        0x0 c:/program files/microchip/xc32/v4.60/bin/bin/../../lib/gcc/pic32c/8.3.1/../../../../pic32c/lib/thumb/v6-m/nofp\libg-musl.a(__stdio_exit.o)
 .debug_frame   0x0000000000000000       0x48 c:/program files/microchip/xc32/v4.60/bin/bin/../../lib/gcc/pic32c/8.3.1/../../../../pic32c/lib/thumb/v6-m/nofp\libg-musl.a(__stdio_exit.o)
 .ARM.attributes
                0x0000000000000000       0x2e c:/program files/microchip/xc32/v4.60/bin/bin/../../lib/gcc/pic32c/8.3.1/../../../../pic32c/lib/thumb/v6-m/nofp\libg-musl.a(__stdio_exit.o)
 .text          0x0000000000000000        0x0 c:/program files/microchip/xc32/v4.60/bin/bin/../../lib/gcc/pic32c/8.3.1/../../../../pic32c/lib/thumb/v6-m/nofp\libg-musl.a(__stdio_write.o)
 .data          0x0000000000000000        0x0 c:/program files/microchip/xc32/v4.60/bin/bin/../../lib/gcc/pic32c/8.3.1/../../../../pic32c/lib/thumb/v6-m/nofp\libg-musl.a(__stdio_write.o)
 .bss           0x0000000000000000        0x0 c:/program files/microchip/xc32/v4.60/bin/bin/../../lib/gcc/pic32c/8.3.1/../../../../pic32c/lib/thumb/v6-m/nofp\libg-musl.a(__stdio_write.o)
 .xc_stack_usage
                0x0000000000000000       0x42 c:/program files/microchip/xc32/v4.60/bin/bin/../../lib/gcc/pic32c/8.3.1/../../../../pic32c/lib/thumb/v6-m/nofp\libg-musl.a(__stdio_write.o)
 .xc_stack_usage.hdr
                0x0000000000000000        0xe c:/program files/microchip/xc32/v4.60/bin/bin/../../lib/gcc/pic32c/8.3.1/../../../../pic32c/lib/thumb/v6-m/nofp\libg-musl.a(__stdio_write.o)
 .text          0x0000000000000000        0x0 c:/program files/microchip/xc32/v4.60/bin/bin/../../lib/gcc/pic32c/8.3.1/../../../../pic32c/lib/thumb/v6-m/nofp\libg-musl.a(__stdout.o)
 .bss           0x0000000000000000        0x0 c:/program files/microchip/xc32/v4.60/bin/bin/../../lib/gcc/pic32c/8.3.1/../../../../pic32c/lib/thumb/v6-m/nofp\libg-musl.a(__stdout.o)
 .xc_stack_usage
                0x0000000000000000       0x50 c:/program files/microchip/xc32/v4.60/bin/bin/../../lib/gcc/pic32c/8.3.1/../../../../pic32c/lib/thumb/v6-m/nofp\libg-musl.a(__stdout.o)
 .text.__dummy  0x0000000000000000        0x2 c:/program files/microchip/xc32/v4.60/bin/bin/../../lib/gcc/pic32c/8.3.1/../../../../pic32c/lib/thumb/v6-m/nofp\libg-musl.a(__stdout.o)
 .xc_stack_usage.hdr
                0x0000000000000000        0xe c:/program files/microchip/xc32/v4.60/bin/bin/../../lib/gcc/pic32c/8.3.1/../../../../pic32c/lib/thumb/v6-m/nofp\libg-musl.a(__stdout.o)
 .text          0x0000000000000000        0x0 c:/program files/microchip/xc32/v4.60/bin/bin/../../lib/gcc/pic32c/8.3.1/../../../../pic32c/lib/thumb/v6-m/nofp\libg-musl.a(__towrite.o)
 .data          0x0000000000000000        0x0 c:/program files/microchip/xc32/v4.60/bin/bin/../../lib/gcc/pic32c/8.3.1/../../../../pic32c/lib/thumb/v6-m/nofp\libg-musl.a(__towrite.o)
 .bss           0x0000000000000000        0x0 c:/program files/microchip/xc32/v4.60/bin/bin/../../lib/gcc/pic32c/8.3.1/../../../../pic32c/lib/thumb/v6-m/nofp\libg-musl.a(__towrite.o)
 .xc_stack_usage
                0x0000000000000000       0x2c c:/program files/microchip/xc32/v4.60/bin/bin/../../lib/gcc/pic32c/8.3.1/../../../../pic32c/lib/thumb/v6-m/nofp\libg-musl.a(__towrite.o)
 .text.__dummy  0x0000000000000000        0x4 c:/program files/microchip/xc32/v4.60/bin/bin/../../lib/gcc/pic32c/8.3.1/../../../../pic32c/lib/thumb/v6-m/nofp\libg-musl.a(__towrite.o)
 .xc_stack_usage.hdr
                0x0000000000000000        0xe c:/program files/microchip/xc32/v4.60/bin/bin/../../lib/gcc/pic32c/8.3.1/../../../../pic32c/lib/thumb/v6-m/nofp\libg-musl.a(__towrite.o)
 .text          0x0000000000000000        0x0 c:/program files/microchip/xc32/v4.60/bin/bin/../../lib/gcc/pic32c/8.3.1/../../../../pic32c/lib/thumb/v6-m/nofp\libg-musl.a(__month_to_secs.o)
 .data          0x0000000000000000        0x0 c:/program files/microchip/xc32/v4.60/bin/bin/../../lib/gcc/pic32c/8.3.1/../../../../pic32c/lib/thumb/v6-m/nofp\libg-musl.a(__month_to_secs.o)
 .bss           0x0000000000000000        0x0 c:/program files/microchip/xc32/v4.60/bin/bin/../../lib/gcc/pic32c/8.3.1/../../../../pic32c/lib/thumb/v6-m/nofp\libg-musl.a(__month_to_secs.o)
 .xc_stack_usage
                0x0000000000000000       0x1d c:/program files/microchip/xc32/v4.60/bin/bin/../../lib/gcc/pic32c/8.3.1/../../../../pic32c/lib/thumb/v6-m/nofp\libg-musl.a(__month_to_secs.o)
 .xc_stack_usage.hdr
                0x0000000000000000        0xe c:/program files/microchip/xc32/v4.60/bin/bin/../../lib/gcc/pic32c/8.3.1/../../../../pic32c/lib/thumb/v6-m/nofp\libg-musl.a(__month_to_secs.o)
 .text          0x0000000000000000        0x0 c:/program files/microchip/xc32/v4.60/bin/bin/../../lib/gcc/pic32c/8.3.1/../../../../pic32c/lib/thumb/v6-m/nofp\libg-musl.a(writev.o)
 .data          0x0000000000000000        0x0 c:/program files/microchip/xc32/v4.60/bin/bin/../../lib/gcc/pic32c/8.3.1/../../../../pic32c/lib/thumb/v6-m/nofp\libg-musl.a(writev.o)
 .bss           0x0000000000000000        0x0 c:/program files/microchip/xc32/v4.60/bin/bin/../../lib/gcc/pic32c/8.3.1/../../../../pic32c/lib/thumb/v6-m/nofp\libg-musl.a(writev.o)
 .xc_stack_usage
                0x0000000000000000       0x16 c:/program files/microchip/xc32/v4.60/bin/bin/../../lib/gcc/pic32c/8.3.1/../../../../pic32c/lib/thumb/v6-m/nofp\libg-musl.a(writev.o)
 .xc_stack_usage.hdr
                0x0000000000000000        0xe c:/program files/microchip/xc32/v4.60/bin/bin/../../lib/gcc/pic32c/8.3.1/../../../../pic32c/lib/thumb/v6-m/nofp\libg-musl.a(writev.o)
 .text          0x0000000000000000        0x0 c:/program files/microchip/xc32/v4.60/bin/bin/../../lib/gcc/pic32c/8.3.1/../../../../pic32c/lib/thumb/v6-m/nofp\libg-musl.a(__overflow.o)
 .data          0x0000000000000000        0x0 c:/program files/microchip/xc32/v4.60/bin/bin/../../lib/gcc/pic32c/8.3.1/../../../../pic32c/lib/thumb/v6-m/nofp\libg-musl.a(__overflow.o)
 .bss           0x0000000000000000        0x0 c:/program files/microchip/xc32/v4.60/bin/bin/../../lib/gcc/pic32c/8.3.1/../../../../pic32c/lib/thumb/v6-m/nofp\libg-musl.a(__overflow.o)
 .xc_stack_usage
                0x0000000000000000       0x18 c:/program files/microchip/xc32/v4.60/bin/bin/../../lib/gcc/pic32c/8.3.1/../../../../pic32c/lib/thumb/v6-m/nofp\libg-musl.a(__overflow.o)
 .xc_stack_usage.hdr
                0x0000000000000000        0xe c:/program files/microchip/xc32/v4.60/bin/bin/../../lib/gcc/pic32c/8.3.1/../../../../pic32c/lib/thumb/v6-m/nofp\libg-musl.a(__overflow.o)
 .text          0x0000000000000000        0x0 c:/program files/microchip/xc32/v4.60/bin/bin/../../lib/gcc/pic32c/8.3.1/../../../../pic32c/lib/thumb/v6-m/nofp\libg-musl.a(__fclose.o)
 .data          0x0000000000000000        0x0 c:/program files/microchip/xc32/v4.60/bin/bin/../../lib/gcc/pic32c/8.3.1/../../../../pic32c/lib/thumb/v6-m/nofp\libg-musl.a(__fclose.o)
 .bss           0x0000000000000000        0x0 c:/program files/microchip/xc32/v4.60/bin/bin/../../lib/gcc/pic32c/8.3.1/../../../../pic32c/lib/thumb/v6-m/nofp\libg-musl.a(__fclose.o)
 .xc_stack_usage
                0x0000000000000000       0x16 c:/program files/microchip/xc32/v4.60/bin/bin/../../lib/gcc/pic32c/8.3.1/../../../../pic32c/lib/thumb/v6-m/nofp\libg-musl.a(__fclose.o)
 .text.__fclose
                0x0000000000000000       0x12 c:/program files/microchip/xc32/v4.60/bin/bin/../../lib/gcc/pic32c/8.3.1/../../../../pic32c/lib/thumb/v6-m/nofp\libg-musl.a(__fclose.o)
 .xc_stack_usage.hdr
                0x0000000000000000        0xe c:/program files/microchip/xc32/v4.60/bin/bin/../../lib/gcc/pic32c/8.3.1/../../../../pic32c/lib/thumb/v6-m/nofp\libg-musl.a(__fclose.o)
 .debug_info    0x0000000000000000      0x1ba c:/program files/microchip/xc32/v4.60/bin/bin/../../lib/gcc/pic32c/8.3.1/../../../../pic32c/lib/thumb/v6-m/nofp\libg-musl.a(__fclose.o)
 .debug_abbrev  0x0000000000000000       0xdd c:/program files/microchip/xc32/v4.60/bin/bin/../../lib/gcc/pic32c/8.3.1/../../../../pic32c/lib/thumb/v6-m/nofp\libg-musl.a(__fclose.o)
 .debug_loc     0x0000000000000000       0x77 c:/program files/microchip/xc32/v4.60/bin/bin/../../lib/gcc/pic32c/8.3.1/../../../../pic32c/lib/thumb/v6-m/nofp\libg-musl.a(__fclose.o)
 .debug_aranges
                0x0000000000000000       0x20 c:/program files/microchip/xc32/v4.60/bin/bin/../../lib/gcc/pic32c/8.3.1/../../../../pic32c/lib/thumb/v6-m/nofp\libg-musl.a(__fclose.o)
 .debug_ranges  0x0000000000000000       0x10 c:/program files/microchip/xc32/v4.60/bin/bin/../../lib/gcc/pic32c/8.3.1/../../../../pic32c/lib/thumb/v6-m/nofp\libg-musl.a(__fclose.o)
 .debug_line    0x0000000000000000      0x151 c:/program files/microchip/xc32/v4.60/bin/bin/../../lib/gcc/pic32c/8.3.1/../../../../pic32c/lib/thumb/v6-m/nofp\libg-musl.a(__fclose.o)
 .debug_str     0x0000000000000000      0x2c9 c:/program files/microchip/xc32/v4.60/bin/bin/../../lib/gcc/pic32c/8.3.1/../../../../pic32c/lib/thumb/v6-m/nofp\libg-musl.a(__fclose.o)
 .comment       0x0000000000000000       0x2c c:/program files/microchip/xc32/v4.60/bin/bin/../../lib/gcc/pic32c/8.3.1/../../../../pic32c/lib/thumb/v6-m/nofp\libg-musl.a(__fclose.o)
 .note.GNU-stack
                0x0000000000000000        0x0 c:/program files/microchip/xc32/v4.60/bin/bin/../../lib/gcc/pic32c/8.3.1/../../../../pic32c/lib/thumb/v6-m/nofp\libg-musl.a(__fclose.o)
 .debug_frame   0x0000000000000000       0x28 c:/program files/microchip/xc32/v4.60/bin/bin/../../lib/gcc/pic32c/8.3.1/../../../../pic32c/lib/thumb/v6-m/nofp\libg-musl.a(__fclose.o)
 .ARM.attributes
                0x0000000000000000       0x2e c:/program files/microchip/xc32/v4.60/bin/bin/../../lib/gcc/pic32c/8.3.1/../../../../pic32c/lib/thumb/v6-m/nofp\libg-musl.a(__fclose.o)
 .text          0x0000000000000000        0x0 c:/program files/microchip/xc32/v4.60/bin/bin/../../lib/gcc/pic32c/8.3.1/../../../../pic32c/lib/thumb/v6-m/nofp\libg-musl.a(__fopen.o)
 .data          0x0000000000000000        0x0 c:/program files/microchip/xc32/v4.60/bin/bin/../../lib/gcc/pic32c/8.3.1/../../../../pic32c/lib/thumb/v6-m/nofp\libg-musl.a(__fopen.o)
 .bss           0x0000000000000000        0x0 c:/program files/microchip/xc32/v4.60/bin/bin/../../lib/gcc/pic32c/8.3.1/../../../../pic32c/lib/thumb/v6-m/nofp\libg-musl.a(__fopen.o)
 .xc_stack_usage
                0x0000000000000000       0x43 c:/program files/microchip/xc32/v4.60/bin/bin/../../lib/gcc/pic32c/8.3.1/../../../../pic32c/lib/thumb/v6-m/nofp\libg-musl.a(__fopen.o)
 .text.__dummy  0x0000000000000000        0x4 c:/program files/microchip/xc32/v4.60/bin/bin/../../lib/gcc/pic32c/8.3.1/../../../../pic32c/lib/thumb/v6-m/nofp\libg-musl.a(__fopen.o)
 .text.__fopen_std
                0x0000000000000000       0x30 c:/program files/microchip/xc32/v4.60/bin/bin/../../lib/gcc/pic32c/8.3.1/../../../../pic32c/lib/thumb/v6-m/nofp\libg-musl.a(__fopen.o)
 .text.__fopen  0x0000000000000000        0x8 c:/program files/microchip/xc32/v4.60/bin/bin/../../lib/gcc/pic32c/8.3.1/../../../../pic32c/lib/thumb/v6-m/nofp\libg-musl.a(__fopen.o)
 .xc_stack_usage.hdr
                0x0000000000000000        0xe c:/program files/microchip/xc32/v4.60/bin/bin/../../lib/gcc/pic32c/8.3.1/../../../../pic32c/lib/thumb/v6-m/nofp\libg-musl.a(__fopen.o)
 .debug_info    0x0000000000000000      0x2e2 c:/program files/microchip/xc32/v4.60/bin/bin/../../lib/gcc/pic32c/8.3.1/../../../../pic32c/lib/thumb/v6-m/nofp\libg-musl.a(__fopen.o)
 .debug_abbrev  0x0000000000000000      0x17c c:/program files/microchip/xc32/v4.60/bin/bin/../../lib/gcc/pic32c/8.3.1/../../../../pic32c/lib/thumb/v6-m/nofp\libg-musl.a(__fopen.o)
 .debug_loc     0x0000000000000000       0x94 c:/program files/microchip/xc32/v4.60/bin/bin/../../lib/gcc/pic32c/8.3.1/../../../../pic32c/lib/thumb/v6-m/nofp\libg-musl.a(__fopen.o)
 .debug_aranges
                0x0000000000000000       0x30 c:/program files/microchip/xc32/v4.60/bin/bin/../../lib/gcc/pic32c/8.3.1/../../../../pic32c/lib/thumb/v6-m/nofp\libg-musl.a(__fopen.o)
 .debug_ranges  0x0000000000000000       0x20 c:/program files/microchip/xc32/v4.60/bin/bin/../../lib/gcc/pic32c/8.3.1/../../../../pic32c/lib/thumb/v6-m/nofp\libg-musl.a(__fopen.o)
 .debug_line    0x0000000000000000      0x21c c:/program files/microchip/xc32/v4.60/bin/bin/../../lib/gcc/pic32c/8.3.1/../../../../pic32c/lib/thumb/v6-m/nofp\libg-musl.a(__fopen.o)
 .debug_str     0x0000000000000000      0x306 c:/program files/microchip/xc32/v4.60/bin/bin/../../lib/gcc/pic32c/8.3.1/../../../../pic32c/lib/thumb/v6-m/nofp\libg-musl.a(__fopen.o)
 .comment       0x0000000000000000       0x2c c:/program files/microchip/xc32/v4.60/bin/bin/../../lib/gcc/pic32c/8.3.1/../../../../pic32c/lib/thumb/v6-m/nofp\libg-musl.a(__fopen.o)
 .note.GNU-stack
                0x0000000000000000        0x0 c:/program files/microchip/xc32/v4.60/bin/bin/../../lib/gcc/pic32c/8.3.1/../../../../pic32c/lib/thumb/v6-m/nofp\libg-musl.a(__fopen.o)
 .debug_frame   0x0000000000000000       0x50 c:/program files/microchip/xc32/v4.60/bin/bin/../../lib/gcc/pic32c/8.3.1/../../../../pic32c/lib/thumb/v6-m/nofp\libg-musl.a(__fopen.o)
 .ARM.attributes
                0x0000000000000000       0x2e c:/program files/microchip/xc32/v4.60/bin/bin/../../lib/gcc/pic32c/8.3.1/../../../../pic32c/lib/thumb/v6-m/nofp\libg-musl.a(__fopen.o)
 .text          0x0000000000000000        0x0 c:/program files/microchip/xc32/v4.60/bin/bin/../../lib/gcc/pic32c/8.3.1/../../../../pic32c/lib/thumb/v6-m/nofp\libg-musl.a(__fseeko.o)
 .data          0x0000000000000000        0x0 c:/program files/microchip/xc32/v4.60/bin/bin/../../lib/gcc/pic32c/8.3.1/../../../../pic32c/lib/thumb/v6-m/nofp\libg-musl.a(__fseeko.o)
 .bss           0x0000000000000000        0x0 c:/program files/microchip/xc32/v4.60/bin/bin/../../lib/gcc/pic32c/8.3.1/../../../../pic32c/lib/thumb/v6-m/nofp\libg-musl.a(__fseeko.o)
 .xc_stack_usage
                0x0000000000000000       0x16 c:/program files/microchip/xc32/v4.60/bin/bin/../../lib/gcc/pic32c/8.3.1/../../../../pic32c/lib/thumb/v6-m/nofp\libg-musl.a(__fseeko.o)
 .text.__fseeko
                0x0000000000000000        0x8 c:/program files/microchip/xc32/v4.60/bin/bin/../../lib/gcc/pic32c/8.3.1/../../../../pic32c/lib/thumb/v6-m/nofp\libg-musl.a(__fseeko.o)
 .xc_stack_usage.hdr
                0x0000000000000000        0xe c:/program files/microchip/xc32/v4.60/bin/bin/../../lib/gcc/pic32c/8.3.1/../../../../pic32c/lib/thumb/v6-m/nofp\libg-musl.a(__fseeko.o)
 .debug_info    0x0000000000000000      0x26a c:/program files/microchip/xc32/v4.60/bin/bin/../../lib/gcc/pic32c/8.3.1/../../../../pic32c/lib/thumb/v6-m/nofp\libg-musl.a(__fseeko.o)
 .debug_abbrev  0x0000000000000000       0xf8 c:/program files/microchip/xc32/v4.60/bin/bin/../../lib/gcc/pic32c/8.3.1/../../../../pic32c/lib/thumb/v6-m/nofp\libg-musl.a(__fseeko.o)
 .debug_loc     0x0000000000000000       0x8f c:/program files/microchip/xc32/v4.60/bin/bin/../../lib/gcc/pic32c/8.3.1/../../../../pic32c/lib/thumb/v6-m/nofp\libg-musl.a(__fseeko.o)
 .debug_aranges
                0x0000000000000000       0x20 c:/program files/microchip/xc32/v4.60/bin/bin/../../lib/gcc/pic32c/8.3.1/../../../../pic32c/lib/thumb/v6-m/nofp\libg-musl.a(__fseeko.o)
 .debug_ranges  0x0000000000000000       0x10 c:/program files/microchip/xc32/v4.60/bin/bin/../../lib/gcc/pic32c/8.3.1/../../../../pic32c/lib/thumb/v6-m/nofp\libg-musl.a(__fseeko.o)
 .debug_line    0x0000000000000000      0x13f c:/program files/microchip/xc32/v4.60/bin/bin/../../lib/gcc/pic32c/8.3.1/../../../../pic32c/lib/thumb/v6-m/nofp\libg-musl.a(__fseeko.o)
 .debug_str     0x0000000000000000      0x2e6 c:/program files/microchip/xc32/v4.60/bin/bin/../../lib/gcc/pic32c/8.3.1/../../../../pic32c/lib/thumb/v6-m/nofp\libg-musl.a(__fseeko.o)
 .comment       0x0000000000000000       0x2c c:/program files/microchip/xc32/v4.60/bin/bin/../../lib/gcc/pic32c/8.3.1/../../../../pic32c/lib/thumb/v6-m/nofp\libg-musl.a(__fseeko.o)
 .note.GNU-stack
                0x0000000000000000        0x0 c:/program files/microchip/xc32/v4.60/bin/bin/../../lib/gcc/pic32c/8.3.1/../../../../pic32c/lib/thumb/v6-m/nofp\libg-musl.a(__fseeko.o)
 .debug_frame   0x0000000000000000       0x28 c:/program files/microchip/xc32/v4.60/bin/bin/../../lib/gcc/pic32c/8.3.1/../../../../pic32c/lib/thumb/v6-m/nofp\libg-musl.a(__fseeko.o)
 .ARM.attributes
                0x0000000000000000       0x2e c:/program files/microchip/xc32/v4.60/bin/bin/../../lib/gcc/pic32c/8.3.1/../../../../pic32c/lib/thumb/v6-m/nofp\libg-musl.a(__fseeko.o)
 .text          0x0000000000000000        0x0 c:/program files/microchip/xc32/v4.60/bin/bin/../../lib/gcc/pic32c/8.3.1/../../../../pic32c/lib/thumb/v6-m/nofp\libg-musl.a(__ftello.o)
 .data          0x0000000000000000        0x0 c:/program files/microchip/xc32/v4.60/bin/bin/../../lib/gcc/pic32c/8.3.1/../../../../pic32c/lib/thumb/v6-m/nofp\libg-musl.a(__ftello.o)
 .bss           0x0000000000000000        0x0 c:/program files/microchip/xc32/v4.60/bin/bin/../../lib/gcc/pic32c/8.3.1/../../../../pic32c/lib/thumb/v6-m/nofp\libg-musl.a(__ftello.o)
 .xc_stack_usage
                0x0000000000000000       0x2f c:/program files/microchip/xc32/v4.60/bin/bin/../../lib/gcc/pic32c/8.3.1/../../../../pic32c/lib/thumb/v6-m/nofp\libg-musl.a(__ftello.o)
 .text.__dummy  0x0000000000000000       0x1a c:/program files/microchip/xc32/v4.60/bin/bin/../../lib/gcc/pic32c/8.3.1/../../../../pic32c/lib/thumb/v6-m/nofp\libg-musl.a(__ftello.o)
 .text.__ftello_adj
                0x0000000000000000        0x8 c:/program files/microchip/xc32/v4.60/bin/bin/../../lib/gcc/pic32c/8.3.1/../../../../pic32c/lib/thumb/v6-m/nofp\libg-musl.a(__ftello.o)
 .xc_stack_usage.hdr
                0x0000000000000000        0xe c:/program files/microchip/xc32/v4.60/bin/bin/../../lib/gcc/pic32c/8.3.1/../../../../pic32c/lib/thumb/v6-m/nofp\libg-musl.a(__ftello.o)
 .debug_info    0x0000000000000000      0x29a c:/program files/microchip/xc32/v4.60/bin/bin/../../lib/gcc/pic32c/8.3.1/../../../../pic32c/lib/thumb/v6-m/nofp\libg-musl.a(__ftello.o)
 .debug_abbrev  0x0000000000000000      0x100 c:/program files/microchip/xc32/v4.60/bin/bin/../../lib/gcc/pic32c/8.3.1/../../../../pic32c/lib/thumb/v6-m/nofp\libg-musl.a(__ftello.o)
 .debug_loc     0x0000000000000000       0xd4 c:/program files/microchip/xc32/v4.60/bin/bin/../../lib/gcc/pic32c/8.3.1/../../../../pic32c/lib/thumb/v6-m/nofp\libg-musl.a(__ftello.o)
 .debug_aranges
                0x0000000000000000       0x28 c:/program files/microchip/xc32/v4.60/bin/bin/../../lib/gcc/pic32c/8.3.1/../../../../pic32c/lib/thumb/v6-m/nofp\libg-musl.a(__ftello.o)
 .debug_ranges  0x0000000000000000       0x18 c:/program files/microchip/xc32/v4.60/bin/bin/../../lib/gcc/pic32c/8.3.1/../../../../pic32c/lib/thumb/v6-m/nofp\libg-musl.a(__ftello.o)
 .debug_line    0x0000000000000000      0x175 c:/program files/microchip/xc32/v4.60/bin/bin/../../lib/gcc/pic32c/8.3.1/../../../../pic32c/lib/thumb/v6-m/nofp\libg-musl.a(__ftello.o)
 .debug_str     0x0000000000000000      0x2eb c:/program files/microchip/xc32/v4.60/bin/bin/../../lib/gcc/pic32c/8.3.1/../../../../pic32c/lib/thumb/v6-m/nofp\libg-musl.a(__ftello.o)
 .comment       0x0000000000000000       0x2c c:/program files/microchip/xc32/v4.60/bin/bin/../../lib/gcc/pic32c/8.3.1/../../../../pic32c/lib/thumb/v6-m/nofp\libg-musl.a(__ftello.o)
 .note.GNU-stack
                0x0000000000000000        0x0 c:/program files/microchip/xc32/v4.60/bin/bin/../../lib/gcc/pic32c/8.3.1/../../../../pic32c/lib/thumb/v6-m/nofp\libg-musl.a(__ftello.o)
 .debug_frame   0x0000000000000000       0x40 c:/program files/microchip/xc32/v4.60/bin/bin/../../lib/gcc/pic32c/8.3.1/../../../../pic32c/lib/thumb/v6-m/nofp\libg-musl.a(__ftello.o)
 .ARM.attributes
                0x0000000000000000       0x2e c:/program files/microchip/xc32/v4.60/bin/bin/../../lib/gcc/pic32c/8.3.1/../../../../pic32c/lib/thumb/v6-m/nofp\libg-musl.a(__ftello.o)
 .text          0x0000000000000000        0x0 c:/program files/microchip/xc32/v4.60/bin/bin/../../lib/gcc/pic32c/8.3.1/../../../../pic32c/lib/thumb/v6-m/nofp\libg-musl.a(__fwrite.o)
 .data          0x0000000000000000        0x0 c:/program files/microchip/xc32/v4.60/bin/bin/../../lib/gcc/pic32c/8.3.1/../../../../pic32c/lib/thumb/v6-m/nofp\libg-musl.a(__fwrite.o)
 .bss           0x0000000000000000        0x0 c:/program files/microchip/xc32/v4.60/bin/bin/../../lib/gcc/pic32c/8.3.1/../../../../pic32c/lib/thumb/v6-m/nofp\libg-musl.a(__fwrite.o)
 .xc_stack_usage
                0x0000000000000000       0x36 c:/program files/microchip/xc32/v4.60/bin/bin/../../lib/gcc/pic32c/8.3.1/../../../../pic32c/lib/thumb/v6-m/nofp\libg-musl.a(__fwrite.o)
 .xc_stack_usage.hdr
                0x0000000000000000        0xe c:/program files/microchip/xc32/v4.60/bin/bin/../../lib/gcc/pic32c/8.3.1/../../../../pic32c/lib/thumb/v6-m/nofp\libg-musl.a(__fwrite.o)
 .xc_stack_usage.hdr
                0x0000000000000000        0xe c:/program files/microchip/xc32/v4.60/bin/bin/../../lib/gcc/pic32c/8.3.1/../../../../pic32c/lib/thumb/v6-m/nofp\libm-fast-emfloat.a(fma.o)
 .xc_stack_usage
                0x0000000000000000       0x11 c:/program files/microchip/xc32/v4.60/bin/bin/../../lib/gcc/pic32c/8.3.1/../../../../pic32c/lib/thumb/v6-m/nofp\libm-fast-emfloat.a(fma.o)
 .xc_stack_usage.hdr
                0x0000000000000000        0xe c:/program files/microchip/xc32/v4.60/bin/bin/../../lib/gcc/pic32c/8.3.1/../../../../pic32c/lib/thumb/v6-m/nofp\libm-fast-emfloat.a(floor.o)
 .xc_stack_usage
                0x0000000000000000       0x13 c:/program files/microchip/xc32/v4.60/bin/bin/../../lib/gcc/pic32c/8.3.1/../../../../pic32c/lib/thumb/v6-m/nofp\libm-fast-emfloat.a(floor.o)
 .xc_stack_usage.hdr
                0x0000000000000000        0xe c:/program files/microchip/xc32/v4.60/bin/bin/../../lib/gcc/pic32c/8.3.1/../../../../pic32c/lib/thumb/v6-m/nofp\libm-fast-emfloat.a(__aeabi_dcmple.o)
 .xc_stack_usage
                0x0000000000000000       0x1c c:/program files/microchip/xc32/v4.60/bin/bin/../../lib/gcc/pic32c/8.3.1/../../../../pic32c/lib/thumb/v6-m/nofp\libm-fast-emfloat.a(__aeabi_dcmple.o)
 .data          0x0000000000000000        0x0 c:/program files/microchip/xc32/v4.60/bin/bin/../../lib/gcc/pic32c/8.3.1/thumb/v6-m/nofp\libgcc.a(_udivsi3.o)
 .bss           0x0000000000000000        0x0 c:/program files/microchip/xc32/v4.60/bin/bin/../../lib/gcc/pic32c/8.3.1/thumb/v6-m/nofp\libgcc.a(_udivsi3.o)
 .xc_stack_usage.hdr
                0x0000000000000000        0xe c:/program files/microchip/xc32/v4.60/bin/bin/../../lib/gcc/pic32c/8.3.1/thumb/v6-m/nofp\libgcc.a(_udivsi3.o)
 .xc_stack_usage
                0x0000000000000000       0x35 c:/program files/microchip/xc32/v4.60/bin/bin/../../lib/gcc/pic32c/8.3.1/thumb/v6-m/nofp\libgcc.a(_udivsi3.o)
 .data          0x0000000000000000        0x0 c:/program files/microchip/xc32/v4.60/bin/bin/../../lib/gcc/pic32c/8.3.1/thumb/v6-m/nofp\libgcc.a(_divsi3.o)
 .bss           0x0000000000000000        0x0 c:/program files/microchip/xc32/v4.60/bin/bin/../../lib/gcc/pic32c/8.3.1/thumb/v6-m/nofp\libgcc.a(_divsi3.o)
 .xc_stack_usage.hdr
                0x0000000000000000        0xe c:/program files/microchip/xc32/v4.60/bin/bin/../../lib/gcc/pic32c/8.3.1/thumb/v6-m/nofp\libgcc.a(_divsi3.o)
 .xc_stack_usage
                0x0000000000000000       0x33 c:/program files/microchip/xc32/v4.60/bin/bin/../../lib/gcc/pic32c/8.3.1/thumb/v6-m/nofp\libgcc.a(_divsi3.o)
 .data          0x0000000000000000        0x0 c:/program files/microchip/xc32/v4.60/bin/bin/../../lib/gcc/pic32c/8.3.1/thumb/v6-m/nofp\libgcc.a(_dvmd_tls.o)
 .bss           0x0000000000000000        0x0 c:/program files/microchip/xc32/v4.60/bin/bin/../../lib/gcc/pic32c/8.3.1/thumb/v6-m/nofp\libgcc.a(_dvmd_tls.o)
 .xc_stack_usage.hdr
                0x0000000000000000        0xe c:/program files/microchip/xc32/v4.60/bin/bin/../../lib/gcc/pic32c/8.3.1/thumb/v6-m/nofp\libgcc.a(_dvmd_tls.o)
 .xc_stack_usage
                0x0000000000000000       0x36 c:/program files/microchip/xc32/v4.60/bin/bin/../../lib/gcc/pic32c/8.3.1/thumb/v6-m/nofp\libgcc.a(_dvmd_tls.o)
 .data          0x0000000000000000        0x0 c:/program files/microchip/xc32/v4.60/bin/bin/../../lib/gcc/pic32c/8.3.1/thumb/v6-m/nofp\libgcc.a(_aeabi_ldivmod.o)
 .bss           0x0000000000000000        0x0 c:/program files/microchip/xc32/v4.60/bin/bin/../../lib/gcc/pic32c/8.3.1/thumb/v6-m/nofp\libgcc.a(_aeabi_ldivmod.o)
 .xc_stack_usage.hdr
                0x0000000000000000        0xe c:/program files/microchip/xc32/v4.60/bin/bin/../../lib/gcc/pic32c/8.3.1/thumb/v6-m/nofp\libgcc.a(_aeabi_ldivmod.o)
 .xc_stack_usage
                0x0000000000000000       0x1d c:/program files/microchip/xc32/v4.60/bin/bin/../../lib/gcc/pic32c/8.3.1/thumb/v6-m/nofp\libgcc.a(_aeabi_ldivmod.o)
 .data          0x0000000000000000        0x0 c:/program files/microchip/xc32/v4.60/bin/bin/../../lib/gcc/pic32c/8.3.1/thumb/v6-m/nofp\libgcc.a(_aeabi_uldivmod.o)
 .bss           0x0000000000000000        0x0 c:/program files/microchip/xc32/v4.60/bin/bin/../../lib/gcc/pic32c/8.3.1/thumb/v6-m/nofp\libgcc.a(_aeabi_uldivmod.o)
 .xc_stack_usage.hdr
                0x0000000000000000        0xe c:/program files/microchip/xc32/v4.60/bin/bin/../../lib/gcc/pic32c/8.3.1/thumb/v6-m/nofp\libgcc.a(_aeabi_uldivmod.o)
 .xc_stack_usage
                0x0000000000000000       0x1e c:/program files/microchip/xc32/v4.60/bin/bin/../../lib/gcc/pic32c/8.3.1/thumb/v6-m/nofp\libgcc.a(_aeabi_uldivmod.o)
 .data          0x0000000000000000        0x0 c:/program files/microchip/xc32/v4.60/bin/bin/../../lib/gcc/pic32c/8.3.1/thumb/v6-m/nofp\libgcc.a(_muldi3.o)
 .bss           0x0000000000000000        0x0 c:/program files/microchip/xc32/v4.60/bin/bin/../../lib/gcc/pic32c/8.3.1/thumb/v6-m/nofp\libgcc.a(_muldi3.o)
 .xc_stack_usage
                0x0000000000000000       0x16 c:/program files/microchip/xc32/v4.60/bin/bin/../../lib/gcc/pic32c/8.3.1/thumb/v6-m/nofp\libgcc.a(_muldi3.o)
 .xc_stack_usage.hdr
                0x0000000000000000        0xe c:/program files/microchip/xc32/v4.60/bin/bin/../../lib/gcc/pic32c/8.3.1/thumb/v6-m/nofp\libgcc.a(_muldi3.o)
 .data          0x0000000000000000        0x0 c:/program files/microchip/xc32/v4.60/bin/bin/../../lib/gcc/pic32c/8.3.1/thumb/v6-m/nofp\libgcc.a(_udivmoddi4.o)
 .bss           0x0000000000000000        0x0 c:/program files/microchip/xc32/v4.60/bin/bin/../../lib/gcc/pic32c/8.3.1/thumb/v6-m/nofp\libgcc.a(_udivmoddi4.o)
 .xc_stack_usage
                0x0000000000000000       0x1a c:/program files/microchip/xc32/v4.60/bin/bin/../../lib/gcc/pic32c/8.3.1/thumb/v6-m/nofp\libgcc.a(_udivmoddi4.o)
 .ARM.extab     0x0000000000000000        0x0 c:/program files/microchip/xc32/v4.60/bin/bin/../../lib/gcc/pic32c/8.3.1/thumb/v6-m/nofp\libgcc.a(_udivmoddi4.o)
 .xc_stack_usage.hdr
                0x0000000000000000        0xe c:/program files/microchip/xc32/v4.60/bin/bin/../../lib/gcc/pic32c/8.3.1/thumb/v6-m/nofp\libgcc.a(_udivmoddi4.o)
 .data          0x0000000000000000        0x0 c:/program files/microchip/xc32/v4.60/bin/bin/../../lib/gcc/pic32c/8.3.1/thumb/v6-m/nofp\libgcc.a(bpabi.o)
 .bss           0x0000000000000000        0x0 c:/program files/microchip/xc32/v4.60/bin/bin/../../lib/gcc/pic32c/8.3.1/thumb/v6-m/nofp\libgcc.a(bpabi.o)
 .xc_stack_usage
                0x0000000000000000       0x22 c:/program files/microchip/xc32/v4.60/bin/bin/../../lib/gcc/pic32c/8.3.1/thumb/v6-m/nofp\libgcc.a(bpabi.o)
 .xc_stack_usage.hdr
                0x0000000000000000        0xe c:/program files/microchip/xc32/v4.60/bin/bin/../../lib/gcc/pic32c/8.3.1/thumb/v6-m/nofp\libgcc.a(bpabi.o)
 .data          0x0000000000000000        0x0 c:/program files/microchip/xc32/v4.60/bin/bin/../../lib/gcc/pic32c/8.3.1/thumb/v6-m/nofp\libgcc.a(_lshrdi3.o)
 .bss           0x0000000000000000        0x0 c:/program files/microchip/xc32/v4.60/bin/bin/../../lib/gcc/pic32c/8.3.1/thumb/v6-m/nofp\libgcc.a(_lshrdi3.o)
 .xc_stack_usage.hdr
                0x0000000000000000        0xe c:/program files/microchip/xc32/v4.60/bin/bin/../../lib/gcc/pic32c/8.3.1/thumb/v6-m/nofp\libgcc.a(_lshrdi3.o)
 .xc_stack_usage
                0x0000000000000000       0x17 c:/program files/microchip/xc32/v4.60/bin/bin/../../lib/gcc/pic32c/8.3.1/thumb/v6-m/nofp\libgcc.a(_lshrdi3.o)
 .data          0x0000000000000000        0x0 c:/program files/microchip/xc32/v4.60/bin/bin/../../lib/gcc/pic32c/8.3.1/thumb/v6-m/nofp\libgcc.a(_ashldi3.o)
 .bss           0x0000000000000000        0x0 c:/program files/microchip/xc32/v4.60/bin/bin/../../lib/gcc/pic32c/8.3.1/thumb/v6-m/nofp\libgcc.a(_ashldi3.o)
 .xc_stack_usage.hdr
                0x0000000000000000        0xe c:/program files/microchip/xc32/v4.60/bin/bin/../../lib/gcc/pic32c/8.3.1/thumb/v6-m/nofp\libgcc.a(_ashldi3.o)
 .xc_stack_usage
                0x0000000000000000       0x17 c:/program files/microchip/xc32/v4.60/bin/bin/../../lib/gcc/pic32c/8.3.1/thumb/v6-m/nofp\libgcc.a(_ashldi3.o)
 .data          0x0000000000000000        0x0 c:/program files/microchip/xc32/v4.60/bin/bin/../../lib/gcc/pic32c/8.3.1/thumb/v6-m/nofp\libgcc.a(_clzdi2.o)
 .bss           0x0000000000000000        0x0 c:/program files/microchip/xc32/v4.60/bin/bin/../../lib/gcc/pic32c/8.3.1/thumb/v6-m/nofp\libgcc.a(_clzdi2.o)
 .xc_stack_usage.hdr
                0x0000000000000000        0xe c:/program files/microchip/xc32/v4.60/bin/bin/../../lib/gcc/pic32c/8.3.1/thumb/v6-m/nofp\libgcc.a(_clzdi2.o)
 .xc_stack_usage
                0x0000000000000000       0x16 c:/program files/microchip/xc32/v4.60/bin/bin/../../lib/gcc/pic32c/8.3.1/thumb/v6-m/nofp\libgcc.a(_clzdi2.o)
 .data          0x0000000000000000        0x0 c:/program files/microchip/xc32/v4.60/bin/bin/../../lib/gcc/pic32c/8.3.1/thumb/v6-m/nofp\libgcc.a(_divdi3.o)
 .bss           0x0000000000000000        0x0 c:/program files/microchip/xc32/v4.60/bin/bin/../../lib/gcc/pic32c/8.3.1/thumb/v6-m/nofp\libgcc.a(_divdi3.o)
 .xc_stack_usage
                0x0000000000000000       0x16 c:/program files/microchip/xc32/v4.60/bin/bin/../../lib/gcc/pic32c/8.3.1/thumb/v6-m/nofp\libgcc.a(_divdi3.o)
 .ARM.extab     0x0000000000000000        0x0 c:/program files/microchip/xc32/v4.60/bin/bin/../../lib/gcc/pic32c/8.3.1/thumb/v6-m/nofp\libgcc.a(_divdi3.o)
 .xc_stack_usage.hdr
                0x0000000000000000        0xe c:/program files/microchip/xc32/v4.60/bin/bin/../../lib/gcc/pic32c/8.3.1/thumb/v6-m/nofp\libgcc.a(_divdi3.o)
 .data          0x0000000000000000        0x0 c:/program files/microchip/xc32/v4.60/bin/bin/../../lib/gcc/pic32c/8.3.1/thumb/v6-m/nofp\libgcc.a(_clzsi2.o)
 .bss           0x0000000000000000        0x0 c:/program files/microchip/xc32/v4.60/bin/bin/../../lib/gcc/pic32c/8.3.1/thumb/v6-m/nofp\libgcc.a(_clzsi2.o)
 .xc_stack_usage.hdr
                0x0000000000000000        0xe c:/program files/microchip/xc32/v4.60/bin/bin/../../lib/gcc/pic32c/8.3.1/thumb/v6-m/nofp\libgcc.a(_clzsi2.o)
 .xc_stack_usage
                0x0000000000000000       0x16 c:/program files/microchip/xc32/v4.60/bin/bin/../../lib/gcc/pic32c/8.3.1/thumb/v6-m/nofp\libgcc.a(_clzsi2.o)
 .text          0x0000000000000000        0x0 c:/program files/microchip/xc32/v4.60/bin/bin/../../lib/gcc/pic32c/8.3.1/../../../../pic32c/lib/thumb/v6-m/nofp\libpic32c.a(close.o)
 .data          0x0000000000000000        0x0 c:/program files/microchip/xc32/v4.60/bin/bin/../../lib/gcc/pic32c/8.3.1/../../../../pic32c/lib/thumb/v6-m/nofp\libpic32c.a(close.o)
 .bss           0x0000000000000000        0x0 c:/program files/microchip/xc32/v4.60/bin/bin/../../lib/gcc/pic32c/8.3.1/../../../../pic32c/lib/thumb/v6-m/nofp\libpic32c.a(close.o)
 .xc_stack_usage
                0x0000000000000000       0x13 c:/program files/microchip/xc32/v4.60/bin/bin/../../lib/gcc/pic32c/8.3.1/../../../../pic32c/lib/thumb/v6-m/nofp\libpic32c.a(close.o)
 .gnu.warning.closestub
                0x0000000000000000        0x0 c:/program files/microchip/xc32/v4.60/bin/bin/../../lib/gcc/pic32c/8.3.1/../../../../pic32c/lib/thumb/v6-m/nofp\libpic32c.a(close.o)
 .xc_stack_usage.hdr
                0x0000000000000000        0xe c:/program files/microchip/xc32/v4.60/bin/bin/../../lib/gcc/pic32c/8.3.1/../../../../pic32c/lib/thumb/v6-m/nofp\libpic32c.a(close.o)
 .text          0x0000000000000000        0x0 c:/program files/microchip/xc32/v4.60/bin/bin/../../lib/gcc/pic32c/8.3.1/../../../../pic32c/lib/thumb/v6-m/nofp\libpic32c.a(lseek.o)
 .data          0x0000000000000000        0x0 c:/program files/microchip/xc32/v4.60/bin/bin/../../lib/gcc/pic32c/8.3.1/../../../../pic32c/lib/thumb/v6-m/nofp\libpic32c.a(lseek.o)
 .bss           0x0000000000000000        0x0 c:/program files/microchip/xc32/v4.60/bin/bin/../../lib/gcc/pic32c/8.3.1/../../../../pic32c/lib/thumb/v6-m/nofp\libpic32c.a(lseek.o)
 .xc_stack_usage
                0x0000000000000000       0x13 c:/program files/microchip/xc32/v4.60/bin/bin/../../lib/gcc/pic32c/8.3.1/../../../../pic32c/lib/thumb/v6-m/nofp\libpic32c.a(lseek.o)
 .xc_stack_usage.hdr
                0x0000000000000000        0xe c:/program files/microchip/xc32/v4.60/bin/bin/../../lib/gcc/pic32c/8.3.1/../../../../pic32c/lib/thumb/v6-m/nofp\libpic32c.a(lseek.o)
 .text          0x0000000000000000        0x0 c:/program files/microchip/xc32/v4.60/bin/bin/../../lib/gcc/pic32c/8.3.1/../../../../pic32c/lib/thumb/v6-m/nofp\libpic32c.a(sbrk.o)
 .data          0x0000000000000000        0x0 c:/program files/microchip/xc32/v4.60/bin/bin/../../lib/gcc/pic32c/8.3.1/../../../../pic32c/lib/thumb/v6-m/nofp\libpic32c.a(sbrk.o)
 .xc_stack_usage
                0x0000000000000000       0x4d c:/program files/microchip/xc32/v4.60/bin/bin/../../lib/gcc/pic32c/8.3.1/../../../../pic32c/lib/thumb/v6-m/nofp\libpic32c.a(sbrk.o)
 .xc_stack_usage.hdr
                0x0000000000000000        0xe c:/program files/microchip/xc32/v4.60/bin/bin/../../lib/gcc/pic32c/8.3.1/../../../../pic32c/lib/thumb/v6-m/nofp\libpic32c.a(sbrk.o)
 .text          0x0000000000000000        0x0 c:/program files/microchip/xc32/v4.60/bin/bin/../../lib/gcc/pic32c/8.3.1/../../../../pic32c/lib/thumb/v6-m/nofp\libc-size-musl.a(strcpy.o)
 .data          0x0000000000000000        0x0 c:/program files/microchip/xc32/v4.60/bin/bin/../../lib/gcc/pic32c/8.3.1/../../../../pic32c/lib/thumb/v6-m/nofp\libc-size-musl.a(strcpy.o)
 .bss           0x0000000000000000        0x0 c:/program files/microchip/xc32/v4.60/bin/bin/../../lib/gcc/pic32c/8.3.1/../../../../pic32c/lib/thumb/v6-m/nofp\libc-size-musl.a(strcpy.o)
 .xc_stack_usage
                0x0000000000000000       0x14 c:/program files/microchip/xc32/v4.60/bin/bin/../../lib/gcc/pic32c/8.3.1/../../../../pic32c/lib/thumb/v6-m/nofp\libc-size-musl.a(strcpy.o)
 .xc_stack_usage.hdr
                0x0000000000000000        0xe c:/program files/microchip/xc32/v4.60/bin/bin/../../lib/gcc/pic32c/8.3.1/../../../../pic32c/lib/thumb/v6-m/nofp\libc-size-musl.a(strcpy.o)
 .text          0x0000000000000000        0x0 c:/program files/microchip/xc32/v4.60/bin/bin/../../lib/gcc/pic32c/8.3.1/../../../../pic32c/lib/thumb/v6-m/nofp\libc-size-musl.a(stpcpy.o)
 .data          0x0000000000000000        0x0 c:/program files/microchip/xc32/v4.60/bin/bin/../../lib/gcc/pic32c/8.3.1/../../../../pic32c/lib/thumb/v6-m/nofp\libc-size-musl.a(stpcpy.o)
 .bss           0x0000000000000000        0x0 c:/program files/microchip/xc32/v4.60/bin/bin/../../lib/gcc/pic32c/8.3.1/../../../../pic32c/lib/thumb/v6-m/nofp\libc-size-musl.a(stpcpy.o)
 .xc_stack_usage
                0x0000000000000000       0x14 c:/program files/microchip/xc32/v4.60/bin/bin/../../lib/gcc/pic32c/8.3.1/../../../../pic32c/lib/thumb/v6-m/nofp\libc-size-musl.a(stpcpy.o)
 .xc_stack_usage.hdr
                0x0000000000000000        0xe c:/program files/microchip/xc32/v4.60/bin/bin/../../lib/gcc/pic32c/8.3.1/../../../../pic32c/lib/thumb/v6-m/nofp\libc-size-musl.a(stpcpy.o)
 .text          0x0000000000000000        0x0 c:/program files/microchip/xc32/v4.60/bin/bin/../../lib/gcc/pic32c/8.3.1/thumb/v6-m/nofp/crtend.o
 .data          0x0000000000000000        0x0 c:/program files/microchip/xc32/v4.60/bin/bin/../../lib/gcc/pic32c/8.3.1/thumb/v6-m/nofp/crtend.o
 .bss           0x0000000000000000        0x0 c:/program files/microchip/xc32/v4.60/bin/bin/../../lib/gcc/pic32c/8.3.1/thumb/v6-m/nofp/crtend.o
 .eh_frame      0x0000000000000000        0x4 c:/program files/microchip/xc32/v4.60/bin/bin/../../lib/gcc/pic32c/8.3.1/thumb/v6-m/nofp/crtend.o
 .xc_stack_usage.hdr
                0x0000000000000000        0xe c:/program files/microchip/xc32/v4.60/bin/bin/../../lib/gcc/pic32c/8.3.1/thumb/v6-m/nofp/crtend.o
 .comment       0x0000000000000000       0x2c c:/program files/microchip/xc32/v4.60/bin/bin/../../lib/gcc/pic32c/8.3.1/thumb/v6-m/nofp/crtend.o
 .ARM.attributes
                0x0000000000000000       0x2c c:/program files/microchip/xc32/v4.60/bin/bin/../../lib/gcc/pic32c/8.3.1/thumb/v6-m/nofp/crtend.o
 .text          0x0000000000000000        0x0 c:/program files/microchip/xc32/v4.60/bin/bin/../../lib/gcc/pic32c/8.3.1/thumb/v6-m/nofp/crtn.o
 .data          0x0000000000000000        0x0 c:/program files/microchip/xc32/v4.60/bin/bin/../../lib/gcc/pic32c/8.3.1/thumb/v6-m/nofp/crtn.o
 .bss           0x0000000000000000        0x0 c:/program files/microchip/xc32/v4.60/bin/bin/../../lib/gcc/pic32c/8.3.1/thumb/v6-m/nofp/crtn.o
 .xc_stack_usage.hdr
                0x0000000000000000        0xe c:/program files/microchip/xc32/v4.60/bin/bin/../../lib/gcc/pic32c/8.3.1/thumb/v6-m/nofp/crtn.o
 .text          0x0000000000000000        0x0 c:/program files/microchip/xc32/v4.60/bin/bin/../../lib/gcc/pic32c/8.3.1/../../../../pic32c/lib/thumb/v6-m/nofp\libpic32c.a(pic32_data_init_clear.o)
 .data          0x0000000000000000        0x0 c:/program files/microchip/xc32/v4.60/bin/bin/../../lib/gcc/pic32c/8.3.1/../../../../pic32c/lib/thumb/v6-m/nofp\libpic32c.a(pic32_data_init_clear.o)
 .bss           0x0000000000000000        0x0 c:/program files/microchip/xc32/v4.60/bin/bin/../../lib/gcc/pic32c/8.3.1/../../../../pic32c/lib/thumb/v6-m/nofp\libpic32c.a(pic32_data_init_clear.o)
 .xc_stack_usage
                0x0000000000000000       0x1b c:/program files/microchip/xc32/v4.60/bin/bin/../../lib/gcc/pic32c/8.3.1/../../../../pic32c/lib/thumb/v6-m/nofp\libpic32c.a(pic32_data_init_clear.o)
 .xc_stack_usage.hdr
                0x0000000000000000        0xe c:/program files/microchip/xc32/v4.60/bin/bin/../../lib/gcc/pic32c/8.3.1/../../../../pic32c/lib/thumb/v6-m/nofp\libpic32c.a(pic32_data_init_clear.o)
 .text          0x0000000000000000        0x0 c:/program files/microchip/xc32/v4.60/bin/bin/../../lib/gcc/pic32c/8.3.1/../../../../pic32c/lib/thumb/v6-m/nofp\libpic32c.a(pic32_data_init_copy.o)
 .data          0x0000000000000000        0x0 c:/program files/microchip/xc32/v4.60/bin/bin/../../lib/gcc/pic32c/8.3.1/../../../../pic32c/lib/thumb/v6-m/nofp\libpic32c.a(pic32_data_init_copy.o)
 .bss           0x0000000000000000        0x0 c:/program files/microchip/xc32/v4.60/bin/bin/../../lib/gcc/pic32c/8.3.1/../../../../pic32c/lib/thumb/v6-m/nofp\libpic32c.a(pic32_data_init_copy.o)
 .xc_stack_usage
                0x0000000000000000       0x1a c:/program files/microchip/xc32/v4.60/bin/bin/../../lib/gcc/pic32c/8.3.1/../../../../pic32c/lib/thumb/v6-m/nofp\libpic32c.a(pic32_data_init_copy.o)
 .xc_stack_usage.hdr
                0x0000000000000000        0xe c:/program files/microchip/xc32/v4.60/bin/bin/../../lib/gcc/pic32c/8.3.1/../../../../pic32c/lib/thumb/v6-m/nofp\libpic32c.a(pic32_data_init_copy.o)

Memory Configuration

Name             Origin             Length             Attributes
rom              0x0000000000000000 0x0000000000040000 xrl
ram              0x0000000020000000 0x0000000000008000 xw !r
config_00804000  0x0000000000804000 0x0000000000000004
config_00804004  0x0000000000804004 0x0000000000000004
*default*        0x0000000000000000 0xffffffffffffffff

Linker script and memory map

LOAD c:/program files/microchip/xc32/v4.60/bin/bin/../../lib/gcc/pic32c/8.3.1/thumb/v6-m/nofp/crti.o
LOAD c:/program files/microchip/xc32/v4.60/bin/bin/../../lib/gcc/pic32c/8.3.1/thumb/v6-m/nofp/crtbegin.o
LOAD build/SAMD21_IOT_WG_ICM42688/debug/_ext/2048461350/icm42688_sensor.o
LOAD build/SAMD21_IOT_WG_ICM42688/debug/_ext/1660664302/drv_spi.o
LOAD build/SAMD21_IOT_WG_ICM42688/debug/_ext/1164161090/wdrv_winc_gpio.o
LOAD build/SAMD21_IOT_WG_ICM42688/debug/_ext/1164161090/wdrv_winc_eint.o
LOAD build/SAMD21_IOT_WG_ICM42688/debug/_ext/101005277/wdrv_winc_spi.o
LOAD build/SAMD21_IOT_WG_ICM42688/debug/_ext/90265895/nm_common.o
LOAD build/SAMD21_IOT_WG_ICM42688/debug/_ext/121554788/m2m_ssl.o
LOAD build/SAMD21_IOT_WG_ICM42688/debug/_ext/121554788/m2m_hif.o
LOAD build/SAMD21_IOT_WG_ICM42688/debug/_ext/121554788/m2m_wifi.o
LOAD build/SAMD21_IOT_WG_ICM42688/debug/_ext/121554788/nmspi.o
LOAD build/SAMD21_IOT_WG_ICM42688/debug/_ext/121554788/nmdrv.o
LOAD build/SAMD21_IOT_WG_ICM42688/debug/_ext/121554788/m2m_periph.o
LOAD build/SAMD21_IOT_WG_ICM42688/debug/_ext/121554788/m2m_ota.o
LOAD build/SAMD21_IOT_WG_ICM42688/debug/_ext/121554788/nmasic.o
LOAD build/SAMD21_IOT_WG_ICM42688/debug/_ext/121554788/nmbus.o
LOAD build/SAMD21_IOT_WG_ICM42688/debug/_ext/548032175/socket.o
LOAD build/SAMD21_IOT_WG_ICM42688/debug/_ext/548032175/inet_addr.o
LOAD build/SAMD21_IOT_WG_ICM42688/debug/_ext/548032175/inet_ntop.o
LOAD build/SAMD21_IOT_WG_ICM42688/debug/_ext/609036575/flexible_flash.o
LOAD build/SAMD21_IOT_WG_ICM42688/debug/_ext/609036575/spi_flash.o
LOAD build/SAMD21_IOT_WG_ICM42688/debug/_ext/1784303044/wdrv_winc_osal.o
LOAD build/SAMD21_IOT_WG_ICM42688/debug/_ext/907429946/wdrv_winc_softap.o
LOAD build/SAMD21_IOT_WG_ICM42688/debug/_ext/907429946/wdrv_winc_bssfind.o
LOAD build/SAMD21_IOT_WG_ICM42688/debug/_ext/907429946/wdrv_winc_sta.o
LOAD build/SAMD21_IOT_WG_ICM42688/debug/_ext/907429946/wdrv_winc_wps.o
LOAD build/SAMD21_IOT_WG_ICM42688/debug/_ext/907429946/wdrv_winc_assoc.o
LOAD build/SAMD21_IOT_WG_ICM42688/debug/_ext/907429946/wdrv_winc_socket.o
LOAD build/SAMD21_IOT_WG_ICM42688/debug/_ext/907429946/wdrv_winc_systime.o
LOAD build/SAMD21_IOT_WG_ICM42688/debug/_ext/907429946/wdrv_winc_enterprise.o
LOAD build/SAMD21_IOT_WG_ICM42688/debug/_ext/907429946/wdrv_winc_nvm.o
LOAD build/SAMD21_IOT_WG_ICM42688/debug/_ext/907429946/wdrv_winc_httpprovctx.o
LOAD build/SAMD21_IOT_WG_ICM42688/debug/_ext/907429946/wdrv_winc_powersave.o
LOAD build/SAMD21_IOT_WG_ICM42688/debug/_ext/907429946/wdrv_winc_authctx.o
LOAD build/SAMD21_IOT_WG_ICM42688/debug/_ext/907429946/wdrv_winc_ssl.o
LOAD build/SAMD21_IOT_WG_ICM42688/debug/_ext/907429946/wdrv_winc_custie.o
LOAD build/SAMD21_IOT_WG_ICM42688/debug/_ext/907429946/wdrv_winc_host_file.o
LOAD build/SAMD21_IOT_WG_ICM42688/debug/_ext/907429946/wdrv_winc.o
LOAD build/SAMD21_IOT_WG_ICM42688/debug/_ext/907429946/wdrv_winc_bssctx.o
LOAD build/SAMD21_IOT_WG_ICM42688/debug/_ext/1750425231/plib_clock.o
LOAD build/SAMD21_IOT_WG_ICM42688/debug/_ext/1580516298/plib_dmac.o
LOAD build/SAMD21_IOT_WG_ICM42688/debug/_ext/503204096/plib_eic.o
LOAD build/SAMD21_IOT_WG_ICM42688/debug/_ext/1752574717/plib_evsys.o
LOAD build/SAMD21_IOT_WG_ICM42688/debug/_ext/1580823105/plib_nvic.o
LOAD build/SAMD21_IOT_WG_ICM42688/debug/_ext/11470383/plib_nvmctrl.o
LOAD build/SAMD21_IOT_WG_ICM42688/debug/_ext/1580876256/plib_port.o
LOAD build/SAMD21_IOT_WG_ICM42688/debug/_ext/1014017276/plib_sercom0_spi_master.o
LOAD build/SAMD21_IOT_WG_ICM42688/debug/_ext/1014017276/plib_sercom2_spi_master.o
LOAD build/SAMD21_IOT_WG_ICM42688/debug/_ext/177673482/plib_sercom5_usart.o
LOAD build/SAMD21_IOT_WG_ICM42688/debug/_ext/223004715/plib_systick.o
LOAD build/SAMD21_IOT_WG_ICM42688/debug/_ext/399410062/plib_tc3.o
LOAD build/SAMD21_IOT_WG_ICM42688/debug/_ext/399410062/plib_tc4.o
LOAD build/SAMD21_IOT_WG_ICM42688/debug/_ext/1357625803/xc32_monitor.o
LOAD build/SAMD21_IOT_WG_ICM42688/debug/_ext/1584719636/sys_dma.o
LOAD build/SAMD21_IOT_WG_ICM42688/debug/_ext/1318297016/sys_int.o
LOAD build/SAMD21_IOT_WG_ICM42688/debug/_ext/386530258/sys_time.o
LOAD build/SAMD21_IOT_WG_ICM42688/debug/_ext/1832905403/initialization.o
LOAD build/SAMD21_IOT_WG_ICM42688/debug/_ext/1832905403/interrupts.o
LOAD build/SAMD21_IOT_WG_ICM42688/debug/_ext/1832905403/exceptions.o
LOAD build/SAMD21_IOT_WG_ICM42688/debug/_ext/1832905403/startup_xc32.o
LOAD build/SAMD21_IOT_WG_ICM42688/debug/_ext/1832905403/libc_syscalls.o
LOAD build/SAMD21_IOT_WG_ICM42688/debug/_ext/1832905403/tasks.o
LOAD build/SAMD21_IOT_WG_ICM42688/debug/_ext/1341251756/Icm426xxDriver_HL.o
LOAD build/SAMD21_IOT_WG_ICM42688/debug/_ext/1341251756/Icm426xxDriver_HL_apex.o
LOAD build/SAMD21_IOT_WG_ICM42688/debug/_ext/1341251756/Icm426xxSelfTest.o
LOAD build/SAMD21_IOT_WG_ICM42688/debug/_ext/1341251756/Icm426xxTransport.o
LOAD build/SAMD21_IOT_WG_ICM42688/debug/_ext/299863938/ssi_comms.o
LOAD build/SAMD21_IOT_WG_ICM42688/debug/_ext/1360937237/main.o
LOAD build/SAMD21_IOT_WG_ICM42688/debug/_ext/1360937237/ringbuffer.o
LOAD build/SAMD21_IOT_WG_ICM42688/debug/_ext/1360937237/app.o
LOAD build/SAMD21_IOT_WG_ICM42688/debug/_ext/1360937237/winc1500_tcp_client.o
LOAD build/SAMD21_IOT_WG_ICM42688/debug/_ext/1360937237/ws2812.o
LOAD build/SAMD21_IOT_WG_ICM42688/debug/_ext/431689064/sml_recognition_run.o
LOAD build/SAMD21_IOT_WG_ICM42688/debug/_ext/336238826/array_contains.o
LOAD build/SAMD21_IOT_WG_ICM42688/debug/_ext/336238826/calc_area.o
LOAD build/SAMD21_IOT_WG_ICM42688/debug/_ext/336238826/column_to_row_complex.o
LOAD build/SAMD21_IOT_WG_ICM42688/debug/_ext/336238826/crossing_rate.o
LOAD build/SAMD21_IOT_WG_ICM42688/debug/_ext/336238826/dsp_dtw_distance.o
LOAD build/SAMD21_IOT_WG_ICM42688/debug/_ext/336238826/dsp_l1_distance.o
LOAD build/SAMD21_IOT_WG_ICM42688/debug/_ext/336238826/dsp_lsup_distance.o
LOAD build/SAMD21_IOT_WG_ICM42688/debug/_ext/336238826/fftr.o
LOAD build/SAMD21_IOT_WG_ICM42688/debug/_ext/336238826/fftr_utils.o
LOAD build/SAMD21_IOT_WG_ICM42688/debug/_ext/336238826/fg_amplitude_peak_to_peak.o
LOAD build/SAMD21_IOT_WG_ICM42688/debug/_ext/336238826/fg_cross_mean_difference.o
LOAD build/SAMD21_IOT_WG_ICM42688/debug/_ext/336238826/fg_cross_p2p_difference.o
LOAD build/SAMD21_IOT_WG_ICM42688/debug/_ext/336238826/fg_cross_peak_location_difference.o
LOAD build/SAMD21_IOT_WG_ICM42688/debug/_ext/336238826/fg_stats_minimum.o
LOAD build/SAMD21_IOT_WG_ICM42688/debug/_ext/336238826/fixlog.o
LOAD build/SAMD21_IOT_WG_ICM42688/debug/_ext/336238826/imfcc.o
LOAD build/SAMD21_IOT_WG_ICM42688/debug/_ext/336238826/kb.o
LOAD build/SAMD21_IOT_WG_ICM42688/debug/_ext/336238826/kb_output.o
LOAD build/SAMD21_IOT_WG_ICM42688/debug/_ext/336238826/kb_pipeline.o
LOAD build/SAMD21_IOT_WG_ICM42688/debug/_ext/336238826/kb_post_processing.o
LOAD build/SAMD21_IOT_WG_ICM42688/debug/_ext/336238826/max_min_high_low_freq.o
LOAD build/SAMD21_IOT_WG_ICM42688/debug/_ext/336238826/ma_symmetric.o
LOAD build/SAMD21_IOT_WG_ICM42688/debug/_ext/336238826/mean.o
LOAD build/SAMD21_IOT_WG_ICM42688/debug/_ext/336238826/pme.o
LOAD build/SAMD21_IOT_WG_ICM42688/debug/_ext/336238826/pme_trained_neurons.o
LOAD build/SAMD21_IOT_WG_ICM42688/debug/_ext/336238826/ratio_diff_impl.o
LOAD build/SAMD21_IOT_WG_ICM42688/debug/_ext/336238826/rb.o
LOAD build/SAMD21_IOT_WG_ICM42688/debug/_ext/336238826/save_sensor_data.o
LOAD build/SAMD21_IOT_WG_ICM42688/debug/_ext/336238826/sf_downsample_by_averaging.o
LOAD build/SAMD21_IOT_WG_ICM42688/debug/_ext/336238826/sf_downsample_by_decimation.o
LOAD build/SAMD21_IOT_WG_ICM42688/debug/_ext/336238826/sg_windowing.o
LOAD build/SAMD21_IOT_WG_ICM42688/debug/_ext/336238826/sortarray.o
LOAD build/SAMD21_IOT_WG_ICM42688/debug/_ext/336238826/sorted_copy.o
LOAD build/SAMD21_IOT_WG_ICM42688/debug/_ext/336238826/stats_percentile_presorted.o
LOAD build/SAMD21_IOT_WG_ICM42688/debug/_ext/336238826/stat_mean.o
LOAD build/SAMD21_IOT_WG_ICM42688/debug/_ext/336238826/stat_moment.o
LOAD build/SAMD21_IOT_WG_ICM42688/debug/_ext/336238826/std.o
LOAD build/SAMD21_IOT_WG_ICM42688/debug/_ext/336238826/st_absolute_average.o
LOAD build/SAMD21_IOT_WG_ICM42688/debug/_ext/336238826/st_average.o
LOAD build/SAMD21_IOT_WG_ICM42688/debug/_ext/336238826/st_high_pass_filter.o
LOAD build/SAMD21_IOT_WG_ICM42688/debug/_ext/336238826/st_moving_average.o
LOAD build/SAMD21_IOT_WG_ICM42688/debug/_ext/336238826/sum.o
LOAD build/SAMD21_IOT_WG_ICM42688/debug/_ext/336238826/tr_min_max_scale.o
LOAD build/SAMD21_IOT_WG_ICM42688/debug/_ext/336238826/utils_array.o
LOAD build/SAMD21_IOT_WG_ICM42688/debug/_ext/336238826/utils_array_max_uint8.o
LOAD build/SAMD21_IOT_WG_ICM42688/debug/_ext/336238826/utils_bitwise_abs_val.o
LOAD build/SAMD21_IOT_WG_ICM42688/debug/_ext/336238826/utils_buffer_absmean.o
LOAD build/SAMD21_IOT_WG_ICM42688/debug/_ext/336238826/utils_buffer_abssum.o
LOAD build/SAMD21_IOT_WG_ICM42688/debug/_ext/336238826/utils_buffer_abs_max.o
LOAD build/SAMD21_IOT_WG_ICM42688/debug/_ext/336238826/utils_buffer_argmax.o
LOAD build/SAMD21_IOT_WG_ICM42688/debug/_ext/336238826/utils_buffer_autoscale.o
LOAD build/SAMD21_IOT_WG_ICM42688/debug/_ext/336238826/utils_buffer_cumsum.o
LOAD build/SAMD21_IOT_WG_ICM42688/debug/_ext/336238826/utils_buffer_max.o
LOAD build/SAMD21_IOT_WG_ICM42688/debug/_ext/336238826/utils_buffer_mean.o
LOAD build/SAMD21_IOT_WG_ICM42688/debug/_ext/336238826/utils_buffer_median.o
LOAD build/SAMD21_IOT_WG_ICM42688/debug/_ext/336238826/utils_buffer_min.o
LOAD build/SAMD21_IOT_WG_ICM42688/debug/_ext/336238826/utils_buffer_min_max.o
LOAD build/SAMD21_IOT_WG_ICM42688/debug/_ext/336238826/utils_buffer_pass_threshold.o
LOAD build/SAMD21_IOT_WG_ICM42688/debug/_ext/336238826/utils_buffer_std.o
LOAD build/SAMD21_IOT_WG_ICM42688/debug/_ext/336238826/utils_buffer_variance.o
LOAD build/SAMD21_IOT_WG_ICM42688/debug/_ext/336238826/utils_model_crossing_rate.o
LOAD build/SAMD21_IOT_WG_ICM42688/debug/_ext/336238826/utils_model_cross_column.o
LOAD build/SAMD21_IOT_WG_ICM42688/debug/_ext/336238826/utils_model_cross_difference.o
LOAD build/SAMD21_IOT_WG_ICM42688/debug/_ext/336238826/utils_model_mean_crossing_rate.o
LOAD build/SAMD21_IOT_WG_ICM42688/debug/_ext/336238826/utils_model_pct_time_over_sigma.o
LOAD build/SAMD21_IOT_WG_ICM42688/debug/_ext/336238826/utils_model_pct_time_over_threshold.o
LOAD build/SAMD21_IOT_WG_ICM42688/debug/_ext/336238826/utils_model_stats_max_min.o
LOAD build/SAMD21_IOT_WG_ICM42688/debug/_ext/336238826/utils_model_total_area.o
LOAD build/SAMD21_IOT_WG_ICM42688/debug/_ext/336238826/utils_model_total_energy.o
LOAD build/SAMD21_IOT_WG_ICM42688/debug/_ext/336238826/utils_tr_sensor.o
                0x0000000000000001                __MPLAB_BUILD = 0x1
                0x0000000000040000                __rom_end = (ORIGIN (rom) + LENGTH (rom))
                0x0000000020008000                __ram_end = (ORIGIN (ram) + LENGTH (ram))

.config_00804000
                0x0000000000804000        0x4
 *(.config_00804000)
 .config_00804000
                0x0000000000804000        0x4 build/SAMD21_IOT_WG_ICM42688/debug/_ext/1832905403/initialization.o
                0x0000000000804000                __config_00804000

.config_00804004
                0x0000000000804004        0x4
 *(.config_00804004)
 .config_00804004
                0x0000000000804004        0x4 build/SAMD21_IOT_WG_ICM42688/debug/_ext/1832905403/initialization.o
                0x0000000000804004                __config_00804004

.vectors        0x0000000000000000       0xb0
                0x0000000000000000                . = ALIGN (0x4)
                0x0000000000000000                _sfixed = .
 *(.vectors .vectors.* .vectors_default .vectors_default.*)
 .vectors       0x0000000000000000       0xb0 build/SAMD21_IOT_WG_ICM42688/debug/_ext/1832905403/interrupts.o
                0x0000000000000000                exception_table
 *(.isr_vector)
 *(.reset*)
 *(.after_vectors)

.text           0x00000000000000b0       0x20
                0x00000000000000b0                . = ALIGN (0x4)
 *(.glue_7t)
 .glue_7t       0x00000000000000b0        0x0 linker stubs
 *(.glue_7)
 .glue_7        0x00000000000000b0        0x0 linker stubs
 *(.gnu.linkonce.r.*)
 *(.ARM.extab* .gnu.linkonce.armextab.*)
                0x00000000000000b0                . = ALIGN (0x4)
 *(.init)
 .init          0x00000000000000b0        0x4 c:/program files/microchip/xc32/v4.60/bin/bin/../../lib/gcc/pic32c/8.3.1/thumb/v6-m/nofp/crti.o
                0x00000000000000b0                _init
 .init          0x00000000000000b4        0x8 c:/program files/microchip/xc32/v4.60/bin/bin/../../lib/gcc/pic32c/8.3.1/thumb/v6-m/nofp/crtn.o
                0x00000000000000bc                . = ALIGN (0x4)
                0x00000000000000bc                __preinit_array_start = .
 *(.preinit_array)
                0x00000000000000bc                __preinit_array_end = .
                0x00000000000000bc                . = ALIGN (0x4)
                0x00000000000000bc                __init_array_start = .
 *(SORT_BY_NAME(.init_array.*))
 *(.init_array)
 .init_array    0x00000000000000bc        0x4 c:/program files/microchip/xc32/v4.60/bin/bin/../../lib/gcc/pic32c/8.3.1/thumb/v6-m/nofp/crtbegin.o
                0x00000000000000c0                __init_array_end = .
                0x00000000000000c0                . = ALIGN (0x4)
 *crtbegin.o(.ctors)
 *(EXCLUDE_FILE(*crtend.o) .ctors)
 *(SORT_BY_NAME(.ctors.*))
 *crtend.o(.ctors)
                0x00000000000000c0                . = ALIGN (0x4)
 *(.fini)
 .fini          0x00000000000000c0        0x4 c:/program files/microchip/xc32/v4.60/bin/bin/../../lib/gcc/pic32c/8.3.1/thumb/v6-m/nofp/crti.o
                0x00000000000000c0                _fini
 .fini          0x00000000000000c4        0x8 c:/program files/microchip/xc32/v4.60/bin/bin/../../lib/gcc/pic32c/8.3.1/thumb/v6-m/nofp/crtn.o
                0x00000000000000cc                . = ALIGN (0x4)
                0x00000000000000cc                __fini_array_start = .
 *(.fini_array)
 .fini_array    0x00000000000000cc        0x4 c:/program files/microchip/xc32/v4.60/bin/bin/../../lib/gcc/pic32c/8.3.1/thumb/v6-m/nofp/crtbegin.o
 *(SORT_BY_NAME(.fini_array.*))
                0x00000000000000d0                __fini_array_end = .
 *crtbegin.o(.dtors)
 *(EXCLUDE_FILE(*crtend.o) .dtors)
 *(SORT_BY_NAME(.dtors.*))
 *crtend.o(.dtors)
                0x00000000000000d0                . = ALIGN (0x4)
                0x00000000000000d0                _efixed = .
                [!provide]                        PROVIDE (__exidx_start = .)

.ARM.exidx      0x00000000000000d0       0x10
 *(.ARM.exidx* .gnu.linkonce.armexidx.*)
 .ARM.exidx     0x00000000000000d8        0x8 c:/program files/microchip/xc32/v4.60/bin/bin/../../lib/gcc/pic32c/8.3.1/thumb/v6-m/nofp\libgcc.a(_udivmoddi4.o)
 .ARM.exidx     0x00000000000000d0        0x8 c:/program files/microchip/xc32/v4.60/bin/bin/../../lib/gcc/pic32c/8.3.1/thumb/v6-m/nofp\libgcc.a(_divdi3.o)
                [!provide]                        PROVIDE (__exidx_end = .)
                0x00000000000000e0                . = ALIGN (0x4)
                0x00000000000000e0                _etext = .

.bss            0x0000000020000000        0x0
                0x0000000020000000                . = ALIGN (0x4)
                0x0000000020000000                __bss_start__ = .
                0x0000000020000000                _sbss = .
                0x0000000020000000                _szero = .
 *(COMMON)
                0x0000000020000000                . = ALIGN (0x4)
                0x0000000020000000                __bss_end__ = .
                0x0000000020000000                _ebss = .
                0x0000000020000000                _ezero = .
                0x0000000020000000                . = ALIGN (0x4)
                0x0000000020000000                _end = .
                0x0000000020007fff                _ram_end_ = ((ORIGIN (ram) + LENGTH (ram)) - 0x1)
                0x0000000000000001                __ICD2RAM = 0x1
                0x0000000000000001                __MPLAB_DEBUG = 0x1
                0x0000000000000001                __DEBUG = 0x1
                0x0000000000000200                _min_heap_size = 0x200
START GROUP
LOAD c:/program files/microchip/xc32/v4.60/bin/bin/../../lib/gcc/pic32c/8.3.1/../../../../pic32c/lib/thumb/v6-m/nofp\libpic32c.a
LOAD c:/program files/microchip/xc32/v4.60/bin/bin/../../lib/gcc/pic32c/8.3.1/../../../../pic32c/lib/thumb/v6-m/nofp\libc-size-musl.a
LOAD c:/program files/microchip/xc32/v4.60/bin/bin/../../lib/gcc/pic32c/8.3.1/../../../../pic32c/lib/thumb/v6-m/nofp\liblmalloc-musl.a
LOAD c:/program files/microchip/xc32/v4.60/bin/bin/../../lib/gcc/pic32c/8.3.1/../../../../pic32c/lib/thumb/v6-m/nofp\libm-fast-emfloat.a
LOAD c:/program files/microchip/xc32/v4.60/bin/bin/../../lib/gcc/pic32c/8.3.1/../../../../pic32c/lib/thumb/v6-m/nofp\libm-musl.a
LOAD c:/program files/microchip/xc32/v4.60/bin/bin/../../lib/gcc/pic32c/8.3.1/../../../../pic32c/lib/thumb/v6-m/nofp\libg-musl.a
LOAD c:/program files/microchip/xc32/v4.60/bin/bin/../../lib/gcc/pic32c/8.3.1/../../../../pic32c/lib/thumb/v6-m/nofp\libc-musl.a
LOAD c:/program files/microchip/xc32/v4.60/bin/bin/../../lib/gcc/pic32c/8.3.1/../../../../pic32c/lib/thumb/v6-m/nofp\libm-fast-emfloat.a
LOAD c:/program files/microchip/xc32/v4.60/bin/bin/../../lib/gcc/pic32c/8.3.1/../../../../pic32c/lib/thumb/v6-m/nofp\libm-musl.a
LOAD c:/program files/microchip/xc32/v4.60/bin/bin/../../lib/gcc/pic32c/8.3.1/thumb/v6-m/nofp\libgcc.a
END GROUP
LOAD c:/program files/microchip/xc32/v4.60/bin/bin/../../lib/gcc/pic32c/8.3.1/thumb/v6-m/nofp/crtend.o
LOAD c:/program files/microchip/xc32/v4.60/bin/bin/../../lib/gcc/pic32c/8.3.1/thumb/v6-m/nofp/crtn.o
OUTPUT(dist/SAMD21_IOT_WG_ICM42688/debug/samd21_iot_wand.X.debug.elf elf32-littlearm)
LOAD data_init
LOAD stack

.ARM.attributes
                0x0000000000000000       0x2a
 .ARM.attributes
                0x0000000000000000       0x1e c:/program files/microchip/xc32/v4.60/bin/bin/../../lib/gcc/pic32c/8.3.1/thumb/v6-m/nofp/crti.o
 .ARM.attributes
                0x000000000000001e       0x2c c:/program files/microchip/xc32/v4.60/bin/bin/../../lib/gcc/pic32c/8.3.1/thumb/v6-m/nofp/crtbegin.o
 .ARM.attributes
                0x000000000000004a       0x2c build/SAMD21_IOT_WG_ICM42688/debug/_ext/2048461350/icm42688_sensor.o
 .ARM.attributes
                0x0000000000000076       0x2c build/SAMD21_IOT_WG_ICM42688/debug/_ext/1660664302/drv_spi.o
 .ARM.attributes
                0x00000000000000a2       0x2c build/SAMD21_IOT_WG_ICM42688/debug/_ext/1164161090/wdrv_winc_gpio.o
 .ARM.attributes
                0x00000000000000ce       0x2c build/SAMD21_IOT_WG_ICM42688/debug/_ext/1164161090/wdrv_winc_eint.o
 .ARM.attributes
                0x00000000000000fa       0x2c build/SAMD21_IOT_WG_ICM42688/debug/_ext/101005277/wdrv_winc_spi.o
 .ARM.attributes
                0x0000000000000126       0x2c build/SAMD21_IOT_WG_ICM42688/debug/_ext/90265895/nm_common.o
 .ARM.attributes
                0x0000000000000152       0x2c build/SAMD21_IOT_WG_ICM42688/debug/_ext/121554788/m2m_ssl.o
 .ARM.attributes
                0x000000000000017e       0x2c build/SAMD21_IOT_WG_ICM42688/debug/_ext/121554788/m2m_hif.o
 .ARM.attributes
                0x00000000000001aa       0x2c build/SAMD21_IOT_WG_ICM42688/debug/_ext/121554788/m2m_wifi.o
 .ARM.attributes
                0x00000000000001d6       0x2c build/SAMD21_IOT_WG_ICM42688/debug/_ext/121554788/nmspi.o
 .ARM.attributes
                0x0000000000000202       0x2c build/SAMD21_IOT_WG_ICM42688/debug/_ext/121554788/nmdrv.o
 .ARM.attributes
                0x000000000000022e       0x2c build/SAMD21_IOT_WG_ICM42688/debug/_ext/121554788/m2m_ota.o
 .ARM.attributes
                0x000000000000025a       0x2c build/SAMD21_IOT_WG_ICM42688/debug/_ext/121554788/nmasic.o
 .ARM.attributes
                0x0000000000000286       0x2c build/SAMD21_IOT_WG_ICM42688/debug/_ext/121554788/nmbus.o
 .ARM.attributes
                0x00000000000002b2       0x2c build/SAMD21_IOT_WG_ICM42688/debug/_ext/548032175/socket.o
 .ARM.attributes
                0x00000000000002de       0x2c build/SAMD21_IOT_WG_ICM42688/debug/_ext/609036575/flexible_flash.o
 .ARM.attributes
                0x000000000000030a       0x2c build/SAMD21_IOT_WG_ICM42688/debug/_ext/609036575/spi_flash.o
 .ARM.attributes
                0x0000000000000336       0x2c build/SAMD21_IOT_WG_ICM42688/debug/_ext/1784303044/wdrv_winc_osal.o
 .ARM.attributes
                0x0000000000000362       0x2c build/SAMD21_IOT_WG_ICM42688/debug/_ext/907429946/wdrv_winc_systime.o
 .ARM.attributes
                0x000000000000038e       0x2c build/SAMD21_IOT_WG_ICM42688/debug/_ext/907429946/wdrv_winc_authctx.o
 .ARM.attributes
                0x00000000000003ba       0x2c build/SAMD21_IOT_WG_ICM42688/debug/_ext/907429946/wdrv_winc_host_file.o
 .ARM.attributes
                0x00000000000003e6       0x2c build/SAMD21_IOT_WG_ICM42688/debug/_ext/907429946/wdrv_winc.o
 .ARM.attributes
                0x0000000000000412       0x2c build/SAMD21_IOT_WG_ICM42688/debug/_ext/907429946/wdrv_winc_bssctx.o
 .ARM.attributes
                0x000000000000043e       0x2c build/SAMD21_IOT_WG_ICM42688/debug/_ext/1750425231/plib_clock.o
 .ARM.attributes
                0x000000000000046a       0x2c build/SAMD21_IOT_WG_ICM42688/debug/_ext/1580516298/plib_dmac.o
 .ARM.attributes
                0x0000000000000496       0x2c build/SAMD21_IOT_WG_ICM42688/debug/_ext/503204096/plib_eic.o
 .ARM.attributes
                0x00000000000004c2       0x2c build/SAMD21_IOT_WG_ICM42688/debug/_ext/1580823105/plib_nvic.o
 .ARM.attributes
                0x00000000000004ee       0x2c build/SAMD21_IOT_WG_ICM42688/debug/_ext/11470383/plib_nvmctrl.o
 .ARM.attributes
                0x000000000000051a       0x2c build/SAMD21_IOT_WG_ICM42688/debug/_ext/1580876256/plib_port.o
 .ARM.attributes
                0x0000000000000546       0x2c build/SAMD21_IOT_WG_ICM42688/debug/_ext/1014017276/plib_sercom0_spi_master.o
 .ARM.attributes
                0x0000000000000572       0x2c build/SAMD21_IOT_WG_ICM42688/debug/_ext/1014017276/plib_sercom2_spi_master.o
 .ARM.attributes
                0x000000000000059e       0x2c build/SAMD21_IOT_WG_ICM42688/debug/_ext/177673482/plib_sercom5_usart.o
 .ARM.attributes
                0x00000000000005ca       0x2c build/SAMD21_IOT_WG_ICM42688/debug/_ext/223004715/plib_systick.o
 .ARM.attributes
                0x00000000000005f6       0x2c build/SAMD21_IOT_WG_ICM42688/debug/_ext/399410062/plib_tc3.o
 .ARM.attributes
                0x0000000000000622       0x2c build/SAMD21_IOT_WG_ICM42688/debug/_ext/399410062/plib_tc4.o
 .ARM.attributes
                0x000000000000064e       0x2c build/SAMD21_IOT_WG_ICM42688/debug/_ext/1357625803/xc32_monitor.o
 .ARM.attributes
                0x000000000000067a       0x2c build/SAMD21_IOT_WG_ICM42688/debug/_ext/1584719636/sys_dma.o
 .ARM.attributes
                0x00000000000006a6       0x2c build/SAMD21_IOT_WG_ICM42688/debug/_ext/1318297016/sys_int.o
 .ARM.attributes
                0x00000000000006d2       0x2c build/SAMD21_IOT_WG_ICM42688/debug/_ext/386530258/sys_time.o
 .ARM.attributes
                0x00000000000006fe       0x2c build/SAMD21_IOT_WG_ICM42688/debug/_ext/1832905403/initialization.o
 .ARM.attributes
                0x000000000000072a       0x2c build/SAMD21_IOT_WG_ICM42688/debug/_ext/1832905403/interrupts.o
 .ARM.attributes
                0x0000000000000756       0x2c build/SAMD21_IOT_WG_ICM42688/debug/_ext/1832905403/exceptions.o
 .ARM.attributes
                0x0000000000000782       0x2c build/SAMD21_IOT_WG_ICM42688/debug/_ext/1832905403/startup_xc32.o
 .ARM.attributes
                0x00000000000007ae       0x2c build/SAMD21_IOT_WG_ICM42688/debug/_ext/1832905403/tasks.o
 .ARM.attributes
                0x00000000000007da       0x2c build/SAMD21_IOT_WG_ICM42688/debug/_ext/1341251756/Icm426xxDriver_HL.o
 .ARM.attributes
                0x0000000000000806       0x2c build/SAMD21_IOT_WG_ICM42688/debug/_ext/1341251756/Icm426xxTransport.o
 .ARM.attributes
                0x0000000000000832       0x2c build/SAMD21_IOT_WG_ICM42688/debug/_ext/1360937237/main.o
 .ARM.attributes
                0x000000000000085e       0x2c build/SAMD21_IOT_WG_ICM42688/debug/_ext/1360937237/ringbuffer.o
 .ARM.attributes
                0x000000000000088a       0x2c build/SAMD21_IOT_WG_ICM42688/debug/_ext/1360937237/app.o
 .ARM.attributes
                0x00000000000008b6       0x2c build/SAMD21_IOT_WG_ICM42688/debug/_ext/1360937237/ws2812.o
 .ARM.attributes
                0x00000000000008e2       0x2c build/SAMD21_IOT_WG_ICM42688/debug/_ext/431689064/sml_recognition_run.o
 .ARM.attributes
                0x000000000000090e       0x2c build/SAMD21_IOT_WG_ICM42688/debug/_ext/336238826/dsp_dtw_distance.o
 .ARM.attributes
                0x000000000000093a       0x2c build/SAMD21_IOT_WG_ICM42688/debug/_ext/336238826/dsp_l1_distance.o
 .ARM.attributes
                0x0000000000000966       0x2c build/SAMD21_IOT_WG_ICM42688/debug/_ext/336238826/dsp_lsup_distance.o
 .ARM.attributes
                0x0000000000000992       0x2c build/SAMD21_IOT_WG_ICM42688/debug/_ext/336238826/fg_amplitude_peak_to_peak.o
 .ARM.attributes
                0x00000000000009be       0x2c build/SAMD21_IOT_WG_ICM42688/debug/_ext/336238826/fg_cross_mean_difference.o
 .ARM.attributes
                0x00000000000009ea       0x2c build/SAMD21_IOT_WG_ICM42688/debug/_ext/336238826/fg_cross_p2p_difference.o
 .ARM.attributes
                0x0000000000000a16       0x2c build/SAMD21_IOT_WG_ICM42688/debug/_ext/336238826/fg_cross_peak_location_difference.o
 .ARM.attributes
                0x0000000000000a42       0x2c build/SAMD21_IOT_WG_ICM42688/debug/_ext/336238826/fg_stats_minimum.o
 .ARM.attributes
                0x0000000000000a6e       0x2c build/SAMD21_IOT_WG_ICM42688/debug/_ext/336238826/kb.o
 .ARM.attributes
                0x0000000000000a9a       0x2c build/SAMD21_IOT_WG_ICM42688/debug/_ext/336238826/kb_output.o
 .ARM.attributes
                0x0000000000000ac6       0x2c build/SAMD21_IOT_WG_ICM42688/debug/_ext/336238826/kb_pipeline.o
 .ARM.attributes
                0x0000000000000af2       0x2c build/SAMD21_IOT_WG_ICM42688/debug/_ext/336238826/mean.o
 .ARM.attributes
                0x0000000000000b1e       0x2c build/SAMD21_IOT_WG_ICM42688/debug/_ext/336238826/pme.o
 .ARM.attributes
                0x0000000000000b4a       0x32 build/SAMD21_IOT_WG_ICM42688/debug/_ext/336238826/pme_trained_neurons.o
 .ARM.attributes
                0x0000000000000b7c       0x2c build/SAMD21_IOT_WG_ICM42688/debug/_ext/336238826/rb.o
 .ARM.attributes
                0x0000000000000ba8       0x2c build/SAMD21_IOT_WG_ICM42688/debug/_ext/336238826/save_sensor_data.o
 .ARM.attributes
                0x0000000000000bd4       0x2c build/SAMD21_IOT_WG_ICM42688/debug/_ext/336238826/sf_downsample_by_averaging.o
 .ARM.attributes
                0x0000000000000c00       0x2c build/SAMD21_IOT_WG_ICM42688/debug/_ext/336238826/sg_windowing.o
 .ARM.attributes
                0x0000000000000c2c       0x2c build/SAMD21_IOT_WG_ICM42688/debug/_ext/336238826/sortarray.o
 .ARM.attributes
                0x0000000000000c58       0x2c build/SAMD21_IOT_WG_ICM42688/debug/_ext/336238826/sorted_copy.o
 .ARM.attributes
                0x0000000000000c84       0x2c build/SAMD21_IOT_WG_ICM42688/debug/_ext/336238826/tr_min_max_scale.o
 .ARM.attributes
                0x0000000000000cb0       0x2c build/SAMD21_IOT_WG_ICM42688/debug/_ext/336238826/utils_array_max_uint8.o
 .ARM.attributes
                0x0000000000000cdc       0x2c build/SAMD21_IOT_WG_ICM42688/debug/_ext/336238826/utils_bitwise_abs_val.o
 .ARM.attributes
                0x0000000000000d08       0x2c build/SAMD21_IOT_WG_ICM42688/debug/_ext/336238826/utils_buffer_argmax.o
 .ARM.attributes
                0x0000000000000d34       0x2c build/SAMD21_IOT_WG_ICM42688/debug/_ext/336238826/utils_buffer_min_max.o
 .ARM.attributes
                0x0000000000000d60       0x2c build/SAMD21_IOT_WG_ICM42688/debug/_ext/336238826/utils_model_cross_difference.o
 .ARM.attributes
                0x0000000000000d8c       0x2c build/SAMD21_IOT_WG_ICM42688/debug/_ext/336238826/utils_model_stats_max_min.o
 .ARM.attributes
                0x0000000000000db8       0x2c build/SAMD21_IOT_WG_ICM42688/debug/_ext/336238826/utils_tr_sensor.o
 .ARM.attributes
                0x0000000000000de4       0x2c c:/program files/microchip/xc32/v4.60/bin/bin/../../lib/gcc/pic32c/8.3.1/../../../../pic32c/lib/thumb/v6-m/nofp\libpic32c.a(data_init.o)
 .ARM.attributes
                0x0000000000000e10       0x2e c:/program files/microchip/xc32/v4.60/bin/bin/../../lib/gcc/pic32c/8.3.1/../../../../pic32c/lib/thumb/v6-m/nofp\libc-size-musl.a(memcpy.o)
 .ARM.attributes
                0x0000000000000e3e       0x2e c:/program files/microchip/xc32/v4.60/bin/bin/../../lib/gcc/pic32c/8.3.1/../../../../pic32c/lib/thumb/v6-m/nofp\libc-size-musl.a(memset.o)
 .ARM.attributes
                0x0000000000000e6c       0x2e c:/program files/microchip/xc32/v4.60/bin/bin/../../lib/gcc/pic32c/8.3.1/../../../../pic32c/lib/thumb/v6-m/nofp\libc-size-musl.a(strlen.o)
 .ARM.attributes
                0x0000000000000e9a       0x2e c:/program files/microchip/xc32/v4.60/bin/bin/../../lib/gcc/pic32c/8.3.1/../../../../pic32c/lib/thumb/v6-m/nofp\libc-size-musl.a(strchr.o)
 .ARM.attributes
                0x0000000000000ec8       0x2e c:/program files/microchip/xc32/v4.60/bin/bin/../../lib/gcc/pic32c/8.3.1/../../../../pic32c/lib/thumb/v6-m/nofp\libc-size-musl.a(strchrnul.o)
 .ARM.attributes
                0x0000000000000ef6       0x2e c:/program files/microchip/xc32/v4.60/bin/bin/../../lib/gcc/pic32c/8.3.1/../../../../pic32c/lib/thumb/v6-m/nofp\libc-size-musl.a(strnlen.o)
 .ARM.attributes
                0x0000000000000f24       0x2e c:/program files/microchip/xc32/v4.60/bin/bin/../../lib/gcc/pic32c/8.3.1/../../../../pic32c/lib/thumb/v6-m/nofp\libc-size-musl.a(memchr.o)
 .ARM.attributes
                0x0000000000000f52       0x2e c:/program files/microchip/xc32/v4.60/bin/bin/../../lib/gcc/pic32c/8.3.1/../../../../pic32c/lib/thumb/v6-m/nofp\liblmalloc-musl.a(lite_free.o)
 .ARM.attributes
                0x0000000000000f80       0x2e c:/program files/microchip/xc32/v4.60/bin/bin/../../lib/gcc/pic32c/8.3.1/../../../../pic32c/lib/thumb/v6-m/nofp\liblmalloc-musl.a(lite_malloc.o)
 .ARM.attributes
                0x0000000000000fae       0x1c c:/program files/microchip/xc32/v4.60/bin/bin/../../lib/gcc/pic32c/8.3.1/../../../../pic32c/lib/thumb/v6-m/nofp\libm-fast-emfloat.a(__aeabi_fadd.o)
 .ARM.attributes
                0x0000000000000fca       0x1c c:/program files/microchip/xc32/v4.60/bin/bin/../../lib/gcc/pic32c/8.3.1/../../../../pic32c/lib/thumb/v6-m/nofp\libm-fast-emfloat.a(__aeabi_dadd.o)
 .ARM.attributes
                0x0000000000000fe6       0x1c c:/program files/microchip/xc32/v4.60/bin/bin/../../lib/gcc/pic32c/8.3.1/../../../../pic32c/lib/thumb/v6-m/nofp\libm-fast-emfloat.a(__aeabi_fsub.o)
 .ARM.attributes
                0x0000000000001002       0x1c c:/program files/microchip/xc32/v4.60/bin/bin/../../lib/gcc/pic32c/8.3.1/../../../../pic32c/lib/thumb/v6-m/nofp\libm-fast-emfloat.a(__aeabi_fmul.o)
 .ARM.attributes
                0x000000000000101e       0x1c c:/program files/microchip/xc32/v4.60/bin/bin/../../lib/gcc/pic32c/8.3.1/../../../../pic32c/lib/thumb/v6-m/nofp\libm-fast-emfloat.a(__aeabi_dmul_aux.o)
 .ARM.attributes
                0x000000000000103a       0x1c c:/program files/microchip/xc32/v4.60/bin/bin/../../lib/gcc/pic32c/8.3.1/../../../../pic32c/lib/thumb/v6-m/nofp\libm-fast-emfloat.a(__aeabi_fdiv.o)
 .ARM.attributes
                0x0000000000001056       0x1c c:/program files/microchip/xc32/v4.60/bin/bin/../../lib/gcc/pic32c/8.3.1/../../../../pic32c/lib/thumb/v6-m/nofp\libm-fast-emfloat.a(__aeabi_ddiv.o)
 .ARM.attributes
                0x0000000000001072       0x1c c:/program files/microchip/xc32/v4.60/bin/bin/../../lib/gcc/pic32c/8.3.1/../../../../pic32c/lib/thumb/v6-m/nofp\libm-fast-emfloat.a(__aeabi_fcmpeq.o)
 .ARM.attributes
                0x000000000000108e       0x1c c:/program files/microchip/xc32/v4.60/bin/bin/../../lib/gcc/pic32c/8.3.1/../../../../pic32c/lib/thumb/v6-m/nofp\libm-fast-emfloat.a(__aeabi_dcmpeq.o)
 .ARM.attributes
                0x00000000000010aa       0x1c c:/program files/microchip/xc32/v4.60/bin/bin/../../lib/gcc/pic32c/8.3.1/../../../../pic32c/lib/thumb/v6-m/nofp\libm-fast-emfloat.a(__aeabi_fcmpgt.o)
 .ARM.attributes
                0x00000000000010c6       0x1c c:/program files/microchip/xc32/v4.60/bin/bin/../../lib/gcc/pic32c/8.3.1/../../../../pic32c/lib/thumb/v6-m/nofp\libm-fast-emfloat.a(__aeabi_dcmpgt.o)
 .ARM.attributes
                0x00000000000010e2       0x1c c:/program files/microchip/xc32/v4.60/bin/bin/../../lib/gcc/pic32c/8.3.1/../../../../pic32c/lib/thumb/v6-m/nofp\libm-fast-emfloat.a(__aeabi_fcmplt.o)
 .ARM.attributes
                0x00000000000010fe       0x1c c:/program files/microchip/xc32/v4.60/bin/bin/../../lib/gcc/pic32c/8.3.1/../../../../pic32c/lib/thumb/v6-m/nofp\libm-fast-emfloat.a(__aeabi_dcmplt.o)
 .ARM.attributes
                0x000000000000111a       0x1c c:/program files/microchip/xc32/v4.60/bin/bin/../../lib/gcc/pic32c/8.3.1/../../../../pic32c/lib/thumb/v6-m/nofp\libm-fast-emfloat.a(__aeabi_f2iz.o)
 .ARM.attributes
                0x0000000000001136       0x1c c:/program files/microchip/xc32/v4.60/bin/bin/../../lib/gcc/pic32c/8.3.1/../../../../pic32c/lib/thumb/v6-m/nofp\libm-fast-emfloat.a(__aeabi_d2iz.o)
 .ARM.attributes
                0x0000000000001152       0x1c c:/program files/microchip/xc32/v4.60/bin/bin/../../lib/gcc/pic32c/8.3.1/../../../../pic32c/lib/thumb/v6-m/nofp\libm-fast-emfloat.a(__aeabi_f2uiz.o)
 .ARM.attributes
                0x000000000000116e       0x1c c:/program files/microchip/xc32/v4.60/bin/bin/../../lib/gcc/pic32c/8.3.1/../../../../pic32c/lib/thumb/v6-m/nofp\libm-fast-emfloat.a(__aeabi_d2uiz.o)
 .ARM.attributes
                0x000000000000118a       0x1c c:/program files/microchip/xc32/v4.60/bin/bin/../../lib/gcc/pic32c/8.3.1/../../../../pic32c/lib/thumb/v6-m/nofp\libm-fast-emfloat.a(__aeabi_i2f.o)
 .ARM.attributes
                0x00000000000011a6       0x1c c:/program files/microchip/xc32/v4.60/bin/bin/../../lib/gcc/pic32c/8.3.1/../../../../pic32c/lib/thumb/v6-m/nofp\libm-fast-emfloat.a(__aeabi_l2f.o)
 .ARM.attributes
                0x00000000000011c2       0x1c c:/program files/microchip/xc32/v4.60/bin/bin/../../lib/gcc/pic32c/8.3.1/../../../../pic32c/lib/thumb/v6-m/nofp\libm-fast-emfloat.a(__aeabi_ui2f.o)
 .ARM.attributes
                0x00000000000011de       0x1c c:/program files/microchip/xc32/v4.60/bin/bin/../../lib/gcc/pic32c/8.3.1/../../../../pic32c/lib/thumb/v6-m/nofp\libm-fast-emfloat.a(__aeabi_ul2f.o)
 .ARM.attributes
                0x00000000000011fa       0x1c c:/program files/microchip/xc32/v4.60/bin/bin/../../lib/gcc/pic32c/8.3.1/../../../../pic32c/lib/thumb/v6-m/nofp\libm-fast-emfloat.a(__aeabi_f2d.o)
 .ARM.attributes
                0x0000000000001216       0x1c c:/program files/microchip/xc32/v4.60/bin/bin/../../lib/gcc/pic32c/8.3.1/../../../../pic32c/lib/thumb/v6-m/nofp\libm-fast-emfloat.a(__aeabi_d2f.o)
 .ARM.attributes
                0x0000000000001232       0x2e c:/program files/microchip/xc32/v4.60/bin/bin/../../lib/gcc/pic32c/8.3.1/../../../../pic32c/lib/thumb/v6-m/nofp\libg-musl.a(__libc_start_main.o)
 .ARM.attributes
                0x0000000000001260       0x2e c:/program files/microchip/xc32/v4.60/bin/bin/../../lib/gcc/pic32c/8.3.1/../../../../pic32c/lib/thumb/v6-m/nofp\libg-musl.a(__errno_location.o)
 .ARM.attributes
                0x000000000000128e       0x2e c:/program files/microchip/xc32/v4.60/bin/bin/../../lib/gcc/pic32c/8.3.1/../../../../pic32c/lib/thumb/v6-m/nofp\libg-musl.a(libc.o)
 .ARM.attributes
                0x00000000000012bc       0x2e c:/program files/microchip/xc32/v4.60/bin/bin/../../lib/gcc/pic32c/8.3.1/../../../../pic32c/lib/thumb/v6-m/nofp\libg-musl.a(expand_heap.o)
 .ARM.attributes
                0x00000000000012ea       0x2e c:/program files/microchip/xc32/v4.60/bin/bin/../../lib/gcc/pic32c/8.3.1/../../../../pic32c/lib/thumb/v6-m/nofp\libg-musl.a(__sio_printf_cdeEfFgGnpsuxX.o)
 .ARM.attributes
                0x0000000000001318       0x2e c:/program files/microchip/xc32/v4.60/bin/bin/../../lib/gcc/pic32c/8.3.1/../../../../pic32c/lib/thumb/v6-m/nofp\libg-musl.a(__sio_sprintf_cdeEfFgGnpsuxX.o)
 .ARM.attributes
                0x0000000000001346       0x2e c:/program files/microchip/xc32/v4.60/bin/bin/../../lib/gcc/pic32c/8.3.1/../../../../pic32c/lib/thumb/v6-m/nofp\libg-musl.a(__fmt_d.o)
 .ARM.attributes
                0x0000000000001374       0x2e c:/program files/microchip/xc32/v4.60/bin/bin/../../lib/gcc/pic32c/8.3.1/../../../../pic32c/lib/thumb/v6-m/nofp\libg-musl.a(__fmt_fp.o)
 .ARM.attributes
                0x00000000000013a2       0x2e c:/program files/microchip/xc32/v4.60/bin/bin/../../lib/gcc/pic32c/8.3.1/../../../../pic32c/lib/thumb/v6-m/nofp\libg-musl.a(__fmt_s.o)
 .ARM.attributes
                0x00000000000013d0       0x2e c:/program files/microchip/xc32/v4.60/bin/bin/../../lib/gcc/pic32c/8.3.1/../../../../pic32c/lib/thumb/v6-m/nofp\libg-musl.a(__fmt_u.o)
 .ARM.attributes
                0x00000000000013fe       0x2e c:/program files/microchip/xc32/v4.60/bin/bin/../../lib/gcc/pic32c/8.3.1/../../../../pic32c/lib/thumb/v6-m/nofp\libg-musl.a(__fmt_x.o)
 .ARM.attributes
                0x000000000000142c       0x2e c:/program files/microchip/xc32/v4.60/bin/bin/../../lib/gcc/pic32c/8.3.1/../../../../pic32c/lib/thumb/v6-m/nofp\libg-musl.a(__pop_float.o)
 .ARM.attributes
                0x000000000000145a       0x2e c:/program files/microchip/xc32/v4.60/bin/bin/../../lib/gcc/pic32c/8.3.1/../../../../pic32c/lib/thumb/v6-m/nofp\libg-musl.a(__pop_int.o)
 .ARM.attributes
                0x0000000000001488       0x2e c:/program files/microchip/xc32/v4.60/bin/bin/../../lib/gcc/pic32c/8.3.1/../../../../pic32c/lib/thumb/v6-m/nofp\libg-musl.a(__pop_ptr.o)
 .ARM.attributes
                0x00000000000014b6       0x2e c:/program files/microchip/xc32/v4.60/bin/bin/../../lib/gcc/pic32c/8.3.1/../../../../pic32c/lib/thumb/v6-m/nofp\libg-musl.a(__printf_core.o)
 .ARM.attributes
                0x00000000000014e4       0x2e c:/program files/microchip/xc32/v4.60/bin/bin/../../lib/gcc/pic32c/8.3.1/../../../../pic32c/lib/thumb/v6-m/nofp\libg-musl.a(stdin.o)
 .ARM.attributes
                0x0000000000001512       0x2e c:/program files/microchip/xc32/v4.60/bin/bin/../../lib/gcc/pic32c/8.3.1/../../../../pic32c/lib/thumb/v6-m/nofp\libg-musl.a(stdout.o)
 .ARM.attributes
                0x0000000000001540       0x2e c:/program files/microchip/xc32/v4.60/bin/bin/../../lib/gcc/pic32c/8.3.1/../../../../pic32c/lib/thumb/v6-m/nofp\libg-musl.a(putchar.o)
 .ARM.attributes
                0x000000000000156e       0x2e c:/program files/microchip/xc32/v4.60/bin/bin/../../lib/gcc/pic32c/8.3.1/../../../../pic32c/lib/thumb/v6-m/nofp\libg-musl.a(puts.o)
 .ARM.attributes
                0x000000000000159c       0x2e c:/program files/microchip/xc32/v4.60/bin/bin/../../lib/gcc/pic32c/8.3.1/../../../../pic32c/lib/thumb/v6-m/nofp\libg-musl.a(setbuf.o)
 .ARM.attributes
                0x00000000000015ca       0x2e c:/program files/microchip/xc32/v4.60/bin/bin/../../lib/gcc/pic32c/8.3.1/../../../../pic32c/lib/thumb/v6-m/nofp\libg-musl.a(atoi.o)
 .ARM.attributes
                0x00000000000015f8       0x2e c:/program files/microchip/xc32/v4.60/bin/bin/../../lib/gcc/pic32c/8.3.1/../../../../pic32c/lib/thumb/v6-m/nofp\libg-musl.a(gmtime.o)
 .ARM.attributes
                0x0000000000001626       0x2e c:/program files/microchip/xc32/v4.60/bin/bin/../../lib/gcc/pic32c/8.3.1/../../../../pic32c/lib/thumb/v6-m/nofp\libg-musl.a(gmtime_r.o)
 .ARM.attributes
                0x0000000000001654       0x2e c:/program files/microchip/xc32/v4.60/bin/bin/../../lib/gcc/pic32c/8.3.1/../../../../pic32c/lib/thumb/v6-m/nofp\libg-musl.a(mktime.o)
 .ARM.attributes
                0x0000000000001682       0x2e c:/program files/microchip/xc32/v4.60/bin/bin/../../lib/gcc/pic32c/8.3.1/../../../../pic32c/lib/thumb/v6-m/nofp\libg-musl.a(tolower.o)
 .ARM.attributes
                0x00000000000016b0       0x2e c:/program files/microchip/xc32/v4.60/bin/bin/../../lib/gcc/pic32c/8.3.1/../../../../pic32c/lib/thumb/v6-m/nofp\libg-musl.a(toupper.o)
 .ARM.attributes
                0x00000000000016de       0x2e c:/program files/microchip/xc32/v4.60/bin/bin/../../lib/gcc/pic32c/8.3.1/../../../../pic32c/lib/thumb/v6-m/nofp\libg-musl.a(__environ.o)
 .ARM.attributes
                0x000000000000170c       0x2e c:/program files/microchip/xc32/v4.60/bin/bin/../../lib/gcc/pic32c/8.3.1/../../../../pic32c/lib/thumb/v6-m/nofp\libg-musl.a(__int_vfprintf.o)
 .ARM.attributes
                0x000000000000173a       0x2e c:/program files/microchip/xc32/v4.60/bin/bin/../../lib/gcc/pic32c/8.3.1/../../../../pic32c/lib/thumb/v6-m/nofp\libg-musl.a(__int_vsprintf.o)
 .ARM.attributes
                0x0000000000001768       0x2e c:/program files/microchip/xc32/v4.60/bin/bin/../../lib/gcc/pic32c/8.3.1/../../../../pic32c/lib/thumb/v6-m/nofp\libg-musl.a(fputs.o)
 .ARM.attributes
                0x0000000000001796       0x2e c:/program files/microchip/xc32/v4.60/bin/bin/../../lib/gcc/pic32c/8.3.1/../../../../pic32c/lib/thumb/v6-m/nofp\libg-musl.a(__cvt_u.o)
 .ARM.attributes
                0x00000000000017c4       0x2e c:/program files/microchip/xc32/v4.60/bin/bin/../../lib/gcc/pic32c/8.3.1/../../../../pic32c/lib/thumb/v6-m/nofp\libg-musl.a(__stdio_read.o)
 .ARM.attributes
                0x00000000000017f2       0x2e c:/program files/microchip/xc32/v4.60/bin/bin/../../lib/gcc/pic32c/8.3.1/../../../../pic32c/lib/thumb/v6-m/nofp\libg-musl.a(__towrite_rw.o)
 .ARM.attributes
                0x0000000000001820       0x2e c:/program files/microchip/xc32/v4.60/bin/bin/../../lib/gcc/pic32c/8.3.1/../../../../pic32c/lib/thumb/v6-m/nofp\libg-musl.a(fwrite.o)
 .ARM.attributes
                0x000000000000184e       0x2e c:/program files/microchip/xc32/v4.60/bin/bin/../../lib/gcc/pic32c/8.3.1/../../../../pic32c/lib/thumb/v6-m/nofp\libg-musl.a(putc.o)
 .ARM.attributes
                0x000000000000187c       0x2e c:/program files/microchip/xc32/v4.60/bin/bin/../../lib/gcc/pic32c/8.3.1/../../../../pic32c/lib/thumb/v6-m/nofp\libg-musl.a(setvbuf.o)
 .ARM.attributes
                0x00000000000018aa       0x2e c:/program files/microchip/xc32/v4.60/bin/bin/../../lib/gcc/pic32c/8.3.1/../../../../pic32c/lib/thumb/v6-m/nofp\libg-musl.a(__tm_to_secs.o)
 .ARM.attributes
                0x00000000000018d8       0x2e c:/program files/microchip/xc32/v4.60/bin/bin/../../lib/gcc/pic32c/8.3.1/../../../../pic32c/lib/thumb/v6-m/nofp\libg-musl.a(__year_to_secs.o)
 .ARM.attributes
                0x0000000000001906       0x2e c:/program files/microchip/xc32/v4.60/bin/bin/../../lib/gcc/pic32c/8.3.1/../../../../pic32c/lib/thumb/v6-m/nofp\libg-musl.a(__secs_to_tm.o)
 .ARM.attributes
                0x0000000000001934       0x2e c:/program files/microchip/xc32/v4.60/bin/bin/../../lib/gcc/pic32c/8.3.1/../../../../pic32c/lib/thumb/v6-m/nofp\libg-musl.a(readv.o)
 .ARM.attributes
                0x0000000000001962       0x2e c:/program files/microchip/xc32/v4.60/bin/bin/../../lib/gcc/pic32c/8.3.1/../../../../pic32c/lib/thumb/v6-m/nofp\libg-musl.a(__int_vsnprintf.o)
 .ARM.attributes
                0x0000000000001990       0x2e c:/program files/microchip/xc32/v4.60/bin/bin/../../lib/gcc/pic32c/8.3.1/../../../../pic32c/lib/thumb/v6-m/nofp\libg-musl.a(__init_stdio.o)
 .ARM.attributes
                0x00000000000019be       0x2e c:/program files/microchip/xc32/v4.60/bin/bin/../../lib/gcc/pic32c/8.3.1/../../../../pic32c/lib/thumb/v6-m/nofp\libg-musl.a(__out.o)
 .ARM.attributes
                0x00000000000019ec       0x2e c:/program files/microchip/xc32/v4.60/bin/bin/../../lib/gcc/pic32c/8.3.1/../../../../pic32c/lib/thumb/v6-m/nofp\libg-musl.a(__putc.o)
 .ARM.attributes
                0x0000000000001a1a       0x2e c:/program files/microchip/xc32/v4.60/bin/bin/../../lib/gcc/pic32c/8.3.1/../../../../pic32c/lib/thumb/v6-m/nofp\libg-musl.a(__stderr.o)
 .ARM.attributes
                0x0000000000001a48       0x2e c:/program files/microchip/xc32/v4.60/bin/bin/../../lib/gcc/pic32c/8.3.1/../../../../pic32c/lib/thumb/v6-m/nofp\libg-musl.a(__stdio_close.o)
 .ARM.attributes
                0x0000000000001a76       0x2e c:/program files/microchip/xc32/v4.60/bin/bin/../../lib/gcc/pic32c/8.3.1/../../../../pic32c/lib/thumb/v6-m/nofp\libg-musl.a(__stdio_write.o)
 .ARM.attributes
                0x0000000000001aa4       0x2e c:/program files/microchip/xc32/v4.60/bin/bin/../../lib/gcc/pic32c/8.3.1/../../../../pic32c/lib/thumb/v6-m/nofp\libg-musl.a(__stdout.o)
 .ARM.attributes
                0x0000000000001ad2       0x2e c:/program files/microchip/xc32/v4.60/bin/bin/../../lib/gcc/pic32c/8.3.1/../../../../pic32c/lib/thumb/v6-m/nofp\libg-musl.a(__towrite.o)
 .ARM.attributes
                0x0000000000001b00       0x2e c:/program files/microchip/xc32/v4.60/bin/bin/../../lib/gcc/pic32c/8.3.1/../../../../pic32c/lib/thumb/v6-m/nofp\libg-musl.a(__month_to_secs.o)
 .ARM.attributes
                0x0000000000001b2e       0x2e c:/program files/microchip/xc32/v4.60/bin/bin/../../lib/gcc/pic32c/8.3.1/../../../../pic32c/lib/thumb/v6-m/nofp\libg-musl.a(writev.o)
 .ARM.attributes
                0x0000000000001b5c       0x2e c:/program files/microchip/xc32/v4.60/bin/bin/../../lib/gcc/pic32c/8.3.1/../../../../pic32c/lib/thumb/v6-m/nofp\libg-musl.a(__overflow.o)
 .ARM.attributes
                0x0000000000001b8a       0x2e c:/program files/microchip/xc32/v4.60/bin/bin/../../lib/gcc/pic32c/8.3.1/../../../../pic32c/lib/thumb/v6-m/nofp\libg-musl.a(__fwrite.o)
 .ARM.attributes
                0x0000000000001bb8       0x2c c:/program files/microchip/xc32/v4.60/bin/bin/../../lib/gcc/pic32c/8.3.1/../../../../pic32c/lib/thumb/v6-m/nofp\libm-fast-emfloat.a(fma.o)
 .ARM.attributes
                0x0000000000001be4       0x2c c:/program files/microchip/xc32/v4.60/bin/bin/../../lib/gcc/pic32c/8.3.1/../../../../pic32c/lib/thumb/v6-m/nofp\libm-fast-emfloat.a(floor.o)
 .ARM.attributes
                0x0000000000001c10       0x1c c:/program files/microchip/xc32/v4.60/bin/bin/../../lib/gcc/pic32c/8.3.1/../../../../pic32c/lib/thumb/v6-m/nofp\libm-fast-emfloat.a(__aeabi_dcmple.o)
 .ARM.attributes
                0x0000000000001c2c       0x1e c:/program files/microchip/xc32/v4.60/bin/bin/../../lib/gcc/pic32c/8.3.1/thumb/v6-m/nofp\libgcc.a(_udivsi3.o)
 .ARM.attributes
                0x0000000000001c4a       0x1e c:/program files/microchip/xc32/v4.60/bin/bin/../../lib/gcc/pic32c/8.3.1/thumb/v6-m/nofp\libgcc.a(_divsi3.o)
 .ARM.attributes
                0x0000000000001c68       0x1e c:/program files/microchip/xc32/v4.60/bin/bin/../../lib/gcc/pic32c/8.3.1/thumb/v6-m/nofp\libgcc.a(_dvmd_tls.o)
 .ARM.attributes
                0x0000000000001c86       0x1e c:/program files/microchip/xc32/v4.60/bin/bin/../../lib/gcc/pic32c/8.3.1/thumb/v6-m/nofp\libgcc.a(_aeabi_ldivmod.o)
 .ARM.attributes
                0x0000000000001ca4       0x1e c:/program files/microchip/xc32/v4.60/bin/bin/../../lib/gcc/pic32c/8.3.1/thumb/v6-m/nofp\libgcc.a(_aeabi_uldivmod.o)
 .ARM.attributes
                0x0000000000001cc2       0x2c c:/program files/microchip/xc32/v4.60/bin/bin/../../lib/gcc/pic32c/8.3.1/thumb/v6-m/nofp\libgcc.a(_muldi3.o)
 .ARM.attributes
                0x0000000000001cee       0x2c c:/program files/microchip/xc32/v4.60/bin/bin/../../lib/gcc/pic32c/8.3.1/thumb/v6-m/nofp\libgcc.a(_udivmoddi4.o)
 .ARM.attributes
                0x0000000000001d1a       0x2c c:/program files/microchip/xc32/v4.60/bin/bin/../../lib/gcc/pic32c/8.3.1/thumb/v6-m/nofp\libgcc.a(bpabi.o)
 .ARM.attributes
                0x0000000000001d46       0x1e c:/program files/microchip/xc32/v4.60/bin/bin/../../lib/gcc/pic32c/8.3.1/thumb/v6-m/nofp\libgcc.a(_lshrdi3.o)
 .ARM.attributes
                0x0000000000001d64       0x1e c:/program files/microchip/xc32/v4.60/bin/bin/../../lib/gcc/pic32c/8.3.1/thumb/v6-m/nofp\libgcc.a(_ashldi3.o)
 .ARM.attributes
                0x0000000000001d82       0x1e c:/program files/microchip/xc32/v4.60/bin/bin/../../lib/gcc/pic32c/8.3.1/thumb/v6-m/nofp\libgcc.a(_clzdi2.o)
 .ARM.attributes
                0x0000000000001da0       0x2c c:/program files/microchip/xc32/v4.60/bin/bin/../../lib/gcc/pic32c/8.3.1/thumb/v6-m/nofp\libgcc.a(_divdi3.o)
 .ARM.attributes
                0x0000000000001dcc       0x1e c:/program files/microchip/xc32/v4.60/bin/bin/../../lib/gcc/pic32c/8.3.1/thumb/v6-m/nofp\libgcc.a(_clzsi2.o)
 .ARM.attributes
                0x0000000000001dea       0x2c c:/program files/microchip/xc32/v4.60/bin/bin/../../lib/gcc/pic32c/8.3.1/../../../../pic32c/lib/thumb/v6-m/nofp\libpic32c.a(close.o)
 .ARM.attributes
                0x0000000000001e16       0x2c c:/program files/microchip/xc32/v4.60/bin/bin/../../lib/gcc/pic32c/8.3.1/../../../../pic32c/lib/thumb/v6-m/nofp\libpic32c.a(lseek.o)
 .ARM.attributes
                0x0000000000001e42       0x2c c:/program files/microchip/xc32/v4.60/bin/bin/../../lib/gcc/pic32c/8.3.1/../../../../pic32c/lib/thumb/v6-m/nofp\libpic32c.a(sbrk.o)
 .ARM.attributes
                0x0000000000001e6e       0x2e c:/program files/microchip/xc32/v4.60/bin/bin/../../lib/gcc/pic32c/8.3.1/../../../../pic32c/lib/thumb/v6-m/nofp\libc-size-musl.a(strcpy.o)
 .ARM.attributes
                0x0000000000001e9c       0x2e c:/program files/microchip/xc32/v4.60/bin/bin/../../lib/gcc/pic32c/8.3.1/../../../../pic32c/lib/thumb/v6-m/nofp\libc-size-musl.a(stpcpy.o)
 .ARM.attributes
                0x0000000000001eca       0x1e c:/program files/microchip/xc32/v4.60/bin/bin/../../lib/gcc/pic32c/8.3.1/thumb/v6-m/nofp/crtn.o
 .ARM.attributes
                0x0000000000001ee8       0x2c c:/program files/microchip/xc32/v4.60/bin/bin/../../lib/gcc/pic32c/8.3.1/../../../../pic32c/lib/thumb/v6-m/nofp\libpic32c.a(pic32_data_init_clear.o)
 .ARM.attributes
                0x0000000000001f14       0x2c c:/program files/microchip/xc32/v4.60/bin/bin/../../lib/gcc/pic32c/8.3.1/../../../../pic32c/lib/thumb/v6-m/nofp\libpic32c.a(pic32_data_init_copy.o)

.comment        0x0000000000000000       0x2b
 .comment       0x0000000000000000       0x2b c:/program files/microchip/xc32/v4.60/bin/bin/../../lib/gcc/pic32c/8.3.1/thumb/v6-m/nofp/crtbegin.o
                                         0x2c (size before relaxing)
 .comment       0x000000000000002b       0x2c build/SAMD21_IOT_WG_ICM42688/debug/_ext/2048461350/icm42688_sensor.o
 .comment       0x000000000000002b       0x2c build/SAMD21_IOT_WG_ICM42688/debug/_ext/1660664302/drv_spi.o
 .comment       0x000000000000002b       0x2c build/SAMD21_IOT_WG_ICM42688/debug/_ext/1164161090/wdrv_winc_gpio.o
 .comment       0x000000000000002b       0x2c build/SAMD21_IOT_WG_ICM42688/debug/_ext/1164161090/wdrv_winc_eint.o
 .comment       0x000000000000002b       0x2c build/SAMD21_IOT_WG_ICM42688/debug/_ext/101005277/wdrv_winc_spi.o
 .comment       0x000000000000002b       0x2c build/SAMD21_IOT_WG_ICM42688/debug/_ext/90265895/nm_common.o
 .comment       0x000000000000002b       0x2c build/SAMD21_IOT_WG_ICM42688/debug/_ext/121554788/m2m_ssl.o
 .comment       0x000000000000002b       0x2c build/SAMD21_IOT_WG_ICM42688/debug/_ext/121554788/m2m_hif.o
 .comment       0x000000000000002b       0x2c build/SAMD21_IOT_WG_ICM42688/debug/_ext/121554788/m2m_wifi.o
 .comment       0x000000000000002b       0x2c build/SAMD21_IOT_WG_ICM42688/debug/_ext/121554788/nmspi.o
 .comment       0x000000000000002b       0x2c build/SAMD21_IOT_WG_ICM42688/debug/_ext/121554788/nmdrv.o
 .comment       0x000000000000002b       0x2c build/SAMD21_IOT_WG_ICM42688/debug/_ext/121554788/m2m_ota.o
 .comment       0x000000000000002b       0x2c build/SAMD21_IOT_WG_ICM42688/debug/_ext/121554788/nmasic.o
 .comment       0x000000000000002b       0x2c build/SAMD21_IOT_WG_ICM42688/debug/_ext/121554788/nmbus.o
 .comment       0x000000000000002b       0x2c build/SAMD21_IOT_WG_ICM42688/debug/_ext/548032175/socket.o
 .comment       0x000000000000002b       0x2c build/SAMD21_IOT_WG_ICM42688/debug/_ext/609036575/flexible_flash.o
 .comment       0x000000000000002b       0x2c build/SAMD21_IOT_WG_ICM42688/debug/_ext/609036575/spi_flash.o
 .comment       0x000000000000002b       0x2c build/SAMD21_IOT_WG_ICM42688/debug/_ext/1784303044/wdrv_winc_osal.o
 .comment       0x000000000000002b       0x2c build/SAMD21_IOT_WG_ICM42688/debug/_ext/907429946/wdrv_winc_systime.o
 .comment       0x000000000000002b       0x2c build/SAMD21_IOT_WG_ICM42688/debug/_ext/907429946/wdrv_winc_authctx.o
 .comment       0x000000000000002b       0x2c build/SAMD21_IOT_WG_ICM42688/debug/_ext/907429946/wdrv_winc_host_file.o
 .comment       0x000000000000002b       0x2c build/SAMD21_IOT_WG_ICM42688/debug/_ext/907429946/wdrv_winc.o
 .comment       0x000000000000002b       0x2c build/SAMD21_IOT_WG_ICM42688/debug/_ext/907429946/wdrv_winc_bssctx.o
 .comment       0x000000000000002b       0x2c build/SAMD21_IOT_WG_ICM42688/debug/_ext/1750425231/plib_clock.o
 .comment       0x000000000000002b       0x2c build/SAMD21_IOT_WG_ICM42688/debug/_ext/1580516298/plib_dmac.o
 .comment       0x000000000000002b       0x2c build/SAMD21_IOT_WG_ICM42688/debug/_ext/503204096/plib_eic.o
 .comment       0x000000000000002b       0x2c build/SAMD21_IOT_WG_ICM42688/debug/_ext/1580823105/plib_nvic.o
 .comment       0x000000000000002b       0x2c build/SAMD21_IOT_WG_ICM42688/debug/_ext/11470383/plib_nvmctrl.o
 .comment       0x000000000000002b       0x2c build/SAMD21_IOT_WG_ICM42688/debug/_ext/1580876256/plib_port.o
 .comment       0x000000000000002b       0x2c build/SAMD21_IOT_WG_ICM42688/debug/_ext/1014017276/plib_sercom0_spi_master.o
 .comment       0x000000000000002b       0x2c build/SAMD21_IOT_WG_ICM42688/debug/_ext/1014017276/plib_sercom2_spi_master.o
 .comment       0x000000000000002b       0x2c build/SAMD21_IOT_WG_ICM42688/debug/_ext/177673482/plib_sercom5_usart.o
 .comment       0x000000000000002b       0x2c build/SAMD21_IOT_WG_ICM42688/debug/_ext/223004715/plib_systick.o
 .comment       0x000000000000002b       0x2c build/SAMD21_IOT_WG_ICM42688/debug/_ext/399410062/plib_tc3.o
 .comment       0x000000000000002b       0x2c build/SAMD21_IOT_WG_ICM42688/debug/_ext/399410062/plib_tc4.o
 .comment       0x000000000000002b       0x2c build/SAMD21_IOT_WG_ICM42688/debug/_ext/1357625803/xc32_monitor.o
 .comment       0x000000000000002b       0x2c build/SAMD21_IOT_WG_ICM42688/debug/_ext/1584719636/sys_dma.o
 .comment       0x000000000000002b       0x2c build/SAMD21_IOT_WG_ICM42688/debug/_ext/1318297016/sys_int.o
 .comment       0x000000000000002b       0x2c build/SAMD21_IOT_WG_ICM42688/debug/_ext/386530258/sys_time.o
 .comment       0x000000000000002b       0x2c build/SAMD21_IOT_WG_ICM42688/debug/_ext/1832905403/initialization.o
 .comment       0x000000000000002b       0x2c build/SAMD21_IOT_WG_ICM42688/debug/_ext/1832905403/interrupts.o
 .comment       0x000000000000002b       0x2c build/SAMD21_IOT_WG_ICM42688/debug/_ext/1832905403/exceptions.o
 .comment       0x000000000000002b       0x2c build/SAMD21_IOT_WG_ICM42688/debug/_ext/1832905403/startup_xc32.o
 .comment       0x000000000000002b       0x2c build/SAMD21_IOT_WG_ICM42688/debug/_ext/1832905403/tasks.o
 .comment       0x000000000000002b       0x2c build/SAMD21_IOT_WG_ICM42688/debug/_ext/1341251756/Icm426xxDriver_HL.o
 .comment       0x000000000000002b       0x2c build/SAMD21_IOT_WG_ICM42688/debug/_ext/1341251756/Icm426xxTransport.o
 .comment       0x000000000000002b       0x2c build/SAMD21_IOT_WG_ICM42688/debug/_ext/1360937237/main.o
 .comment       0x000000000000002b       0x2c build/SAMD21_IOT_WG_ICM42688/debug/_ext/1360937237/ringbuffer.o
 .comment       0x000000000000002b       0x2c build/SAMD21_IOT_WG_ICM42688/debug/_ext/1360937237/app.o
 .comment       0x000000000000002b       0x2c build/SAMD21_IOT_WG_ICM42688/debug/_ext/1360937237/ws2812.o
 .comment       0x000000000000002b       0x2c build/SAMD21_IOT_WG_ICM42688/debug/_ext/431689064/sml_recognition_run.o
 .comment       0x000000000000002b       0x2c build/SAMD21_IOT_WG_ICM42688/debug/_ext/336238826/dsp_dtw_distance.o
 .comment       0x000000000000002b       0x2c build/SAMD21_IOT_WG_ICM42688/debug/_ext/336238826/dsp_l1_distance.o
 .comment       0x000000000000002b       0x2c build/SAMD21_IOT_WG_ICM42688/debug/_ext/336238826/dsp_lsup_distance.o
 .comment       0x000000000000002b       0x2c build/SAMD21_IOT_WG_ICM42688/debug/_ext/336238826/fg_amplitude_peak_to_peak.o
 .comment       0x000000000000002b       0x2c build/SAMD21_IOT_WG_ICM42688/debug/_ext/336238826/fg_cross_mean_difference.o
 .comment       0x000000000000002b       0x2c build/SAMD21_IOT_WG_ICM42688/debug/_ext/336238826/fg_cross_p2p_difference.o
 .comment       0x000000000000002b       0x2c build/SAMD21_IOT_WG_ICM42688/debug/_ext/336238826/fg_cross_peak_location_difference.o
 .comment       0x000000000000002b       0x2c build/SAMD21_IOT_WG_ICM42688/debug/_ext/336238826/fg_stats_minimum.o
 .comment       0x000000000000002b       0x2c build/SAMD21_IOT_WG_ICM42688/debug/_ext/336238826/kb.o
 .comment       0x000000000000002b       0x2c build/SAMD21_IOT_WG_ICM42688/debug/_ext/336238826/kb_output.o
 .comment       0x000000000000002b       0x2c build/SAMD21_IOT_WG_ICM42688/debug/_ext/336238826/kb_pipeline.o
 .comment       0x000000000000002b       0x2c build/SAMD21_IOT_WG_ICM42688/debug/_ext/336238826/mean.o
 .comment       0x000000000000002b       0x2c build/SAMD21_IOT_WG_ICM42688/debug/_ext/336238826/pme.o
 .comment       0x000000000000002b       0x2c build/SAMD21_IOT_WG_ICM42688/debug/_ext/336238826/pme_trained_neurons.o
 .comment       0x000000000000002b       0x2c build/SAMD21_IOT_WG_ICM42688/debug/_ext/336238826/rb.o
 .comment       0x000000000000002b       0x2c build/SAMD21_IOT_WG_ICM42688/debug/_ext/336238826/save_sensor_data.o
 .comment       0x000000000000002b       0x2c build/SAMD21_IOT_WG_ICM42688/debug/_ext/336238826/sf_downsample_by_averaging.o
 .comment       0x000000000000002b       0x2c build/SAMD21_IOT_WG_ICM42688/debug/_ext/336238826/sg_windowing.o
 .comment       0x000000000000002b       0x2c build/SAMD21_IOT_WG_ICM42688/debug/_ext/336238826/sortarray.o
 .comment       0x000000000000002b       0x2c build/SAMD21_IOT_WG_ICM42688/debug/_ext/336238826/sorted_copy.o
 .comment       0x000000000000002b       0x2c build/SAMD21_IOT_WG_ICM42688/debug/_ext/336238826/tr_min_max_scale.o
 .comment       0x000000000000002b       0x2c build/SAMD21_IOT_WG_ICM42688/debug/_ext/336238826/utils_array_max_uint8.o
 .comment       0x000000000000002b       0x2c build/SAMD21_IOT_WG_ICM42688/debug/_ext/336238826/utils_bitwise_abs_val.o
 .comment       0x000000000000002b       0x2c build/SAMD21_IOT_WG_ICM42688/debug/_ext/336238826/utils_buffer_argmax.o
 .comment       0x000000000000002b       0x2c build/SAMD21_IOT_WG_ICM42688/debug/_ext/336238826/utils_buffer_min_max.o
 .comment       0x000000000000002b       0x2c build/SAMD21_IOT_WG_ICM42688/debug/_ext/336238826/utils_model_cross_difference.o
 .comment       0x000000000000002b       0x2c build/SAMD21_IOT_WG_ICM42688/debug/_ext/336238826/utils_model_stats_max_min.o
 .comment       0x000000000000002b       0x2c build/SAMD21_IOT_WG_ICM42688/debug/_ext/336238826/utils_tr_sensor.o
 .comment       0x000000000000002b       0x2c c:/program files/microchip/xc32/v4.60/bin/bin/../../lib/gcc/pic32c/8.3.1/../../../../pic32c/lib/thumb/v6-m/nofp\libpic32c.a(data_init.o)
 .comment       0x000000000000002b       0x2c c:/program files/microchip/xc32/v4.60/bin/bin/../../lib/gcc/pic32c/8.3.1/../../../../pic32c/lib/thumb/v6-m/nofp\libc-size-musl.a(memcpy.o)
 .comment       0x000000000000002b       0x2c c:/program files/microchip/xc32/v4.60/bin/bin/../../lib/gcc/pic32c/8.3.1/../../../../pic32c/lib/thumb/v6-m/nofp\libc-size-musl.a(memset.o)
 .comment       0x000000000000002b       0x2c c:/program files/microchip/xc32/v4.60/bin/bin/../../lib/gcc/pic32c/8.3.1/../../../../pic32c/lib/thumb/v6-m/nofp\libc-size-musl.a(strlen.o)
 .comment       0x000000000000002b       0x2c c:/program files/microchip/xc32/v4.60/bin/bin/../../lib/gcc/pic32c/8.3.1/../../../../pic32c/lib/thumb/v6-m/nofp\libc-size-musl.a(strchr.o)
 .comment       0x000000000000002b       0x2c c:/program files/microchip/xc32/v4.60/bin/bin/../../lib/gcc/pic32c/8.3.1/../../../../pic32c/lib/thumb/v6-m/nofp\libc-size-musl.a(strchrnul.o)
 .comment       0x000000000000002b       0x2c c:/program files/microchip/xc32/v4.60/bin/bin/../../lib/gcc/pic32c/8.3.1/../../../../pic32c/lib/thumb/v6-m/nofp\libc-size-musl.a(strnlen.o)
 .comment       0x000000000000002b       0x2c c:/program files/microchip/xc32/v4.60/bin/bin/../../lib/gcc/pic32c/8.3.1/../../../../pic32c/lib/thumb/v6-m/nofp\libc-size-musl.a(memchr.o)
 .comment       0x000000000000002b       0x2c c:/program files/microchip/xc32/v4.60/bin/bin/../../lib/gcc/pic32c/8.3.1/../../../../pic32c/lib/thumb/v6-m/nofp\liblmalloc-musl.a(lite_free.o)
 .comment       0x000000000000002b       0x2c c:/program files/microchip/xc32/v4.60/bin/bin/../../lib/gcc/pic32c/8.3.1/../../../../pic32c/lib/thumb/v6-m/nofp\liblmalloc-musl.a(lite_malloc.o)
 .comment       0x000000000000002b       0x2c c:/program files/microchip/xc32/v4.60/bin/bin/../../lib/gcc/pic32c/8.3.1/../../../../pic32c/lib/thumb/v6-m/nofp\libg-musl.a(__libc_start_main.o)
 .comment       0x000000000000002b       0x2c c:/program files/microchip/xc32/v4.60/bin/bin/../../lib/gcc/pic32c/8.3.1/../../../../pic32c/lib/thumb/v6-m/nofp\libg-musl.a(__errno_location.o)
 .comment       0x000000000000002b       0x2c c:/program files/microchip/xc32/v4.60/bin/bin/../../lib/gcc/pic32c/8.3.1/../../../../pic32c/lib/thumb/v6-m/nofp\libg-musl.a(libc.o)
 .comment       0x000000000000002b       0x2c c:/program files/microchip/xc32/v4.60/bin/bin/../../lib/gcc/pic32c/8.3.1/../../../../pic32c/lib/thumb/v6-m/nofp\libg-musl.a(expand_heap.o)
 .comment       0x000000000000002b       0x2c c:/program files/microchip/xc32/v4.60/bin/bin/../../lib/gcc/pic32c/8.3.1/../../../../pic32c/lib/thumb/v6-m/nofp\libg-musl.a(__sio_printf_cdeEfFgGnpsuxX.o)
 .comment       0x000000000000002b       0x2c c:/program files/microchip/xc32/v4.60/bin/bin/../../lib/gcc/pic32c/8.3.1/../../../../pic32c/lib/thumb/v6-m/nofp\libg-musl.a(__sio_sprintf_cdeEfFgGnpsuxX.o)
 .comment       0x000000000000002b       0x2c c:/program files/microchip/xc32/v4.60/bin/bin/../../lib/gcc/pic32c/8.3.1/../../../../pic32c/lib/thumb/v6-m/nofp\libg-musl.a(__fmt_d.o)
 .comment       0x000000000000002b       0x2c c:/program files/microchip/xc32/v4.60/bin/bin/../../lib/gcc/pic32c/8.3.1/../../../../pic32c/lib/thumb/v6-m/nofp\libg-musl.a(__fmt_fp.o)
 .comment       0x000000000000002b       0x2c c:/program files/microchip/xc32/v4.60/bin/bin/../../lib/gcc/pic32c/8.3.1/../../../../pic32c/lib/thumb/v6-m/nofp\libg-musl.a(__fmt_s.o)
 .comment       0x000000000000002b       0x2c c:/program files/microchip/xc32/v4.60/bin/bin/../../lib/gcc/pic32c/8.3.1/../../../../pic32c/lib/thumb/v6-m/nofp\libg-musl.a(__fmt_u.o)
 .comment       0x000000000000002b       0x2c c:/program files/microchip/xc32/v4.60/bin/bin/../../lib/gcc/pic32c/8.3.1/../../../../pic32c/lib/thumb/v6-m/nofp\libg-musl.a(__fmt_x.o)
 .comment       0x000000000000002b       0x2c c:/program files/microchip/xc32/v4.60/bin/bin/../../lib/gcc/pic32c/8.3.1/../../../../pic32c/lib/thumb/v6-m/nofp\libg-musl.a(__pop_float.o)
 .comment       0x000000000000002b       0x2c c:/program files/microchip/xc32/v4.60/bin/bin/../../lib/gcc/pic32c/8.3.1/../../../../pic32c/lib/thumb/v6-m/nofp\libg-musl.a(__pop_int.o)
 .comment       0x000000000000002b       0x2c c:/program files/microchip/xc32/v4.60/bin/bin/../../lib/gcc/pic32c/8.3.1/../../../../pic32c/lib/thumb/v6-m/nofp\libg-musl.a(__pop_ptr.o)
 .comment       0x000000000000002b       0x2c c:/program files/microchip/xc32/v4.60/bin/bin/../../lib/gcc/pic32c/8.3.1/../../../../pic32c/lib/thumb/v6-m/nofp\libg-musl.a(__printf_core.o)
 .comment       0x000000000000002b       0x2c c:/program files/microchip/xc32/v4.60/bin/bin/../../lib/gcc/pic32c/8.3.1/../../../../pic32c/lib/thumb/v6-m/nofp\libg-musl.a(stdin.o)
 .comment       0x000000000000002b       0x2c c:/program files/microchip/xc32/v4.60/bin/bin/../../lib/gcc/pic32c/8.3.1/../../../../pic32c/lib/thumb/v6-m/nofp\libg-musl.a(stdout.o)
 .comment       0x000000000000002b       0x2c c:/program files/microchip/xc32/v4.60/bin/bin/../../lib/gcc/pic32c/8.3.1/../../../../pic32c/lib/thumb/v6-m/nofp\libg-musl.a(putchar.o)
 .comment       0x000000000000002b       0x2c c:/program files/microchip/xc32/v4.60/bin/bin/../../lib/gcc/pic32c/8.3.1/../../../../pic32c/lib/thumb/v6-m/nofp\libg-musl.a(puts.o)
 .comment       0x000000000000002b       0x2c c:/program files/microchip/xc32/v4.60/bin/bin/../../lib/gcc/pic32c/8.3.1/../../../../pic32c/lib/thumb/v6-m/nofp\libg-musl.a(setbuf.o)
 .comment       0x000000000000002b       0x2c c:/program files/microchip/xc32/v4.60/bin/bin/../../lib/gcc/pic32c/8.3.1/../../../../pic32c/lib/thumb/v6-m/nofp\libg-musl.a(atoi.o)
 .comment       0x000000000000002b       0x2c c:/program files/microchip/xc32/v4.60/bin/bin/../../lib/gcc/pic32c/8.3.1/../../../../pic32c/lib/thumb/v6-m/nofp\libg-musl.a(gmtime.o)
 .comment       0x000000000000002b       0x2c c:/program files/microchip/xc32/v4.60/bin/bin/../../lib/gcc/pic32c/8.3.1/../../../../pic32c/lib/thumb/v6-m/nofp\libg-musl.a(gmtime_r.o)
 .comment       0x000000000000002b       0x2c c:/program files/microchip/xc32/v4.60/bin/bin/../../lib/gcc/pic32c/8.3.1/../../../../pic32c/lib/thumb/v6-m/nofp\libg-musl.a(mktime.o)
 .comment       0x000000000000002b       0x2c c:/program files/microchip/xc32/v4.60/bin/bin/../../lib/gcc/pic32c/8.3.1/../../../../pic32c/lib/thumb/v6-m/nofp\libg-musl.a(tolower.o)
 .comment       0x000000000000002b       0x2c c:/program files/microchip/xc32/v4.60/bin/bin/../../lib/gcc/pic32c/8.3.1/../../../../pic32c/lib/thumb/v6-m/nofp\libg-musl.a(toupper.o)
 .comment       0x000000000000002b       0x2c c:/program files/microchip/xc32/v4.60/bin/bin/../../lib/gcc/pic32c/8.3.1/../../../../pic32c/lib/thumb/v6-m/nofp\libg-musl.a(__environ.o)
 .comment       0x000000000000002b       0x2c c:/program files/microchip/xc32/v4.60/bin/bin/../../lib/gcc/pic32c/8.3.1/../../../../pic32c/lib/thumb/v6-m/nofp\libg-musl.a(__int_vfprintf.o)
 .comment       0x000000000000002b       0x2c c:/program files/microchip/xc32/v4.60/bin/bin/../../lib/gcc/pic32c/8.3.1/../../../../pic32c/lib/thumb/v6-m/nofp\libg-musl.a(__int_vsprintf.o)
 .comment       0x000000000000002b       0x2c c:/program files/microchip/xc32/v4.60/bin/bin/../../lib/gcc/pic32c/8.3.1/../../../../pic32c/lib/thumb/v6-m/nofp\libg-musl.a(fputs.o)
 .comment       0x000000000000002b       0x2c c:/program files/microchip/xc32/v4.60/bin/bin/../../lib/gcc/pic32c/8.3.1/../../../../pic32c/lib/thumb/v6-m/nofp\libg-musl.a(__cvt_u.o)
 .comment       0x000000000000002b       0x2c c:/program files/microchip/xc32/v4.60/bin/bin/../../lib/gcc/pic32c/8.3.1/../../../../pic32c/lib/thumb/v6-m/nofp\libg-musl.a(__stdio_read.o)
 .comment       0x000000000000002b       0x2c c:/program files/microchip/xc32/v4.60/bin/bin/../../lib/gcc/pic32c/8.3.1/../../../../pic32c/lib/thumb/v6-m/nofp\libg-musl.a(__towrite_rw.o)
 .comment       0x000000000000002b       0x2c c:/program files/microchip/xc32/v4.60/bin/bin/../../lib/gcc/pic32c/8.3.1/../../../../pic32c/lib/thumb/v6-m/nofp\libg-musl.a(fwrite.o)
 .comment       0x000000000000002b       0x2c c:/program files/microchip/xc32/v4.60/bin/bin/../../lib/gcc/pic32c/8.3.1/../../../../pic32c/lib/thumb/v6-m/nofp\libg-musl.a(putc.o)
 .comment       0x000000000000002b       0x2c c:/program files/microchip/xc32/v4.60/bin/bin/../../lib/gcc/pic32c/8.3.1/../../../../pic32c/lib/thumb/v6-m/nofp\libg-musl.a(setvbuf.o)
 .comment       0x000000000000002b       0x2c c:/program files/microchip/xc32/v4.60/bin/bin/../../lib/gcc/pic32c/8.3.1/../../../../pic32c/lib/thumb/v6-m/nofp\libg-musl.a(__tm_to_secs.o)
 .comment       0x000000000000002b       0x2c c:/program files/microchip/xc32/v4.60/bin/bin/../../lib/gcc/pic32c/8.3.1/../../../../pic32c/lib/thumb/v6-m/nofp\libg-musl.a(__year_to_secs.o)
 .comment       0x000000000000002b       0x2c c:/program files/microchip/xc32/v4.60/bin/bin/../../lib/gcc/pic32c/8.3.1/../../../../pic32c/lib/thumb/v6-m/nofp\libg-musl.a(__secs_to_tm.o)
 .comment       0x000000000000002b       0x2c c:/program files/microchip/xc32/v4.60/bin/bin/../../lib/gcc/pic32c/8.3.1/../../../../pic32c/lib/thumb/v6-m/nofp\libg-musl.a(readv.o)
 .comment       0x000000000000002b       0x2c c:/program files/microchip/xc32/v4.60/bin/bin/../../lib/gcc/pic32c/8.3.1/../../../../pic32c/lib/thumb/v6-m/nofp\libg-musl.a(__int_vsnprintf.o)
 .comment       0x000000000000002b       0x2c c:/program files/microchip/xc32/v4.60/bin/bin/../../lib/gcc/pic32c/8.3.1/../../../../pic32c/lib/thumb/v6-m/nofp\libg-musl.a(__init_stdio.o)
 .comment       0x000000000000002b       0x2c c:/program files/microchip/xc32/v4.60/bin/bin/../../lib/gcc/pic32c/8.3.1/../../../../pic32c/lib/thumb/v6-m/nofp\libg-musl.a(__out.o)
 .comment       0x000000000000002b       0x2c c:/program files/microchip/xc32/v4.60/bin/bin/../../lib/gcc/pic32c/8.3.1/../../../../pic32c/lib/thumb/v6-m/nofp\libg-musl.a(__putc.o)
 .comment       0x000000000000002b       0x2c c:/program files/microchip/xc32/v4.60/bin/bin/../../lib/gcc/pic32c/8.3.1/../../../../pic32c/lib/thumb/v6-m/nofp\libg-musl.a(__stderr.o)
 .comment       0x000000000000002b       0x2c c:/program files/microchip/xc32/v4.60/bin/bin/../../lib/gcc/pic32c/8.3.1/../../../../pic32c/lib/thumb/v6-m/nofp\libg-musl.a(__stdio_close.o)
 .comment       0x000000000000002b       0x2c c:/program files/microchip/xc32/v4.60/bin/bin/../../lib/gcc/pic32c/8.3.1/../../../../pic32c/lib/thumb/v6-m/nofp\libg-musl.a(__stdio_write.o)
 .comment       0x000000000000002b       0x2c c:/program files/microchip/xc32/v4.60/bin/bin/../../lib/gcc/pic32c/8.3.1/../../../../pic32c/lib/thumb/v6-m/nofp\libg-musl.a(__stdout.o)
 .comment       0x000000000000002b       0x2c c:/program files/microchip/xc32/v4.60/bin/bin/../../lib/gcc/pic32c/8.3.1/../../../../pic32c/lib/thumb/v6-m/nofp\libg-musl.a(__towrite.o)
 .comment       0x000000000000002b       0x2c c:/program files/microchip/xc32/v4.60/bin/bin/../../lib/gcc/pic32c/8.3.1/../../../../pic32c/lib/thumb/v6-m/nofp\libg-musl.a(__month_to_secs.o)
 .comment       0x000000000000002b       0x2c c:/program files/microchip/xc32/v4.60/bin/bin/../../lib/gcc/pic32c/8.3.1/../../../../pic32c/lib/thumb/v6-m/nofp\libg-musl.a(writev.o)
 .comment       0x000000000000002b       0x2c c:/program files/microchip/xc32/v4.60/bin/bin/../../lib/gcc/pic32c/8.3.1/../../../../pic32c/lib/thumb/v6-m/nofp\libg-musl.a(__overflow.o)
 .comment       0x000000000000002b       0x2c c:/program files/microchip/xc32/v4.60/bin/bin/../../lib/gcc/pic32c/8.3.1/../../../../pic32c/lib/thumb/v6-m/nofp\libg-musl.a(__fwrite.o)
 .comment       0x000000000000002b       0x2c c:/program files/microchip/xc32/v4.60/bin/bin/../../lib/gcc/pic32c/8.3.1/../../../../pic32c/lib/thumb/v6-m/nofp\libm-fast-emfloat.a(fma.o)
 .comment       0x000000000000002b       0x2c c:/program files/microchip/xc32/v4.60/bin/bin/../../lib/gcc/pic32c/8.3.1/../../../../pic32c/lib/thumb/v6-m/nofp\libm-fast-emfloat.a(floor.o)
 .comment       0x000000000000002b       0x2c c:/program files/microchip/xc32/v4.60/bin/bin/../../lib/gcc/pic32c/8.3.1/thumb/v6-m/nofp\libgcc.a(_muldi3.o)
 .comment       0x000000000000002b       0x2c c:/program files/microchip/xc32/v4.60/bin/bin/../../lib/gcc/pic32c/8.3.1/thumb/v6-m/nofp\libgcc.a(_udivmoddi4.o)
 .comment       0x000000000000002b       0x2c c:/program files/microchip/xc32/v4.60/bin/bin/../../lib/gcc/pic32c/8.3.1/thumb/v6-m/nofp\libgcc.a(bpabi.o)
 .comment       0x000000000000002b       0x2c c:/program files/microchip/xc32/v4.60/bin/bin/../../lib/gcc/pic32c/8.3.1/thumb/v6-m/nofp\libgcc.a(_divdi3.o)
 .comment       0x000000000000002b       0x2c c:/program files/microchip/xc32/v4.60/bin/bin/../../lib/gcc/pic32c/8.3.1/../../../../pic32c/lib/thumb/v6-m/nofp\libpic32c.a(close.o)
 .comment       0x000000000000002b       0x2c c:/program files/microchip/xc32/v4.60/bin/bin/../../lib/gcc/pic32c/8.3.1/../../../../pic32c/lib/thumb/v6-m/nofp\libpic32c.a(lseek.o)
 .comment       0x000000000000002b       0x2c c:/program files/microchip/xc32/v4.60/bin/bin/../../lib/gcc/pic32c/8.3.1/../../../../pic32c/lib/thumb/v6-m/nofp\libpic32c.a(sbrk.o)
 .comment       0x000000000000002b       0x2c c:/program files/microchip/xc32/v4.60/bin/bin/../../lib/gcc/pic32c/8.3.1/../../../../pic32c/lib/thumb/v6-m/nofp\libc-size-musl.a(strcpy.o)
 .comment       0x000000000000002b       0x2c c:/program files/microchip/xc32/v4.60/bin/bin/../../lib/gcc/pic32c/8.3.1/../../../../pic32c/lib/thumb/v6-m/nofp\libc-size-musl.a(stpcpy.o)
 .comment       0x000000000000002b       0x2c c:/program files/microchip/xc32/v4.60/bin/bin/../../lib/gcc/pic32c/8.3.1/../../../../pic32c/lib/thumb/v6-m/nofp\libpic32c.a(pic32_data_init_clear.o)
 .comment       0x000000000000002b       0x2c c:/program files/microchip/xc32/v4.60/bin/bin/../../lib/gcc/pic32c/8.3.1/../../../../pic32c/lib/thumb/v6-m/nofp\libpic32c.a(pic32_data_init_copy.o)

.debug_info     0x0000000000000000    0x35811
 .debug_info    0x0000000000000000      0xb62 build/SAMD21_IOT_WG_ICM42688/debug/_ext/2048461350/icm42688_sensor.o
 .debug_info    0x0000000000000b62     0x1d51 build/SAMD21_IOT_WG_ICM42688/debug/_ext/1660664302/drv_spi.o
 .debug_info    0x00000000000028b3      0x2b0 build/SAMD21_IOT_WG_ICM42688/debug/_ext/1164161090/wdrv_winc_gpio.o
 .debug_info    0x0000000000002b63      0x101 build/SAMD21_IOT_WG_ICM42688/debug/_ext/1164161090/wdrv_winc_eint.o
 .debug_info    0x0000000000002c64      0xa39 build/SAMD21_IOT_WG_ICM42688/debug/_ext/101005277/wdrv_winc_spi.o
 .debug_info    0x000000000000369d       0xd3 build/SAMD21_IOT_WG_ICM42688/debug/_ext/90265895/nm_common.o
 .debug_info    0x0000000000003770      0x95f build/SAMD21_IOT_WG_ICM42688/debug/_ext/121554788/m2m_ssl.o
 .debug_info    0x00000000000040cf      0xaa0 build/SAMD21_IOT_WG_ICM42688/debug/_ext/121554788/m2m_hif.o
 .debug_info    0x0000000000004b6f     0x3ae8 build/SAMD21_IOT_WG_ICM42688/debug/_ext/121554788/m2m_wifi.o
 .debug_info    0x0000000000008657      0xc30 build/SAMD21_IOT_WG_ICM42688/debug/_ext/121554788/nmspi.o
 .debug_info    0x0000000000009287      0x532 build/SAMD21_IOT_WG_ICM42688/debug/_ext/121554788/nmdrv.o
 .debug_info    0x00000000000097b9      0xe11 build/SAMD21_IOT_WG_ICM42688/debug/_ext/121554788/m2m_ota.o
 .debug_info    0x000000000000a5ca      0x88d build/SAMD21_IOT_WG_ICM42688/debug/_ext/121554788/nmasic.o
 .debug_info    0x000000000000ae57      0x465 build/SAMD21_IOT_WG_ICM42688/debug/_ext/121554788/nmbus.o
 .debug_info    0x000000000000b2bc     0x1bf3 build/SAMD21_IOT_WG_ICM42688/debug/_ext/548032175/socket.o
 .debug_info    0x000000000000ceaf      0x17a build/SAMD21_IOT_WG_ICM42688/debug/_ext/609036575/flexible_flash.o
 .debug_info    0x000000000000d029      0x75d build/SAMD21_IOT_WG_ICM42688/debug/_ext/609036575/spi_flash.o
 .debug_info    0x000000000000d786       0xfd build/SAMD21_IOT_WG_ICM42688/debug/_ext/1784303044/wdrv_winc_osal.o
 .debug_info    0x000000000000d883     0x13ea build/SAMD21_IOT_WG_ICM42688/debug/_ext/907429946/wdrv_winc_systime.o
 .debug_info    0x000000000000ec6d      0x8fe build/SAMD21_IOT_WG_ICM42688/debug/_ext/907429946/wdrv_winc_authctx.o
 .debug_info    0x000000000000f56b     0x1973 build/SAMD21_IOT_WG_ICM42688/debug/_ext/907429946/wdrv_winc_host_file.o
 .debug_info    0x0000000000010ede     0x3468 build/SAMD21_IOT_WG_ICM42688/debug/_ext/907429946/wdrv_winc.o
 .debug_info    0x0000000000014346      0x43f build/SAMD21_IOT_WG_ICM42688/debug/_ext/907429946/wdrv_winc_bssctx.o
 .debug_info    0x0000000000014785      0x583 build/SAMD21_IOT_WG_ICM42688/debug/_ext/1750425231/plib_clock.o
 .debug_info    0x0000000000014d08      0xaf1 build/SAMD21_IOT_WG_ICM42688/debug/_ext/1580516298/plib_dmac.o
 .debug_info    0x00000000000157f9      0x345 build/SAMD21_IOT_WG_ICM42688/debug/_ext/503204096/plib_eic.o
 .debug_info    0x0000000000015b3e      0x673 build/SAMD21_IOT_WG_ICM42688/debug/_ext/1580823105/plib_nvic.o
 .debug_info    0x00000000000161b1      0x50d build/SAMD21_IOT_WG_ICM42688/debug/_ext/11470383/plib_nvmctrl.o
 .debug_info    0x00000000000166be      0x67a build/SAMD21_IOT_WG_ICM42688/debug/_ext/1580876256/plib_port.o
 .debug_info    0x0000000000016d38      0xc60 build/SAMD21_IOT_WG_ICM42688/debug/_ext/1014017276/plib_sercom0_spi_master.o
 .debug_info    0x0000000000017998      0xe64 build/SAMD21_IOT_WG_ICM42688/debug/_ext/1014017276/plib_sercom2_spi_master.o
 .debug_info    0x00000000000187fc      0xe5d build/SAMD21_IOT_WG_ICM42688/debug/_ext/177673482/plib_sercom5_usart.o
 .debug_info    0x0000000000019659      0x2f4 build/SAMD21_IOT_WG_ICM42688/debug/_ext/223004715/plib_systick.o
 .debug_info    0x000000000001994d      0x76f build/SAMD21_IOT_WG_ICM42688/debug/_ext/399410062/plib_tc3.o
 .debug_info    0x000000000001a0bc      0x79a build/SAMD21_IOT_WG_ICM42688/debug/_ext/399410062/plib_tc4.o
 .debug_info    0x000000000001a856      0x159 build/SAMD21_IOT_WG_ICM42688/debug/_ext/1357625803/xc32_monitor.o
 .debug_info    0x000000000001a9af      0x25b build/SAMD21_IOT_WG_ICM42688/debug/_ext/1584719636/sys_dma.o
 .debug_info    0x000000000001ac0a      0x445 build/SAMD21_IOT_WG_ICM42688/debug/_ext/1318297016/sys_int.o
 .debug_info    0x000000000001b04f     0x1495 build/SAMD21_IOT_WG_ICM42688/debug/_ext/386530258/sys_time.o
 .debug_info    0x000000000001c4e4     0x1887 build/SAMD21_IOT_WG_ICM42688/debug/_ext/1832905403/initialization.o
 .debug_info    0x000000000001dd6b      0x3e1 build/SAMD21_IOT_WG_ICM42688/debug/_ext/1832905403/interrupts.o
 .debug_info    0x000000000001e14c       0xb8 build/SAMD21_IOT_WG_ICM42688/debug/_ext/1832905403/exceptions.o
 .debug_info    0x000000000001e204      0x1ac build/SAMD21_IOT_WG_ICM42688/debug/_ext/1832905403/startup_xc32.o
 .debug_info    0x000000000001e3b0       0x9f build/SAMD21_IOT_WG_ICM42688/debug/_ext/1832905403/tasks.o
 .debug_info    0x000000000001e44f     0x2162 build/SAMD21_IOT_WG_ICM42688/debug/_ext/1341251756/Icm426xxDriver_HL.o
 .debug_info    0x00000000000205b1      0x49d build/SAMD21_IOT_WG_ICM42688/debug/_ext/1341251756/Icm426xxTransport.o
 .debug_info    0x0000000000020a4e     0x153f build/SAMD21_IOT_WG_ICM42688/debug/_ext/1360937237/main.o
 .debug_info    0x0000000000021f8d      0x4cc build/SAMD21_IOT_WG_ICM42688/debug/_ext/1360937237/ringbuffer.o
 .debug_info    0x0000000000022459      0x4ce build/SAMD21_IOT_WG_ICM42688/debug/_ext/1360937237/app.o
 .debug_info    0x0000000000022927      0x632 build/SAMD21_IOT_WG_ICM42688/debug/_ext/1360937237/ws2812.o
 .debug_info    0x0000000000022f59      0x152 build/SAMD21_IOT_WG_ICM42688/debug/_ext/431689064/sml_recognition_run.o
 .debug_info    0x00000000000230ab      0x1c2 build/SAMD21_IOT_WG_ICM42688/debug/_ext/336238826/dsp_dtw_distance.o
 .debug_info    0x000000000002326d      0x126 build/SAMD21_IOT_WG_ICM42688/debug/_ext/336238826/dsp_l1_distance.o
 .debug_info    0x0000000000023393      0x120 build/SAMD21_IOT_WG_ICM42688/debug/_ext/336238826/dsp_lsup_distance.o
 .debug_info    0x00000000000234b3      0x663 build/SAMD21_IOT_WG_ICM42688/debug/_ext/336238826/fg_amplitude_peak_to_peak.o
 .debug_info    0x0000000000023b16      0x636 build/SAMD21_IOT_WG_ICM42688/debug/_ext/336238826/fg_cross_mean_difference.o
 .debug_info    0x000000000002414c      0x636 build/SAMD21_IOT_WG_ICM42688/debug/_ext/336238826/fg_cross_p2p_difference.o
 .debug_info    0x0000000000024782      0x654 build/SAMD21_IOT_WG_ICM42688/debug/_ext/336238826/fg_cross_peak_location_difference.o
 .debug_info    0x0000000000024dd6      0x636 build/SAMD21_IOT_WG_ICM42688/debug/_ext/336238826/fg_stats_minimum.o
 .debug_info    0x000000000002540c     0x1baf build/SAMD21_IOT_WG_ICM42688/debug/_ext/336238826/kb.o
 .debug_info    0x0000000000026fbb      0x4e2 build/SAMD21_IOT_WG_ICM42688/debug/_ext/336238826/kb_output.o
 .debug_info    0x000000000002749d      0x8c0 build/SAMD21_IOT_WG_ICM42688/debug/_ext/336238826/kb_pipeline.o
 .debug_info    0x0000000000027d5d      0x282 build/SAMD21_IOT_WG_ICM42688/debug/_ext/336238826/mean.o
 .debug_info    0x0000000000027fdf     0x10ba build/SAMD21_IOT_WG_ICM42688/debug/_ext/336238826/pme.o
 .debug_info    0x0000000000029099      0x30e build/SAMD21_IOT_WG_ICM42688/debug/_ext/336238826/pme_trained_neurons.o
 .debug_info    0x00000000000293a7      0x7e2 build/SAMD21_IOT_WG_ICM42688/debug/_ext/336238826/rb.o
 .debug_info    0x0000000000029b89      0x1fb build/SAMD21_IOT_WG_ICM42688/debug/_ext/336238826/save_sensor_data.o
 .debug_info    0x0000000000029d84      0x20f build/SAMD21_IOT_WG_ICM42688/debug/_ext/336238826/sf_downsample_by_averaging.o
 .debug_info    0x0000000000029f93      0x64f build/SAMD21_IOT_WG_ICM42688/debug/_ext/336238826/sg_windowing.o
 .debug_info    0x000000000002a5e2      0x119 build/SAMD21_IOT_WG_ICM42688/debug/_ext/336238826/sortarray.o
 .debug_info    0x000000000002a6fb      0x1de build/SAMD21_IOT_WG_ICM42688/debug/_ext/336238826/sorted_copy.o
 .debug_info    0x000000000002a8d9      0x237 build/SAMD21_IOT_WG_ICM42688/debug/_ext/336238826/tr_min_max_scale.o
 .debug_info    0x000000000002ab10      0x13e build/SAMD21_IOT_WG_ICM42688/debug/_ext/336238826/utils_array_max_uint8.o
 .debug_info    0x000000000002ac4e       0xde build/SAMD21_IOT_WG_ICM42688/debug/_ext/336238826/utils_bitwise_abs_val.o
 .debug_info    0x000000000002ad2c      0x1d4 build/SAMD21_IOT_WG_ICM42688/debug/_ext/336238826/utils_buffer_argmax.o
 .debug_info    0x000000000002af00      0x205 build/SAMD21_IOT_WG_ICM42688/debug/_ext/336238826/utils_buffer_min_max.o
 .debug_info    0x000000000002b105      0x6fc build/SAMD21_IOT_WG_ICM42688/debug/_ext/336238826/utils_model_cross_difference.o
 .debug_info    0x000000000002b801      0x6c9 build/SAMD21_IOT_WG_ICM42688/debug/_ext/336238826/utils_model_stats_max_min.o
 .debug_info    0x000000000002beca      0x143 build/SAMD21_IOT_WG_ICM42688/debug/_ext/336238826/utils_tr_sensor.o
 .debug_info    0x000000000002c00d       0x68 c:/program files/microchip/xc32/v4.60/bin/bin/../../lib/gcc/pic32c/8.3.1/../../../../pic32c/lib/thumb/v6-m/nofp\libpic32c.a(data_init.o)
 .debug_info    0x000000000002c075       0xed c:/program files/microchip/xc32/v4.60/bin/bin/../../lib/gcc/pic32c/8.3.1/../../../../pic32c/lib/thumb/v6-m/nofp\libc-size-musl.a(memcpy.o)
 .debug_info    0x000000000002c162       0xbb c:/program files/microchip/xc32/v4.60/bin/bin/../../lib/gcc/pic32c/8.3.1/../../../../pic32c/lib/thumb/v6-m/nofp\libc-size-musl.a(memset.o)
 .debug_info    0x000000000002c21d       0xa4 c:/program files/microchip/xc32/v4.60/bin/bin/../../lib/gcc/pic32c/8.3.1/../../../../pic32c/lib/thumb/v6-m/nofp\libc-size-musl.a(strlen.o)
 .debug_info    0x000000000002c2c1       0xd2 c:/program files/microchip/xc32/v4.60/bin/bin/../../lib/gcc/pic32c/8.3.1/../../../../pic32c/lib/thumb/v6-m/nofp\libc-size-musl.a(strchr.o)
 .debug_info    0x000000000002c393      0x133 c:/program files/microchip/xc32/v4.60/bin/bin/../../lib/gcc/pic32c/8.3.1/../../../../pic32c/lib/thumb/v6-m/nofp\libc-size-musl.a(strchrnul.o)
 .debug_info    0x000000000002c4c6       0xd5 c:/program files/microchip/xc32/v4.60/bin/bin/../../lib/gcc/pic32c/8.3.1/../../../../pic32c/lib/thumb/v6-m/nofp\libc-size-musl.a(strnlen.o)
 .debug_info    0x000000000002c59b       0xe5 c:/program files/microchip/xc32/v4.60/bin/bin/../../lib/gcc/pic32c/8.3.1/../../../../pic32c/lib/thumb/v6-m/nofp\libc-size-musl.a(memchr.o)
 .debug_info    0x000000000002c680      0x272 c:/program files/microchip/xc32/v4.60/bin/bin/../../lib/gcc/pic32c/8.3.1/../../../../pic32c/lib/thumb/v6-m/nofp\liblmalloc-musl.a(lite_free.o)
 .debug_info    0x000000000002c8f2      0x1bd c:/program files/microchip/xc32/v4.60/bin/bin/../../lib/gcc/pic32c/8.3.1/../../../../pic32c/lib/thumb/v6-m/nofp\liblmalloc-musl.a(lite_malloc.o)
 .debug_info    0x000000000002caaf      0x2fb c:/program files/microchip/xc32/v4.60/bin/bin/../../lib/gcc/pic32c/8.3.1/../../../../pic32c/lib/thumb/v6-m/nofp\libg-musl.a(__libc_start_main.o)
 .debug_info    0x000000000002cdaa       0x5b c:/program files/microchip/xc32/v4.60/bin/bin/../../lib/gcc/pic32c/8.3.1/../../../../pic32c/lib/thumb/v6-m/nofp\libg-musl.a(__errno_location.o)
 .debug_info    0x000000000002ce05      0x276 c:/program files/microchip/xc32/v4.60/bin/bin/../../lib/gcc/pic32c/8.3.1/../../../../pic32c/lib/thumb/v6-m/nofp\libg-musl.a(libc.o)
 .debug_info    0x000000000002d07b      0x10e c:/program files/microchip/xc32/v4.60/bin/bin/../../lib/gcc/pic32c/8.3.1/../../../../pic32c/lib/thumb/v6-m/nofp\libg-musl.a(expand_heap.o)
 .debug_info    0x000000000002d189      0x22d c:/program files/microchip/xc32/v4.60/bin/bin/../../lib/gcc/pic32c/8.3.1/../../../../pic32c/lib/thumb/v6-m/nofp\libg-musl.a(__sio_printf_cdeEfFgGnpsuxX.o)
 .debug_info    0x000000000002d3b6      0x21a c:/program files/microchip/xc32/v4.60/bin/bin/../../lib/gcc/pic32c/8.3.1/../../../../pic32c/lib/thumb/v6-m/nofp\libg-musl.a(__sio_sprintf_cdeEfFgGnpsuxX.o)
 .debug_info    0x000000000002d5d0      0x330 c:/program files/microchip/xc32/v4.60/bin/bin/../../lib/gcc/pic32c/8.3.1/../../../../pic32c/lib/thumb/v6-m/nofp\libg-musl.a(__fmt_d.o)
 .debug_info    0x000000000002d900      0x676 c:/program files/microchip/xc32/v4.60/bin/bin/../../lib/gcc/pic32c/8.3.1/../../../../pic32c/lib/thumb/v6-m/nofp\libg-musl.a(__fmt_fp.o)
 .debug_info    0x000000000002df76      0x2e9 c:/program files/microchip/xc32/v4.60/bin/bin/../../lib/gcc/pic32c/8.3.1/../../../../pic32c/lib/thumb/v6-m/nofp\libg-musl.a(__fmt_s.o)
 .debug_info    0x000000000002e25f      0x301 c:/program files/microchip/xc32/v4.60/bin/bin/../../lib/gcc/pic32c/8.3.1/../../../../pic32c/lib/thumb/v6-m/nofp\libg-musl.a(__fmt_u.o)
 .debug_info    0x000000000002e560      0x335 c:/program files/microchip/xc32/v4.60/bin/bin/../../lib/gcc/pic32c/8.3.1/../../../../pic32c/lib/thumb/v6-m/nofp\libg-musl.a(__fmt_x.o)
 .debug_info    0x000000000002e895      0x162 c:/program files/microchip/xc32/v4.60/bin/bin/../../lib/gcc/pic32c/8.3.1/../../../../pic32c/lib/thumb/v6-m/nofp\libg-musl.a(__pop_float.o)
 .debug_info    0x000000000002e9f7      0x183 c:/program files/microchip/xc32/v4.60/bin/bin/../../lib/gcc/pic32c/8.3.1/../../../../pic32c/lib/thumb/v6-m/nofp\libg-musl.a(__pop_int.o)
 .debug_info    0x000000000002eb7a      0x18d c:/program files/microchip/xc32/v4.60/bin/bin/../../lib/gcc/pic32c/8.3.1/../../../../pic32c/lib/thumb/v6-m/nofp\libg-musl.a(__pop_ptr.o)
 .debug_info    0x000000000002ed07      0xa6f c:/program files/microchip/xc32/v4.60/bin/bin/../../lib/gcc/pic32c/8.3.1/../../../../pic32c/lib/thumb/v6-m/nofp\libg-musl.a(__printf_core.o)
 .debug_info    0x000000000002f776      0x404 c:/program files/microchip/xc32/v4.60/bin/bin/../../lib/gcc/pic32c/8.3.1/../../../../pic32c/lib/thumb/v6-m/nofp\libg-musl.a(stdin.o)
 .debug_info    0x000000000002fb7a      0x1e9 c:/program files/microchip/xc32/v4.60/bin/bin/../../lib/gcc/pic32c/8.3.1/../../../../pic32c/lib/thumb/v6-m/nofp\libg-musl.a(stdout.o)
 .debug_info    0x000000000002fd63       0xd0 c:/program files/microchip/xc32/v4.60/bin/bin/../../lib/gcc/pic32c/8.3.1/../../../../pic32c/lib/thumb/v6-m/nofp\libg-musl.a(putchar.o)
 .debug_info    0x000000000002fe33      0x3ac c:/program files/microchip/xc32/v4.60/bin/bin/../../lib/gcc/pic32c/8.3.1/../../../../pic32c/lib/thumb/v6-m/nofp\libg-musl.a(puts.o)
 .debug_info    0x00000000000301df       0xe6 c:/program files/microchip/xc32/v4.60/bin/bin/../../lib/gcc/pic32c/8.3.1/../../../../pic32c/lib/thumb/v6-m/nofp\libg-musl.a(setbuf.o)
 .debug_info    0x00000000000302c5       0xf4 c:/program files/microchip/xc32/v4.60/bin/bin/../../lib/gcc/pic32c/8.3.1/../../../../pic32c/lib/thumb/v6-m/nofp\libg-musl.a(atoi.o)
 .debug_info    0x00000000000303b9      0x199 c:/program files/microchip/xc32/v4.60/bin/bin/../../lib/gcc/pic32c/8.3.1/../../../../pic32c/lib/thumb/v6-m/nofp\libg-musl.a(gmtime.o)
 .debug_info    0x0000000000030552      0x1a6 c:/program files/microchip/xc32/v4.60/bin/bin/../../lib/gcc/pic32c/8.3.1/../../../../pic32c/lib/thumb/v6-m/nofp\libg-musl.a(gmtime_r.o)
 .debug_info    0x00000000000306f8      0x205 c:/program files/microchip/xc32/v4.60/bin/bin/../../lib/gcc/pic32c/8.3.1/../../../../pic32c/lib/thumb/v6-m/nofp\libg-musl.a(mktime.o)
 .debug_info    0x00000000000308fd      0x131 c:/program files/microchip/xc32/v4.60/bin/bin/../../lib/gcc/pic32c/8.3.1/../../../../pic32c/lib/thumb/v6-m/nofp\libg-musl.a(tolower.o)
 .debug_info    0x0000000000030a2e      0x131 c:/program files/microchip/xc32/v4.60/bin/bin/../../lib/gcc/pic32c/8.3.1/../../../../pic32c/lib/thumb/v6-m/nofp\libg-musl.a(toupper.o)
 .debug_info    0x0000000000030b5f       0x97 c:/program files/microchip/xc32/v4.60/bin/bin/../../lib/gcc/pic32c/8.3.1/../../../../pic32c/lib/thumb/v6-m/nofp\libg-musl.a(__environ.o)
 .debug_info    0x0000000000030bf6      0x1ff c:/program files/microchip/xc32/v4.60/bin/bin/../../lib/gcc/pic32c/8.3.1/../../../../pic32c/lib/thumb/v6-m/nofp\libg-musl.a(__int_vfprintf.o)
 .debug_info    0x0000000000030df5      0x13f c:/program files/microchip/xc32/v4.60/bin/bin/../../lib/gcc/pic32c/8.3.1/../../../../pic32c/lib/thumb/v6-m/nofp\libg-musl.a(__int_vsprintf.o)
 .debug_info    0x0000000000030f34      0x3b6 c:/program files/microchip/xc32/v4.60/bin/bin/../../lib/gcc/pic32c/8.3.1/../../../../pic32c/lib/thumb/v6-m/nofp\libg-musl.a(fputs.o)
 .debug_info    0x00000000000312ea      0x1cf c:/program files/microchip/xc32/v4.60/bin/bin/../../lib/gcc/pic32c/8.3.1/../../../../pic32c/lib/thumb/v6-m/nofp\libg-musl.a(__cvt_u.o)
 .debug_info    0x00000000000314b9      0x3ef c:/program files/microchip/xc32/v4.60/bin/bin/../../lib/gcc/pic32c/8.3.1/../../../../pic32c/lib/thumb/v6-m/nofp\libg-musl.a(__stdio_read.o)
 .debug_info    0x00000000000318a8      0x331 c:/program files/microchip/xc32/v4.60/bin/bin/../../lib/gcc/pic32c/8.3.1/../../../../pic32c/lib/thumb/v6-m/nofp\libg-musl.a(__towrite_rw.o)
 .debug_info    0x0000000000031bd9      0x257 c:/program files/microchip/xc32/v4.60/bin/bin/../../lib/gcc/pic32c/8.3.1/../../../../pic32c/lib/thumb/v6-m/nofp\libg-musl.a(fwrite.o)
 .debug_info    0x0000000000031e30      0x224 c:/program files/microchip/xc32/v4.60/bin/bin/../../lib/gcc/pic32c/8.3.1/../../../../pic32c/lib/thumb/v6-m/nofp\libg-musl.a(putc.o)
 .debug_info    0x0000000000032054      0x2bd c:/program files/microchip/xc32/v4.60/bin/bin/../../lib/gcc/pic32c/8.3.1/../../../../pic32c/lib/thumb/v6-m/nofp\libg-musl.a(setvbuf.o)
 .debug_info    0x0000000000032311      0x201 c:/program files/microchip/xc32/v4.60/bin/bin/../../lib/gcc/pic32c/8.3.1/../../../../pic32c/lib/thumb/v6-m/nofp\libg-musl.a(__tm_to_secs.o)
 .debug_info    0x0000000000032512      0x109 c:/program files/microchip/xc32/v4.60/bin/bin/../../lib/gcc/pic32c/8.3.1/../../../../pic32c/lib/thumb/v6-m/nofp\libg-musl.a(__year_to_secs.o)
 .debug_info    0x000000000003261b      0x295 c:/program files/microchip/xc32/v4.60/bin/bin/../../lib/gcc/pic32c/8.3.1/../../../../pic32c/lib/thumb/v6-m/nofp\libg-musl.a(__secs_to_tm.o)
 .debug_info    0x00000000000328b0      0x146 c:/program files/microchip/xc32/v4.60/bin/bin/../../lib/gcc/pic32c/8.3.1/../../../../pic32c/lib/thumb/v6-m/nofp\libg-musl.a(readv.o)
 .debug_info    0x00000000000329f6      0x21a c:/program files/microchip/xc32/v4.60/bin/bin/../../lib/gcc/pic32c/8.3.1/../../../../pic32c/lib/thumb/v6-m/nofp\libg-musl.a(__int_vsnprintf.o)
 .debug_info    0x0000000000032c10       0xc3 c:/program files/microchip/xc32/v4.60/bin/bin/../../lib/gcc/pic32c/8.3.1/../../../../pic32c/lib/thumb/v6-m/nofp\libg-musl.a(__init_stdio.o)
 .debug_info    0x0000000000032cd3      0x2ba c:/program files/microchip/xc32/v4.60/bin/bin/../../lib/gcc/pic32c/8.3.1/../../../../pic32c/lib/thumb/v6-m/nofp\libg-musl.a(__out.o)
 .debug_info    0x0000000000032f8d      0x28d c:/program files/microchip/xc32/v4.60/bin/bin/../../lib/gcc/pic32c/8.3.1/../../../../pic32c/lib/thumb/v6-m/nofp\libg-musl.a(__putc.o)
 .debug_info    0x000000000003321a      0x3a9 c:/program files/microchip/xc32/v4.60/bin/bin/../../lib/gcc/pic32c/8.3.1/../../../../pic32c/lib/thumb/v6-m/nofp\libg-musl.a(__stderr.o)
 .debug_info    0x00000000000335c3      0x3fd c:/program files/microchip/xc32/v4.60/bin/bin/../../lib/gcc/pic32c/8.3.1/../../../../pic32c/lib/thumb/v6-m/nofp\libg-musl.a(__stdio_close.o)
 .debug_info    0x00000000000339c0      0x43e c:/program files/microchip/xc32/v4.60/bin/bin/../../lib/gcc/pic32c/8.3.1/../../../../pic32c/lib/thumb/v6-m/nofp\libg-musl.a(__stdio_write.o)
 .debug_info    0x0000000000033dfe      0x3a9 c:/program files/microchip/xc32/v4.60/bin/bin/../../lib/gcc/pic32c/8.3.1/../../../../pic32c/lib/thumb/v6-m/nofp\libg-musl.a(__stdout.o)
 .debug_info    0x00000000000341a7      0x275 c:/program files/microchip/xc32/v4.60/bin/bin/../../lib/gcc/pic32c/8.3.1/../../../../pic32c/lib/thumb/v6-m/nofp\libg-musl.a(__towrite.o)
 .debug_info    0x000000000003441c       0xbe c:/program files/microchip/xc32/v4.60/bin/bin/../../lib/gcc/pic32c/8.3.1/../../../../pic32c/lib/thumb/v6-m/nofp\libg-musl.a(__month_to_secs.o)
 .debug_info    0x00000000000344da      0x146 c:/program files/microchip/xc32/v4.60/bin/bin/../../lib/gcc/pic32c/8.3.1/../../../../pic32c/lib/thumb/v6-m/nofp\libg-musl.a(writev.o)
 .debug_info    0x0000000000034620      0x388 c:/program files/microchip/xc32/v4.60/bin/bin/../../lib/gcc/pic32c/8.3.1/../../../../pic32c/lib/thumb/v6-m/nofp\libg-musl.a(__overflow.o)
 .debug_info    0x00000000000349a8      0x2b7 c:/program files/microchip/xc32/v4.60/bin/bin/../../lib/gcc/pic32c/8.3.1/../../../../pic32c/lib/thumb/v6-m/nofp\libg-musl.a(__fwrite.o)
 .debug_info    0x0000000000034c5f       0x26 c:/program files/microchip/xc32/v4.60/bin/bin/../../lib/gcc/pic32c/8.3.1/thumb/v6-m/nofp\libgcc.a(_udivsi3.o)
 .debug_info    0x0000000000034c85       0x26 c:/program files/microchip/xc32/v4.60/bin/bin/../../lib/gcc/pic32c/8.3.1/thumb/v6-m/nofp\libgcc.a(_divsi3.o)
 .debug_info    0x0000000000034cab       0x26 c:/program files/microchip/xc32/v4.60/bin/bin/../../lib/gcc/pic32c/8.3.1/thumb/v6-m/nofp\libgcc.a(_dvmd_tls.o)
 .debug_info    0x0000000000034cd1       0x26 c:/program files/microchip/xc32/v4.60/bin/bin/../../lib/gcc/pic32c/8.3.1/thumb/v6-m/nofp\libgcc.a(_aeabi_ldivmod.o)
 .debug_info    0x0000000000034cf7       0x26 c:/program files/microchip/xc32/v4.60/bin/bin/../../lib/gcc/pic32c/8.3.1/thumb/v6-m/nofp\libgcc.a(_aeabi_uldivmod.o)
 .debug_info    0x0000000000034d1d      0x243 c:/program files/microchip/xc32/v4.60/bin/bin/../../lib/gcc/pic32c/8.3.1/thumb/v6-m/nofp\libgcc.a(_muldi3.o)
 .debug_info    0x0000000000034f60      0x193 c:/program files/microchip/xc32/v4.60/bin/bin/../../lib/gcc/pic32c/8.3.1/thumb/v6-m/nofp\libgcc.a(_udivmoddi4.o)
 .debug_info    0x00000000000350f3       0xd5 c:/program files/microchip/xc32/v4.60/bin/bin/../../lib/gcc/pic32c/8.3.1/thumb/v6-m/nofp\libgcc.a(bpabi.o)
 .debug_info    0x00000000000351c8       0x26 c:/program files/microchip/xc32/v4.60/bin/bin/../../lib/gcc/pic32c/8.3.1/thumb/v6-m/nofp\libgcc.a(_lshrdi3.o)
 .debug_info    0x00000000000351ee       0x26 c:/program files/microchip/xc32/v4.60/bin/bin/../../lib/gcc/pic32c/8.3.1/thumb/v6-m/nofp\libgcc.a(_ashldi3.o)
 .debug_info    0x0000000000035214       0x26 c:/program files/microchip/xc32/v4.60/bin/bin/../../lib/gcc/pic32c/8.3.1/thumb/v6-m/nofp\libgcc.a(_clzdi2.o)
 .debug_info    0x000000000003523a      0x2e1 c:/program files/microchip/xc32/v4.60/bin/bin/../../lib/gcc/pic32c/8.3.1/thumb/v6-m/nofp\libgcc.a(_divdi3.o)
 .debug_info    0x000000000003551b       0x26 c:/program files/microchip/xc32/v4.60/bin/bin/../../lib/gcc/pic32c/8.3.1/thumb/v6-m/nofp\libgcc.a(_clzsi2.o)
 .debug_info    0x0000000000035541       0x3f c:/program files/microchip/xc32/v4.60/bin/bin/../../lib/gcc/pic32c/8.3.1/../../../../pic32c/lib/thumb/v6-m/nofp\libpic32c.a(close.o)
 .debug_info    0x0000000000035580       0x3f c:/program files/microchip/xc32/v4.60/bin/bin/../../lib/gcc/pic32c/8.3.1/../../../../pic32c/lib/thumb/v6-m/nofp\libpic32c.a(lseek.o)
 .debug_info    0x00000000000355bf       0x6a c:/program files/microchip/xc32/v4.60/bin/bin/../../lib/gcc/pic32c/8.3.1/../../../../pic32c/lib/thumb/v6-m/nofp\libpic32c.a(sbrk.o)
 .debug_info    0x0000000000035629       0xbd c:/program files/microchip/xc32/v4.60/bin/bin/../../lib/gcc/pic32c/8.3.1/../../../../pic32c/lib/thumb/v6-m/nofp\libc-size-musl.a(strcpy.o)
 .debug_info    0x00000000000356e6       0xac c:/program files/microchip/xc32/v4.60/bin/bin/../../lib/gcc/pic32c/8.3.1/../../../../pic32c/lib/thumb/v6-m/nofp\libc-size-musl.a(stpcpy.o)
 .debug_info    0x0000000000035792       0x3f c:/program files/microchip/xc32/v4.60/bin/bin/../../lib/gcc/pic32c/8.3.1/../../../../pic32c/lib/thumb/v6-m/nofp\libpic32c.a(pic32_data_init_clear.o)
 .debug_info    0x00000000000357d1       0x40 c:/program files/microchip/xc32/v4.60/bin/bin/../../lib/gcc/pic32c/8.3.1/../../../../pic32c/lib/thumb/v6-m/nofp\libpic32c.a(pic32_data_init_copy.o)

.debug_abbrev   0x0000000000000000     0xbe21
 .debug_abbrev  0x0000000000000000      0x24f build/SAMD21_IOT_WG_ICM42688/debug/_ext/2048461350/icm42688_sensor.o
 .debug_abbrev  0x000000000000024f      0x39b build/SAMD21_IOT_WG_ICM42688/debug/_ext/1660664302/drv_spi.o
 .debug_abbrev  0x00000000000005ea       0xb1 build/SAMD21_IOT_WG_ICM42688/debug/_ext/1164161090/wdrv_winc_gpio.o
 .debug_abbrev  0x000000000000069b       0x80 build/SAMD21_IOT_WG_ICM42688/debug/_ext/1164161090/wdrv_winc_eint.o
 .debug_abbrev  0x000000000000071b      0x242 build/SAMD21_IOT_WG_ICM42688/debug/_ext/101005277/wdrv_winc_spi.o
 .debug_abbrev  0x000000000000095d       0x7e build/SAMD21_IOT_WG_ICM42688/debug/_ext/90265895/nm_common.o
 .debug_abbrev  0x00000000000009db      0x260 build/SAMD21_IOT_WG_ICM42688/debug/_ext/121554788/m2m_ssl.o
 .debug_abbrev  0x0000000000000c3b      0x340 build/SAMD21_IOT_WG_ICM42688/debug/_ext/121554788/m2m_hif.o
 .debug_abbrev  0x0000000000000f7b      0x2e2 build/SAMD21_IOT_WG_ICM42688/debug/_ext/121554788/m2m_wifi.o
 .debug_abbrev  0x000000000000125d      0x27f build/SAMD21_IOT_WG_ICM42688/debug/_ext/121554788/nmspi.o
 .debug_abbrev  0x00000000000014dc      0x182 build/SAMD21_IOT_WG_ICM42688/debug/_ext/121554788/nmdrv.o
 .debug_abbrev  0x000000000000165e      0x201 build/SAMD21_IOT_WG_ICM42688/debug/_ext/121554788/m2m_ota.o
 .debug_abbrev  0x000000000000185f      0x204 build/SAMD21_IOT_WG_ICM42688/debug/_ext/121554788/nmasic.o
 .debug_abbrev  0x0000000000001a63      0x19c build/SAMD21_IOT_WG_ICM42688/debug/_ext/121554788/nmbus.o
 .debug_abbrev  0x0000000000001bff      0x2a3 build/SAMD21_IOT_WG_ICM42688/debug/_ext/548032175/socket.o
 .debug_abbrev  0x0000000000001ea2       0xb9 build/SAMD21_IOT_WG_ICM42688/debug/_ext/609036575/flexible_flash.o
 .debug_abbrev  0x0000000000001f5b      0x17f build/SAMD21_IOT_WG_ICM42688/debug/_ext/609036575/spi_flash.o
 .debug_abbrev  0x00000000000020da       0xa0 build/SAMD21_IOT_WG_ICM42688/debug/_ext/1784303044/wdrv_winc_osal.o
 .debug_abbrev  0x000000000000217a      0x20a build/SAMD21_IOT_WG_ICM42688/debug/_ext/907429946/wdrv_winc_systime.o
 .debug_abbrev  0x0000000000002384      0x1d6 build/SAMD21_IOT_WG_ICM42688/debug/_ext/907429946/wdrv_winc_authctx.o
 .debug_abbrev  0x000000000000255a      0x30c build/SAMD21_IOT_WG_ICM42688/debug/_ext/907429946/wdrv_winc_host_file.o
 .debug_abbrev  0x0000000000002866      0x3e6 build/SAMD21_IOT_WG_ICM42688/debug/_ext/907429946/wdrv_winc.o
 .debug_abbrev  0x0000000000002c4c      0x171 build/SAMD21_IOT_WG_ICM42688/debug/_ext/907429946/wdrv_winc_bssctx.o
 .debug_abbrev  0x0000000000002dbd      0x105 build/SAMD21_IOT_WG_ICM42688/debug/_ext/1750425231/plib_clock.o
 .debug_abbrev  0x0000000000002ec2      0x24a build/SAMD21_IOT_WG_ICM42688/debug/_ext/1580516298/plib_dmac.o
 .debug_abbrev  0x000000000000310c      0x16b build/SAMD21_IOT_WG_ICM42688/debug/_ext/503204096/plib_eic.o
 .debug_abbrev  0x0000000000003277      0x239 build/SAMD21_IOT_WG_ICM42688/debug/_ext/1580823105/plib_nvic.o
 .debug_abbrev  0x00000000000034b0      0x152 build/SAMD21_IOT_WG_ICM42688/debug/_ext/11470383/plib_nvmctrl.o
 .debug_abbrev  0x0000000000003602      0x18a build/SAMD21_IOT_WG_ICM42688/debug/_ext/1580876256/plib_port.o
 .debug_abbrev  0x000000000000378c      0x1cf build/SAMD21_IOT_WG_ICM42688/debug/_ext/1014017276/plib_sercom0_spi_master.o
 .debug_abbrev  0x000000000000395b      0x220 build/SAMD21_IOT_WG_ICM42688/debug/_ext/1014017276/plib_sercom2_spi_master.o
 .debug_abbrev  0x0000000000003b7b      0x242 build/SAMD21_IOT_WG_ICM42688/debug/_ext/177673482/plib_sercom5_usart.o
 .debug_abbrev  0x0000000000003dbd       0xec build/SAMD21_IOT_WG_ICM42688/debug/_ext/223004715/plib_systick.o
 .debug_abbrev  0x0000000000003ea9      0x194 build/SAMD21_IOT_WG_ICM42688/debug/_ext/399410062/plib_tc3.o
 .debug_abbrev  0x000000000000403d      0x194 build/SAMD21_IOT_WG_ICM42688/debug/_ext/399410062/plib_tc4.o
 .debug_abbrev  0x00000000000041d1       0xad build/SAMD21_IOT_WG_ICM42688/debug/_ext/1357625803/xc32_monitor.o
 .debug_abbrev  0x000000000000427e       0xd7 build/SAMD21_IOT_WG_ICM42688/debug/_ext/1584719636/sys_dma.o
 .debug_abbrev  0x0000000000004355      0x1b4 build/SAMD21_IOT_WG_ICM42688/debug/_ext/1318297016/sys_int.o
 .debug_abbrev  0x0000000000004509      0x354 build/SAMD21_IOT_WG_ICM42688/debug/_ext/386530258/sys_time.o
 .debug_abbrev  0x000000000000485d      0x22b build/SAMD21_IOT_WG_ICM42688/debug/_ext/1832905403/initialization.o
 .debug_abbrev  0x0000000000004a88       0xe3 build/SAMD21_IOT_WG_ICM42688/debug/_ext/1832905403/interrupts.o
 .debug_abbrev  0x0000000000004b6b       0x47 build/SAMD21_IOT_WG_ICM42688/debug/_ext/1832905403/exceptions.o
 .debug_abbrev  0x0000000000004bb2       0xf0 build/SAMD21_IOT_WG_ICM42688/debug/_ext/1832905403/startup_xc32.o
 .debug_abbrev  0x0000000000004ca2       0x44 build/SAMD21_IOT_WG_ICM42688/debug/_ext/1832905403/tasks.o
 .debug_abbrev  0x0000000000004ce6      0x29b build/SAMD21_IOT_WG_ICM42688/debug/_ext/1341251756/Icm426xxDriver_HL.o
 .debug_abbrev  0x0000000000004f81      0x16f build/SAMD21_IOT_WG_ICM42688/debug/_ext/1341251756/Icm426xxTransport.o
 .debug_abbrev  0x00000000000050f0      0x2f3 build/SAMD21_IOT_WG_ICM42688/debug/_ext/1360937237/main.o
 .debug_abbrev  0x00000000000053e3      0x14f build/SAMD21_IOT_WG_ICM42688/debug/_ext/1360937237/ringbuffer.o
 .debug_abbrev  0x0000000000005532      0x147 build/SAMD21_IOT_WG_ICM42688/debug/_ext/1360937237/app.o
 .debug_abbrev  0x0000000000005679      0x246 build/SAMD21_IOT_WG_ICM42688/debug/_ext/1360937237/ws2812.o
 .debug_abbrev  0x00000000000058bf       0xce build/SAMD21_IOT_WG_ICM42688/debug/_ext/431689064/sml_recognition_run.o
 .debug_abbrev  0x000000000000598d       0x9e build/SAMD21_IOT_WG_ICM42688/debug/_ext/336238826/dsp_dtw_distance.o
 .debug_abbrev  0x0000000000005a2b       0x9e build/SAMD21_IOT_WG_ICM42688/debug/_ext/336238826/dsp_l1_distance.o
 .debug_abbrev  0x0000000000005ac9       0x8d build/SAMD21_IOT_WG_ICM42688/debug/_ext/336238826/dsp_lsup_distance.o
 .debug_abbrev  0x0000000000005b56       0xfd build/SAMD21_IOT_WG_ICM42688/debug/_ext/336238826/fg_amplitude_peak_to_peak.o
 .debug_abbrev  0x0000000000005c53       0xdb build/SAMD21_IOT_WG_ICM42688/debug/_ext/336238826/fg_cross_mean_difference.o
 .debug_abbrev  0x0000000000005d2e       0xdb build/SAMD21_IOT_WG_ICM42688/debug/_ext/336238826/fg_cross_p2p_difference.o
 .debug_abbrev  0x0000000000005e09       0xec build/SAMD21_IOT_WG_ICM42688/debug/_ext/336238826/fg_cross_peak_location_difference.o
 .debug_abbrev  0x0000000000005ef5       0xdb build/SAMD21_IOT_WG_ICM42688/debug/_ext/336238826/fg_stats_minimum.o
 .debug_abbrev  0x0000000000005fd0      0x29a build/SAMD21_IOT_WG_ICM42688/debug/_ext/336238826/kb.o
 .debug_abbrev  0x000000000000626a      0x146 build/SAMD21_IOT_WG_ICM42688/debug/_ext/336238826/kb_output.o
 .debug_abbrev  0x00000000000063b0      0x13e build/SAMD21_IOT_WG_ICM42688/debug/_ext/336238826/kb_pipeline.o
 .debug_abbrev  0x00000000000064ee       0xef build/SAMD21_IOT_WG_ICM42688/debug/_ext/336238826/mean.o
 .debug_abbrev  0x00000000000065dd      0x235 build/SAMD21_IOT_WG_ICM42688/debug/_ext/336238826/pme.o
 .debug_abbrev  0x0000000000006812       0xef build/SAMD21_IOT_WG_ICM42688/debug/_ext/336238826/pme_trained_neurons.o
 .debug_abbrev  0x0000000000006901      0x1ca build/SAMD21_IOT_WG_ICM42688/debug/_ext/336238826/rb.o
 .debug_abbrev  0x0000000000006acb       0xda build/SAMD21_IOT_WG_ICM42688/debug/_ext/336238826/save_sensor_data.o
 .debug_abbrev  0x0000000000006ba5       0xba build/SAMD21_IOT_WG_ICM42688/debug/_ext/336238826/sf_downsample_by_averaging.o
 .debug_abbrev  0x0000000000006c5f       0xe6 build/SAMD21_IOT_WG_ICM42688/debug/_ext/336238826/sg_windowing.o
 .debug_abbrev  0x0000000000006d45       0x8f build/SAMD21_IOT_WG_ICM42688/debug/_ext/336238826/sortarray.o
 .debug_abbrev  0x0000000000006dd4       0xec build/SAMD21_IOT_WG_ICM42688/debug/_ext/336238826/sorted_copy.o
 .debug_abbrev  0x0000000000006ec0       0xfc build/SAMD21_IOT_WG_ICM42688/debug/_ext/336238826/tr_min_max_scale.o
 .debug_abbrev  0x0000000000006fbc       0x9e build/SAMD21_IOT_WG_ICM42688/debug/_ext/336238826/utils_array_max_uint8.o
 .debug_abbrev  0x000000000000705a       0x86 build/SAMD21_IOT_WG_ICM42688/debug/_ext/336238826/utils_bitwise_abs_val.o
 .debug_abbrev  0x00000000000070e0       0xc2 build/SAMD21_IOT_WG_ICM42688/debug/_ext/336238826/utils_buffer_argmax.o
 .debug_abbrev  0x00000000000071a2       0xd3 build/SAMD21_IOT_WG_ICM42688/debug/_ext/336238826/utils_buffer_min_max.o
 .debug_abbrev  0x0000000000007275       0xfd build/SAMD21_IOT_WG_ICM42688/debug/_ext/336238826/utils_model_cross_difference.o
 .debug_abbrev  0x0000000000007372      0x106 build/SAMD21_IOT_WG_ICM42688/debug/_ext/336238826/utils_model_stats_max_min.o
 .debug_abbrev  0x0000000000007478       0xa2 build/SAMD21_IOT_WG_ICM42688/debug/_ext/336238826/utils_tr_sensor.o
 .debug_abbrev  0x000000000000751a       0x44 c:/program files/microchip/xc32/v4.60/bin/bin/../../lib/gcc/pic32c/8.3.1/../../../../pic32c/lib/thumb/v6-m/nofp\libpic32c.a(data_init.o)
 .debug_abbrev  0x000000000000755e       0xbb c:/program files/microchip/xc32/v4.60/bin/bin/../../lib/gcc/pic32c/8.3.1/../../../../pic32c/lib/thumb/v6-m/nofp\libc-size-musl.a(memcpy.o)
 .debug_abbrev  0x0000000000007619       0xa2 c:/program files/microchip/xc32/v4.60/bin/bin/../../lib/gcc/pic32c/8.3.1/../../../../pic32c/lib/thumb/v6-m/nofp\libc-size-musl.a(memset.o)
 .debug_abbrev  0x00000000000076bb       0x91 c:/program files/microchip/xc32/v4.60/bin/bin/../../lib/gcc/pic32c/8.3.1/../../../../pic32c/lib/thumb/v6-m/nofp\libc-size-musl.a(strlen.o)
 .debug_abbrev  0x000000000000774c       0xad c:/program files/microchip/xc32/v4.60/bin/bin/../../lib/gcc/pic32c/8.3.1/../../../../pic32c/lib/thumb/v6-m/nofp\libc-size-musl.a(strchr.o)
 .debug_abbrev  0x00000000000077f9       0xbc c:/program files/microchip/xc32/v4.60/bin/bin/../../lib/gcc/pic32c/8.3.1/../../../../pic32c/lib/thumb/v6-m/nofp\libc-size-musl.a(strchrnul.o)
 .debug_abbrev  0x00000000000078b5       0xb1 c:/program files/microchip/xc32/v4.60/bin/bin/../../lib/gcc/pic32c/8.3.1/../../../../pic32c/lib/thumb/v6-m/nofp\libc-size-musl.a(strnlen.o)
 .debug_abbrev  0x0000000000007966       0xb1 c:/program files/microchip/xc32/v4.60/bin/bin/../../lib/gcc/pic32c/8.3.1/../../../../pic32c/lib/thumb/v6-m/nofp\libc-size-musl.a(memchr.o)
 .debug_abbrev  0x0000000000007a17      0x18b c:/program files/microchip/xc32/v4.60/bin/bin/../../lib/gcc/pic32c/8.3.1/../../../../pic32c/lib/thumb/v6-m/nofp\liblmalloc-musl.a(lite_free.o)
 .debug_abbrev  0x0000000000007ba2      0x117 c:/program files/microchip/xc32/v4.60/bin/bin/../../lib/gcc/pic32c/8.3.1/../../../../pic32c/lib/thumb/v6-m/nofp\liblmalloc-musl.a(lite_malloc.o)
 .debug_abbrev  0x0000000000007cb9      0x133 c:/program files/microchip/xc32/v4.60/bin/bin/../../lib/gcc/pic32c/8.3.1/../../../../pic32c/lib/thumb/v6-m/nofp\libg-musl.a(__libc_start_main.o)
 .debug_abbrev  0x0000000000007dec       0x39 c:/program files/microchip/xc32/v4.60/bin/bin/../../lib/gcc/pic32c/8.3.1/../../../../pic32c/lib/thumb/v6-m/nofp\libg-musl.a(__errno_location.o)
 .debug_abbrev  0x0000000000007e25       0xd4 c:/program files/microchip/xc32/v4.60/bin/bin/../../lib/gcc/pic32c/8.3.1/../../../../pic32c/lib/thumb/v6-m/nofp\libg-musl.a(libc.o)
 .debug_abbrev  0x0000000000007ef9       0xc4 c:/program files/microchip/xc32/v4.60/bin/bin/../../lib/gcc/pic32c/8.3.1/../../../../pic32c/lib/thumb/v6-m/nofp\libg-musl.a(expand_heap.o)
 .debug_abbrev  0x0000000000007fbd      0x142 c:/program files/microchip/xc32/v4.60/bin/bin/../../lib/gcc/pic32c/8.3.1/../../../../pic32c/lib/thumb/v6-m/nofp\libg-musl.a(__sio_printf_cdeEfFgGnpsuxX.o)
 .debug_abbrev  0x00000000000080ff      0x12b c:/program files/microchip/xc32/v4.60/bin/bin/../../lib/gcc/pic32c/8.3.1/../../../../pic32c/lib/thumb/v6-m/nofp\libg-musl.a(__sio_sprintf_cdeEfFgGnpsuxX.o)
 .debug_abbrev  0x000000000000822a      0x161 c:/program files/microchip/xc32/v4.60/bin/bin/../../lib/gcc/pic32c/8.3.1/../../../../pic32c/lib/thumb/v6-m/nofp\libg-musl.a(__fmt_d.o)
 .debug_abbrev  0x000000000000838b      0x1e3 c:/program files/microchip/xc32/v4.60/bin/bin/../../lib/gcc/pic32c/8.3.1/../../../../pic32c/lib/thumb/v6-m/nofp\libg-musl.a(__fmt_fp.o)
 .debug_abbrev  0x000000000000856e      0x15e c:/program files/microchip/xc32/v4.60/bin/bin/../../lib/gcc/pic32c/8.3.1/../../../../pic32c/lib/thumb/v6-m/nofp\libg-musl.a(__fmt_s.o)
 .debug_abbrev  0x00000000000086cc      0x161 c:/program files/microchip/xc32/v4.60/bin/bin/../../lib/gcc/pic32c/8.3.1/../../../../pic32c/lib/thumb/v6-m/nofp\libg-musl.a(__fmt_u.o)
 .debug_abbrev  0x000000000000882d      0x150 c:/program files/microchip/xc32/v4.60/bin/bin/../../lib/gcc/pic32c/8.3.1/../../../../pic32c/lib/thumb/v6-m/nofp\libg-musl.a(__fmt_x.o)
 .debug_abbrev  0x000000000000897d       0xdc c:/program files/microchip/xc32/v4.60/bin/bin/../../lib/gcc/pic32c/8.3.1/../../../../pic32c/lib/thumb/v6-m/nofp\libg-musl.a(__pop_float.o)
 .debug_abbrev  0x0000000000008a59       0xdc c:/program files/microchip/xc32/v4.60/bin/bin/../../lib/gcc/pic32c/8.3.1/../../../../pic32c/lib/thumb/v6-m/nofp\libg-musl.a(__pop_int.o)
 .debug_abbrev  0x0000000000008b35       0xdc c:/program files/microchip/xc32/v4.60/bin/bin/../../lib/gcc/pic32c/8.3.1/../../../../pic32c/lib/thumb/v6-m/nofp\libg-musl.a(__pop_ptr.o)
 .debug_abbrev  0x0000000000008c11      0x317 c:/program files/microchip/xc32/v4.60/bin/bin/../../lib/gcc/pic32c/8.3.1/../../../../pic32c/lib/thumb/v6-m/nofp\libg-musl.a(__printf_core.o)
 .debug_abbrev  0x0000000000008f28      0x1b3 c:/program files/microchip/xc32/v4.60/bin/bin/../../lib/gcc/pic32c/8.3.1/../../../../pic32c/lib/thumb/v6-m/nofp\libg-musl.a(stdin.o)
 .debug_abbrev  0x00000000000090db      0x145 c:/program files/microchip/xc32/v4.60/bin/bin/../../lib/gcc/pic32c/8.3.1/../../../../pic32c/lib/thumb/v6-m/nofp\libg-musl.a(stdout.o)
 .debug_abbrev  0x0000000000009220       0xc4 c:/program files/microchip/xc32/v4.60/bin/bin/../../lib/gcc/pic32c/8.3.1/../../../../pic32c/lib/thumb/v6-m/nofp\libg-musl.a(putchar.o)
 .debug_abbrev  0x00000000000092e4      0x159 c:/program files/microchip/xc32/v4.60/bin/bin/../../lib/gcc/pic32c/8.3.1/../../../../pic32c/lib/thumb/v6-m/nofp\libg-musl.a(puts.o)
 .debug_abbrev  0x000000000000943d       0xa8 c:/program files/microchip/xc32/v4.60/bin/bin/../../lib/gcc/pic32c/8.3.1/../../../../pic32c/lib/thumb/v6-m/nofp\libg-musl.a(setbuf.o)
 .debug_abbrev  0x00000000000094e5       0xc6 c:/program files/microchip/xc32/v4.60/bin/bin/../../lib/gcc/pic32c/8.3.1/../../../../pic32c/lib/thumb/v6-m/nofp\libg-musl.a(atoi.o)
 .debug_abbrev  0x00000000000095ab       0xdb c:/program files/microchip/xc32/v4.60/bin/bin/../../lib/gcc/pic32c/8.3.1/../../../../pic32c/lib/thumb/v6-m/nofp\libg-musl.a(gmtime.o)
 .debug_abbrev  0x0000000000009686       0xdd c:/program files/microchip/xc32/v4.60/bin/bin/../../lib/gcc/pic32c/8.3.1/../../../../pic32c/lib/thumb/v6-m/nofp\libg-musl.a(gmtime_r.o)
 .debug_abbrev  0x0000000000009763      0x130 c:/program files/microchip/xc32/v4.60/bin/bin/../../lib/gcc/pic32c/8.3.1/../../../../pic32c/lib/thumb/v6-m/nofp\libg-musl.a(mktime.o)
 .debug_abbrev  0x0000000000009893       0xf4 c:/program files/microchip/xc32/v4.60/bin/bin/../../lib/gcc/pic32c/8.3.1/../../../../pic32c/lib/thumb/v6-m/nofp\libg-musl.a(tolower.o)
 .debug_abbrev  0x0000000000009987       0xf4 c:/program files/microchip/xc32/v4.60/bin/bin/../../lib/gcc/pic32c/8.3.1/../../../../pic32c/lib/thumb/v6-m/nofp\libg-musl.a(toupper.o)
 .debug_abbrev  0x0000000000009a7b       0x62 c:/program files/microchip/xc32/v4.60/bin/bin/../../lib/gcc/pic32c/8.3.1/../../../../pic32c/lib/thumb/v6-m/nofp\libg-musl.a(__environ.o)
 .debug_abbrev  0x0000000000009add      0x132 c:/program files/microchip/xc32/v4.60/bin/bin/../../lib/gcc/pic32c/8.3.1/../../../../pic32c/lib/thumb/v6-m/nofp\libg-musl.a(__int_vfprintf.o)
 .debug_abbrev  0x0000000000009c0f       0xcb c:/program files/microchip/xc32/v4.60/bin/bin/../../lib/gcc/pic32c/8.3.1/../../../../pic32c/lib/thumb/v6-m/nofp\libg-musl.a(__int_vsprintf.o)
 .debug_abbrev  0x0000000000009cda      0x146 c:/program files/microchip/xc32/v4.60/bin/bin/../../lib/gcc/pic32c/8.3.1/../../../../pic32c/lib/thumb/v6-m/nofp\libg-musl.a(fputs.o)
 .debug_abbrev  0x0000000000009e20       0xf3 c:/program files/microchip/xc32/v4.60/bin/bin/../../lib/gcc/pic32c/8.3.1/../../../../pic32c/lib/thumb/v6-m/nofp\libg-musl.a(__cvt_u.o)
 .debug_abbrev  0x0000000000009f13      0x16c c:/program files/microchip/xc32/v4.60/bin/bin/../../lib/gcc/pic32c/8.3.1/../../../../pic32c/lib/thumb/v6-m/nofp\libg-musl.a(__stdio_read.o)
 .debug_abbrev  0x000000000000a07f       0xf8 c:/program files/microchip/xc32/v4.60/bin/bin/../../lib/gcc/pic32c/8.3.1/../../../../pic32c/lib/thumb/v6-m/nofp\libg-musl.a(__towrite_rw.o)
 .debug_abbrev  0x000000000000a177      0x13c c:/program files/microchip/xc32/v4.60/bin/bin/../../lib/gcc/pic32c/8.3.1/../../../../pic32c/lib/thumb/v6-m/nofp\libg-musl.a(fwrite.o)
 .debug_abbrev  0x000000000000a2b3      0x122 c:/program files/microchip/xc32/v4.60/bin/bin/../../lib/gcc/pic32c/8.3.1/../../../../pic32c/lib/thumb/v6-m/nofp\libg-musl.a(putc.o)
 .debug_abbrev  0x000000000000a3d5      0x135 c:/program files/microchip/xc32/v4.60/bin/bin/../../lib/gcc/pic32c/8.3.1/../../../../pic32c/lib/thumb/v6-m/nofp\libg-musl.a(setvbuf.o)
 .debug_abbrev  0x000000000000a50a      0x10c c:/program files/microchip/xc32/v4.60/bin/bin/../../lib/gcc/pic32c/8.3.1/../../../../pic32c/lib/thumb/v6-m/nofp\libg-musl.a(__tm_to_secs.o)
 .debug_abbrev  0x000000000000a616       0x96 c:/program files/microchip/xc32/v4.60/bin/bin/../../lib/gcc/pic32c/8.3.1/../../../../pic32c/lib/thumb/v6-m/nofp\libg-musl.a(__year_to_secs.o)
 .debug_abbrev  0x000000000000a6ac       0xc7 c:/program files/microchip/xc32/v4.60/bin/bin/../../lib/gcc/pic32c/8.3.1/../../../../pic32c/lib/thumb/v6-m/nofp\libg-musl.a(__secs_to_tm.o)
 .debug_abbrev  0x000000000000a773       0xf7 c:/program files/microchip/xc32/v4.60/bin/bin/../../lib/gcc/pic32c/8.3.1/../../../../pic32c/lib/thumb/v6-m/nofp\libg-musl.a(readv.o)
 .debug_abbrev  0x000000000000a86a      0x154 c:/program files/microchip/xc32/v4.60/bin/bin/../../lib/gcc/pic32c/8.3.1/../../../../pic32c/lib/thumb/v6-m/nofp\libg-musl.a(__int_vsnprintf.o)
 .debug_abbrev  0x000000000000a9be       0x65 c:/program files/microchip/xc32/v4.60/bin/bin/../../lib/gcc/pic32c/8.3.1/../../../../pic32c/lib/thumb/v6-m/nofp\libg-musl.a(__init_stdio.o)
 .debug_abbrev  0x000000000000aa23      0x177 c:/program files/microchip/xc32/v4.60/bin/bin/../../lib/gcc/pic32c/8.3.1/../../../../pic32c/lib/thumb/v6-m/nofp\libg-musl.a(__out.o)
 .debug_abbrev  0x000000000000ab9a      0x109 c:/program files/microchip/xc32/v4.60/bin/bin/../../lib/gcc/pic32c/8.3.1/../../../../pic32c/lib/thumb/v6-m/nofp\libg-musl.a(__putc.o)
 .debug_abbrev  0x000000000000aca3      0x17e c:/program files/microchip/xc32/v4.60/bin/bin/../../lib/gcc/pic32c/8.3.1/../../../../pic32c/lib/thumb/v6-m/nofp\libg-musl.a(__stderr.o)
 .debug_abbrev  0x000000000000ae21      0x14f c:/program files/microchip/xc32/v4.60/bin/bin/../../lib/gcc/pic32c/8.3.1/../../../../pic32c/lib/thumb/v6-m/nofp\libg-musl.a(__stdio_close.o)
 .debug_abbrev  0x000000000000af70      0x1bd c:/program files/microchip/xc32/v4.60/bin/bin/../../lib/gcc/pic32c/8.3.1/../../../../pic32c/lib/thumb/v6-m/nofp\libg-musl.a(__stdio_write.o)
 .debug_abbrev  0x000000000000b12d      0x17e c:/program files/microchip/xc32/v4.60/bin/bin/../../lib/gcc/pic32c/8.3.1/../../../../pic32c/lib/thumb/v6-m/nofp\libg-musl.a(__stdout.o)
 .debug_abbrev  0x000000000000b2ab      0x114 c:/program files/microchip/xc32/v4.60/bin/bin/../../lib/gcc/pic32c/8.3.1/../../../../pic32c/lib/thumb/v6-m/nofp\libg-musl.a(__towrite.o)
 .debug_abbrev  0x000000000000b3bf       0xad c:/program files/microchip/xc32/v4.60/bin/bin/../../lib/gcc/pic32c/8.3.1/../../../../pic32c/lib/thumb/v6-m/nofp\libg-musl.a(__month_to_secs.o)
 .debug_abbrev  0x000000000000b46c       0xf7 c:/program files/microchip/xc32/v4.60/bin/bin/../../lib/gcc/pic32c/8.3.1/../../../../pic32c/lib/thumb/v6-m/nofp\libg-musl.a(writev.o)
 .debug_abbrev  0x000000000000b563      0x141 c:/program files/microchip/xc32/v4.60/bin/bin/../../lib/gcc/pic32c/8.3.1/../../../../pic32c/lib/thumb/v6-m/nofp\libg-musl.a(__overflow.o)
 .debug_abbrev  0x000000000000b6a4      0x121 c:/program files/microchip/xc32/v4.60/bin/bin/../../lib/gcc/pic32c/8.3.1/../../../../pic32c/lib/thumb/v6-m/nofp\libg-musl.a(__fwrite.o)
 .debug_abbrev  0x000000000000b7c5       0x14 c:/program files/microchip/xc32/v4.60/bin/bin/../../lib/gcc/pic32c/8.3.1/thumb/v6-m/nofp\libgcc.a(_udivsi3.o)
 .debug_abbrev  0x000000000000b7d9       0x14 c:/program files/microchip/xc32/v4.60/bin/bin/../../lib/gcc/pic32c/8.3.1/thumb/v6-m/nofp\libgcc.a(_divsi3.o)
 .debug_abbrev  0x000000000000b7ed       0x14 c:/program files/microchip/xc32/v4.60/bin/bin/../../lib/gcc/pic32c/8.3.1/thumb/v6-m/nofp\libgcc.a(_dvmd_tls.o)
 .debug_abbrev  0x000000000000b801       0x14 c:/program files/microchip/xc32/v4.60/bin/bin/../../lib/gcc/pic32c/8.3.1/thumb/v6-m/nofp\libgcc.a(_aeabi_ldivmod.o)
 .debug_abbrev  0x000000000000b815       0x14 c:/program files/microchip/xc32/v4.60/bin/bin/../../lib/gcc/pic32c/8.3.1/thumb/v6-m/nofp\libgcc.a(_aeabi_uldivmod.o)
 .debug_abbrev  0x000000000000b829      0x10b c:/program files/microchip/xc32/v4.60/bin/bin/../../lib/gcc/pic32c/8.3.1/thumb/v6-m/nofp\libgcc.a(_muldi3.o)
 .debug_abbrev  0x000000000000b934       0x99 c:/program files/microchip/xc32/v4.60/bin/bin/../../lib/gcc/pic32c/8.3.1/thumb/v6-m/nofp\libgcc.a(_udivmoddi4.o)
 .debug_abbrev  0x000000000000b9cd       0xaa c:/program files/microchip/xc32/v4.60/bin/bin/../../lib/gcc/pic32c/8.3.1/thumb/v6-m/nofp\libgcc.a(bpabi.o)
 .debug_abbrev  0x000000000000ba77       0x14 c:/program files/microchip/xc32/v4.60/bin/bin/../../lib/gcc/pic32c/8.3.1/thumb/v6-m/nofp\libgcc.a(_lshrdi3.o)
 .debug_abbrev  0x000000000000ba8b       0x14 c:/program files/microchip/xc32/v4.60/bin/bin/../../lib/gcc/pic32c/8.3.1/thumb/v6-m/nofp\libgcc.a(_ashldi3.o)
 .debug_abbrev  0x000000000000ba9f       0x14 c:/program files/microchip/xc32/v4.60/bin/bin/../../lib/gcc/pic32c/8.3.1/thumb/v6-m/nofp\libgcc.a(_clzdi2.o)
 .debug_abbrev  0x000000000000bab3      0x14e c:/program files/microchip/xc32/v4.60/bin/bin/../../lib/gcc/pic32c/8.3.1/thumb/v6-m/nofp\libgcc.a(_divdi3.o)
 .debug_abbrev  0x000000000000bc01       0x14 c:/program files/microchip/xc32/v4.60/bin/bin/../../lib/gcc/pic32c/8.3.1/thumb/v6-m/nofp\libgcc.a(_clzsi2.o)
 .debug_abbrev  0x000000000000bc15       0x2e c:/program files/microchip/xc32/v4.60/bin/bin/../../lib/gcc/pic32c/8.3.1/../../../../pic32c/lib/thumb/v6-m/nofp\libpic32c.a(close.o)
 .debug_abbrev  0x000000000000bc43       0x2e c:/program files/microchip/xc32/v4.60/bin/bin/../../lib/gcc/pic32c/8.3.1/../../../../pic32c/lib/thumb/v6-m/nofp\libpic32c.a(lseek.o)
 .debug_abbrev  0x000000000000bc71       0x44 c:/program files/microchip/xc32/v4.60/bin/bin/../../lib/gcc/pic32c/8.3.1/../../../../pic32c/lib/thumb/v6-m/nofp\libpic32c.a(sbrk.o)
 .debug_abbrev  0x000000000000bcb5       0xa2 c:/program files/microchip/xc32/v4.60/bin/bin/../../lib/gcc/pic32c/8.3.1/../../../../pic32c/lib/thumb/v6-m/nofp\libc-size-musl.a(strcpy.o)
 .debug_abbrev  0x000000000000bd57       0x6e c:/program files/microchip/xc32/v4.60/bin/bin/../../lib/gcc/pic32c/8.3.1/../../../../pic32c/lib/thumb/v6-m/nofp\libc-size-musl.a(stpcpy.o)
 .debug_abbrev  0x000000000000bdc5       0x2e c:/program files/microchip/xc32/v4.60/bin/bin/../../lib/gcc/pic32c/8.3.1/../../../../pic32c/lib/thumb/v6-m/nofp\libpic32c.a(pic32_data_init_clear.o)
 .debug_abbrev  0x000000000000bdf3       0x2e c:/program files/microchip/xc32/v4.60/bin/bin/../../lib/gcc/pic32c/8.3.1/../../../../pic32c/lib/thumb/v6-m/nofp\libpic32c.a(pic32_data_init_copy.o)

.debug_loc      0x0000000000000000    0x100b3
 .debug_loc     0x0000000000000000      0x1b4 build/SAMD21_IOT_WG_ICM42688/debug/_ext/2048461350/icm42688_sensor.o
 .debug_loc     0x00000000000001b4      0x73a build/SAMD21_IOT_WG_ICM42688/debug/_ext/1660664302/drv_spi.o
 .debug_loc     0x00000000000008ee       0xb0 build/SAMD21_IOT_WG_ICM42688/debug/_ext/1164161090/wdrv_winc_gpio.o
 .debug_loc     0x000000000000099e       0x70 build/SAMD21_IOT_WG_ICM42688/debug/_ext/1164161090/wdrv_winc_eint.o
 .debug_loc     0x0000000000000a0e      0x1c2 build/SAMD21_IOT_WG_ICM42688/debug/_ext/101005277/wdrv_winc_spi.o
 .debug_loc     0x0000000000000bd0       0x64 build/SAMD21_IOT_WG_ICM42688/debug/_ext/90265895/nm_common.o
 .debug_loc     0x0000000000000c34      0x247 build/SAMD21_IOT_WG_ICM42688/debug/_ext/121554788/m2m_ssl.o
 .debug_loc     0x0000000000000e7b      0x36c build/SAMD21_IOT_WG_ICM42688/debug/_ext/121554788/m2m_hif.o
 .debug_loc     0x00000000000011e7     0x11c2 build/SAMD21_IOT_WG_ICM42688/debug/_ext/121554788/m2m_wifi.o
 .debug_loc     0x00000000000023a9      0x508 build/SAMD21_IOT_WG_ICM42688/debug/_ext/121554788/nmspi.o
 .debug_loc     0x00000000000028b1      0x1c0 build/SAMD21_IOT_WG_ICM42688/debug/_ext/121554788/nmdrv.o
 .debug_loc     0x0000000000002a71      0x3b0 build/SAMD21_IOT_WG_ICM42688/debug/_ext/121554788/m2m_ota.o
 .debug_loc     0x0000000000002e21      0x4c4 build/SAMD21_IOT_WG_ICM42688/debug/_ext/121554788/nmasic.o
 .debug_loc     0x00000000000032e5      0x2c0 build/SAMD21_IOT_WG_ICM42688/debug/_ext/121554788/nmbus.o
 .debug_loc     0x00000000000035a5      0x609 build/SAMD21_IOT_WG_ICM42688/debug/_ext/548032175/socket.o
 .debug_loc     0x0000000000003bae       0x38 build/SAMD21_IOT_WG_ICM42688/debug/_ext/609036575/flexible_flash.o
 .debug_loc     0x0000000000003be6      0x380 build/SAMD21_IOT_WG_ICM42688/debug/_ext/609036575/spi_flash.o
 .debug_loc     0x0000000000003f66       0x38 build/SAMD21_IOT_WG_ICM42688/debug/_ext/1784303044/wdrv_winc_osal.o
 .debug_loc     0x0000000000003f9e      0x152 build/SAMD21_IOT_WG_ICM42688/debug/_ext/907429946/wdrv_winc_systime.o
 .debug_loc     0x00000000000040f0      0x1fa build/SAMD21_IOT_WG_ICM42688/debug/_ext/907429946/wdrv_winc_authctx.o
 .debug_loc     0x00000000000042ea      0x1c8 build/SAMD21_IOT_WG_ICM42688/debug/_ext/907429946/wdrv_winc_host_file.o
 .debug_loc     0x00000000000044b2      0x70a build/SAMD21_IOT_WG_ICM42688/debug/_ext/907429946/wdrv_winc.o
 .debug_loc     0x0000000000004bbc      0x150 build/SAMD21_IOT_WG_ICM42688/debug/_ext/907429946/wdrv_winc_bssctx.o
 .debug_loc     0x0000000000004d0c       0xe8 build/SAMD21_IOT_WG_ICM42688/debug/_ext/1750425231/plib_clock.o
 .debug_loc     0x0000000000004df4      0x368 build/SAMD21_IOT_WG_ICM42688/debug/_ext/1580516298/plib_dmac.o
 .debug_loc     0x000000000000515c      0x10c build/SAMD21_IOT_WG_ICM42688/debug/_ext/503204096/plib_eic.o
 .debug_loc     0x0000000000005268      0x218 build/SAMD21_IOT_WG_ICM42688/debug/_ext/1580823105/plib_nvic.o
 .debug_loc     0x0000000000005480      0x2e0 build/SAMD21_IOT_WG_ICM42688/debug/_ext/11470383/plib_nvmctrl.o
 .debug_loc     0x0000000000005760      0x25c build/SAMD21_IOT_WG_ICM42688/debug/_ext/1580876256/plib_port.o
 .debug_loc     0x00000000000059bc      0x138 build/SAMD21_IOT_WG_ICM42688/debug/_ext/1014017276/plib_sercom0_spi_master.o
 .debug_loc     0x0000000000005af4      0x1e0 build/SAMD21_IOT_WG_ICM42688/debug/_ext/1014017276/plib_sercom2_spi_master.o
 .debug_loc     0x0000000000005cd4      0x386 build/SAMD21_IOT_WG_ICM42688/debug/_ext/177673482/plib_sercom5_usart.o
 .debug_loc     0x000000000000605a      0x208 build/SAMD21_IOT_WG_ICM42688/debug/_ext/223004715/plib_systick.o
 .debug_loc     0x0000000000006262      0x220 build/SAMD21_IOT_WG_ICM42688/debug/_ext/399410062/plib_tc3.o
 .debug_loc     0x0000000000006482      0x258 build/SAMD21_IOT_WG_ICM42688/debug/_ext/399410062/plib_tc4.o
 .debug_loc     0x00000000000066da       0x70 build/SAMD21_IOT_WG_ICM42688/debug/_ext/1357625803/xc32_monitor.o
 .debug_loc     0x000000000000674a       0x70 build/SAMD21_IOT_WG_ICM42688/debug/_ext/1584719636/sys_dma.o
 .debug_loc     0x00000000000067ba      0x1a8 build/SAMD21_IOT_WG_ICM42688/debug/_ext/1318297016/sys_int.o
 .debug_loc     0x0000000000006962      0x8ba build/SAMD21_IOT_WG_ICM42688/debug/_ext/386530258/sys_time.o
 .debug_loc     0x000000000000721c       0x64 build/SAMD21_IOT_WG_ICM42688/debug/_ext/1832905403/initialization.o
 .debug_loc     0x0000000000007280       0x58 build/SAMD21_IOT_WG_ICM42688/debug/_ext/1832905403/exceptions.o
 .debug_loc     0x00000000000072d8       0x20 build/SAMD21_IOT_WG_ICM42688/debug/_ext/1832905403/startup_xc32.o
 .debug_loc     0x00000000000072f8       0x2c build/SAMD21_IOT_WG_ICM42688/debug/_ext/1832905403/tasks.o
 .debug_loc     0x0000000000007324      0xa7c build/SAMD21_IOT_WG_ICM42688/debug/_ext/1341251756/Icm426xxDriver_HL.o
 .debug_loc     0x0000000000007da0      0x118 build/SAMD21_IOT_WG_ICM42688/debug/_ext/1341251756/Icm426xxTransport.o
 .debug_loc     0x0000000000007eb8      0x270 build/SAMD21_IOT_WG_ICM42688/debug/_ext/1360937237/main.o
 .debug_loc     0x0000000000008128      0x230 build/SAMD21_IOT_WG_ICM42688/debug/_ext/1360937237/ringbuffer.o
 .debug_loc     0x0000000000008358       0x58 build/SAMD21_IOT_WG_ICM42688/debug/_ext/1360937237/app.o
 .debug_loc     0x00000000000083b0      0x190 build/SAMD21_IOT_WG_ICM42688/debug/_ext/1360937237/ws2812.o
 .debug_loc     0x0000000000008540       0x70 build/SAMD21_IOT_WG_ICM42688/debug/_ext/431689064/sml_recognition_run.o
 .debug_loc     0x00000000000085b0       0xe0 build/SAMD21_IOT_WG_ICM42688/debug/_ext/336238826/dsp_dtw_distance.o
 .debug_loc     0x0000000000008690       0x38 build/SAMD21_IOT_WG_ICM42688/debug/_ext/336238826/dsp_l1_distance.o
 .debug_loc     0x00000000000086c8       0x38 build/SAMD21_IOT_WG_ICM42688/debug/_ext/336238826/dsp_lsup_distance.o
 .debug_loc     0x0000000000008700       0x38 build/SAMD21_IOT_WG_ICM42688/debug/_ext/336238826/fg_amplitude_peak_to_peak.o
 .debug_loc     0x0000000000008738       0x38 build/SAMD21_IOT_WG_ICM42688/debug/_ext/336238826/fg_cross_mean_difference.o
 .debug_loc     0x0000000000008770       0x38 build/SAMD21_IOT_WG_ICM42688/debug/_ext/336238826/fg_cross_p2p_difference.o
 .debug_loc     0x00000000000087a8       0x38 build/SAMD21_IOT_WG_ICM42688/debug/_ext/336238826/fg_cross_peak_location_difference.o
 .debug_loc     0x00000000000087e0       0x38 build/SAMD21_IOT_WG_ICM42688/debug/_ext/336238826/fg_stats_minimum.o
 .debug_loc     0x0000000000008818      0xc34 build/SAMD21_IOT_WG_ICM42688/debug/_ext/336238826/kb.o
 .debug_loc     0x000000000000944c      0x17c build/SAMD21_IOT_WG_ICM42688/debug/_ext/336238826/kb_output.o
 .debug_loc     0x00000000000095c8      0x118 build/SAMD21_IOT_WG_ICM42688/debug/_ext/336238826/kb_pipeline.o
 .debug_loc     0x00000000000096e0       0xa8 build/SAMD21_IOT_WG_ICM42688/debug/_ext/336238826/mean.o
 .debug_loc     0x0000000000009788      0x57b build/SAMD21_IOT_WG_ICM42688/debug/_ext/336238826/pme.o
 .debug_loc     0x0000000000009d03      0x578 build/SAMD21_IOT_WG_ICM42688/debug/_ext/336238826/rb.o
 .debug_loc     0x000000000000a27b       0x70 build/SAMD21_IOT_WG_ICM42688/debug/_ext/336238826/save_sensor_data.o
 .debug_loc     0x000000000000a2eb       0x38 build/SAMD21_IOT_WG_ICM42688/debug/_ext/336238826/sf_downsample_by_averaging.o
 .debug_loc     0x000000000000a323       0x70 build/SAMD21_IOT_WG_ICM42688/debug/_ext/336238826/sg_windowing.o
 .debug_loc     0x000000000000a393       0x38 build/SAMD21_IOT_WG_ICM42688/debug/_ext/336238826/sortarray.o
 .debug_loc     0x000000000000a3cb       0x38 build/SAMD21_IOT_WG_ICM42688/debug/_ext/336238826/sorted_copy.o
 .debug_loc     0x000000000000a403       0x38 build/SAMD21_IOT_WG_ICM42688/debug/_ext/336238826/tr_min_max_scale.o
 .debug_loc     0x000000000000a43b       0x38 build/SAMD21_IOT_WG_ICM42688/debug/_ext/336238826/utils_array_max_uint8.o
 .debug_loc     0x000000000000a473       0x38 build/SAMD21_IOT_WG_ICM42688/debug/_ext/336238826/utils_bitwise_abs_val.o
 .debug_loc     0x000000000000a4ab       0x38 build/SAMD21_IOT_WG_ICM42688/debug/_ext/336238826/utils_buffer_argmax.o
 .debug_loc     0x000000000000a4e3       0x38 build/SAMD21_IOT_WG_ICM42688/debug/_ext/336238826/utils_buffer_min_max.o
 .debug_loc     0x000000000000a51b       0x3a build/SAMD21_IOT_WG_ICM42688/debug/_ext/336238826/utils_model_cross_difference.o
 .debug_loc     0x000000000000a555       0x38 build/SAMD21_IOT_WG_ICM42688/debug/_ext/336238826/utils_model_stats_max_min.o
 .debug_loc     0x000000000000a58d       0x38 build/SAMD21_IOT_WG_ICM42688/debug/_ext/336238826/utils_tr_sensor.o
 .debug_loc     0x000000000000a5c5       0x14 c:/program files/microchip/xc32/v4.60/bin/bin/../../lib/gcc/pic32c/8.3.1/../../../../pic32c/lib/thumb/v6-m/nofp\libpic32c.a(data_init.o)
 .debug_loc     0x000000000000a5d9      0x12d c:/program files/microchip/xc32/v4.60/bin/bin/../../lib/gcc/pic32c/8.3.1/../../../../pic32c/lib/thumb/v6-m/nofp\libc-size-musl.a(memcpy.o)
 .debug_loc     0x000000000000a706       0xcd c:/program files/microchip/xc32/v4.60/bin/bin/../../lib/gcc/pic32c/8.3.1/../../../../pic32c/lib/thumb/v6-m/nofp\libc-size-musl.a(memset.o)
 .debug_loc     0x000000000000a7d3       0x81 c:/program files/microchip/xc32/v4.60/bin/bin/../../lib/gcc/pic32c/8.3.1/../../../../pic32c/lib/thumb/v6-m/nofp\libc-size-musl.a(strlen.o)
 .debug_loc     0x000000000000a854       0x8c c:/program files/microchip/xc32/v4.60/bin/bin/../../lib/gcc/pic32c/8.3.1/../../../../pic32c/lib/thumb/v6-m/nofp\libc-size-musl.a(strchr.o)
 .debug_loc     0x000000000000a8e0       0xd5 c:/program files/microchip/xc32/v4.60/bin/bin/../../lib/gcc/pic32c/8.3.1/../../../../pic32c/lib/thumb/v6-m/nofp\libc-size-musl.a(strchrnul.o)
 .debug_loc     0x000000000000a9b5       0xa6 c:/program files/microchip/xc32/v4.60/bin/bin/../../lib/gcc/pic32c/8.3.1/../../../../pic32c/lib/thumb/v6-m/nofp\libc-size-musl.a(strnlen.o)
 .debug_loc     0x000000000000aa5b       0xaa c:/program files/microchip/xc32/v4.60/bin/bin/../../lib/gcc/pic32c/8.3.1/../../../../pic32c/lib/thumb/v6-m/nofp\libc-size-musl.a(memchr.o)
 .debug_loc     0x000000000000ab05      0x343 c:/program files/microchip/xc32/v4.60/bin/bin/../../lib/gcc/pic32c/8.3.1/../../../../pic32c/lib/thumb/v6-m/nofp\liblmalloc-musl.a(lite_free.o)
 .debug_loc     0x000000000000ae48       0xe2 c:/program files/microchip/xc32/v4.60/bin/bin/../../lib/gcc/pic32c/8.3.1/../../../../pic32c/lib/thumb/v6-m/nofp\liblmalloc-musl.a(lite_malloc.o)
 .debug_loc     0x000000000000af2a       0x5e c:/program files/microchip/xc32/v4.60/bin/bin/../../lib/gcc/pic32c/8.3.1/../../../../pic32c/lib/thumb/v6-m/nofp\libg-musl.a(__libc_start_main.o)
 .debug_loc     0x000000000000af88       0x7c c:/program files/microchip/xc32/v4.60/bin/bin/../../lib/gcc/pic32c/8.3.1/../../../../pic32c/lib/thumb/v6-m/nofp\libg-musl.a(expand_heap.o)
 .debug_loc     0x000000000000b004       0x61 c:/program files/microchip/xc32/v4.60/bin/bin/../../lib/gcc/pic32c/8.3.1/../../../../pic32c/lib/thumb/v6-m/nofp\libg-musl.a(__sio_printf_cdeEfFgGnpsuxX.o)
 .debug_loc     0x000000000000b065       0x86 c:/program files/microchip/xc32/v4.60/bin/bin/../../lib/gcc/pic32c/8.3.1/../../../../pic32c/lib/thumb/v6-m/nofp\libg-musl.a(__sio_sprintf_cdeEfFgGnpsuxX.o)
 .debug_loc     0x000000000000b0eb      0x2a6 c:/program files/microchip/xc32/v4.60/bin/bin/../../lib/gcc/pic32c/8.3.1/../../../../pic32c/lib/thumb/v6-m/nofp\libg-musl.a(__fmt_d.o)
 .debug_loc     0x000000000000b391      0xc94 c:/program files/microchip/xc32/v4.60/bin/bin/../../lib/gcc/pic32c/8.3.1/../../../../pic32c/lib/thumb/v6-m/nofp\libg-musl.a(__fmt_fp.o)
 .debug_loc     0x000000000000c025      0x144 c:/program files/microchip/xc32/v4.60/bin/bin/../../lib/gcc/pic32c/8.3.1/../../../../pic32c/lib/thumb/v6-m/nofp\libg-musl.a(__fmt_s.o)
 .debug_loc     0x000000000000c169      0x12d c:/program files/microchip/xc32/v4.60/bin/bin/../../lib/gcc/pic32c/8.3.1/../../../../pic32c/lib/thumb/v6-m/nofp\libg-musl.a(__fmt_u.o)
 .debug_loc     0x000000000000c296      0x3be c:/program files/microchip/xc32/v4.60/bin/bin/../../lib/gcc/pic32c/8.3.1/../../../../pic32c/lib/thumb/v6-m/nofp\libg-musl.a(__fmt_x.o)
 .debug_loc     0x000000000000c654       0x6f c:/program files/microchip/xc32/v4.60/bin/bin/../../lib/gcc/pic32c/8.3.1/../../../../pic32c/lib/thumb/v6-m/nofp\libg-musl.a(__pop_float.o)
 .debug_loc     0x000000000000c6c3      0x34c c:/program files/microchip/xc32/v4.60/bin/bin/../../lib/gcc/pic32c/8.3.1/../../../../pic32c/lib/thumb/v6-m/nofp\libg-musl.a(__pop_int.o)
 .debug_loc     0x000000000000ca0f      0x1fe c:/program files/microchip/xc32/v4.60/bin/bin/../../lib/gcc/pic32c/8.3.1/../../../../pic32c/lib/thumb/v6-m/nofp\libg-musl.a(__pop_ptr.o)
 .debug_loc     0x000000000000cc0d      0x6d9 c:/program files/microchip/xc32/v4.60/bin/bin/../../lib/gcc/pic32c/8.3.1/../../../../pic32c/lib/thumb/v6-m/nofp\libg-musl.a(__printf_core.o)
 .debug_loc     0x000000000000d2e6       0x45 c:/program files/microchip/xc32/v4.60/bin/bin/../../lib/gcc/pic32c/8.3.1/../../../../pic32c/lib/thumb/v6-m/nofp\libg-musl.a(stdin.o)
 .debug_loc     0x000000000000d32b       0x40 c:/program files/microchip/xc32/v4.60/bin/bin/../../lib/gcc/pic32c/8.3.1/../../../../pic32c/lib/thumb/v6-m/nofp\libg-musl.a(stdout.o)
 .debug_loc     0x000000000000d36b       0x45 c:/program files/microchip/xc32/v4.60/bin/bin/../../lib/gcc/pic32c/8.3.1/../../../../pic32c/lib/thumb/v6-m/nofp\libg-musl.a(putchar.o)
 .debug_loc     0x000000000000d3b0       0x6a c:/program files/microchip/xc32/v4.60/bin/bin/../../lib/gcc/pic32c/8.3.1/../../../../pic32c/lib/thumb/v6-m/nofp\libg-musl.a(puts.o)
 .debug_loc     0x000000000000d41a       0x6a c:/program files/microchip/xc32/v4.60/bin/bin/../../lib/gcc/pic32c/8.3.1/../../../../pic32c/lib/thumb/v6-m/nofp\libg-musl.a(setbuf.o)
 .debug_loc     0x000000000000d484       0xdc c:/program files/microchip/xc32/v4.60/bin/bin/../../lib/gcc/pic32c/8.3.1/../../../../pic32c/lib/thumb/v6-m/nofp\libg-musl.a(atoi.o)
 .debug_loc     0x000000000000d560       0x45 c:/program files/microchip/xc32/v4.60/bin/bin/../../lib/gcc/pic32c/8.3.1/../../../../pic32c/lib/thumb/v6-m/nofp\libg-musl.a(gmtime.o)
 .debug_loc     0x000000000000d5a5       0x91 c:/program files/microchip/xc32/v4.60/bin/bin/../../lib/gcc/pic32c/8.3.1/../../../../pic32c/lib/thumb/v6-m/nofp\libg-musl.a(gmtime_r.o)
 .debug_loc     0x000000000000d636       0x86 c:/program files/microchip/xc32/v4.60/bin/bin/../../lib/gcc/pic32c/8.3.1/../../../../pic32c/lib/thumb/v6-m/nofp\libg-musl.a(mktime.o)
 .debug_loc     0x000000000000d6bc       0x8f c:/program files/microchip/xc32/v4.60/bin/bin/../../lib/gcc/pic32c/8.3.1/../../../../pic32c/lib/thumb/v6-m/nofp\libg-musl.a(tolower.o)
 .debug_loc     0x000000000000d74b       0x8f c:/program files/microchip/xc32/v4.60/bin/bin/../../lib/gcc/pic32c/8.3.1/../../../../pic32c/lib/thumb/v6-m/nofp\libg-musl.a(toupper.o)
 .debug_loc     0x000000000000d7da       0xb0 c:/program files/microchip/xc32/v4.60/bin/bin/../../lib/gcc/pic32c/8.3.1/../../../../pic32c/lib/thumb/v6-m/nofp\libg-musl.a(__int_vfprintf.o)
 .debug_loc     0x000000000000d88a       0x8c c:/program files/microchip/xc32/v4.60/bin/bin/../../lib/gcc/pic32c/8.3.1/../../../../pic32c/lib/thumb/v6-m/nofp\libg-musl.a(__int_vsprintf.o)
 .debug_loc     0x000000000000d916       0xb3 c:/program files/microchip/xc32/v4.60/bin/bin/../../lib/gcc/pic32c/8.3.1/../../../../pic32c/lib/thumb/v6-m/nofp\libg-musl.a(fputs.o)
 .debug_loc     0x000000000000d9c9      0x1d3 c:/program files/microchip/xc32/v4.60/bin/bin/../../lib/gcc/pic32c/8.3.1/../../../../pic32c/lib/thumb/v6-m/nofp\libg-musl.a(__cvt_u.o)
 .debug_loc     0x000000000000db9c      0x107 c:/program files/microchip/xc32/v4.60/bin/bin/../../lib/gcc/pic32c/8.3.1/../../../../pic32c/lib/thumb/v6-m/nofp\libg-musl.a(__stdio_read.o)
 .debug_loc     0x000000000000dca3       0x42 c:/program files/microchip/xc32/v4.60/bin/bin/../../lib/gcc/pic32c/8.3.1/../../../../pic32c/lib/thumb/v6-m/nofp\libg-musl.a(__towrite_rw.o)
 .debug_loc     0x000000000000dce5      0x1c5 c:/program files/microchip/xc32/v4.60/bin/bin/../../lib/gcc/pic32c/8.3.1/../../../../pic32c/lib/thumb/v6-m/nofp\libg-musl.a(fwrite.o)
 .debug_loc     0x000000000000deaa      0x13b c:/program files/microchip/xc32/v4.60/bin/bin/../../lib/gcc/pic32c/8.3.1/../../../../pic32c/lib/thumb/v6-m/nofp\libg-musl.a(putc.o)
 .debug_loc     0x000000000000dfe5      0x115 c:/program files/microchip/xc32/v4.60/bin/bin/../../lib/gcc/pic32c/8.3.1/../../../../pic32c/lib/thumb/v6-m/nofp\libg-musl.a(setvbuf.o)
 .debug_loc     0x000000000000e0fa      0x111 c:/program files/microchip/xc32/v4.60/bin/bin/../../lib/gcc/pic32c/8.3.1/../../../../pic32c/lib/thumb/v6-m/nofp\libg-musl.a(__tm_to_secs.o)
 .debug_loc     0x000000000000e20b      0x258 c:/program files/microchip/xc32/v4.60/bin/bin/../../lib/gcc/pic32c/8.3.1/../../../../pic32c/lib/thumb/v6-m/nofp\libg-musl.a(__year_to_secs.o)
 .debug_loc     0x000000000000e463      0x2f7 c:/program files/microchip/xc32/v4.60/bin/bin/../../lib/gcc/pic32c/8.3.1/../../../../pic32c/lib/thumb/v6-m/nofp\libg-musl.a(__secs_to_tm.o)
 .debug_loc     0x000000000000e75a      0x130 c:/program files/microchip/xc32/v4.60/bin/bin/../../lib/gcc/pic32c/8.3.1/../../../../pic32c/lib/thumb/v6-m/nofp\libg-musl.a(readv.o)
 .debug_loc     0x000000000000e88a      0x102 c:/program files/microchip/xc32/v4.60/bin/bin/../../lib/gcc/pic32c/8.3.1/../../../../pic32c/lib/thumb/v6-m/nofp\libg-musl.a(__int_vsnprintf.o)
 .debug_loc     0x000000000000e98c       0x20 c:/program files/microchip/xc32/v4.60/bin/bin/../../lib/gcc/pic32c/8.3.1/../../../../pic32c/lib/thumb/v6-m/nofp\libg-musl.a(__init_stdio.o)
 .debug_loc     0x000000000000e9ac      0x1e6 c:/program files/microchip/xc32/v4.60/bin/bin/../../lib/gcc/pic32c/8.3.1/../../../../pic32c/lib/thumb/v6-m/nofp\libg-musl.a(__out.o)
 .debug_loc     0x000000000000eb92       0xbe c:/program files/microchip/xc32/v4.60/bin/bin/../../lib/gcc/pic32c/8.3.1/../../../../pic32c/lib/thumb/v6-m/nofp\libg-musl.a(__putc.o)
 .debug_loc     0x000000000000ec50       0x45 c:/program files/microchip/xc32/v4.60/bin/bin/../../lib/gcc/pic32c/8.3.1/../../../../pic32c/lib/thumb/v6-m/nofp\libg-musl.a(__stderr.o)
 .debug_loc     0x000000000000ec95      0x1d8 c:/program files/microchip/xc32/v4.60/bin/bin/../../lib/gcc/pic32c/8.3.1/../../../../pic32c/lib/thumb/v6-m/nofp\libg-musl.a(__stdio_close.o)
 .debug_loc     0x000000000000ee6d      0x364 c:/program files/microchip/xc32/v4.60/bin/bin/../../lib/gcc/pic32c/8.3.1/../../../../pic32c/lib/thumb/v6-m/nofp\libg-musl.a(__stdio_write.o)
 .debug_loc     0x000000000000f1d1       0x45 c:/program files/microchip/xc32/v4.60/bin/bin/../../lib/gcc/pic32c/8.3.1/../../../../pic32c/lib/thumb/v6-m/nofp\libg-musl.a(__stdout.o)
 .debug_loc     0x000000000000f216       0x8c c:/program files/microchip/xc32/v4.60/bin/bin/../../lib/gcc/pic32c/8.3.1/../../../../pic32c/lib/thumb/v6-m/nofp\libg-musl.a(__towrite.o)
 .debug_loc     0x000000000000f2a2       0x3a c:/program files/microchip/xc32/v4.60/bin/bin/../../lib/gcc/pic32c/8.3.1/../../../../pic32c/lib/thumb/v6-m/nofp\libg-musl.a(__month_to_secs.o)
 .debug_loc     0x000000000000f2dc      0x130 c:/program files/microchip/xc32/v4.60/bin/bin/../../lib/gcc/pic32c/8.3.1/../../../../pic32c/lib/thumb/v6-m/nofp\libg-musl.a(writev.o)
 .debug_loc     0x000000000000f40c       0xbb c:/program files/microchip/xc32/v4.60/bin/bin/../../lib/gcc/pic32c/8.3.1/../../../../pic32c/lib/thumb/v6-m/nofp\libg-musl.a(__overflow.o)
 .debug_loc     0x000000000000f4c7      0x106 c:/program files/microchip/xc32/v4.60/bin/bin/../../lib/gcc/pic32c/8.3.1/../../../../pic32c/lib/thumb/v6-m/nofp\libg-musl.a(__fwrite.o)
 .debug_loc     0x000000000000f5cd      0x176 c:/program files/microchip/xc32/v4.60/bin/bin/../../lib/gcc/pic32c/8.3.1/thumb/v6-m/nofp\libgcc.a(_muldi3.o)
 .debug_loc     0x000000000000f743      0x2e4 c:/program files/microchip/xc32/v4.60/bin/bin/../../lib/gcc/pic32c/8.3.1/thumb/v6-m/nofp\libgcc.a(_udivmoddi4.o)
 .debug_loc     0x000000000000fa27       0x9c c:/program files/microchip/xc32/v4.60/bin/bin/../../lib/gcc/pic32c/8.3.1/thumb/v6-m/nofp\libgcc.a(bpabi.o)
 .debug_loc     0x000000000000fac3      0x4b0 c:/program files/microchip/xc32/v4.60/bin/bin/../../lib/gcc/pic32c/8.3.1/thumb/v6-m/nofp\libgcc.a(_divdi3.o)
 .debug_loc     0x000000000000ff73       0x28 c:/program files/microchip/xc32/v4.60/bin/bin/../../lib/gcc/pic32c/8.3.1/../../../../pic32c/lib/thumb/v6-m/nofp\libpic32c.a(sbrk.o)
 .debug_loc     0x000000000000ff9b       0x74 c:/program files/microchip/xc32/v4.60/bin/bin/../../lib/gcc/pic32c/8.3.1/../../../../pic32c/lib/thumb/v6-m/nofp\libc-size-musl.a(strcpy.o)
 .debug_loc     0x000000000001000f       0x90 c:/program files/microchip/xc32/v4.60/bin/bin/../../lib/gcc/pic32c/8.3.1/../../../../pic32c/lib/thumb/v6-m/nofp\libc-size-musl.a(stpcpy.o)
 .debug_loc     0x000000000001009f       0x14 c:/program files/microchip/xc32/v4.60/bin/bin/../../lib/gcc/pic32c/8.3.1/../../../../pic32c/lib/thumb/v6-m/nofp\libpic32c.a(pic32_data_init_copy.o)

.debug_aranges  0x0000000000000000     0x1538
 .debug_aranges
                0x0000000000000000       0x20 build/SAMD21_IOT_WG_ICM42688/debug/_ext/2048461350/icm42688_sensor.o
 .debug_aranges
                0x0000000000000020       0x20 build/SAMD21_IOT_WG_ICM42688/debug/_ext/1660664302/drv_spi.o
 .debug_aranges
                0x0000000000000040       0x20 build/SAMD21_IOT_WG_ICM42688/debug/_ext/1164161090/wdrv_winc_gpio.o
 .debug_aranges
                0x0000000000000060       0x20 build/SAMD21_IOT_WG_ICM42688/debug/_ext/1164161090/wdrv_winc_eint.o
 .debug_aranges
                0x0000000000000080       0x20 build/SAMD21_IOT_WG_ICM42688/debug/_ext/101005277/wdrv_winc_spi.o
 .debug_aranges
                0x00000000000000a0       0x20 build/SAMD21_IOT_WG_ICM42688/debug/_ext/90265895/nm_common.o
 .debug_aranges
                0x00000000000000c0       0x20 build/SAMD21_IOT_WG_ICM42688/debug/_ext/121554788/m2m_ssl.o
 .debug_aranges
                0x00000000000000e0       0x20 build/SAMD21_IOT_WG_ICM42688/debug/_ext/121554788/m2m_hif.o
 .debug_aranges
                0x0000000000000100       0x20 build/SAMD21_IOT_WG_ICM42688/debug/_ext/121554788/m2m_wifi.o
 .debug_aranges
                0x0000000000000120       0x20 build/SAMD21_IOT_WG_ICM42688/debug/_ext/121554788/nmspi.o
 .debug_aranges
                0x0000000000000140       0x20 build/SAMD21_IOT_WG_ICM42688/debug/_ext/121554788/nmdrv.o
 .debug_aranges
                0x0000000000000160       0x20 build/SAMD21_IOT_WG_ICM42688/debug/_ext/121554788/m2m_ota.o
 .debug_aranges
                0x0000000000000180       0x20 build/SAMD21_IOT_WG_ICM42688/debug/_ext/121554788/nmasic.o
 .debug_aranges
                0x00000000000001a0       0x20 build/SAMD21_IOT_WG_ICM42688/debug/_ext/121554788/nmbus.o
 .debug_aranges
                0x00000000000001c0       0x20 build/SAMD21_IOT_WG_ICM42688/debug/_ext/548032175/socket.o
 .debug_aranges
                0x00000000000001e0       0x20 build/SAMD21_IOT_WG_ICM42688/debug/_ext/609036575/flexible_flash.o
 .debug_aranges
                0x0000000000000200       0x20 build/SAMD21_IOT_WG_ICM42688/debug/_ext/609036575/spi_flash.o
 .debug_aranges
                0x0000000000000220       0x20 build/SAMD21_IOT_WG_ICM42688/debug/_ext/1784303044/wdrv_winc_osal.o
 .debug_aranges
                0x0000000000000240       0x20 build/SAMD21_IOT_WG_ICM42688/debug/_ext/907429946/wdrv_winc_systime.o
 .debug_aranges
                0x0000000000000260       0x20 build/SAMD21_IOT_WG_ICM42688/debug/_ext/907429946/wdrv_winc_authctx.o
 .debug_aranges
                0x0000000000000280       0x20 build/SAMD21_IOT_WG_ICM42688/debug/_ext/907429946/wdrv_winc_host_file.o
 .debug_aranges
                0x00000000000002a0       0x20 build/SAMD21_IOT_WG_ICM42688/debug/_ext/907429946/wdrv_winc.o
 .debug_aranges
                0x00000000000002c0       0x20 build/SAMD21_IOT_WG_ICM42688/debug/_ext/907429946/wdrv_winc_bssctx.o
 .debug_aranges
                0x00000000000002e0       0x20 build/SAMD21_IOT_WG_ICM42688/debug/_ext/1750425231/plib_clock.o
 .debug_aranges
                0x0000000000000300       0x20 build/SAMD21_IOT_WG_ICM42688/debug/_ext/1580516298/plib_dmac.o
 .debug_aranges
                0x0000000000000320       0x20 build/SAMD21_IOT_WG_ICM42688/debug/_ext/503204096/plib_eic.o
 .debug_aranges
                0x0000000000000340       0x20 build/SAMD21_IOT_WG_ICM42688/debug/_ext/1580823105/plib_nvic.o
 .debug_aranges
                0x0000000000000360       0x20 build/SAMD21_IOT_WG_ICM42688/debug/_ext/11470383/plib_nvmctrl.o
 .debug_aranges
                0x0000000000000380       0x20 build/SAMD21_IOT_WG_ICM42688/debug/_ext/1580876256/plib_port.o
 .debug_aranges
                0x00000000000003a0       0x20 build/SAMD21_IOT_WG_ICM42688/debug/_ext/1014017276/plib_sercom0_spi_master.o
 .debug_aranges
                0x00000000000003c0       0x20 build/SAMD21_IOT_WG_ICM42688/debug/_ext/1014017276/plib_sercom2_spi_master.o
 .debug_aranges
                0x00000000000003e0       0x20 build/SAMD21_IOT_WG_ICM42688/debug/_ext/177673482/plib_sercom5_usart.o
 .debug_aranges
                0x0000000000000400       0x20 build/SAMD21_IOT_WG_ICM42688/debug/_ext/223004715/plib_systick.o
 .debug_aranges
                0x0000000000000420       0x20 build/SAMD21_IOT_WG_ICM42688/debug/_ext/399410062/plib_tc3.o
 .debug_aranges
                0x0000000000000440       0x20 build/SAMD21_IOT_WG_ICM42688/debug/_ext/399410062/plib_tc4.o
 .debug_aranges
                0x0000000000000460       0x20 build/SAMD21_IOT_WG_ICM42688/debug/_ext/1357625803/xc32_monitor.o
 .debug_aranges
                0x0000000000000480       0x20 build/SAMD21_IOT_WG_ICM42688/debug/_ext/1584719636/sys_dma.o
 .debug_aranges
                0x00000000000004a0       0x20 build/SAMD21_IOT_WG_ICM42688/debug/_ext/1318297016/sys_int.o
 .debug_aranges
                0x00000000000004c0       0x20 build/SAMD21_IOT_WG_ICM42688/debug/_ext/386530258/sys_time.o
 .debug_aranges
                0x00000000000004e0       0x20 build/SAMD21_IOT_WG_ICM42688/debug/_ext/1832905403/initialization.o
 .debug_aranges
                0x0000000000000500       0x20 build/SAMD21_IOT_WG_ICM42688/debug/_ext/1832905403/interrupts.o
 .debug_aranges
                0x0000000000000520       0x20 build/SAMD21_IOT_WG_ICM42688/debug/_ext/1832905403/exceptions.o
 .debug_aranges
                0x0000000000000540       0x28 build/SAMD21_IOT_WG_ICM42688/debug/_ext/1832905403/startup_xc32.o
 .debug_aranges
                0x0000000000000568       0x20 build/SAMD21_IOT_WG_ICM42688/debug/_ext/1832905403/tasks.o
 .debug_aranges
                0x0000000000000588       0x20 build/SAMD21_IOT_WG_ICM42688/debug/_ext/1341251756/Icm426xxDriver_HL.o
 .debug_aranges
                0x00000000000005a8       0x20 build/SAMD21_IOT_WG_ICM42688/debug/_ext/1341251756/Icm426xxTransport.o
 .debug_aranges
                0x00000000000005c8       0x20 build/SAMD21_IOT_WG_ICM42688/debug/_ext/1360937237/main.o
 .debug_aranges
                0x00000000000005e8       0x20 build/SAMD21_IOT_WG_ICM42688/debug/_ext/1360937237/ringbuffer.o
 .debug_aranges
                0x0000000000000608       0x20 build/SAMD21_IOT_WG_ICM42688/debug/_ext/1360937237/app.o
 .debug_aranges
                0x0000000000000628       0x20 build/SAMD21_IOT_WG_ICM42688/debug/_ext/1360937237/ws2812.o
 .debug_aranges
                0x0000000000000648       0x20 build/SAMD21_IOT_WG_ICM42688/debug/_ext/431689064/sml_recognition_run.o
 .debug_aranges
                0x0000000000000668       0x20 build/SAMD21_IOT_WG_ICM42688/debug/_ext/336238826/dsp_dtw_distance.o
 .debug_aranges
                0x0000000000000688       0x20 build/SAMD21_IOT_WG_ICM42688/debug/_ext/336238826/dsp_l1_distance.o
 .debug_aranges
                0x00000000000006a8       0x20 build/SAMD21_IOT_WG_ICM42688/debug/_ext/336238826/dsp_lsup_distance.o
 .debug_aranges
                0x00000000000006c8       0x20 build/SAMD21_IOT_WG_ICM42688/debug/_ext/336238826/fg_amplitude_peak_to_peak.o
 .debug_aranges
                0x00000000000006e8       0x20 build/SAMD21_IOT_WG_ICM42688/debug/_ext/336238826/fg_cross_mean_difference.o
 .debug_aranges
                0x0000000000000708       0x20 build/SAMD21_IOT_WG_ICM42688/debug/_ext/336238826/fg_cross_p2p_difference.o
 .debug_aranges
                0x0000000000000728       0x20 build/SAMD21_IOT_WG_ICM42688/debug/_ext/336238826/fg_cross_peak_location_difference.o
 .debug_aranges
                0x0000000000000748       0x20 build/SAMD21_IOT_WG_ICM42688/debug/_ext/336238826/fg_stats_minimum.o
 .debug_aranges
                0x0000000000000768       0x20 build/SAMD21_IOT_WG_ICM42688/debug/_ext/336238826/kb.o
 .debug_aranges
                0x0000000000000788       0x20 build/SAMD21_IOT_WG_ICM42688/debug/_ext/336238826/kb_output.o
 .debug_aranges
                0x00000000000007a8       0x20 build/SAMD21_IOT_WG_ICM42688/debug/_ext/336238826/kb_pipeline.o
 .debug_aranges
                0x00000000000007c8       0x20 build/SAMD21_IOT_WG_ICM42688/debug/_ext/336238826/mean.o
 .debug_aranges
                0x00000000000007e8       0x20 build/SAMD21_IOT_WG_ICM42688/debug/_ext/336238826/pme.o
 .debug_aranges
                0x0000000000000808       0x18 build/SAMD21_IOT_WG_ICM42688/debug/_ext/336238826/pme_trained_neurons.o
 .debug_aranges
                0x0000000000000820       0x20 build/SAMD21_IOT_WG_ICM42688/debug/_ext/336238826/rb.o
 .debug_aranges
                0x0000000000000840       0x20 build/SAMD21_IOT_WG_ICM42688/debug/_ext/336238826/save_sensor_data.o
 .debug_aranges
                0x0000000000000860       0x20 build/SAMD21_IOT_WG_ICM42688/debug/_ext/336238826/sf_downsample_by_averaging.o
 .debug_aranges
                0x0000000000000880       0x20 build/SAMD21_IOT_WG_ICM42688/debug/_ext/336238826/sg_windowing.o
 .debug_aranges
                0x00000000000008a0       0x20 build/SAMD21_IOT_WG_ICM42688/debug/_ext/336238826/sortarray.o
 .debug_aranges
                0x00000000000008c0       0x20 build/SAMD21_IOT_WG_ICM42688/debug/_ext/336238826/sorted_copy.o
 .debug_aranges
                0x00000000000008e0       0x20 build/SAMD21_IOT_WG_ICM42688/debug/_ext/336238826/tr_min_max_scale.o
 .debug_aranges
                0x0000000000000900       0x20 build/SAMD21_IOT_WG_ICM42688/debug/_ext/336238826/utils_array_max_uint8.o
 .debug_aranges
                0x0000000000000920       0x20 build/SAMD21_IOT_WG_ICM42688/debug/_ext/336238826/utils_bitwise_abs_val.o
 .debug_aranges
                0x0000000000000940       0x20 build/SAMD21_IOT_WG_ICM42688/debug/_ext/336238826/utils_buffer_argmax.o
 .debug_aranges
                0x0000000000000960       0x20 build/SAMD21_IOT_WG_ICM42688/debug/_ext/336238826/utils_buffer_min_max.o
 .debug_aranges
                0x0000000000000980       0x20 build/SAMD21_IOT_WG_ICM42688/debug/_ext/336238826/utils_model_cross_difference.o
 .debug_aranges
                0x00000000000009a0       0x20 build/SAMD21_IOT_WG_ICM42688/debug/_ext/336238826/utils_model_stats_max_min.o
 .debug_aranges
                0x00000000000009c0       0x20 build/SAMD21_IOT_WG_ICM42688/debug/_ext/336238826/utils_tr_sensor.o
 .debug_aranges
                0x00000000000009e0       0x30 c:/program files/microchip/xc32/v4.60/bin/bin/../../lib/gcc/pic32c/8.3.1/../../../../pic32c/lib/thumb/v6-m/nofp\libpic32c.a(data_init.o)
 .debug_aranges
                0x0000000000000a10       0x20 c:/program files/microchip/xc32/v4.60/bin/bin/../../lib/gcc/pic32c/8.3.1/../../../../pic32c/lib/thumb/v6-m/nofp\libc-size-musl.a(memcpy.o)
 .debug_aranges
                0x0000000000000a30       0x20 c:/program files/microchip/xc32/v4.60/bin/bin/../../lib/gcc/pic32c/8.3.1/../../../../pic32c/lib/thumb/v6-m/nofp\libc-size-musl.a(memset.o)
 .debug_aranges
                0x0000000000000a50       0x20 c:/program files/microchip/xc32/v4.60/bin/bin/../../lib/gcc/pic32c/8.3.1/../../../../pic32c/lib/thumb/v6-m/nofp\libc-size-musl.a(strlen.o)
 .debug_aranges
                0x0000000000000a70       0x20 c:/program files/microchip/xc32/v4.60/bin/bin/../../lib/gcc/pic32c/8.3.1/../../../../pic32c/lib/thumb/v6-m/nofp\libc-size-musl.a(strchr.o)
 .debug_aranges
                0x0000000000000a90       0x20 c:/program files/microchip/xc32/v4.60/bin/bin/../../lib/gcc/pic32c/8.3.1/../../../../pic32c/lib/thumb/v6-m/nofp\libc-size-musl.a(strchrnul.o)
 .debug_aranges
                0x0000000000000ab0       0x20 c:/program files/microchip/xc32/v4.60/bin/bin/../../lib/gcc/pic32c/8.3.1/../../../../pic32c/lib/thumb/v6-m/nofp\libc-size-musl.a(strnlen.o)
 .debug_aranges
                0x0000000000000ad0       0x20 c:/program files/microchip/xc32/v4.60/bin/bin/../../lib/gcc/pic32c/8.3.1/../../../../pic32c/lib/thumb/v6-m/nofp\libc-size-musl.a(memchr.o)
 .debug_aranges
                0x0000000000000af0       0x30 c:/program files/microchip/xc32/v4.60/bin/bin/../../lib/gcc/pic32c/8.3.1/../../../../pic32c/lib/thumb/v6-m/nofp\liblmalloc-musl.a(lite_free.o)
 .debug_aranges
                0x0000000000000b20       0x20 c:/program files/microchip/xc32/v4.60/bin/bin/../../lib/gcc/pic32c/8.3.1/../../../../pic32c/lib/thumb/v6-m/nofp\liblmalloc-musl.a(lite_malloc.o)
 .debug_aranges
                0x0000000000000b40       0x28 c:/program files/microchip/xc32/v4.60/bin/bin/../../lib/gcc/pic32c/8.3.1/../../../../pic32c/lib/thumb/v6-m/nofp\libg-musl.a(__libc_start_main.o)
 .debug_aranges
                0x0000000000000b68       0x18 c:/program files/microchip/xc32/v4.60/bin/bin/../../lib/gcc/pic32c/8.3.1/../../../../pic32c/lib/thumb/v6-m/nofp\libg-musl.a(__errno_location.o)
 .debug_aranges
                0x0000000000000b80       0x18 c:/program files/microchip/xc32/v4.60/bin/bin/../../lib/gcc/pic32c/8.3.1/../../../../pic32c/lib/thumb/v6-m/nofp\libg-musl.a(libc.o)
 .debug_aranges
                0x0000000000000b98       0x20 c:/program files/microchip/xc32/v4.60/bin/bin/../../lib/gcc/pic32c/8.3.1/../../../../pic32c/lib/thumb/v6-m/nofp\libg-musl.a(expand_heap.o)
 .debug_aranges
                0x0000000000000bb8       0x28 c:/program files/microchip/xc32/v4.60/bin/bin/../../lib/gcc/pic32c/8.3.1/../../../../pic32c/lib/thumb/v6-m/nofp\libg-musl.a(__sio_printf_cdeEfFgGnpsuxX.o)
 .debug_aranges
                0x0000000000000be0       0x28 c:/program files/microchip/xc32/v4.60/bin/bin/../../lib/gcc/pic32c/8.3.1/../../../../pic32c/lib/thumb/v6-m/nofp\libg-musl.a(__sio_sprintf_cdeEfFgGnpsuxX.o)
 .debug_aranges
                0x0000000000000c08       0x20 c:/program files/microchip/xc32/v4.60/bin/bin/../../lib/gcc/pic32c/8.3.1/../../../../pic32c/lib/thumb/v6-m/nofp\libg-musl.a(__fmt_d.o)
 .debug_aranges
                0x0000000000000c28       0x20 c:/program files/microchip/xc32/v4.60/bin/bin/../../lib/gcc/pic32c/8.3.1/../../../../pic32c/lib/thumb/v6-m/nofp\libg-musl.a(__fmt_fp.o)
 .debug_aranges
                0x0000000000000c48       0x20 c:/program files/microchip/xc32/v4.60/bin/bin/../../lib/gcc/pic32c/8.3.1/../../../../pic32c/lib/thumb/v6-m/nofp\libg-musl.a(__fmt_s.o)
 .debug_aranges
                0x0000000000000c68       0x20 c:/program files/microchip/xc32/v4.60/bin/bin/../../lib/gcc/pic32c/8.3.1/../../../../pic32c/lib/thumb/v6-m/nofp\libg-musl.a(__fmt_u.o)
 .debug_aranges
                0x0000000000000c88       0x20 c:/program files/microchip/xc32/v4.60/bin/bin/../../lib/gcc/pic32c/8.3.1/../../../../pic32c/lib/thumb/v6-m/nofp\libg-musl.a(__fmt_x.o)
 .debug_aranges
                0x0000000000000ca8       0x20 c:/program files/microchip/xc32/v4.60/bin/bin/../../lib/gcc/pic32c/8.3.1/../../../../pic32c/lib/thumb/v6-m/nofp\libg-musl.a(__pop_float.o)
 .debug_aranges
                0x0000000000000cc8       0x20 c:/program files/microchip/xc32/v4.60/bin/bin/../../lib/gcc/pic32c/8.3.1/../../../../pic32c/lib/thumb/v6-m/nofp\libg-musl.a(__pop_int.o)
 .debug_aranges
                0x0000000000000ce8       0x20 c:/program files/microchip/xc32/v4.60/bin/bin/../../lib/gcc/pic32c/8.3.1/../../../../pic32c/lib/thumb/v6-m/nofp\libg-musl.a(__pop_ptr.o)
 .debug_aranges
                0x0000000000000d08       0x50 c:/program files/microchip/xc32/v4.60/bin/bin/../../lib/gcc/pic32c/8.3.1/../../../../pic32c/lib/thumb/v6-m/nofp\libg-musl.a(__printf_core.o)
 .debug_aranges
                0x0000000000000d58       0x28 c:/program files/microchip/xc32/v4.60/bin/bin/../../lib/gcc/pic32c/8.3.1/../../../../pic32c/lib/thumb/v6-m/nofp\libg-musl.a(stdin.o)
 .debug_aranges
                0x0000000000000d80       0x30 c:/program files/microchip/xc32/v4.60/bin/bin/../../lib/gcc/pic32c/8.3.1/../../../../pic32c/lib/thumb/v6-m/nofp\libg-musl.a(stdout.o)
 .debug_aranges
                0x0000000000000db0       0x20 c:/program files/microchip/xc32/v4.60/bin/bin/../../lib/gcc/pic32c/8.3.1/../../../../pic32c/lib/thumb/v6-m/nofp\libg-musl.a(putchar.o)
 .debug_aranges
                0x0000000000000dd0       0x20 c:/program files/microchip/xc32/v4.60/bin/bin/../../lib/gcc/pic32c/8.3.1/../../../../pic32c/lib/thumb/v6-m/nofp\libg-musl.a(puts.o)
 .debug_aranges
                0x0000000000000df0       0x20 c:/program files/microchip/xc32/v4.60/bin/bin/../../lib/gcc/pic32c/8.3.1/../../../../pic32c/lib/thumb/v6-m/nofp\libg-musl.a(setbuf.o)
 .debug_aranges
                0x0000000000000e10       0x20 c:/program files/microchip/xc32/v4.60/bin/bin/../../lib/gcc/pic32c/8.3.1/../../../../pic32c/lib/thumb/v6-m/nofp\libg-musl.a(atoi.o)
 .debug_aranges
                0x0000000000000e30       0x20 c:/program files/microchip/xc32/v4.60/bin/bin/../../lib/gcc/pic32c/8.3.1/../../../../pic32c/lib/thumb/v6-m/nofp\libg-musl.a(gmtime.o)
 .debug_aranges
                0x0000000000000e50       0x20 c:/program files/microchip/xc32/v4.60/bin/bin/../../lib/gcc/pic32c/8.3.1/../../../../pic32c/lib/thumb/v6-m/nofp\libg-musl.a(gmtime_r.o)
 .debug_aranges
                0x0000000000000e70       0x20 c:/program files/microchip/xc32/v4.60/bin/bin/../../lib/gcc/pic32c/8.3.1/../../../../pic32c/lib/thumb/v6-m/nofp\libg-musl.a(mktime.o)
 .debug_aranges
                0x0000000000000e90       0x28 c:/program files/microchip/xc32/v4.60/bin/bin/../../lib/gcc/pic32c/8.3.1/../../../../pic32c/lib/thumb/v6-m/nofp\libg-musl.a(tolower.o)
 .debug_aranges
                0x0000000000000eb8       0x28 c:/program files/microchip/xc32/v4.60/bin/bin/../../lib/gcc/pic32c/8.3.1/../../../../pic32c/lib/thumb/v6-m/nofp\libg-musl.a(toupper.o)
 .debug_aranges
                0x0000000000000ee0       0x18 c:/program files/microchip/xc32/v4.60/bin/bin/../../lib/gcc/pic32c/8.3.1/../../../../pic32c/lib/thumb/v6-m/nofp\libg-musl.a(__environ.o)
 .debug_aranges
                0x0000000000000ef8       0x20 c:/program files/microchip/xc32/v4.60/bin/bin/../../lib/gcc/pic32c/8.3.1/../../../../pic32c/lib/thumb/v6-m/nofp\libg-musl.a(__int_vfprintf.o)
 .debug_aranges
                0x0000000000000f18       0x20 c:/program files/microchip/xc32/v4.60/bin/bin/../../lib/gcc/pic32c/8.3.1/../../../../pic32c/lib/thumb/v6-m/nofp\libg-musl.a(__int_vsprintf.o)
 .debug_aranges
                0x0000000000000f38       0x20 c:/program files/microchip/xc32/v4.60/bin/bin/../../lib/gcc/pic32c/8.3.1/../../../../pic32c/lib/thumb/v6-m/nofp\libg-musl.a(fputs.o)
 .debug_aranges
                0x0000000000000f58       0x20 c:/program files/microchip/xc32/v4.60/bin/bin/../../lib/gcc/pic32c/8.3.1/../../../../pic32c/lib/thumb/v6-m/nofp\libg-musl.a(__cvt_u.o)
 .debug_aranges
                0x0000000000000f78       0x20 c:/program files/microchip/xc32/v4.60/bin/bin/../../lib/gcc/pic32c/8.3.1/../../../../pic32c/lib/thumb/v6-m/nofp\libg-musl.a(__stdio_read.o)
 .debug_aranges
                0x0000000000000f98       0x20 c:/program files/microchip/xc32/v4.60/bin/bin/../../lib/gcc/pic32c/8.3.1/../../../../pic32c/lib/thumb/v6-m/nofp\libg-musl.a(__towrite_rw.o)
 .debug_aranges
                0x0000000000000fb8       0x28 c:/program files/microchip/xc32/v4.60/bin/bin/../../lib/gcc/pic32c/8.3.1/../../../../pic32c/lib/thumb/v6-m/nofp\libg-musl.a(fwrite.o)
 .debug_aranges
                0x0000000000000fe0       0x30 c:/program files/microchip/xc32/v4.60/bin/bin/../../lib/gcc/pic32c/8.3.1/../../../../pic32c/lib/thumb/v6-m/nofp\libg-musl.a(putc.o)
 .debug_aranges
                0x0000000000001010       0x28 c:/program files/microchip/xc32/v4.60/bin/bin/../../lib/gcc/pic32c/8.3.1/../../../../pic32c/lib/thumb/v6-m/nofp\libg-musl.a(setvbuf.o)
 .debug_aranges
                0x0000000000001038       0x20 c:/program files/microchip/xc32/v4.60/bin/bin/../../lib/gcc/pic32c/8.3.1/../../../../pic32c/lib/thumb/v6-m/nofp\libg-musl.a(__tm_to_secs.o)
 .debug_aranges
                0x0000000000001058       0x20 c:/program files/microchip/xc32/v4.60/bin/bin/../../lib/gcc/pic32c/8.3.1/../../../../pic32c/lib/thumb/v6-m/nofp\libg-musl.a(__year_to_secs.o)
 .debug_aranges
                0x0000000000001078       0x20 c:/program files/microchip/xc32/v4.60/bin/bin/../../lib/gcc/pic32c/8.3.1/../../../../pic32c/lib/thumb/v6-m/nofp\libg-musl.a(__secs_to_tm.o)
 .debug_aranges
                0x0000000000001098       0x20 c:/program files/microchip/xc32/v4.60/bin/bin/../../lib/gcc/pic32c/8.3.1/../../../../pic32c/lib/thumb/v6-m/nofp\libg-musl.a(readv.o)
 .debug_aranges
                0x00000000000010b8       0x20 c:/program files/microchip/xc32/v4.60/bin/bin/../../lib/gcc/pic32c/8.3.1/../../../../pic32c/lib/thumb/v6-m/nofp\libg-musl.a(__int_vsnprintf.o)
 .debug_aranges
                0x00000000000010d8       0x28 c:/program files/microchip/xc32/v4.60/bin/bin/../../lib/gcc/pic32c/8.3.1/../../../../pic32c/lib/thumb/v6-m/nofp\libg-musl.a(__init_stdio.o)
 .debug_aranges
                0x0000000000001100       0x28 c:/program files/microchip/xc32/v4.60/bin/bin/../../lib/gcc/pic32c/8.3.1/../../../../pic32c/lib/thumb/v6-m/nofp\libg-musl.a(__out.o)
 .debug_aranges
                0x0000000000001128       0x20 c:/program files/microchip/xc32/v4.60/bin/bin/../../lib/gcc/pic32c/8.3.1/../../../../pic32c/lib/thumb/v6-m/nofp\libg-musl.a(__putc.o)
 .debug_aranges
                0x0000000000001148       0x30 c:/program files/microchip/xc32/v4.60/bin/bin/../../lib/gcc/pic32c/8.3.1/../../../../pic32c/lib/thumb/v6-m/nofp\libg-musl.a(__stderr.o)
 .debug_aranges
                0x0000000000001178       0x28 c:/program files/microchip/xc32/v4.60/bin/bin/../../lib/gcc/pic32c/8.3.1/../../../../pic32c/lib/thumb/v6-m/nofp\libg-musl.a(__stdio_close.o)
 .debug_aranges
                0x00000000000011a0       0x28 c:/program files/microchip/xc32/v4.60/bin/bin/../../lib/gcc/pic32c/8.3.1/../../../../pic32c/lib/thumb/v6-m/nofp\libg-musl.a(__stdio_write.o)
 .debug_aranges
                0x00000000000011c8       0x30 c:/program files/microchip/xc32/v4.60/bin/bin/../../lib/gcc/pic32c/8.3.1/../../../../pic32c/lib/thumb/v6-m/nofp\libg-musl.a(__stdout.o)
 .debug_aranges
                0x00000000000011f8       0x28 c:/program files/microchip/xc32/v4.60/bin/bin/../../lib/gcc/pic32c/8.3.1/../../../../pic32c/lib/thumb/v6-m/nofp\libg-musl.a(__towrite.o)
 .debug_aranges
                0x0000000000001220       0x20 c:/program files/microchip/xc32/v4.60/bin/bin/../../lib/gcc/pic32c/8.3.1/../../../../pic32c/lib/thumb/v6-m/nofp\libg-musl.a(__month_to_secs.o)
 .debug_aranges
                0x0000000000001240       0x20 c:/program files/microchip/xc32/v4.60/bin/bin/../../lib/gcc/pic32c/8.3.1/../../../../pic32c/lib/thumb/v6-m/nofp\libg-musl.a(writev.o)
 .debug_aranges
                0x0000000000001260       0x20 c:/program files/microchip/xc32/v4.60/bin/bin/../../lib/gcc/pic32c/8.3.1/../../../../pic32c/lib/thumb/v6-m/nofp\libg-musl.a(__overflow.o)
 .debug_aranges
                0x0000000000001280       0x28 c:/program files/microchip/xc32/v4.60/bin/bin/../../lib/gcc/pic32c/8.3.1/../../../../pic32c/lib/thumb/v6-m/nofp\libg-musl.a(__fwrite.o)
 .debug_aranges
                0x00000000000012a8       0x20 c:/program files/microchip/xc32/v4.60/bin/bin/../../lib/gcc/pic32c/8.3.1/thumb/v6-m/nofp\libgcc.a(_udivsi3.o)
 .debug_aranges
                0x00000000000012c8       0x20 c:/program files/microchip/xc32/v4.60/bin/bin/../../lib/gcc/pic32c/8.3.1/thumb/v6-m/nofp\libgcc.a(_divsi3.o)
 .debug_aranges
                0x00000000000012e8       0x20 c:/program files/microchip/xc32/v4.60/bin/bin/../../lib/gcc/pic32c/8.3.1/thumb/v6-m/nofp\libgcc.a(_dvmd_tls.o)
 .debug_aranges
                0x0000000000001308       0x20 c:/program files/microchip/xc32/v4.60/bin/bin/../../lib/gcc/pic32c/8.3.1/thumb/v6-m/nofp\libgcc.a(_aeabi_ldivmod.o)
 .debug_aranges
                0x0000000000001328       0x20 c:/program files/microchip/xc32/v4.60/bin/bin/../../lib/gcc/pic32c/8.3.1/thumb/v6-m/nofp\libgcc.a(_aeabi_uldivmod.o)
 .debug_aranges
                0x0000000000001348       0x20 c:/program files/microchip/xc32/v4.60/bin/bin/../../lib/gcc/pic32c/8.3.1/thumb/v6-m/nofp\libgcc.a(_muldi3.o)
 .debug_aranges
                0x0000000000001368       0x20 c:/program files/microchip/xc32/v4.60/bin/bin/../../lib/gcc/pic32c/8.3.1/thumb/v6-m/nofp\libgcc.a(_udivmoddi4.o)
 .debug_aranges
                0x0000000000001388       0x20 c:/program files/microchip/xc32/v4.60/bin/bin/../../lib/gcc/pic32c/8.3.1/thumb/v6-m/nofp\libgcc.a(bpabi.o)
 .debug_aranges
                0x00000000000013a8       0x20 c:/program files/microchip/xc32/v4.60/bin/bin/../../lib/gcc/pic32c/8.3.1/thumb/v6-m/nofp\libgcc.a(_lshrdi3.o)
 .debug_aranges
                0x00000000000013c8       0x20 c:/program files/microchip/xc32/v4.60/bin/bin/../../lib/gcc/pic32c/8.3.1/thumb/v6-m/nofp\libgcc.a(_ashldi3.o)
 .debug_aranges
                0x00000000000013e8       0x20 c:/program files/microchip/xc32/v4.60/bin/bin/../../lib/gcc/pic32c/8.3.1/thumb/v6-m/nofp\libgcc.a(_clzdi2.o)
 .debug_aranges
                0x0000000000001408       0x20 c:/program files/microchip/xc32/v4.60/bin/bin/../../lib/gcc/pic32c/8.3.1/thumb/v6-m/nofp\libgcc.a(_divdi3.o)
 .debug_aranges
                0x0000000000001428       0x20 c:/program files/microchip/xc32/v4.60/bin/bin/../../lib/gcc/pic32c/8.3.1/thumb/v6-m/nofp\libgcc.a(_clzsi2.o)
 .debug_aranges
                0x0000000000001448       0x20 c:/program files/microchip/xc32/v4.60/bin/bin/../../lib/gcc/pic32c/8.3.1/../../../../pic32c/lib/thumb/v6-m/nofp\libpic32c.a(close.o)
 .debug_aranges
                0x0000000000001468       0x20 c:/program files/microchip/xc32/v4.60/bin/bin/../../lib/gcc/pic32c/8.3.1/../../../../pic32c/lib/thumb/v6-m/nofp\libpic32c.a(lseek.o)
 .debug_aranges
                0x0000000000001488       0x30 c:/program files/microchip/xc32/v4.60/bin/bin/../../lib/gcc/pic32c/8.3.1/../../../../pic32c/lib/thumb/v6-m/nofp\libpic32c.a(sbrk.o)
 .debug_aranges
                0x00000000000014b8       0x20 c:/program files/microchip/xc32/v4.60/bin/bin/../../lib/gcc/pic32c/8.3.1/../../../../pic32c/lib/thumb/v6-m/nofp\libc-size-musl.a(strcpy.o)
 .debug_aranges
                0x00000000000014d8       0x20 c:/program files/microchip/xc32/v4.60/bin/bin/../../lib/gcc/pic32c/8.3.1/../../../../pic32c/lib/thumb/v6-m/nofp\libc-size-musl.a(stpcpy.o)
 .debug_aranges
                0x00000000000014f8       0x20 c:/program files/microchip/xc32/v4.60/bin/bin/../../lib/gcc/pic32c/8.3.1/../../../../pic32c/lib/thumb/v6-m/nofp\libpic32c.a(pic32_data_init_clear.o)
 .debug_aranges
                0x0000000000001518       0x20 c:/program files/microchip/xc32/v4.60/bin/bin/../../lib/gcc/pic32c/8.3.1/../../../../pic32c/lib/thumb/v6-m/nofp\libpic32c.a(pic32_data_init_copy.o)

.debug_line     0x0000000000000000    0x18c75
 .debug_line    0x0000000000000000      0x2f0 build/SAMD21_IOT_WG_ICM42688/debug/_ext/2048461350/icm42688_sensor.o
 .debug_line    0x00000000000002f0      0xdc0 build/SAMD21_IOT_WG_ICM42688/debug/_ext/1660664302/drv_spi.o
 .debug_line    0x00000000000010b0      0x116 build/SAMD21_IOT_WG_ICM42688/debug/_ext/1164161090/wdrv_winc_gpio.o
 .debug_line    0x00000000000011c6      0x119 build/SAMD21_IOT_WG_ICM42688/debug/_ext/1164161090/wdrv_winc_eint.o
 .debug_line    0x00000000000012df      0x454 build/SAMD21_IOT_WG_ICM42688/debug/_ext/101005277/wdrv_winc_spi.o
 .debug_line    0x0000000000001733       0xd9 build/SAMD21_IOT_WG_ICM42688/debug/_ext/90265895/nm_common.o
 .debug_line    0x000000000000180c      0x450 build/SAMD21_IOT_WG_ICM42688/debug/_ext/121554788/m2m_ssl.o
 .debug_line    0x0000000000001c5c      0x641 build/SAMD21_IOT_WG_ICM42688/debug/_ext/121554788/m2m_hif.o
 .debug_line    0x000000000000229d      0xf91 build/SAMD21_IOT_WG_ICM42688/debug/_ext/121554788/m2m_wifi.o
 .debug_line    0x000000000000322e      0x787 build/SAMD21_IOT_WG_ICM42688/debug/_ext/121554788/nmspi.o
 .debug_line    0x00000000000039b5      0x34a build/SAMD21_IOT_WG_ICM42688/debug/_ext/121554788/nmdrv.o
 .debug_line    0x0000000000003cff      0x4a8 build/SAMD21_IOT_WG_ICM42688/debug/_ext/121554788/m2m_ota.o
 .debug_line    0x00000000000041a7      0x53d build/SAMD21_IOT_WG_ICM42688/debug/_ext/121554788/nmasic.o
 .debug_line    0x00000000000046e4      0x1e4 build/SAMD21_IOT_WG_ICM42688/debug/_ext/121554788/nmbus.o
 .debug_line    0x00000000000048c8      0xa0e build/SAMD21_IOT_WG_ICM42688/debug/_ext/548032175/socket.o
 .debug_line    0x00000000000052d6      0x140 build/SAMD21_IOT_WG_ICM42688/debug/_ext/609036575/flexible_flash.o
 .debug_line    0x0000000000005416      0x53f build/SAMD21_IOT_WG_ICM42688/debug/_ext/609036575/spi_flash.o
 .debug_line    0x0000000000005955      0x11f build/SAMD21_IOT_WG_ICM42688/debug/_ext/1784303044/wdrv_winc_osal.o
 .debug_line    0x0000000000005a74      0x4d7 build/SAMD21_IOT_WG_ICM42688/debug/_ext/907429946/wdrv_winc_systime.o
 .debug_line    0x0000000000005f4b      0x40f build/SAMD21_IOT_WG_ICM42688/debug/_ext/907429946/wdrv_winc_authctx.o
 .debug_line    0x000000000000635a      0x7f0 build/SAMD21_IOT_WG_ICM42688/debug/_ext/907429946/wdrv_winc_host_file.o
 .debug_line    0x0000000000006b4a     0x122b build/SAMD21_IOT_WG_ICM42688/debug/_ext/907429946/wdrv_winc.o
 .debug_line    0x0000000000007d75      0x239 build/SAMD21_IOT_WG_ICM42688/debug/_ext/907429946/wdrv_winc_bssctx.o
 .debug_line    0x0000000000007fae      0x1d0 build/SAMD21_IOT_WG_ICM42688/debug/_ext/1750425231/plib_clock.o
 .debug_line    0x000000000000817e      0x4c4 build/SAMD21_IOT_WG_ICM42688/debug/_ext/1580516298/plib_dmac.o
 .debug_line    0x0000000000008642      0x1c2 build/SAMD21_IOT_WG_ICM42688/debug/_ext/503204096/plib_eic.o
 .debug_line    0x0000000000008804      0x2cc build/SAMD21_IOT_WG_ICM42688/debug/_ext/1580823105/plib_nvic.o
 .debug_line    0x0000000000008ad0      0x260 build/SAMD21_IOT_WG_ICM42688/debug/_ext/11470383/plib_nvmctrl.o
 .debug_line    0x0000000000008d30      0x2e9 build/SAMD21_IOT_WG_ICM42688/debug/_ext/1580876256/plib_port.o
 .debug_line    0x0000000000009019      0x321 build/SAMD21_IOT_WG_ICM42688/debug/_ext/1014017276/plib_sercom0_spi_master.o
 .debug_line    0x000000000000933a      0x483 build/SAMD21_IOT_WG_ICM42688/debug/_ext/1014017276/plib_sercom2_spi_master.o
 .debug_line    0x00000000000097bd      0x487 build/SAMD21_IOT_WG_ICM42688/debug/_ext/177673482/plib_sercom5_usart.o
 .debug_line    0x0000000000009c44      0x218 build/SAMD21_IOT_WG_ICM42688/debug/_ext/223004715/plib_systick.o
 .debug_line    0x0000000000009e5c      0x237 build/SAMD21_IOT_WG_ICM42688/debug/_ext/399410062/plib_tc3.o
 .debug_line    0x000000000000a093      0x250 build/SAMD21_IOT_WG_ICM42688/debug/_ext/399410062/plib_tc4.o
 .debug_line    0x000000000000a2e3       0xec build/SAMD21_IOT_WG_ICM42688/debug/_ext/1357625803/xc32_monitor.o
 .debug_line    0x000000000000a3cf      0x12c build/SAMD21_IOT_WG_ICM42688/debug/_ext/1584719636/sys_dma.o
 .debug_line    0x000000000000a4fb      0x227 build/SAMD21_IOT_WG_ICM42688/debug/_ext/1318297016/sys_int.o
 .debug_line    0x000000000000a722      0x9cc build/SAMD21_IOT_WG_ICM42688/debug/_ext/386530258/sys_time.o
 .debug_line    0x000000000000b0ee      0x4c4 build/SAMD21_IOT_WG_ICM42688/debug/_ext/1832905403/initialization.o
 .debug_line    0x000000000000b5b2      0x104 build/SAMD21_IOT_WG_ICM42688/debug/_ext/1832905403/interrupts.o
 .debug_line    0x000000000000b6b6       0x73 build/SAMD21_IOT_WG_ICM42688/debug/_ext/1832905403/exceptions.o
 .debug_line    0x000000000000b729      0x13e build/SAMD21_IOT_WG_ICM42688/debug/_ext/1832905403/startup_xc32.o
 .debug_line    0x000000000000b867       0x67 build/SAMD21_IOT_WG_ICM42688/debug/_ext/1832905403/tasks.o
 .debug_line    0x000000000000b8ce     0x12b7 build/SAMD21_IOT_WG_ICM42688/debug/_ext/1341251756/Icm426xxDriver_HL.o
 .debug_line    0x000000000000cb85      0x1d7 build/SAMD21_IOT_WG_ICM42688/debug/_ext/1341251756/Icm426xxTransport.o
 .debug_line    0x000000000000cd5c      0x40b build/SAMD21_IOT_WG_ICM42688/debug/_ext/1360937237/main.o
 .debug_line    0x000000000000d167      0x27d build/SAMD21_IOT_WG_ICM42688/debug/_ext/1360937237/ringbuffer.o
 .debug_line    0x000000000000d3e4      0x1c0 build/SAMD21_IOT_WG_ICM42688/debug/_ext/1360937237/app.o
 .debug_line    0x000000000000d5a4      0x323 build/SAMD21_IOT_WG_ICM42688/debug/_ext/1360937237/ws2812.o
 .debug_line    0x000000000000d8c7       0xc3 build/SAMD21_IOT_WG_ICM42688/debug/_ext/431689064/sml_recognition_run.o
 .debug_line    0x000000000000d98a       0xc0 build/SAMD21_IOT_WG_ICM42688/debug/_ext/336238826/dsp_dtw_distance.o
 .debug_line    0x000000000000da4a       0xd6 build/SAMD21_IOT_WG_ICM42688/debug/_ext/336238826/dsp_l1_distance.o
 .debug_line    0x000000000000db20       0xdc build/SAMD21_IOT_WG_ICM42688/debug/_ext/336238826/dsp_lsup_distance.o
 .debug_line    0x000000000000dbfc      0x10b build/SAMD21_IOT_WG_ICM42688/debug/_ext/336238826/fg_amplitude_peak_to_peak.o
 .debug_line    0x000000000000dd07      0x10c build/SAMD21_IOT_WG_ICM42688/debug/_ext/336238826/fg_cross_mean_difference.o
 .debug_line    0x000000000000de13       0xdc build/SAMD21_IOT_WG_ICM42688/debug/_ext/336238826/fg_cross_p2p_difference.o
 .debug_line    0x000000000000deef      0x12c build/SAMD21_IOT_WG_ICM42688/debug/_ext/336238826/fg_cross_peak_location_difference.o
 .debug_line    0x000000000000e01b       0xd5 build/SAMD21_IOT_WG_ICM42688/debug/_ext/336238826/fg_stats_minimum.o
 .debug_line    0x000000000000e0f0      0x8ad build/SAMD21_IOT_WG_ICM42688/debug/_ext/336238826/kb.o
 .debug_line    0x000000000000e99d      0x2c7 build/SAMD21_IOT_WG_ICM42688/debug/_ext/336238826/kb_output.o
 .debug_line    0x000000000000ec64      0x2d1 build/SAMD21_IOT_WG_ICM42688/debug/_ext/336238826/kb_pipeline.o
 .debug_line    0x000000000000ef35      0x119 build/SAMD21_IOT_WG_ICM42688/debug/_ext/336238826/mean.o
 .debug_line    0x000000000000f04e      0x977 build/SAMD21_IOT_WG_ICM42688/debug/_ext/336238826/pme.o
 .debug_line    0x000000000000f9c5       0xbb build/SAMD21_IOT_WG_ICM42688/debug/_ext/336238826/pme_trained_neurons.o
 .debug_line    0x000000000000fa80      0x38c build/SAMD21_IOT_WG_ICM42688/debug/_ext/336238826/rb.o
 .debug_line    0x000000000000fe0c       0xed build/SAMD21_IOT_WG_ICM42688/debug/_ext/336238826/save_sensor_data.o
 .debug_line    0x000000000000fef9      0x106 build/SAMD21_IOT_WG_ICM42688/debug/_ext/336238826/sf_downsample_by_averaging.o
 .debug_line    0x000000000000ffff       0xfc build/SAMD21_IOT_WG_ICM42688/debug/_ext/336238826/sg_windowing.o
 .debug_line    0x00000000000100fb       0xf1 build/SAMD21_IOT_WG_ICM42688/debug/_ext/336238826/sortarray.o
 .debug_line    0x00000000000101ec       0xdc build/SAMD21_IOT_WG_ICM42688/debug/_ext/336238826/sorted_copy.o
 .debug_line    0x00000000000102c8      0x133 build/SAMD21_IOT_WG_ICM42688/debug/_ext/336238826/tr_min_max_scale.o
 .debug_line    0x00000000000103fb      0x120 build/SAMD21_IOT_WG_ICM42688/debug/_ext/336238826/utils_array_max_uint8.o
 .debug_line    0x000000000001051b       0xb5 build/SAMD21_IOT_WG_ICM42688/debug/_ext/336238826/utils_bitwise_abs_val.o
 .debug_line    0x00000000000105d0       0xe7 build/SAMD21_IOT_WG_ICM42688/debug/_ext/336238826/utils_buffer_argmax.o
 .debug_line    0x00000000000106b7       0xe4 build/SAMD21_IOT_WG_ICM42688/debug/_ext/336238826/utils_buffer_min_max.o
 .debug_line    0x000000000001079b      0x1a1 build/SAMD21_IOT_WG_ICM42688/debug/_ext/336238826/utils_model_cross_difference.o
 .debug_line    0x000000000001093c      0x16e build/SAMD21_IOT_WG_ICM42688/debug/_ext/336238826/utils_model_stats_max_min.o
 .debug_line    0x0000000000010aaa       0xde build/SAMD21_IOT_WG_ICM42688/debug/_ext/336238826/utils_tr_sensor.o
 .debug_line    0x0000000000010b88       0xa5 c:/program files/microchip/xc32/v4.60/bin/bin/../../lib/gcc/pic32c/8.3.1/../../../../pic32c/lib/thumb/v6-m/nofp\libpic32c.a(data_init.o)
 .debug_line    0x0000000000010c2d       0xee c:/program files/microchip/xc32/v4.60/bin/bin/../../lib/gcc/pic32c/8.3.1/../../../../pic32c/lib/thumb/v6-m/nofp\libc-size-musl.a(memcpy.o)
 .debug_line    0x0000000000010d1b       0xe3 c:/program files/microchip/xc32/v4.60/bin/bin/../../lib/gcc/pic32c/8.3.1/../../../../pic32c/lib/thumb/v6-m/nofp\libc-size-musl.a(memset.o)
 .debug_line    0x0000000000010dfe       0xee c:/program files/microchip/xc32/v4.60/bin/bin/../../lib/gcc/pic32c/8.3.1/../../../../pic32c/lib/thumb/v6-m/nofp\libc-size-musl.a(strlen.o)
 .debug_line    0x0000000000010eec       0xb2 c:/program files/microchip/xc32/v4.60/bin/bin/../../lib/gcc/pic32c/8.3.1/../../../../pic32c/lib/thumb/v6-m/nofp\libc-size-musl.a(strchr.o)
 .debug_line    0x0000000000010f9e      0x19c c:/program files/microchip/xc32/v4.60/bin/bin/../../lib/gcc/pic32c/8.3.1/../../../../pic32c/lib/thumb/v6-m/nofp\libc-size-musl.a(strchrnul.o)
 .debug_line    0x000000000001113a      0x14d c:/program files/microchip/xc32/v4.60/bin/bin/../../lib/gcc/pic32c/8.3.1/../../../../pic32c/lib/thumb/v6-m/nofp\libc-size-musl.a(strnlen.o)
 .debug_line    0x0000000000011287       0xfd c:/program files/microchip/xc32/v4.60/bin/bin/../../lib/gcc/pic32c/8.3.1/../../../../pic32c/lib/thumb/v6-m/nofp\libc-size-musl.a(memchr.o)
 .debug_line    0x0000000000011384      0x266 c:/program files/microchip/xc32/v4.60/bin/bin/../../lib/gcc/pic32c/8.3.1/../../../../pic32c/lib/thumb/v6-m/nofp\liblmalloc-musl.a(lite_free.o)
 .debug_line    0x00000000000115ea      0x1d3 c:/program files/microchip/xc32/v4.60/bin/bin/../../lib/gcc/pic32c/8.3.1/../../../../pic32c/lib/thumb/v6-m/nofp\liblmalloc-musl.a(lite_malloc.o)
 .debug_line    0x00000000000117bd      0x1bc c:/program files/microchip/xc32/v4.60/bin/bin/../../lib/gcc/pic32c/8.3.1/../../../../pic32c/lib/thumb/v6-m/nofp\libg-musl.a(__libc_start_main.o)
 .debug_line    0x0000000000011979       0x9a c:/program files/microchip/xc32/v4.60/bin/bin/../../lib/gcc/pic32c/8.3.1/../../../../pic32c/lib/thumb/v6-m/nofp\libg-musl.a(__errno_location.o)
 .debug_line    0x0000000000011a13       0xb5 c:/program files/microchip/xc32/v4.60/bin/bin/../../lib/gcc/pic32c/8.3.1/../../../../pic32c/lib/thumb/v6-m/nofp\libg-musl.a(libc.o)
 .debug_line    0x0000000000011ac8       0xec c:/program files/microchip/xc32/v4.60/bin/bin/../../lib/gcc/pic32c/8.3.1/../../../../pic32c/lib/thumb/v6-m/nofp\libg-musl.a(expand_heap.o)
 .debug_line    0x0000000000011bb4      0x1ca c:/program files/microchip/xc32/v4.60/bin/bin/../../lib/gcc/pic32c/8.3.1/../../../../pic32c/lib/thumb/v6-m/nofp\libg-musl.a(__sio_printf_cdeEfFgGnpsuxX.o)
 .debug_line    0x0000000000011d7e      0x1b3 c:/program files/microchip/xc32/v4.60/bin/bin/../../lib/gcc/pic32c/8.3.1/../../../../pic32c/lib/thumb/v6-m/nofp\libg-musl.a(__sio_sprintf_cdeEfFgGnpsuxX.o)
 .debug_line    0x0000000000011f31      0x20b c:/program files/microchip/xc32/v4.60/bin/bin/../../lib/gcc/pic32c/8.3.1/../../../../pic32c/lib/thumb/v6-m/nofp\libg-musl.a(__fmt_d.o)
 .debug_line    0x000000000001213c      0x66d c:/program files/microchip/xc32/v4.60/bin/bin/../../lib/gcc/pic32c/8.3.1/../../../../pic32c/lib/thumb/v6-m/nofp\libg-musl.a(__fmt_fp.o)
 .debug_line    0x00000000000127a9      0x204 c:/program files/microchip/xc32/v4.60/bin/bin/../../lib/gcc/pic32c/8.3.1/../../../../pic32c/lib/thumb/v6-m/nofp\libg-musl.a(__fmt_s.o)
 .debug_line    0x00000000000129ad      0x187 c:/program files/microchip/xc32/v4.60/bin/bin/../../lib/gcc/pic32c/8.3.1/../../../../pic32c/lib/thumb/v6-m/nofp\libg-musl.a(__fmt_u.o)
 .debug_line    0x0000000000012b34      0x2ec c:/program files/microchip/xc32/v4.60/bin/bin/../../lib/gcc/pic32c/8.3.1/../../../../pic32c/lib/thumb/v6-m/nofp\libg-musl.a(__fmt_x.o)
 .debug_line    0x0000000000012e20      0x166 c:/program files/microchip/xc32/v4.60/bin/bin/../../lib/gcc/pic32c/8.3.1/../../../../pic32c/lib/thumb/v6-m/nofp\libg-musl.a(__pop_float.o)
 .debug_line    0x0000000000012f86      0x211 c:/program files/microchip/xc32/v4.60/bin/bin/../../lib/gcc/pic32c/8.3.1/../../../../pic32c/lib/thumb/v6-m/nofp\libg-musl.a(__pop_int.o)
 .debug_line    0x0000000000013197      0x1c8 c:/program files/microchip/xc32/v4.60/bin/bin/../../lib/gcc/pic32c/8.3.1/../../../../pic32c/lib/thumb/v6-m/nofp\libg-musl.a(__pop_ptr.o)
 .debug_line    0x000000000001335f      0x6c7 c:/program files/microchip/xc32/v4.60/bin/bin/../../lib/gcc/pic32c/8.3.1/../../../../pic32c/lib/thumb/v6-m/nofp\libg-musl.a(__printf_core.o)
 .debug_line    0x0000000000013a26      0x1cf c:/program files/microchip/xc32/v4.60/bin/bin/../../lib/gcc/pic32c/8.3.1/../../../../pic32c/lib/thumb/v6-m/nofp\libg-musl.a(stdin.o)
 .debug_line    0x0000000000013bf5      0x191 c:/program files/microchip/xc32/v4.60/bin/bin/../../lib/gcc/pic32c/8.3.1/../../../../pic32c/lib/thumb/v6-m/nofp\libg-musl.a(stdout.o)
 .debug_line    0x0000000000013d86      0x13a c:/program files/microchip/xc32/v4.60/bin/bin/../../lib/gcc/pic32c/8.3.1/../../../../pic32c/lib/thumb/v6-m/nofp\libg-musl.a(putchar.o)
 .debug_line    0x0000000000013ec0      0x1c6 c:/program files/microchip/xc32/v4.60/bin/bin/../../lib/gcc/pic32c/8.3.1/../../../../pic32c/lib/thumb/v6-m/nofp\libg-musl.a(puts.o)
 .debug_line    0x0000000000014086      0x133 c:/program files/microchip/xc32/v4.60/bin/bin/../../lib/gcc/pic32c/8.3.1/../../../../pic32c/lib/thumb/v6-m/nofp\libg-musl.a(setbuf.o)
 .debug_line    0x00000000000141b9      0x173 c:/program files/microchip/xc32/v4.60/bin/bin/../../lib/gcc/pic32c/8.3.1/../../../../pic32c/lib/thumb/v6-m/nofp\libg-musl.a(atoi.o)
 .debug_line    0x000000000001432c      0x130 c:/program files/microchip/xc32/v4.60/bin/bin/../../lib/gcc/pic32c/8.3.1/../../../../pic32c/lib/thumb/v6-m/nofp\libg-musl.a(gmtime.o)
 .debug_line    0x000000000001445c      0x25c c:/program files/microchip/xc32/v4.60/bin/bin/../../lib/gcc/pic32c/8.3.1/../../../../pic32c/lib/thumb/v6-m/nofp\libg-musl.a(gmtime_r.o)
 .debug_line    0x00000000000146b8      0x285 c:/program files/microchip/xc32/v4.60/bin/bin/../../lib/gcc/pic32c/8.3.1/../../../../pic32c/lib/thumb/v6-m/nofp\libg-musl.a(mktime.o)
 .debug_line    0x000000000001493d      0x15c c:/program files/microchip/xc32/v4.60/bin/bin/../../lib/gcc/pic32c/8.3.1/../../../../pic32c/lib/thumb/v6-m/nofp\libg-musl.a(tolower.o)
 .debug_line    0x0000000000014a99      0x15c c:/program files/microchip/xc32/v4.60/bin/bin/../../lib/gcc/pic32c/8.3.1/../../../../pic32c/lib/thumb/v6-m/nofp\libg-musl.a(toupper.o)
 .debug_line    0x0000000000014bf5       0xfb c:/program files/microchip/xc32/v4.60/bin/bin/../../lib/gcc/pic32c/8.3.1/../../../../pic32c/lib/thumb/v6-m/nofp\libg-musl.a(__environ.o)
 .debug_line    0x0000000000014cf0      0x172 c:/program files/microchip/xc32/v4.60/bin/bin/../../lib/gcc/pic32c/8.3.1/../../../../pic32c/lib/thumb/v6-m/nofp\libg-musl.a(__int_vfprintf.o)
 .debug_line    0x0000000000014e62      0x153 c:/program files/microchip/xc32/v4.60/bin/bin/../../lib/gcc/pic32c/8.3.1/../../../../pic32c/lib/thumb/v6-m/nofp\libg-musl.a(__int_vsprintf.o)
 .debug_line    0x0000000000014fb5      0x236 c:/program files/microchip/xc32/v4.60/bin/bin/../../lib/gcc/pic32c/8.3.1/../../../../pic32c/lib/thumb/v6-m/nofp\libg-musl.a(fputs.o)
 .debug_line    0x00000000000151eb      0x1d7 c:/program files/microchip/xc32/v4.60/bin/bin/../../lib/gcc/pic32c/8.3.1/../../../../pic32c/lib/thumb/v6-m/nofp\libg-musl.a(__cvt_u.o)
 .debug_line    0x00000000000153c2      0x240 c:/program files/microchip/xc32/v4.60/bin/bin/../../lib/gcc/pic32c/8.3.1/../../../../pic32c/lib/thumb/v6-m/nofp\libg-musl.a(__stdio_read.o)
 .debug_line    0x0000000000015602      0x1eb c:/program files/microchip/xc32/v4.60/bin/bin/../../lib/gcc/pic32c/8.3.1/../../../../pic32c/lib/thumb/v6-m/nofp\libg-musl.a(__towrite_rw.o)
 .debug_line    0x00000000000157ed      0x1f5 c:/program files/microchip/xc32/v4.60/bin/bin/../../lib/gcc/pic32c/8.3.1/../../../../pic32c/lib/thumb/v6-m/nofp\libg-musl.a(fwrite.o)
 .debug_line    0x00000000000159e2      0x1a3 c:/program files/microchip/xc32/v4.60/bin/bin/../../lib/gcc/pic32c/8.3.1/../../../../pic32c/lib/thumb/v6-m/nofp\libg-musl.a(putc.o)
 .debug_line    0x0000000000015b85      0x223 c:/program files/microchip/xc32/v4.60/bin/bin/../../lib/gcc/pic32c/8.3.1/../../../../pic32c/lib/thumb/v6-m/nofp\libg-musl.a(setvbuf.o)
 .debug_line    0x0000000000015da8      0x1da c:/program files/microchip/xc32/v4.60/bin/bin/../../lib/gcc/pic32c/8.3.1/../../../../pic32c/lib/thumb/v6-m/nofp\libg-musl.a(__tm_to_secs.o)
 .debug_line    0x0000000000015f82      0x20b c:/program files/microchip/xc32/v4.60/bin/bin/../../lib/gcc/pic32c/8.3.1/../../../../pic32c/lib/thumb/v6-m/nofp\libg-musl.a(__year_to_secs.o)
 .debug_line    0x000000000001618d      0x322 c:/program files/microchip/xc32/v4.60/bin/bin/../../lib/gcc/pic32c/8.3.1/../../../../pic32c/lib/thumb/v6-m/nofp\libg-musl.a(__secs_to_tm.o)
 .debug_line    0x00000000000164af      0x15c c:/program files/microchip/xc32/v4.60/bin/bin/../../lib/gcc/pic32c/8.3.1/../../../../pic32c/lib/thumb/v6-m/nofp\libg-musl.a(readv.o)
 .debug_line    0x000000000001660b      0x1c7 c:/program files/microchip/xc32/v4.60/bin/bin/../../lib/gcc/pic32c/8.3.1/../../../../pic32c/lib/thumb/v6-m/nofp\libg-musl.a(__int_vsnprintf.o)
 .debug_line    0x00000000000167d2       0xd0 c:/program files/microchip/xc32/v4.60/bin/bin/../../lib/gcc/pic32c/8.3.1/../../../../pic32c/lib/thumb/v6-m/nofp\libg-musl.a(__init_stdio.o)
 .debug_line    0x00000000000168a2      0x28f c:/program files/microchip/xc32/v4.60/bin/bin/../../lib/gcc/pic32c/8.3.1/../../../../pic32c/lib/thumb/v6-m/nofp\libg-musl.a(__out.o)
 .debug_line    0x0000000000016b31      0x15b c:/program files/microchip/xc32/v4.60/bin/bin/../../lib/gcc/pic32c/8.3.1/../../../../pic32c/lib/thumb/v6-m/nofp\libg-musl.a(__putc.o)
 .debug_line    0x0000000000016c8c      0x1da c:/program files/microchip/xc32/v4.60/bin/bin/../../lib/gcc/pic32c/8.3.1/../../../../pic32c/lib/thumb/v6-m/nofp\libg-musl.a(__stderr.o)
 .debug_line    0x0000000000016e66      0x2de c:/program files/microchip/xc32/v4.60/bin/bin/../../lib/gcc/pic32c/8.3.1/../../../../pic32c/lib/thumb/v6-m/nofp\libg-musl.a(__stdio_close.o)
 .debug_line    0x0000000000017144      0x339 c:/program files/microchip/xc32/v4.60/bin/bin/../../lib/gcc/pic32c/8.3.1/../../../../pic32c/lib/thumb/v6-m/nofp\libg-musl.a(__stdio_write.o)
 .debug_line    0x000000000001747d      0x1da c:/program files/microchip/xc32/v4.60/bin/bin/../../lib/gcc/pic32c/8.3.1/../../../../pic32c/lib/thumb/v6-m/nofp\libg-musl.a(__stdout.o)
 .debug_line    0x0000000000017657      0x180 c:/program files/microchip/xc32/v4.60/bin/bin/../../lib/gcc/pic32c/8.3.1/../../../../pic32c/lib/thumb/v6-m/nofp\libg-musl.a(__towrite.o)
 .debug_line    0x00000000000177d7       0xc6 c:/program files/microchip/xc32/v4.60/bin/bin/../../lib/gcc/pic32c/8.3.1/../../../../pic32c/lib/thumb/v6-m/nofp\libg-musl.a(__month_to_secs.o)
 .debug_line    0x000000000001789d      0x15d c:/program files/microchip/xc32/v4.60/bin/bin/../../lib/gcc/pic32c/8.3.1/../../../../pic32c/lib/thumb/v6-m/nofp\libg-musl.a(writev.o)
 .debug_line    0x00000000000179fa      0x1fb c:/program files/microchip/xc32/v4.60/bin/bin/../../lib/gcc/pic32c/8.3.1/../../../../pic32c/lib/thumb/v6-m/nofp\libg-musl.a(__overflow.o)
 .debug_line    0x0000000000017bf5      0x1e4 c:/program files/microchip/xc32/v4.60/bin/bin/../../lib/gcc/pic32c/8.3.1/../../../../pic32c/lib/thumb/v6-m/nofp\libg-musl.a(__fwrite.o)
 .debug_line    0x0000000000017dd9       0xa8 c:/program files/microchip/xc32/v4.60/bin/bin/../../lib/gcc/pic32c/8.3.1/thumb/v6-m/nofp\libgcc.a(_udivsi3.o)
 .debug_line    0x0000000000017e81       0xb6 c:/program files/microchip/xc32/v4.60/bin/bin/../../lib/gcc/pic32c/8.3.1/thumb/v6-m/nofp\libgcc.a(_divsi3.o)
 .debug_line    0x0000000000017f37       0x91 c:/program files/microchip/xc32/v4.60/bin/bin/../../lib/gcc/pic32c/8.3.1/thumb/v6-m/nofp\libgcc.a(_dvmd_tls.o)
 .debug_line    0x0000000000017fc8       0x9c c:/program files/microchip/xc32/v4.60/bin/bin/../../lib/gcc/pic32c/8.3.1/thumb/v6-m/nofp\libgcc.a(_aeabi_ldivmod.o)
 .debug_line    0x0000000000018064       0x9c c:/program files/microchip/xc32/v4.60/bin/bin/../../lib/gcc/pic32c/8.3.1/thumb/v6-m/nofp\libgcc.a(_aeabi_uldivmod.o)
 .debug_line    0x0000000000018100       0xe7 c:/program files/microchip/xc32/v4.60/bin/bin/../../lib/gcc/pic32c/8.3.1/thumb/v6-m/nofp\libgcc.a(_muldi3.o)
 .debug_line    0x00000000000181e7      0x188 c:/program files/microchip/xc32/v4.60/bin/bin/../../lib/gcc/pic32c/8.3.1/thumb/v6-m/nofp\libgcc.a(_udivmoddi4.o)
 .debug_line    0x000000000001836f       0xb9 c:/program files/microchip/xc32/v4.60/bin/bin/../../lib/gcc/pic32c/8.3.1/thumb/v6-m/nofp\libgcc.a(bpabi.o)
 .debug_line    0x0000000000018428       0x9c c:/program files/microchip/xc32/v4.60/bin/bin/../../lib/gcc/pic32c/8.3.1/thumb/v6-m/nofp\libgcc.a(_lshrdi3.o)
 .debug_line    0x00000000000184c4       0x9c c:/program files/microchip/xc32/v4.60/bin/bin/../../lib/gcc/pic32c/8.3.1/thumb/v6-m/nofp\libgcc.a(_ashldi3.o)
 .debug_line    0x0000000000018560       0x9b c:/program files/microchip/xc32/v4.60/bin/bin/../../lib/gcc/pic32c/8.3.1/thumb/v6-m/nofp\libgcc.a(_clzdi2.o)
 .debug_line    0x00000000000185fb      0x1d9 c:/program files/microchip/xc32/v4.60/bin/bin/../../lib/gcc/pic32c/8.3.1/thumb/v6-m/nofp\libgcc.a(_divdi3.o)
 .debug_line    0x00000000000187d4       0xa5 c:/program files/microchip/xc32/v4.60/bin/bin/../../lib/gcc/pic32c/8.3.1/thumb/v6-m/nofp\libgcc.a(_clzsi2.o)
 .debug_line    0x0000000000018879       0x5c c:/program files/microchip/xc32/v4.60/bin/bin/../../lib/gcc/pic32c/8.3.1/../../../../pic32c/lib/thumb/v6-m/nofp\libpic32c.a(close.o)
 .debug_line    0x00000000000188d5       0x59 c:/program files/microchip/xc32/v4.60/bin/bin/../../lib/gcc/pic32c/8.3.1/../../../../pic32c/lib/thumb/v6-m/nofp\libpic32c.a(lseek.o)
 .debug_line    0x000000000001892e       0xdd c:/program files/microchip/xc32/v4.60/bin/bin/../../lib/gcc/pic32c/8.3.1/../../../../pic32c/lib/thumb/v6-m/nofp\libpic32c.a(sbrk.o)
 .debug_line    0x0000000000018a0b       0xb2 c:/program files/microchip/xc32/v4.60/bin/bin/../../lib/gcc/pic32c/8.3.1/../../../../pic32c/lib/thumb/v6-m/nofp\libc-size-musl.a(strcpy.o)
 .debug_line    0x0000000000018abd       0xc1 c:/program files/microchip/xc32/v4.60/bin/bin/../../lib/gcc/pic32c/8.3.1/../../../../pic32c/lib/thumb/v6-m/nofp\libc-size-musl.a(stpcpy.o)
 .debug_line    0x0000000000018b7e       0x6f c:/program files/microchip/xc32/v4.60/bin/bin/../../lib/gcc/pic32c/8.3.1/../../../../pic32c/lib/thumb/v6-m/nofp\libpic32c.a(pic32_data_init_clear.o)
 .debug_line    0x0000000000018bed       0x88 c:/program files/microchip/xc32/v4.60/bin/bin/../../lib/gcc/pic32c/8.3.1/../../../../pic32c/lib/thumb/v6-m/nofp\libpic32c.a(pic32_data_init_copy.o)

.debug_str      0x0000000000000000    0x3744b
 .debug_str     0x0000000000000000      0xf40 build/SAMD21_IOT_WG_ICM42688/debug/_ext/2048461350/icm42688_sensor.o
 .debug_str     0x0000000000000f40     0x1d31 build/SAMD21_IOT_WG_ICM42688/debug/_ext/1660664302/drv_spi.o
 .debug_str     0x0000000000002c71      0x3ff build/SAMD21_IOT_WG_ICM42688/debug/_ext/1164161090/wdrv_winc_gpio.o
 .debug_str     0x0000000000003070      0x2ff build/SAMD21_IOT_WG_ICM42688/debug/_ext/1164161090/wdrv_winc_eint.o
 .debug_str     0x000000000000336f      0xebe build/SAMD21_IOT_WG_ICM42688/debug/_ext/101005277/wdrv_winc_spi.o
 .debug_str     0x000000000000422d      0x2ca build/SAMD21_IOT_WG_ICM42688/debug/_ext/90265895/nm_common.o
 .debug_str     0x00000000000044f7      0x991 build/SAMD21_IOT_WG_ICM42688/debug/_ext/121554788/m2m_ssl.o
 .debug_str     0x0000000000004e88      0x846 build/SAMD21_IOT_WG_ICM42688/debug/_ext/121554788/m2m_hif.o
 .debug_str     0x00000000000056ce     0x2e6a build/SAMD21_IOT_WG_ICM42688/debug/_ext/121554788/m2m_wifi.o
 .debug_str     0x0000000000008538      0x75b build/SAMD21_IOT_WG_ICM42688/debug/_ext/121554788/nmspi.o
 .debug_str     0x0000000000008c93      0x4f4 build/SAMD21_IOT_WG_ICM42688/debug/_ext/121554788/nmdrv.o
 .debug_str     0x0000000000009187      0xf8c build/SAMD21_IOT_WG_ICM42688/debug/_ext/121554788/m2m_ota.o
 .debug_str     0x000000000000a113      0x595 build/SAMD21_IOT_WG_ICM42688/debug/_ext/121554788/nmasic.o
 .debug_str     0x000000000000a6a8      0x4b0 build/SAMD21_IOT_WG_ICM42688/debug/_ext/121554788/nmbus.o
 .debug_str     0x000000000000ab58      0xff9 build/SAMD21_IOT_WG_ICM42688/debug/_ext/548032175/socket.o
 .debug_str     0x000000000000bb51      0x34e build/SAMD21_IOT_WG_ICM42688/debug/_ext/609036575/flexible_flash.o
 .debug_str     0x000000000000be9f      0x4c7 build/SAMD21_IOT_WG_ICM42688/debug/_ext/609036575/spi_flash.o
 .debug_str     0x000000000000c366      0x2fc build/SAMD21_IOT_WG_ICM42688/debug/_ext/1784303044/wdrv_winc_osal.o
 .debug_str     0x000000000000c662     0x1832 build/SAMD21_IOT_WG_ICM42688/debug/_ext/907429946/wdrv_winc_systime.o
 .debug_str     0x000000000000de94      0xb67 build/SAMD21_IOT_WG_ICM42688/debug/_ext/907429946/wdrv_winc_authctx.o
 .debug_str     0x000000000000e9fb     0x1953 build/SAMD21_IOT_WG_ICM42688/debug/_ext/907429946/wdrv_winc_host_file.o
 .debug_str     0x000000000001034e     0x358f build/SAMD21_IOT_WG_ICM42688/debug/_ext/907429946/wdrv_winc.o
 .debug_str     0x00000000000138dd      0x7a6 build/SAMD21_IOT_WG_ICM42688/debug/_ext/907429946/wdrv_winc_bssctx.o
 .debug_str     0x0000000000014083      0x5ac build/SAMD21_IOT_WG_ICM42688/debug/_ext/1750425231/plib_clock.o
 .debug_str     0x000000000001462f      0x8d6 build/SAMD21_IOT_WG_ICM42688/debug/_ext/1580516298/plib_dmac.o
 .debug_str     0x0000000000014f05      0x427 build/SAMD21_IOT_WG_ICM42688/debug/_ext/503204096/plib_eic.o
 .debug_str     0x000000000001532c      0x5e1 build/SAMD21_IOT_WG_ICM42688/debug/_ext/1580823105/plib_nvic.o
 .debug_str     0x000000000001590d      0x4fb build/SAMD21_IOT_WG_ICM42688/debug/_ext/11470383/plib_nvmctrl.o
 .debug_str     0x0000000000015e08      0x77f build/SAMD21_IOT_WG_ICM42688/debug/_ext/1580876256/plib_port.o
 .debug_str     0x0000000000016587      0x6f8 build/SAMD21_IOT_WG_ICM42688/debug/_ext/1014017276/plib_sercom0_spi_master.o
 .debug_str     0x0000000000016c7f      0x7f9 build/SAMD21_IOT_WG_ICM42688/debug/_ext/1014017276/plib_sercom2_spi_master.o
 .debug_str     0x0000000000017478      0x88f build/SAMD21_IOT_WG_ICM42688/debug/_ext/177673482/plib_sercom5_usart.o
 .debug_str     0x0000000000017d07      0x406 build/SAMD21_IOT_WG_ICM42688/debug/_ext/223004715/plib_systick.o
 .debug_str     0x000000000001810d      0x585 build/SAMD21_IOT_WG_ICM42688/debug/_ext/399410062/plib_tc3.o
 .debug_str     0x0000000000018692      0x5a6 build/SAMD21_IOT_WG_ICM42688/debug/_ext/399410062/plib_tc4.o
 .debug_str     0x0000000000018c38      0x2ca build/SAMD21_IOT_WG_ICM42688/debug/_ext/1357625803/xc32_monitor.o
 .debug_str     0x0000000000018f02      0x5d7 build/SAMD21_IOT_WG_ICM42688/debug/_ext/1584719636/sys_dma.o
 .debug_str     0x00000000000194d9      0x553 build/SAMD21_IOT_WG_ICM42688/debug/_ext/1318297016/sys_int.o
 .debug_str     0x0000000000019a2c      0xe31 build/SAMD21_IOT_WG_ICM42688/debug/_ext/386530258/sys_time.o
 .debug_str     0x000000000001a85d     0x16a6 build/SAMD21_IOT_WG_ICM42688/debug/_ext/1832905403/initialization.o
 .debug_str     0x000000000001bf03      0x654 build/SAMD21_IOT_WG_ICM42688/debug/_ext/1832905403/interrupts.o
 .debug_str     0x000000000001c557      0x2b6 build/SAMD21_IOT_WG_ICM42688/debug/_ext/1832905403/exceptions.o
 .debug_str     0x000000000001c80d      0x2ee build/SAMD21_IOT_WG_ICM42688/debug/_ext/1832905403/startup_xc32.o
 .debug_str     0x000000000001cafb      0x292 build/SAMD21_IOT_WG_ICM42688/debug/_ext/1832905403/tasks.o
 .debug_str     0x000000000001cd8d     0x2535 build/SAMD21_IOT_WG_ICM42688/debug/_ext/1341251756/Icm426xxDriver_HL.o
 .debug_str     0x000000000001f2c2      0x55d build/SAMD21_IOT_WG_ICM42688/debug/_ext/1341251756/Icm426xxTransport.o
 .debug_str     0x000000000001f81f      0xc65 build/SAMD21_IOT_WG_ICM42688/debug/_ext/1360937237/main.o
 .debug_str     0x0000000000020484      0x3f3 build/SAMD21_IOT_WG_ICM42688/debug/_ext/1360937237/ringbuffer.o
 .debug_str     0x0000000000020877      0x803 build/SAMD21_IOT_WG_ICM42688/debug/_ext/1360937237/app.o
 .debug_str     0x000000000002107a      0x74c build/SAMD21_IOT_WG_ICM42688/debug/_ext/1360937237/ws2812.o
 .debug_str     0x00000000000217c6      0x2f0 build/SAMD21_IOT_WG_ICM42688/debug/_ext/431689064/sml_recognition_run.o
 .debug_str     0x0000000000021ab6      0x30d build/SAMD21_IOT_WG_ICM42688/debug/_ext/336238826/dsp_dtw_distance.o
 .debug_str     0x0000000000021dc3      0x2c9 build/SAMD21_IOT_WG_ICM42688/debug/_ext/336238826/dsp_l1_distance.o
 .debug_str     0x000000000002208c      0x2d6 build/SAMD21_IOT_WG_ICM42688/debug/_ext/336238826/dsp_lsup_distance.o
 .debug_str     0x0000000000022362      0x649 build/SAMD21_IOT_WG_ICM42688/debug/_ext/336238826/fg_amplitude_peak_to_peak.o
 .debug_str     0x00000000000229ab      0x649 build/SAMD21_IOT_WG_ICM42688/debug/_ext/336238826/fg_cross_mean_difference.o
 .debug_str     0x0000000000022ff4      0x647 build/SAMD21_IOT_WG_ICM42688/debug/_ext/336238826/fg_cross_p2p_difference.o
 .debug_str     0x000000000002363b      0x66d build/SAMD21_IOT_WG_ICM42688/debug/_ext/336238826/fg_cross_peak_location_difference.o
 .debug_str     0x0000000000023ca8      0x632 build/SAMD21_IOT_WG_ICM42688/debug/_ext/336238826/fg_stats_minimum.o
 .debug_str     0x00000000000242da      0xfda build/SAMD21_IOT_WG_ICM42688/debug/_ext/336238826/kb.o
 .debug_str     0x00000000000252b4      0x42a build/SAMD21_IOT_WG_ICM42688/debug/_ext/336238826/kb_output.o
 .debug_str     0x00000000000256de      0x746 build/SAMD21_IOT_WG_ICM42688/debug/_ext/336238826/kb_pipeline.o
 .debug_str     0x0000000000025e24      0x302 build/SAMD21_IOT_WG_ICM42688/debug/_ext/336238826/mean.o
 .debug_str     0x0000000000026126      0xa57 build/SAMD21_IOT_WG_ICM42688/debug/_ext/336238826/pme.o
 .debug_str     0x0000000000026b7d      0x4f4 build/SAMD21_IOT_WG_ICM42688/debug/_ext/336238826/pme_trained_neurons.o
 .debug_str     0x0000000000027071      0x445 build/SAMD21_IOT_WG_ICM42688/debug/_ext/336238826/rb.o
 .debug_str     0x00000000000274b6      0x317 build/SAMD21_IOT_WG_ICM42688/debug/_ext/336238826/save_sensor_data.o
 .debug_str     0x00000000000277cd      0x34b build/SAMD21_IOT_WG_ICM42688/debug/_ext/336238826/sf_downsample_by_averaging.o
 .debug_str     0x0000000000027b18      0x632 build/SAMD21_IOT_WG_ICM42688/debug/_ext/336238826/sg_windowing.o
 .debug_str     0x000000000002814a      0x2a2 build/SAMD21_IOT_WG_ICM42688/debug/_ext/336238826/sortarray.o
 .debug_str     0x00000000000283ec      0x30a build/SAMD21_IOT_WG_ICM42688/debug/_ext/336238826/sorted_copy.o
 .debug_str     0x00000000000286f6      0x34b build/SAMD21_IOT_WG_ICM42688/debug/_ext/336238826/tr_min_max_scale.o
 .debug_str     0x0000000000028a41      0x2e4 build/SAMD21_IOT_WG_ICM42688/debug/_ext/336238826/utils_array_max_uint8.o
 .debug_str     0x0000000000028d25      0x2b7 build/SAMD21_IOT_WG_ICM42688/debug/_ext/336238826/utils_bitwise_abs_val.o
 .debug_str     0x0000000000028fdc      0x317 build/SAMD21_IOT_WG_ICM42688/debug/_ext/336238826/utils_buffer_argmax.o
 .debug_str     0x00000000000292f3      0x31e build/SAMD21_IOT_WG_ICM42688/debug/_ext/336238826/utils_buffer_min_max.o
 .debug_str     0x0000000000029611      0x6a9 build/SAMD21_IOT_WG_ICM42688/debug/_ext/336238826/utils_model_cross_difference.o
 .debug_str     0x0000000000029cba      0x66f build/SAMD21_IOT_WG_ICM42688/debug/_ext/336238826/utils_model_stats_max_min.o
 .debug_str     0x000000000002a329      0x2e6 build/SAMD21_IOT_WG_ICM42688/debug/_ext/336238826/utils_tr_sensor.o
 .debug_str     0x000000000002a60f      0x1fc c:/program files/microchip/xc32/v4.60/bin/bin/../../lib/gcc/pic32c/8.3.1/../../../../pic32c/lib/thumb/v6-m/nofp\libpic32c.a(data_init.o)
 .debug_str     0x000000000002a80b      0x225 c:/program files/microchip/xc32/v4.60/bin/bin/../../lib/gcc/pic32c/8.3.1/../../../../pic32c/lib/thumb/v6-m/nofp\libc-size-musl.a(memcpy.o)
 .debug_str     0x000000000002aa30      0x211 c:/program files/microchip/xc32/v4.60/bin/bin/../../lib/gcc/pic32c/8.3.1/../../../../pic32c/lib/thumb/v6-m/nofp\libc-size-musl.a(memset.o)
 .debug_str     0x000000000002ac41      0x217 c:/program files/microchip/xc32/v4.60/bin/bin/../../lib/gcc/pic32c/8.3.1/../../../../pic32c/lib/thumb/v6-m/nofp\libc-size-musl.a(strlen.o)
 .debug_str     0x000000000002ae58      0x20b c:/program files/microchip/xc32/v4.60/bin/bin/../../lib/gcc/pic32c/8.3.1/../../../../pic32c/lib/thumb/v6-m/nofp\libc-size-musl.a(strchr.o)
 .debug_str     0x000000000002b063      0x296 c:/program files/microchip/xc32/v4.60/bin/bin/../../lib/gcc/pic32c/8.3.1/../../../../pic32c/lib/thumb/v6-m/nofp\libc-size-musl.a(strchrnul.o)
 .debug_str     0x000000000002b2f9      0x20f c:/program files/microchip/xc32/v4.60/bin/bin/../../lib/gcc/pic32c/8.3.1/../../../../pic32c/lib/thumb/v6-m/nofp\libc-size-musl.a(strnlen.o)
 .debug_str     0x000000000002b508      0x22a c:/program files/microchip/xc32/v4.60/bin/bin/../../lib/gcc/pic32c/8.3.1/../../../../pic32c/lib/thumb/v6-m/nofp\libc-size-musl.a(memchr.o)
 .debug_str     0x000000000002b732      0x301 c:/program files/microchip/xc32/v4.60/bin/bin/../../lib/gcc/pic32c/8.3.1/../../../../pic32c/lib/thumb/v6-m/nofp\liblmalloc-musl.a(lite_free.o)
 .debug_str     0x000000000002ba33      0x2ff c:/program files/microchip/xc32/v4.60/bin/bin/../../lib/gcc/pic32c/8.3.1/../../../../pic32c/lib/thumb/v6-m/nofp\liblmalloc-musl.a(lite_malloc.o)
 .debug_str     0x000000000002bd32      0x3ca c:/program files/microchip/xc32/v4.60/bin/bin/../../lib/gcc/pic32c/8.3.1/../../../../pic32c/lib/thumb/v6-m/nofp\libg-musl.a(__libc_start_main.o)
 .debug_str     0x000000000002c0fc      0x229 c:/program files/microchip/xc32/v4.60/bin/bin/../../lib/gcc/pic32c/8.3.1/../../../../pic32c/lib/thumb/v6-m/nofp\libg-musl.a(__errno_location.o)
 .debug_str     0x000000000002c325      0x335 c:/program files/microchip/xc32/v4.60/bin/bin/../../lib/gcc/pic32c/8.3.1/../../../../pic32c/lib/thumb/v6-m/nofp\libg-musl.a(libc.o)
 .debug_str     0x000000000002c65a      0x2a5 c:/program files/microchip/xc32/v4.60/bin/bin/../../lib/gcc/pic32c/8.3.1/../../../../pic32c/lib/thumb/v6-m/nofp\libg-musl.a(expand_heap.o)
 .debug_str     0x000000000002c8ff      0x367 c:/program files/microchip/xc32/v4.60/bin/bin/../../lib/gcc/pic32c/8.3.1/../../../../pic32c/lib/thumb/v6-m/nofp\libg-musl.a(__sio_printf_cdeEfFgGnpsuxX.o)
 .debug_str     0x000000000002cc66      0x354 c:/program files/microchip/xc32/v4.60/bin/bin/../../lib/gcc/pic32c/8.3.1/../../../../pic32c/lib/thumb/v6-m/nofp\libg-musl.a(__sio_sprintf_cdeEfFgGnpsuxX.o)
 .debug_str     0x000000000002cfba      0x2f5 c:/program files/microchip/xc32/v4.60/bin/bin/../../lib/gcc/pic32c/8.3.1/../../../../pic32c/lib/thumb/v6-m/nofp\libg-musl.a(__fmt_d.o)
 .debug_str     0x000000000002d2af      0x354 c:/program files/microchip/xc32/v4.60/bin/bin/../../lib/gcc/pic32c/8.3.1/../../../../pic32c/lib/thumb/v6-m/nofp\libg-musl.a(__fmt_fp.o)
 .debug_str     0x000000000002d603      0x2f9 c:/program files/microchip/xc32/v4.60/bin/bin/../../lib/gcc/pic32c/8.3.1/../../../../pic32c/lib/thumb/v6-m/nofp\libg-musl.a(__fmt_s.o)
 .debug_str     0x000000000002d8fc      0x2f5 c:/program files/microchip/xc32/v4.60/bin/bin/../../lib/gcc/pic32c/8.3.1/../../../../pic32c/lib/thumb/v6-m/nofp\libg-musl.a(__fmt_u.o)
 .debug_str     0x000000000002dbf1      0x2f5 c:/program files/microchip/xc32/v4.60/bin/bin/../../lib/gcc/pic32c/8.3.1/../../../../pic32c/lib/thumb/v6-m/nofp\libg-musl.a(__fmt_x.o)
 .debug_str     0x000000000002dee6      0x2c0 c:/program files/microchip/xc32/v4.60/bin/bin/../../lib/gcc/pic32c/8.3.1/../../../../pic32c/lib/thumb/v6-m/nofp\libg-musl.a(__pop_float.o)
 .debug_str     0x000000000002e1a6      0x2cb c:/program files/microchip/xc32/v4.60/bin/bin/../../lib/gcc/pic32c/8.3.1/../../../../pic32c/lib/thumb/v6-m/nofp\libg-musl.a(__pop_int.o)
 .debug_str     0x000000000002e471      0x2cd c:/program files/microchip/xc32/v4.60/bin/bin/../../lib/gcc/pic32c/8.3.1/../../../../pic32c/lib/thumb/v6-m/nofp\libg-musl.a(__pop_ptr.o)
 .debug_str     0x000000000002e73e      0x3e7 c:/program files/microchip/xc32/v4.60/bin/bin/../../lib/gcc/pic32c/8.3.1/../../../../pic32c/lib/thumb/v6-m/nofp\libg-musl.a(__printf_core.o)
 .debug_str     0x000000000002eb25      0x374 c:/program files/microchip/xc32/v4.60/bin/bin/../../lib/gcc/pic32c/8.3.1/../../../../pic32c/lib/thumb/v6-m/nofp\libg-musl.a(stdin.o)
 .debug_str     0x000000000002ee99      0x308 c:/program files/microchip/xc32/v4.60/bin/bin/../../lib/gcc/pic32c/8.3.1/../../../../pic32c/lib/thumb/v6-m/nofp\libg-musl.a(stdout.o)
 .debug_str     0x000000000002f1a1      0x225 c:/program files/microchip/xc32/v4.60/bin/bin/../../lib/gcc/pic32c/8.3.1/../../../../pic32c/lib/thumb/v6-m/nofp\libg-musl.a(putchar.o)
 .debug_str     0x000000000002f3c6      0x344 c:/program files/microchip/xc32/v4.60/bin/bin/../../lib/gcc/pic32c/8.3.1/../../../../pic32c/lib/thumb/v6-m/nofp\libg-musl.a(puts.o)
 .debug_str     0x000000000002f70a      0x21d c:/program files/microchip/xc32/v4.60/bin/bin/../../lib/gcc/pic32c/8.3.1/../../../../pic32c/lib/thumb/v6-m/nofp\libg-musl.a(setbuf.o)
 .debug_str     0x000000000002f927      0x21c c:/program files/microchip/xc32/v4.60/bin/bin/../../lib/gcc/pic32c/8.3.1/../../../../pic32c/lib/thumb/v6-m/nofp\libg-musl.a(atoi.o)
 .debug_str     0x000000000002fb43      0x286 c:/program files/microchip/xc32/v4.60/bin/bin/../../lib/gcc/pic32c/8.3.1/../../../../pic32c/lib/thumb/v6-m/nofp\libg-musl.a(gmtime.o)
 .debug_str     0x000000000002fdc9      0x2ad c:/program files/microchip/xc32/v4.60/bin/bin/../../lib/gcc/pic32c/8.3.1/../../../../pic32c/lib/thumb/v6-m/nofp\libg-musl.a(gmtime_r.o)
 .debug_str     0x0000000000030076      0x2d2 c:/program files/microchip/xc32/v4.60/bin/bin/../../lib/gcc/pic32c/8.3.1/../../../../pic32c/lib/thumb/v6-m/nofp\libg-musl.a(mktime.o)
 .debug_str     0x0000000000030348      0x249 c:/program files/microchip/xc32/v4.60/bin/bin/../../lib/gcc/pic32c/8.3.1/../../../../pic32c/lib/thumb/v6-m/nofp\libg-musl.a(tolower.o)
 .debug_str     0x0000000000030591      0x249 c:/program files/microchip/xc32/v4.60/bin/bin/../../lib/gcc/pic32c/8.3.1/../../../../pic32c/lib/thumb/v6-m/nofp\libg-musl.a(toupper.o)
 .debug_str     0x00000000000307da      0x235 c:/program files/microchip/xc32/v4.60/bin/bin/../../lib/gcc/pic32c/8.3.1/../../../../pic32c/lib/thumb/v6-m/nofp\libg-musl.a(__environ.o)
 .debug_str     0x0000000000030a0f      0x2e9 c:/program files/microchip/xc32/v4.60/bin/bin/../../lib/gcc/pic32c/8.3.1/../../../../pic32c/lib/thumb/v6-m/nofp\libg-musl.a(__int_vfprintf.o)
 .debug_str     0x0000000000030cf8      0x2a6 c:/program files/microchip/xc32/v4.60/bin/bin/../../lib/gcc/pic32c/8.3.1/../../../../pic32c/lib/thumb/v6-m/nofp\libg-musl.a(__int_vsprintf.o)
 .debug_str     0x0000000000030f9e      0x338 c:/program files/microchip/xc32/v4.60/bin/bin/../../lib/gcc/pic32c/8.3.1/../../../../pic32c/lib/thumb/v6-m/nofp\libg-musl.a(fputs.o)
 .debug_str     0x00000000000312d6      0x2b1 c:/program files/microchip/xc32/v4.60/bin/bin/../../lib/gcc/pic32c/8.3.1/../../../../pic32c/lib/thumb/v6-m/nofp\libg-musl.a(__cvt_u.o)
 .debug_str     0x0000000000031587      0x362 c:/program files/microchip/xc32/v4.60/bin/bin/../../lib/gcc/pic32c/8.3.1/../../../../pic32c/lib/thumb/v6-m/nofp\libg-musl.a(__stdio_read.o)
 .debug_str     0x00000000000318e9      0x33d c:/program files/microchip/xc32/v4.60/bin/bin/../../lib/gcc/pic32c/8.3.1/../../../../pic32c/lib/thumb/v6-m/nofp\libg-musl.a(__towrite_rw.o)
 .debug_str     0x0000000000031c26      0x2d3 c:/program files/microchip/xc32/v4.60/bin/bin/../../lib/gcc/pic32c/8.3.1/../../../../pic32c/lib/thumb/v6-m/nofp\libg-musl.a(fwrite.o)
 .debug_str     0x0000000000031ef9      0x2ea c:/program files/microchip/xc32/v4.60/bin/bin/../../lib/gcc/pic32c/8.3.1/../../../../pic32c/lib/thumb/v6-m/nofp\libg-musl.a(putc.o)
 .debug_str     0x00000000000321e3      0x312 c:/program files/microchip/xc32/v4.60/bin/bin/../../lib/gcc/pic32c/8.3.1/../../../../pic32c/lib/thumb/v6-m/nofp\libg-musl.a(setvbuf.o)
 .debug_str     0x00000000000324f5      0x2c0 c:/program files/microchip/xc32/v4.60/bin/bin/../../lib/gcc/pic32c/8.3.1/../../../../pic32c/lib/thumb/v6-m/nofp\libg-musl.a(__tm_to_secs.o)
 .debug_str     0x00000000000327b5      0x23d c:/program files/microchip/xc32/v4.60/bin/bin/../../lib/gcc/pic32c/8.3.1/../../../../pic32c/lib/thumb/v6-m/nofp\libg-musl.a(__year_to_secs.o)
 .debug_str     0x00000000000329f2      0x313 c:/program files/microchip/xc32/v4.60/bin/bin/../../lib/gcc/pic32c/8.3.1/../../../../pic32c/lib/thumb/v6-m/nofp\libg-musl.a(__secs_to_tm.o)
 .debug_str     0x0000000000032d05      0x24c c:/program files/microchip/xc32/v4.60/bin/bin/../../lib/gcc/pic32c/8.3.1/../../../../pic32c/lib/thumb/v6-m/nofp\libg-musl.a(readv.o)
 .debug_str     0x0000000000032f51      0x2f4 c:/program files/microchip/xc32/v4.60/bin/bin/../../lib/gcc/pic32c/8.3.1/../../../../pic32c/lib/thumb/v6-m/nofp\libg-musl.a(__int_vsnprintf.o)
 .debug_str     0x0000000000033245      0x29a c:/program files/microchip/xc32/v4.60/bin/bin/../../lib/gcc/pic32c/8.3.1/../../../../pic32c/lib/thumb/v6-m/nofp\libg-musl.a(__init_stdio.o)
 .debug_str     0x00000000000334df      0x2da c:/program files/microchip/xc32/v4.60/bin/bin/../../lib/gcc/pic32c/8.3.1/../../../../pic32c/lib/thumb/v6-m/nofp\libg-musl.a(__out.o)
 .debug_str     0x00000000000337b9      0x2f8 c:/program files/microchip/xc32/v4.60/bin/bin/../../lib/gcc/pic32c/8.3.1/../../../../pic32c/lib/thumb/v6-m/nofp\libg-musl.a(__putc.o)
 .debug_str     0x0000000000033ab1      0x36d c:/program files/microchip/xc32/v4.60/bin/bin/../../lib/gcc/pic32c/8.3.1/../../../../pic32c/lib/thumb/v6-m/nofp\libg-musl.a(__stderr.o)
 .debug_str     0x0000000000033e1e      0x35d c:/program files/microchip/xc32/v4.60/bin/bin/../../lib/gcc/pic32c/8.3.1/../../../../pic32c/lib/thumb/v6-m/nofp\libg-musl.a(__stdio_close.o)
 .debug_str     0x000000000003417b      0x346 c:/program files/microchip/xc32/v4.60/bin/bin/../../lib/gcc/pic32c/8.3.1/../../../../pic32c/lib/thumb/v6-m/nofp\libg-musl.a(__stdio_write.o)
 .debug_str     0x00000000000344c1      0x36d c:/program files/microchip/xc32/v4.60/bin/bin/../../lib/gcc/pic32c/8.3.1/../../../../pic32c/lib/thumb/v6-m/nofp\libg-musl.a(__stdout.o)
 .debug_str     0x000000000003482e      0x2e9 c:/program files/microchip/xc32/v4.60/bin/bin/../../lib/gcc/pic32c/8.3.1/../../../../pic32c/lib/thumb/v6-m/nofp\libg-musl.a(__towrite.o)
 .debug_str     0x0000000000034b17      0x22d c:/program files/microchip/xc32/v4.60/bin/bin/../../lib/gcc/pic32c/8.3.1/../../../../pic32c/lib/thumb/v6-m/nofp\libg-musl.a(__month_to_secs.o)
 .debug_str     0x0000000000034d44      0x24f c:/program files/microchip/xc32/v4.60/bin/bin/../../lib/gcc/pic32c/8.3.1/../../../../pic32c/lib/thumb/v6-m/nofp\libg-musl.a(writev.o)
 .debug_str     0x0000000000034f93      0x33e c:/program files/microchip/xc32/v4.60/bin/bin/../../lib/gcc/pic32c/8.3.1/../../../../pic32c/lib/thumb/v6-m/nofp\libg-musl.a(__overflow.o)
 .debug_str     0x00000000000352d1      0x302 c:/program files/microchip/xc32/v4.60/bin/bin/../../lib/gcc/pic32c/8.3.1/../../../../pic32c/lib/thumb/v6-m/nofp\libg-musl.a(__fwrite.o)
 .debug_str     0x00000000000355d3       0xd6 c:/program files/microchip/xc32/v4.60/bin/bin/../../lib/gcc/pic32c/8.3.1/thumb/v6-m/nofp\libgcc.a(_udivsi3.o)
 .debug_str     0x00000000000356a9       0xd6 c:/program files/microchip/xc32/v4.60/bin/bin/../../lib/gcc/pic32c/8.3.1/thumb/v6-m/nofp\libgcc.a(_divsi3.o)
 .debug_str     0x000000000003577f       0xd6 c:/program files/microchip/xc32/v4.60/bin/bin/../../lib/gcc/pic32c/8.3.1/thumb/v6-m/nofp\libgcc.a(_dvmd_tls.o)
 .debug_str     0x0000000000035855       0xd6 c:/program files/microchip/xc32/v4.60/bin/bin/../../lib/gcc/pic32c/8.3.1/thumb/v6-m/nofp\libgcc.a(_aeabi_ldivmod.o)
 .debug_str     0x000000000003592b       0xd6 c:/program files/microchip/xc32/v4.60/bin/bin/../../lib/gcc/pic32c/8.3.1/thumb/v6-m/nofp\libgcc.a(_aeabi_uldivmod.o)
 .debug_str     0x0000000000035a01      0x2af c:/program files/microchip/xc32/v4.60/bin/bin/../../lib/gcc/pic32c/8.3.1/thumb/v6-m/nofp\libgcc.a(_muldi3.o)
 .debug_str     0x0000000000035cb0      0x27c c:/program files/microchip/xc32/v4.60/bin/bin/../../lib/gcc/pic32c/8.3.1/thumb/v6-m/nofp\libgcc.a(_udivmoddi4.o)
 .debug_str     0x0000000000035f2c      0x1f2 c:/program files/microchip/xc32/v4.60/bin/bin/../../lib/gcc/pic32c/8.3.1/thumb/v6-m/nofp\libgcc.a(bpabi.o)
 .debug_str     0x000000000003611e       0xd6 c:/program files/microchip/xc32/v4.60/bin/bin/../../lib/gcc/pic32c/8.3.1/thumb/v6-m/nofp\libgcc.a(_lshrdi3.o)
 .debug_str     0x00000000000361f4       0xd6 c:/program files/microchip/xc32/v4.60/bin/bin/../../lib/gcc/pic32c/8.3.1/thumb/v6-m/nofp\libgcc.a(_ashldi3.o)
 .debug_str     0x00000000000362ca       0xd6 c:/program files/microchip/xc32/v4.60/bin/bin/../../lib/gcc/pic32c/8.3.1/thumb/v6-m/nofp\libgcc.a(_clzdi2.o)
 .debug_str     0x00000000000363a0      0x2a9 c:/program files/microchip/xc32/v4.60/bin/bin/../../lib/gcc/pic32c/8.3.1/thumb/v6-m/nofp\libgcc.a(_divdi3.o)
 .debug_str     0x0000000000036649       0xd6 c:/program files/microchip/xc32/v4.60/bin/bin/../../lib/gcc/pic32c/8.3.1/thumb/v6-m/nofp\libgcc.a(_clzsi2.o)
 .debug_str     0x000000000003671f      0x1bd c:/program files/microchip/xc32/v4.60/bin/bin/../../lib/gcc/pic32c/8.3.1/../../../../pic32c/lib/thumb/v6-m/nofp\libpic32c.a(close.o)
 .debug_str     0x00000000000368dc      0x1bd c:/program files/microchip/xc32/v4.60/bin/bin/../../lib/gcc/pic32c/8.3.1/../../../../pic32c/lib/thumb/v6-m/nofp\libpic32c.a(lseek.o)
 .debug_str     0x0000000000036a99      0x1dc c:/program files/microchip/xc32/v4.60/bin/bin/../../lib/gcc/pic32c/8.3.1/../../../../pic32c/lib/thumb/v6-m/nofp\libpic32c.a(sbrk.o)
 .debug_str     0x0000000000036c75      0x20d c:/program files/microchip/xc32/v4.60/bin/bin/../../lib/gcc/pic32c/8.3.1/../../../../pic32c/lib/thumb/v6-m/nofp\libc-size-musl.a(strcpy.o)
 .debug_str     0x0000000000036e82      0x221 c:/program files/microchip/xc32/v4.60/bin/bin/../../lib/gcc/pic32c/8.3.1/../../../../pic32c/lib/thumb/v6-m/nofp\libc-size-musl.a(stpcpy.o)
 .debug_str     0x00000000000370a3      0x1d5 c:/program files/microchip/xc32/v4.60/bin/bin/../../lib/gcc/pic32c/8.3.1/../../../../pic32c/lib/thumb/v6-m/nofp\libpic32c.a(pic32_data_init_clear.o)
 .debug_str     0x0000000000037278      0x1d3 c:/program files/microchip/xc32/v4.60/bin/bin/../../lib/gcc/pic32c/8.3.1/../../../../pic32c/lib/thumb/v6-m/nofp\libpic32c.a(pic32_data_init_copy.o)

.debug_frame    0x0000000000000000     0x75d8
 .debug_frame   0x0000000000000000      0x114 build/SAMD21_IOT_WG_ICM42688/debug/_ext/2048461350/icm42688_sensor.o
 .debug_frame   0x0000000000000114      0x44c build/SAMD21_IOT_WG_ICM42688/debug/_ext/1660664302/drv_spi.o
 .debug_frame   0x0000000000000560       0x80 build/SAMD21_IOT_WG_ICM42688/debug/_ext/1164161090/wdrv_winc_gpio.o
 .debug_frame   0x00000000000005e0       0x50 build/SAMD21_IOT_WG_ICM42688/debug/_ext/1164161090/wdrv_winc_eint.o
 .debug_frame   0x0000000000000630      0x118 build/SAMD21_IOT_WG_ICM42688/debug/_ext/101005277/wdrv_winc_spi.o
 .debug_frame   0x0000000000000748       0x4c build/SAMD21_IOT_WG_ICM42688/debug/_ext/90265895/nm_common.o
 .debug_frame   0x0000000000000794      0x17c build/SAMD21_IOT_WG_ICM42688/debug/_ext/121554788/m2m_ssl.o
 .debug_frame   0x0000000000000910      0x220 build/SAMD21_IOT_WG_ICM42688/debug/_ext/121554788/m2m_hif.o
 .debug_frame   0x0000000000000b30      0xab4 build/SAMD21_IOT_WG_ICM42688/debug/_ext/121554788/m2m_wifi.o
 .debug_frame   0x00000000000015e4      0x2f4 build/SAMD21_IOT_WG_ICM42688/debug/_ext/121554788/nmspi.o
 .debug_frame   0x00000000000018d8      0x128 build/SAMD21_IOT_WG_ICM42688/debug/_ext/121554788/nmdrv.o
 .debug_frame   0x0000000000001a00      0x250 build/SAMD21_IOT_WG_ICM42688/debug/_ext/121554788/m2m_ota.o
 .debug_frame   0x0000000000001c50      0x2ec build/SAMD21_IOT_WG_ICM42688/debug/_ext/121554788/nmasic.o
 .debug_frame   0x0000000000001f3c      0x1ac build/SAMD21_IOT_WG_ICM42688/debug/_ext/121554788/nmbus.o
 .debug_frame   0x00000000000020e8      0x3c4 build/SAMD21_IOT_WG_ICM42688/debug/_ext/548032175/socket.o
 .debug_frame   0x00000000000024ac       0x34 build/SAMD21_IOT_WG_ICM42688/debug/_ext/609036575/flexible_flash.o
 .debug_frame   0x00000000000024e0      0x238 build/SAMD21_IOT_WG_ICM42688/debug/_ext/609036575/spi_flash.o
 .debug_frame   0x0000000000002718       0x30 build/SAMD21_IOT_WG_ICM42688/debug/_ext/1784303044/wdrv_winc_osal.o
 .debug_frame   0x0000000000002748       0xd0 build/SAMD21_IOT_WG_ICM42688/debug/_ext/907429946/wdrv_winc_systime.o
 .debug_frame   0x0000000000002818      0x130 build/SAMD21_IOT_WG_ICM42688/debug/_ext/907429946/wdrv_winc_authctx.o
 .debug_frame   0x0000000000002948      0x114 build/SAMD21_IOT_WG_ICM42688/debug/_ext/907429946/wdrv_winc_host_file.o
 .debug_frame   0x0000000000002a5c      0x424 build/SAMD21_IOT_WG_ICM42688/debug/_ext/907429946/wdrv_winc.o
 .debug_frame   0x0000000000002e80       0xd0 build/SAMD21_IOT_WG_ICM42688/debug/_ext/907429946/wdrv_winc_bssctx.o
 .debug_frame   0x0000000000002f50       0xa0 build/SAMD21_IOT_WG_ICM42688/debug/_ext/1750425231/plib_clock.o
 .debug_frame   0x0000000000002ff0      0x214 build/SAMD21_IOT_WG_ICM42688/debug/_ext/1580516298/plib_dmac.o
 .debug_frame   0x0000000000003204       0xac build/SAMD21_IOT_WG_ICM42688/debug/_ext/503204096/plib_eic.o
 .debug_frame   0x00000000000032b0      0x14c build/SAMD21_IOT_WG_ICM42688/debug/_ext/1580823105/plib_nvic.o
 .debug_frame   0x00000000000033fc      0x1c0 build/SAMD21_IOT_WG_ICM42688/debug/_ext/11470383/plib_nvmctrl.o
 .debug_frame   0x00000000000035bc      0x16c build/SAMD21_IOT_WG_ICM42688/debug/_ext/1580876256/plib_port.o
 .debug_frame   0x0000000000003728       0xc8 build/SAMD21_IOT_WG_ICM42688/debug/_ext/1014017276/plib_sercom0_spi_master.o
 .debug_frame   0x00000000000037f0      0x128 build/SAMD21_IOT_WG_ICM42688/debug/_ext/1014017276/plib_sercom2_spi_master.o
 .debug_frame   0x0000000000003918      0x230 build/SAMD21_IOT_WG_ICM42688/debug/_ext/177673482/plib_sercom5_usart.o
 .debug_frame   0x0000000000003b48      0x150 build/SAMD21_IOT_WG_ICM42688/debug/_ext/223004715/plib_systick.o
 .debug_frame   0x0000000000003c98      0x158 build/SAMD21_IOT_WG_ICM42688/debug/_ext/399410062/plib_tc3.o
 .debug_frame   0x0000000000003df0      0x178 build/SAMD21_IOT_WG_ICM42688/debug/_ext/399410062/plib_tc4.o
 .debug_frame   0x0000000000003f68       0x58 build/SAMD21_IOT_WG_ICM42688/debug/_ext/1357625803/xc32_monitor.o
 .debug_frame   0x0000000000003fc0       0x50 build/SAMD21_IOT_WG_ICM42688/debug/_ext/1584719636/sys_dma.o
 .debug_frame   0x0000000000004010      0x10c build/SAMD21_IOT_WG_ICM42688/debug/_ext/1318297016/sys_int.o
 .debug_frame   0x000000000000411c      0x538 build/SAMD21_IOT_WG_ICM42688/debug/_ext/386530258/sys_time.o
 .debug_frame   0x0000000000004654       0x4c build/SAMD21_IOT_WG_ICM42688/debug/_ext/1832905403/initialization.o
 .debug_frame   0x00000000000046a0       0x20 build/SAMD21_IOT_WG_ICM42688/debug/_ext/1832905403/interrupts.o
 .debug_frame   0x00000000000046c0       0x48 build/SAMD21_IOT_WG_ICM42688/debug/_ext/1832905403/exceptions.o
 .debug_frame   0x0000000000004708       0x38 build/SAMD21_IOT_WG_ICM42688/debug/_ext/1832905403/startup_xc32.o
 .debug_frame   0x0000000000004740       0x2c build/SAMD21_IOT_WG_ICM42688/debug/_ext/1832905403/tasks.o
 .debug_frame   0x000000000000476c      0x628 build/SAMD21_IOT_WG_ICM42688/debug/_ext/1341251756/Icm426xxDriver_HL.o
 .debug_frame   0x0000000000004d94       0xb8 build/SAMD21_IOT_WG_ICM42688/debug/_ext/1341251756/Icm426xxTransport.o
 .debug_frame   0x0000000000004e4c      0x190 build/SAMD21_IOT_WG_ICM42688/debug/_ext/1360937237/main.o
 .debug_frame   0x0000000000004fdc      0x150 build/SAMD21_IOT_WG_ICM42688/debug/_ext/1360937237/ringbuffer.o
 .debug_frame   0x000000000000512c       0x48 build/SAMD21_IOT_WG_ICM42688/debug/_ext/1360937237/app.o
 .debug_frame   0x0000000000005174      0x10c build/SAMD21_IOT_WG_ICM42688/debug/_ext/1360937237/ws2812.o
 .debug_frame   0x0000000000005280       0x50 build/SAMD21_IOT_WG_ICM42688/debug/_ext/431689064/sml_recognition_run.o
 .debug_frame   0x00000000000052d0       0x90 build/SAMD21_IOT_WG_ICM42688/debug/_ext/336238826/dsp_dtw_distance.o
 .debug_frame   0x0000000000005360       0x30 build/SAMD21_IOT_WG_ICM42688/debug/_ext/336238826/dsp_l1_distance.o
 .debug_frame   0x0000000000005390       0x30 build/SAMD21_IOT_WG_ICM42688/debug/_ext/336238826/dsp_lsup_distance.o
 .debug_frame   0x00000000000053c0       0x30 build/SAMD21_IOT_WG_ICM42688/debug/_ext/336238826/fg_amplitude_peak_to_peak.o
 .debug_frame   0x00000000000053f0       0x30 build/SAMD21_IOT_WG_ICM42688/debug/_ext/336238826/fg_cross_mean_difference.o
 .debug_frame   0x0000000000005420       0x30 build/SAMD21_IOT_WG_ICM42688/debug/_ext/336238826/fg_cross_p2p_difference.o
 .debug_frame   0x0000000000005450       0x30 build/SAMD21_IOT_WG_ICM42688/debug/_ext/336238826/fg_cross_peak_location_difference.o
 .debug_frame   0x0000000000005480       0x30 build/SAMD21_IOT_WG_ICM42688/debug/_ext/336238826/fg_stats_minimum.o
 .debug_frame   0x00000000000054b0      0x710 build/SAMD21_IOT_WG_ICM42688/debug/_ext/336238826/kb.o
 .debug_frame   0x0000000000005bc0       0xf0 build/SAMD21_IOT_WG_ICM42688/debug/_ext/336238826/kb_output.o
 .debug_frame   0x0000000000005cb0       0xb0 build/SAMD21_IOT_WG_ICM42688/debug/_ext/336238826/kb_pipeline.o
 .debug_frame   0x0000000000005d60       0x74 build/SAMD21_IOT_WG_ICM42688/debug/_ext/336238826/mean.o
 .debug_frame   0x0000000000005dd4      0x340 build/SAMD21_IOT_WG_ICM42688/debug/_ext/336238826/pme.o
 .debug_frame   0x0000000000006114      0x330 build/SAMD21_IOT_WG_ICM42688/debug/_ext/336238826/rb.o
 .debug_frame   0x0000000000006444       0x50 build/SAMD21_IOT_WG_ICM42688/debug/_ext/336238826/save_sensor_data.o
 .debug_frame   0x0000000000006494       0x30 build/SAMD21_IOT_WG_ICM42688/debug/_ext/336238826/sf_downsample_by_averaging.o
 .debug_frame   0x00000000000064c4       0x50 build/SAMD21_IOT_WG_ICM42688/debug/_ext/336238826/sg_windowing.o
 .debug_frame   0x0000000000006514       0x30 build/SAMD21_IOT_WG_ICM42688/debug/_ext/336238826/sortarray.o
 .debug_frame   0x0000000000006544       0x30 build/SAMD21_IOT_WG_ICM42688/debug/_ext/336238826/sorted_copy.o
 .debug_frame   0x0000000000006574       0x34 build/SAMD21_IOT_WG_ICM42688/debug/_ext/336238826/tr_min_max_scale.o
 .debug_frame   0x00000000000065a8       0x30 build/SAMD21_IOT_WG_ICM42688/debug/_ext/336238826/utils_array_max_uint8.o
 .debug_frame   0x00000000000065d8       0x30 build/SAMD21_IOT_WG_ICM42688/debug/_ext/336238826/utils_bitwise_abs_val.o
 .debug_frame   0x0000000000006608       0x30 build/SAMD21_IOT_WG_ICM42688/debug/_ext/336238826/utils_buffer_argmax.o
 .debug_frame   0x0000000000006638       0x30 build/SAMD21_IOT_WG_ICM42688/debug/_ext/336238826/utils_buffer_min_max.o
 .debug_frame   0x0000000000006668       0x30 build/SAMD21_IOT_WG_ICM42688/debug/_ext/336238826/utils_model_cross_difference.o
 .debug_frame   0x0000000000006698       0x30 build/SAMD21_IOT_WG_ICM42688/debug/_ext/336238826/utils_model_stats_max_min.o
 .debug_frame   0x00000000000066c8       0x30 build/SAMD21_IOT_WG_ICM42688/debug/_ext/336238826/utils_tr_sensor.o
 .debug_frame   0x00000000000066f8       0x48 c:/program files/microchip/xc32/v4.60/bin/bin/../../lib/gcc/pic32c/8.3.1/../../../../pic32c/lib/thumb/v6-m/nofp\libpic32c.a(data_init.o)
 .debug_frame   0x0000000000006740       0x28 c:/program files/microchip/xc32/v4.60/bin/bin/../../lib/gcc/pic32c/8.3.1/../../../../pic32c/lib/thumb/v6-m/nofp\libc-size-musl.a(memcpy.o)
 .debug_frame   0x0000000000006768       0x20 c:/program files/microchip/xc32/v4.60/bin/bin/../../lib/gcc/pic32c/8.3.1/../../../../pic32c/lib/thumb/v6-m/nofp\libc-size-musl.a(memset.o)
 .debug_frame   0x0000000000006788       0x20 c:/program files/microchip/xc32/v4.60/bin/bin/../../lib/gcc/pic32c/8.3.1/../../../../pic32c/lib/thumb/v6-m/nofp\libc-size-musl.a(strlen.o)
 .debug_frame   0x00000000000067a8       0x28 c:/program files/microchip/xc32/v4.60/bin/bin/../../lib/gcc/pic32c/8.3.1/../../../../pic32c/lib/thumb/v6-m/nofp\libc-size-musl.a(strchr.o)
 .debug_frame   0x00000000000067d0       0x2c c:/program files/microchip/xc32/v4.60/bin/bin/../../lib/gcc/pic32c/8.3.1/../../../../pic32c/lib/thumb/v6-m/nofp\libc-size-musl.a(strchrnul.o)
 .debug_frame   0x00000000000067fc       0x2c c:/program files/microchip/xc32/v4.60/bin/bin/../../lib/gcc/pic32c/8.3.1/../../../../pic32c/lib/thumb/v6-m/nofp\libc-size-musl.a(strnlen.o)
 .debug_frame   0x0000000000006828       0x20 c:/program files/microchip/xc32/v4.60/bin/bin/../../lib/gcc/pic32c/8.3.1/../../../../pic32c/lib/thumb/v6-m/nofp\libc-size-musl.a(memchr.o)
 .debug_frame   0x0000000000006848       0x64 c:/program files/microchip/xc32/v4.60/bin/bin/../../lib/gcc/pic32c/8.3.1/../../../../pic32c/lib/thumb/v6-m/nofp\liblmalloc-musl.a(lite_free.o)
 .debug_frame   0x00000000000068ac       0x30 c:/program files/microchip/xc32/v4.60/bin/bin/../../lib/gcc/pic32c/8.3.1/../../../../pic32c/lib/thumb/v6-m/nofp\liblmalloc-musl.a(lite_malloc.o)
 .debug_frame   0x00000000000068dc       0x38 c:/program files/microchip/xc32/v4.60/bin/bin/../../lib/gcc/pic32c/8.3.1/../../../../pic32c/lib/thumb/v6-m/nofp\libg-musl.a(__libc_start_main.o)
 .debug_frame   0x0000000000006914       0x28 c:/program files/microchip/xc32/v4.60/bin/bin/../../lib/gcc/pic32c/8.3.1/../../../../pic32c/lib/thumb/v6-m/nofp\libg-musl.a(expand_heap.o)
 .debug_frame   0x000000000000693c       0x48 c:/program files/microchip/xc32/v4.60/bin/bin/../../lib/gcc/pic32c/8.3.1/../../../../pic32c/lib/thumb/v6-m/nofp\libg-musl.a(__sio_printf_cdeEfFgGnpsuxX.o)
 .debug_frame   0x0000000000006984       0x44 c:/program files/microchip/xc32/v4.60/bin/bin/../../lib/gcc/pic32c/8.3.1/../../../../pic32c/lib/thumb/v6-m/nofp\libg-musl.a(__sio_sprintf_cdeEfFgGnpsuxX.o)
 .debug_frame   0x00000000000069c8       0x30 c:/program files/microchip/xc32/v4.60/bin/bin/../../lib/gcc/pic32c/8.3.1/../../../../pic32c/lib/thumb/v6-m/nofp\libg-musl.a(__fmt_d.o)
 .debug_frame   0x00000000000069f8       0x34 c:/program files/microchip/xc32/v4.60/bin/bin/../../lib/gcc/pic32c/8.3.1/../../../../pic32c/lib/thumb/v6-m/nofp\libg-musl.a(__fmt_fp.o)
 .debug_frame   0x0000000000006a2c       0x30 c:/program files/microchip/xc32/v4.60/bin/bin/../../lib/gcc/pic32c/8.3.1/../../../../pic32c/lib/thumb/v6-m/nofp\libg-musl.a(__fmt_s.o)
 .debug_frame   0x0000000000006a5c       0x30 c:/program files/microchip/xc32/v4.60/bin/bin/../../lib/gcc/pic32c/8.3.1/../../../../pic32c/lib/thumb/v6-m/nofp\libg-musl.a(__fmt_u.o)
 .debug_frame   0x0000000000006a8c       0x30 c:/program files/microchip/xc32/v4.60/bin/bin/../../lib/gcc/pic32c/8.3.1/../../../../pic32c/lib/thumb/v6-m/nofp\libg-musl.a(__fmt_x.o)
 .debug_frame   0x0000000000006abc       0x20 c:/program files/microchip/xc32/v4.60/bin/bin/../../lib/gcc/pic32c/8.3.1/../../../../pic32c/lib/thumb/v6-m/nofp\libg-musl.a(__pop_float.o)
 .debug_frame   0x0000000000006adc       0x28 c:/program files/microchip/xc32/v4.60/bin/bin/../../lib/gcc/pic32c/8.3.1/../../../../pic32c/lib/thumb/v6-m/nofp\libg-musl.a(__pop_int.o)
 .debug_frame   0x0000000000006b04       0x28 c:/program files/microchip/xc32/v4.60/bin/bin/../../lib/gcc/pic32c/8.3.1/../../../../pic32c/lib/thumb/v6-m/nofp\libg-musl.a(__pop_ptr.o)
 .debug_frame   0x0000000000006b2c       0xc0 c:/program files/microchip/xc32/v4.60/bin/bin/../../lib/gcc/pic32c/8.3.1/../../../../pic32c/lib/thumb/v6-m/nofp\libg-musl.a(__printf_core.o)
 .debug_frame   0x0000000000006bec       0x38 c:/program files/microchip/xc32/v4.60/bin/bin/../../lib/gcc/pic32c/8.3.1/../../../../pic32c/lib/thumb/v6-m/nofp\libg-musl.a(stdin.o)
 .debug_frame   0x0000000000006c24       0x50 c:/program files/microchip/xc32/v4.60/bin/bin/../../lib/gcc/pic32c/8.3.1/../../../../pic32c/lib/thumb/v6-m/nofp\libg-musl.a(stdout.o)
 .debug_frame   0x0000000000006c74       0x28 c:/program files/microchip/xc32/v4.60/bin/bin/../../lib/gcc/pic32c/8.3.1/../../../../pic32c/lib/thumb/v6-m/nofp\libg-musl.a(putchar.o)
 .debug_frame   0x0000000000006c9c       0x28 c:/program files/microchip/xc32/v4.60/bin/bin/../../lib/gcc/pic32c/8.3.1/../../../../pic32c/lib/thumb/v6-m/nofp\libg-musl.a(puts.o)
 .debug_frame   0x0000000000006cc4       0x28 c:/program files/microchip/xc32/v4.60/bin/bin/../../lib/gcc/pic32c/8.3.1/../../../../pic32c/lib/thumb/v6-m/nofp\libg-musl.a(setbuf.o)
 .debug_frame   0x0000000000006cec       0x28 c:/program files/microchip/xc32/v4.60/bin/bin/../../lib/gcc/pic32c/8.3.1/../../../../pic32c/lib/thumb/v6-m/nofp\libg-musl.a(atoi.o)
 .debug_frame   0x0000000000006d14       0x28 c:/program files/microchip/xc32/v4.60/bin/bin/../../lib/gcc/pic32c/8.3.1/../../../../pic32c/lib/thumb/v6-m/nofp\libg-musl.a(gmtime.o)
 .debug_frame   0x0000000000006d3c       0x2c c:/program files/microchip/xc32/v4.60/bin/bin/../../lib/gcc/pic32c/8.3.1/../../../../pic32c/lib/thumb/v6-m/nofp\libg-musl.a(gmtime_r.o)
 .debug_frame   0x0000000000006d68       0x2c c:/program files/microchip/xc32/v4.60/bin/bin/../../lib/gcc/pic32c/8.3.1/../../../../pic32c/lib/thumb/v6-m/nofp\libg-musl.a(mktime.o)
 .debug_frame   0x0000000000006d94       0x38 c:/program files/microchip/xc32/v4.60/bin/bin/../../lib/gcc/pic32c/8.3.1/../../../../pic32c/lib/thumb/v6-m/nofp\libg-musl.a(tolower.o)
 .debug_frame   0x0000000000006dcc       0x38 c:/program files/microchip/xc32/v4.60/bin/bin/../../lib/gcc/pic32c/8.3.1/../../../../pic32c/lib/thumb/v6-m/nofp\libg-musl.a(toupper.o)
 .debug_frame   0x0000000000006e04       0x2c c:/program files/microchip/xc32/v4.60/bin/bin/../../lib/gcc/pic32c/8.3.1/../../../../pic32c/lib/thumb/v6-m/nofp\libg-musl.a(__int_vfprintf.o)
 .debug_frame   0x0000000000006e30       0x28 c:/program files/microchip/xc32/v4.60/bin/bin/../../lib/gcc/pic32c/8.3.1/../../../../pic32c/lib/thumb/v6-m/nofp\libg-musl.a(__int_vsprintf.o)
 .debug_frame   0x0000000000006e58       0x2c c:/program files/microchip/xc32/v4.60/bin/bin/../../lib/gcc/pic32c/8.3.1/../../../../pic32c/lib/thumb/v6-m/nofp\libg-musl.a(fputs.o)
 .debug_frame   0x0000000000006e84       0x34 c:/program files/microchip/xc32/v4.60/bin/bin/../../lib/gcc/pic32c/8.3.1/../../../../pic32c/lib/thumb/v6-m/nofp\libg-musl.a(__cvt_u.o)
 .debug_frame   0x0000000000006eb8       0x34 c:/program files/microchip/xc32/v4.60/bin/bin/../../lib/gcc/pic32c/8.3.1/../../../../pic32c/lib/thumb/v6-m/nofp\libg-musl.a(__stdio_read.o)
 .debug_frame   0x0000000000006eec       0x20 c:/program files/microchip/xc32/v4.60/bin/bin/../../lib/gcc/pic32c/8.3.1/../../../../pic32c/lib/thumb/v6-m/nofp\libg-musl.a(__towrite_rw.o)
 .debug_frame   0x0000000000006f0c       0x44 c:/program files/microchip/xc32/v4.60/bin/bin/../../lib/gcc/pic32c/8.3.1/../../../../pic32c/lib/thumb/v6-m/nofp\libg-musl.a(fwrite.o)
 .debug_frame   0x0000000000006f50       0x5c c:/program files/microchip/xc32/v4.60/bin/bin/../../lib/gcc/pic32c/8.3.1/../../../../pic32c/lib/thumb/v6-m/nofp\libg-musl.a(putc.o)
 .debug_frame   0x0000000000006fac       0x44 c:/program files/microchip/xc32/v4.60/bin/bin/../../lib/gcc/pic32c/8.3.1/../../../../pic32c/lib/thumb/v6-m/nofp\libg-musl.a(setvbuf.o)
 .debug_frame   0x0000000000006ff0       0x30 c:/program files/microchip/xc32/v4.60/bin/bin/../../lib/gcc/pic32c/8.3.1/../../../../pic32c/lib/thumb/v6-m/nofp\libg-musl.a(__tm_to_secs.o)
 .debug_frame   0x0000000000007020       0x34 c:/program files/microchip/xc32/v4.60/bin/bin/../../lib/gcc/pic32c/8.3.1/../../../../pic32c/lib/thumb/v6-m/nofp\libg-musl.a(__year_to_secs.o)
 .debug_frame   0x0000000000007054       0x30 c:/program files/microchip/xc32/v4.60/bin/bin/../../lib/gcc/pic32c/8.3.1/../../../../pic32c/lib/thumb/v6-m/nofp\libg-musl.a(__secs_to_tm.o)
 .debug_frame   0x0000000000007084       0x34 c:/program files/microchip/xc32/v4.60/bin/bin/../../lib/gcc/pic32c/8.3.1/../../../../pic32c/lib/thumb/v6-m/nofp\libg-musl.a(readv.o)
 .debug_frame   0x00000000000070b8       0x2c c:/program files/microchip/xc32/v4.60/bin/bin/../../lib/gcc/pic32c/8.3.1/../../../../pic32c/lib/thumb/v6-m/nofp\libg-musl.a(__int_vsnprintf.o)
 .debug_frame   0x00000000000070e4       0x38 c:/program files/microchip/xc32/v4.60/bin/bin/../../lib/gcc/pic32c/8.3.1/../../../../pic32c/lib/thumb/v6-m/nofp\libg-musl.a(__init_stdio.o)
 .debug_frame   0x000000000000711c       0x44 c:/program files/microchip/xc32/v4.60/bin/bin/../../lib/gcc/pic32c/8.3.1/../../../../pic32c/lib/thumb/v6-m/nofp\libg-musl.a(__out.o)
 .debug_frame   0x0000000000007160       0x28 c:/program files/microchip/xc32/v4.60/bin/bin/../../lib/gcc/pic32c/8.3.1/../../../../pic32c/lib/thumb/v6-m/nofp\libg-musl.a(__putc.o)
 .debug_frame   0x0000000000007188       0x48 c:/program files/microchip/xc32/v4.60/bin/bin/../../lib/gcc/pic32c/8.3.1/../../../../pic32c/lib/thumb/v6-m/nofp\libg-musl.a(__stderr.o)
 .debug_frame   0x00000000000071d0       0x48 c:/program files/microchip/xc32/v4.60/bin/bin/../../lib/gcc/pic32c/8.3.1/../../../../pic32c/lib/thumb/v6-m/nofp\libg-musl.a(__stdio_close.o)
 .debug_frame   0x0000000000007218       0x50 c:/program files/microchip/xc32/v4.60/bin/bin/../../lib/gcc/pic32c/8.3.1/../../../../pic32c/lib/thumb/v6-m/nofp\libg-musl.a(__stdio_write.o)
 .debug_frame   0x0000000000007268       0x48 c:/program files/microchip/xc32/v4.60/bin/bin/../../lib/gcc/pic32c/8.3.1/../../../../pic32c/lib/thumb/v6-m/nofp\libg-musl.a(__stdout.o)
 .debug_frame   0x00000000000072b0       0x38 c:/program files/microchip/xc32/v4.60/bin/bin/../../lib/gcc/pic32c/8.3.1/../../../../pic32c/lib/thumb/v6-m/nofp\libg-musl.a(__towrite.o)
 .debug_frame   0x00000000000072e8       0x20 c:/program files/microchip/xc32/v4.60/bin/bin/../../lib/gcc/pic32c/8.3.1/../../../../pic32c/lib/thumb/v6-m/nofp\libg-musl.a(__month_to_secs.o)
 .debug_frame   0x0000000000007308       0x34 c:/program files/microchip/xc32/v4.60/bin/bin/../../lib/gcc/pic32c/8.3.1/../../../../pic32c/lib/thumb/v6-m/nofp\libg-musl.a(writev.o)
 .debug_frame   0x000000000000733c       0x30 c:/program files/microchip/xc32/v4.60/bin/bin/../../lib/gcc/pic32c/8.3.1/../../../../pic32c/lib/thumb/v6-m/nofp\libg-musl.a(__overflow.o)
 .debug_frame   0x000000000000736c       0x40 c:/program files/microchip/xc32/v4.60/bin/bin/../../lib/gcc/pic32c/8.3.1/../../../../pic32c/lib/thumb/v6-m/nofp\libg-musl.a(__fwrite.o)
 .debug_frame   0x00000000000073ac       0x20 c:/program files/microchip/xc32/v4.60/bin/bin/../../lib/gcc/pic32c/8.3.1/thumb/v6-m/nofp\libgcc.a(_udivsi3.o)
 .debug_frame   0x00000000000073cc       0x20 c:/program files/microchip/xc32/v4.60/bin/bin/../../lib/gcc/pic32c/8.3.1/thumb/v6-m/nofp\libgcc.a(_divsi3.o)
 .debug_frame   0x00000000000073ec       0x34 c:/program files/microchip/xc32/v4.60/bin/bin/../../lib/gcc/pic32c/8.3.1/thumb/v6-m/nofp\libgcc.a(_muldi3.o)
 .debug_frame   0x0000000000007420       0x30 c:/program files/microchip/xc32/v4.60/bin/bin/../../lib/gcc/pic32c/8.3.1/thumb/v6-m/nofp\libgcc.a(_udivmoddi4.o)
 .debug_frame   0x0000000000007450       0x34 c:/program files/microchip/xc32/v4.60/bin/bin/../../lib/gcc/pic32c/8.3.1/thumb/v6-m/nofp\libgcc.a(bpabi.o)
 .debug_frame   0x0000000000007484       0x30 c:/program files/microchip/xc32/v4.60/bin/bin/../../lib/gcc/pic32c/8.3.1/thumb/v6-m/nofp\libgcc.a(_divdi3.o)
 .debug_frame   0x00000000000074b4       0x20 c:/program files/microchip/xc32/v4.60/bin/bin/../../lib/gcc/pic32c/8.3.1/../../../../pic32c/lib/thumb/v6-m/nofp\libpic32c.a(close.o)
 .debug_frame   0x00000000000074d4       0x20 c:/program files/microchip/xc32/v4.60/bin/bin/../../lib/gcc/pic32c/8.3.1/../../../../pic32c/lib/thumb/v6-m/nofp\libpic32c.a(lseek.o)
 .debug_frame   0x00000000000074f4       0x54 c:/program files/microchip/xc32/v4.60/bin/bin/../../lib/gcc/pic32c/8.3.1/../../../../pic32c/lib/thumb/v6-m/nofp\libpic32c.a(sbrk.o)
 .debug_frame   0x0000000000007548       0x28 c:/program files/microchip/xc32/v4.60/bin/bin/../../lib/gcc/pic32c/8.3.1/../../../../pic32c/lib/thumb/v6-m/nofp\libc-size-musl.a(strcpy.o)
 .debug_frame   0x0000000000007570       0x20 c:/program files/microchip/xc32/v4.60/bin/bin/../../lib/gcc/pic32c/8.3.1/../../../../pic32c/lib/thumb/v6-m/nofp\libc-size-musl.a(stpcpy.o)
 .debug_frame   0x0000000000007590       0x20 c:/program files/microchip/xc32/v4.60/bin/bin/../../lib/gcc/pic32c/8.3.1/../../../../pic32c/lib/thumb/v6-m/nofp\libpic32c.a(pic32_data_init_clear.o)
 .debug_frame   0x00000000000075b0       0x28 c:/program files/microchip/xc32/v4.60/bin/bin/../../lib/gcc/pic32c/8.3.1/../../../../pic32c/lib/thumb/v6-m/nofp\libpic32c.a(pic32_data_init_copy.o)

.debug_ranges   0x0000000000000000      0x920
 .debug_ranges  0x0000000000000000       0x60 build/SAMD21_IOT_WG_ICM42688/debug/_ext/121554788/m2m_hif.o
 .debug_ranges  0x0000000000000060       0x78 build/SAMD21_IOT_WG_ICM42688/debug/_ext/121554788/m2m_wifi.o
 .debug_ranges  0x00000000000000d8       0x18 build/SAMD21_IOT_WG_ICM42688/debug/_ext/121554788/nmasic.o
 .debug_ranges  0x00000000000000f0       0x70 build/SAMD21_IOT_WG_ICM42688/debug/_ext/548032175/socket.o
 .debug_ranges  0x0000000000000160       0x18 build/SAMD21_IOT_WG_ICM42688/debug/_ext/609036575/flexible_flash.o
 .debug_ranges  0x0000000000000178       0x18 build/SAMD21_IOT_WG_ICM42688/debug/_ext/609036575/spi_flash.o
 .debug_ranges  0x0000000000000190      0x148 build/SAMD21_IOT_WG_ICM42688/debug/_ext/907429946/wdrv_winc.o
 .debug_ranges  0x00000000000002d8       0x18 build/SAMD21_IOT_WG_ICM42688/debug/_ext/1832905403/startup_xc32.o
 .debug_ranges  0x00000000000002f0       0x18 build/SAMD21_IOT_WG_ICM42688/debug/_ext/1341251756/Icm426xxTransport.o
 .debug_ranges  0x0000000000000308       0x18 build/SAMD21_IOT_WG_ICM42688/debug/_ext/1360937237/ws2812.o
 .debug_ranges  0x0000000000000320       0x20 c:/program files/microchip/xc32/v4.60/bin/bin/../../lib/gcc/pic32c/8.3.1/../../../../pic32c/lib/thumb/v6-m/nofp\libpic32c.a(data_init.o)
 .debug_ranges  0x0000000000000340       0x10 c:/program files/microchip/xc32/v4.60/bin/bin/../../lib/gcc/pic32c/8.3.1/../../../../pic32c/lib/thumb/v6-m/nofp\libc-size-musl.a(memcpy.o)
 .debug_ranges  0x0000000000000350       0x10 c:/program files/microchip/xc32/v4.60/bin/bin/../../lib/gcc/pic32c/8.3.1/../../../../pic32c/lib/thumb/v6-m/nofp\libc-size-musl.a(memset.o)
 .debug_ranges  0x0000000000000360       0x10 c:/program files/microchip/xc32/v4.60/bin/bin/../../lib/gcc/pic32c/8.3.1/../../../../pic32c/lib/thumb/v6-m/nofp\libc-size-musl.a(strlen.o)
 .debug_ranges  0x0000000000000370       0x10 c:/program files/microchip/xc32/v4.60/bin/bin/../../lib/gcc/pic32c/8.3.1/../../../../pic32c/lib/thumb/v6-m/nofp\libc-size-musl.a(strchr.o)
 .debug_ranges  0x0000000000000380       0x10 c:/program files/microchip/xc32/v4.60/bin/bin/../../lib/gcc/pic32c/8.3.1/../../../../pic32c/lib/thumb/v6-m/nofp\libc-size-musl.a(strchrnul.o)
 .debug_ranges  0x0000000000000390       0x10 c:/program files/microchip/xc32/v4.60/bin/bin/../../lib/gcc/pic32c/8.3.1/../../../../pic32c/lib/thumb/v6-m/nofp\libc-size-musl.a(strnlen.o)
 .debug_ranges  0x00000000000003a0       0x10 c:/program files/microchip/xc32/v4.60/bin/bin/../../lib/gcc/pic32c/8.3.1/../../../../pic32c/lib/thumb/v6-m/nofp\libc-size-musl.a(memchr.o)
 .debug_ranges  0x00000000000003b0       0x38 c:/program files/microchip/xc32/v4.60/bin/bin/../../lib/gcc/pic32c/8.3.1/../../../../pic32c/lib/thumb/v6-m/nofp\liblmalloc-musl.a(lite_free.o)
 .debug_ranges  0x00000000000003e8       0x10 c:/program files/microchip/xc32/v4.60/bin/bin/../../lib/gcc/pic32c/8.3.1/../../../../pic32c/lib/thumb/v6-m/nofp\liblmalloc-musl.a(lite_malloc.o)
 .debug_ranges  0x00000000000003f8       0x30 c:/program files/microchip/xc32/v4.60/bin/bin/../../lib/gcc/pic32c/8.3.1/../../../../pic32c/lib/thumb/v6-m/nofp\libg-musl.a(__libc_start_main.o)
 .debug_ranges  0x0000000000000428       0x10 c:/program files/microchip/xc32/v4.60/bin/bin/../../lib/gcc/pic32c/8.3.1/../../../../pic32c/lib/thumb/v6-m/nofp\libg-musl.a(expand_heap.o)
 .debug_ranges  0x0000000000000438       0x18 c:/program files/microchip/xc32/v4.60/bin/bin/../../lib/gcc/pic32c/8.3.1/../../../../pic32c/lib/thumb/v6-m/nofp\libg-musl.a(__sio_printf_cdeEfFgGnpsuxX.o)
 .debug_ranges  0x0000000000000450       0x18 c:/program files/microchip/xc32/v4.60/bin/bin/../../lib/gcc/pic32c/8.3.1/../../../../pic32c/lib/thumb/v6-m/nofp\libg-musl.a(__sio_sprintf_cdeEfFgGnpsuxX.o)
 .debug_ranges  0x0000000000000468       0x10 c:/program files/microchip/xc32/v4.60/bin/bin/../../lib/gcc/pic32c/8.3.1/../../../../pic32c/lib/thumb/v6-m/nofp\libg-musl.a(__fmt_d.o)
 .debug_ranges  0x0000000000000478       0x10 c:/program files/microchip/xc32/v4.60/bin/bin/../../lib/gcc/pic32c/8.3.1/../../../../pic32c/lib/thumb/v6-m/nofp\libg-musl.a(__fmt_fp.o)
 .debug_ranges  0x0000000000000488       0x10 c:/program files/microchip/xc32/v4.60/bin/bin/../../lib/gcc/pic32c/8.3.1/../../../../pic32c/lib/thumb/v6-m/nofp\libg-musl.a(__fmt_s.o)
 .debug_ranges  0x0000000000000498       0x10 c:/program files/microchip/xc32/v4.60/bin/bin/../../lib/gcc/pic32c/8.3.1/../../../../pic32c/lib/thumb/v6-m/nofp\libg-musl.a(__fmt_u.o)
 .debug_ranges  0x00000000000004a8       0x10 c:/program files/microchip/xc32/v4.60/bin/bin/../../lib/gcc/pic32c/8.3.1/../../../../pic32c/lib/thumb/v6-m/nofp\libg-musl.a(__fmt_x.o)
 .debug_ranges  0x00000000000004b8       0x10 c:/program files/microchip/xc32/v4.60/bin/bin/../../lib/gcc/pic32c/8.3.1/../../../../pic32c/lib/thumb/v6-m/nofp\libg-musl.a(__pop_float.o)
 .debug_ranges  0x00000000000004c8       0x10 c:/program files/microchip/xc32/v4.60/bin/bin/../../lib/gcc/pic32c/8.3.1/../../../../pic32c/lib/thumb/v6-m/nofp\libg-musl.a(__pop_int.o)
 .debug_ranges  0x00000000000004d8       0x10 c:/program files/microchip/xc32/v4.60/bin/bin/../../lib/gcc/pic32c/8.3.1/../../../../pic32c/lib/thumb/v6-m/nofp\libg-musl.a(__pop_ptr.o)
 .debug_ranges  0x00000000000004e8       0x58 c:/program files/microchip/xc32/v4.60/bin/bin/../../lib/gcc/pic32c/8.3.1/../../../../pic32c/lib/thumb/v6-m/nofp\libg-musl.a(__printf_core.o)
 .debug_ranges  0x0000000000000540       0x18 c:/program files/microchip/xc32/v4.60/bin/bin/../../lib/gcc/pic32c/8.3.1/../../../../pic32c/lib/thumb/v6-m/nofp\libg-musl.a(stdin.o)
 .debug_ranges  0x0000000000000558       0x20 c:/program files/microchip/xc32/v4.60/bin/bin/../../lib/gcc/pic32c/8.3.1/../../../../pic32c/lib/thumb/v6-m/nofp\libg-musl.a(stdout.o)
 .debug_ranges  0x0000000000000578       0x10 c:/program files/microchip/xc32/v4.60/bin/bin/../../lib/gcc/pic32c/8.3.1/../../../../pic32c/lib/thumb/v6-m/nofp\libg-musl.a(putchar.o)
 .debug_ranges  0x0000000000000588       0x10 c:/program files/microchip/xc32/v4.60/bin/bin/../../lib/gcc/pic32c/8.3.1/../../../../pic32c/lib/thumb/v6-m/nofp\libg-musl.a(puts.o)
 .debug_ranges  0x0000000000000598       0x10 c:/program files/microchip/xc32/v4.60/bin/bin/../../lib/gcc/pic32c/8.3.1/../../../../pic32c/lib/thumb/v6-m/nofp\libg-musl.a(setbuf.o)
 .debug_ranges  0x00000000000005a8       0x10 c:/program files/microchip/xc32/v4.60/bin/bin/../../lib/gcc/pic32c/8.3.1/../../../../pic32c/lib/thumb/v6-m/nofp\libg-musl.a(atoi.o)
 .debug_ranges  0x00000000000005b8       0x10 c:/program files/microchip/xc32/v4.60/bin/bin/../../lib/gcc/pic32c/8.3.1/../../../../pic32c/lib/thumb/v6-m/nofp\libg-musl.a(gmtime.o)
 .debug_ranges  0x00000000000005c8       0x10 c:/program files/microchip/xc32/v4.60/bin/bin/../../lib/gcc/pic32c/8.3.1/../../../../pic32c/lib/thumb/v6-m/nofp\libg-musl.a(gmtime_r.o)
 .debug_ranges  0x00000000000005d8       0x10 c:/program files/microchip/xc32/v4.60/bin/bin/../../lib/gcc/pic32c/8.3.1/../../../../pic32c/lib/thumb/v6-m/nofp\libg-musl.a(mktime.o)
 .debug_ranges  0x00000000000005e8       0x18 c:/program files/microchip/xc32/v4.60/bin/bin/../../lib/gcc/pic32c/8.3.1/../../../../pic32c/lib/thumb/v6-m/nofp\libg-musl.a(tolower.o)
 .debug_ranges  0x0000000000000600       0x18 c:/program files/microchip/xc32/v4.60/bin/bin/../../lib/gcc/pic32c/8.3.1/../../../../pic32c/lib/thumb/v6-m/nofp\libg-musl.a(toupper.o)
 .debug_ranges  0x0000000000000618       0x10 c:/program files/microchip/xc32/v4.60/bin/bin/../../lib/gcc/pic32c/8.3.1/../../../../pic32c/lib/thumb/v6-m/nofp\libg-musl.a(__int_vfprintf.o)
 .debug_ranges  0x0000000000000628       0x10 c:/program files/microchip/xc32/v4.60/bin/bin/../../lib/gcc/pic32c/8.3.1/../../../../pic32c/lib/thumb/v6-m/nofp\libg-musl.a(__int_vsprintf.o)
 .debug_ranges  0x0000000000000638       0x10 c:/program files/microchip/xc32/v4.60/bin/bin/../../lib/gcc/pic32c/8.3.1/../../../../pic32c/lib/thumb/v6-m/nofp\libg-musl.a(fputs.o)
 .debug_ranges  0x0000000000000648       0x10 c:/program files/microchip/xc32/v4.60/bin/bin/../../lib/gcc/pic32c/8.3.1/../../../../pic32c/lib/thumb/v6-m/nofp\libg-musl.a(__cvt_u.o)
 .debug_ranges  0x0000000000000658       0x10 c:/program files/microchip/xc32/v4.60/bin/bin/../../lib/gcc/pic32c/8.3.1/../../../../pic32c/lib/thumb/v6-m/nofp\libg-musl.a(__stdio_read.o)
 .debug_ranges  0x0000000000000668       0x10 c:/program files/microchip/xc32/v4.60/bin/bin/../../lib/gcc/pic32c/8.3.1/../../../../pic32c/lib/thumb/v6-m/nofp\libg-musl.a(__towrite_rw.o)
 .debug_ranges  0x0000000000000678       0x18 c:/program files/microchip/xc32/v4.60/bin/bin/../../lib/gcc/pic32c/8.3.1/../../../../pic32c/lib/thumb/v6-m/nofp\libg-musl.a(fwrite.o)
 .debug_ranges  0x0000000000000690       0x20 c:/program files/microchip/xc32/v4.60/bin/bin/../../lib/gcc/pic32c/8.3.1/../../../../pic32c/lib/thumb/v6-m/nofp\libg-musl.a(putc.o)
 .debug_ranges  0x00000000000006b0       0x18 c:/program files/microchip/xc32/v4.60/bin/bin/../../lib/gcc/pic32c/8.3.1/../../../../pic32c/lib/thumb/v6-m/nofp\libg-musl.a(setvbuf.o)
 .debug_ranges  0x00000000000006c8       0x10 c:/program files/microchip/xc32/v4.60/bin/bin/../../lib/gcc/pic32c/8.3.1/../../../../pic32c/lib/thumb/v6-m/nofp\libg-musl.a(__tm_to_secs.o)
 .debug_ranges  0x00000000000006d8       0x28 c:/program files/microchip/xc32/v4.60/bin/bin/../../lib/gcc/pic32c/8.3.1/../../../../pic32c/lib/thumb/v6-m/nofp\libg-musl.a(__year_to_secs.o)
 .debug_ranges  0x0000000000000700       0x10 c:/program files/microchip/xc32/v4.60/bin/bin/../../lib/gcc/pic32c/8.3.1/../../../../pic32c/lib/thumb/v6-m/nofp\libg-musl.a(__secs_to_tm.o)
 .debug_ranges  0x0000000000000710       0x10 c:/program files/microchip/xc32/v4.60/bin/bin/../../lib/gcc/pic32c/8.3.1/../../../../pic32c/lib/thumb/v6-m/nofp\libg-musl.a(readv.o)
 .debug_ranges  0x0000000000000720       0x10 c:/program files/microchip/xc32/v4.60/bin/bin/../../lib/gcc/pic32c/8.3.1/../../../../pic32c/lib/thumb/v6-m/nofp\libg-musl.a(__int_vsnprintf.o)
 .debug_ranges  0x0000000000000730       0x18 c:/program files/microchip/xc32/v4.60/bin/bin/../../lib/gcc/pic32c/8.3.1/../../../../pic32c/lib/thumb/v6-m/nofp\libg-musl.a(__init_stdio.o)
 .debug_ranges  0x0000000000000748       0x18 c:/program files/microchip/xc32/v4.60/bin/bin/../../lib/gcc/pic32c/8.3.1/../../../../pic32c/lib/thumb/v6-m/nofp\libg-musl.a(__out.o)
 .debug_ranges  0x0000000000000760       0x10 c:/program files/microchip/xc32/v4.60/bin/bin/../../lib/gcc/pic32c/8.3.1/../../../../pic32c/lib/thumb/v6-m/nofp\libg-musl.a(__putc.o)
 .debug_ranges  0x0000000000000770       0x20 c:/program files/microchip/xc32/v4.60/bin/bin/../../lib/gcc/pic32c/8.3.1/../../../../pic32c/lib/thumb/v6-m/nofp\libg-musl.a(__stderr.o)
 .debug_ranges  0x0000000000000790       0x18 c:/program files/microchip/xc32/v4.60/bin/bin/../../lib/gcc/pic32c/8.3.1/../../../../pic32c/lib/thumb/v6-m/nofp\libg-musl.a(__stdio_close.o)
 .debug_ranges  0x00000000000007a8       0x30 c:/program files/microchip/xc32/v4.60/bin/bin/../../lib/gcc/pic32c/8.3.1/../../../../pic32c/lib/thumb/v6-m/nofp\libg-musl.a(__stdio_write.o)
 .debug_ranges  0x00000000000007d8       0x20 c:/program files/microchip/xc32/v4.60/bin/bin/../../lib/gcc/pic32c/8.3.1/../../../../pic32c/lib/thumb/v6-m/nofp\libg-musl.a(__stdout.o)
 .debug_ranges  0x00000000000007f8       0x18 c:/program files/microchip/xc32/v4.60/bin/bin/../../lib/gcc/pic32c/8.3.1/../../../../pic32c/lib/thumb/v6-m/nofp\libg-musl.a(__towrite.o)
 .debug_ranges  0x0000000000000810       0x10 c:/program files/microchip/xc32/v4.60/bin/bin/../../lib/gcc/pic32c/8.3.1/../../../../pic32c/lib/thumb/v6-m/nofp\libg-musl.a(__month_to_secs.o)
 .debug_ranges  0x0000000000000820       0x10 c:/program files/microchip/xc32/v4.60/bin/bin/../../lib/gcc/pic32c/8.3.1/../../../../pic32c/lib/thumb/v6-m/nofp\libg-musl.a(writev.o)
 .debug_ranges  0x0000000000000830       0x10 c:/program files/microchip/xc32/v4.60/bin/bin/../../lib/gcc/pic32c/8.3.1/../../../../pic32c/lib/thumb/v6-m/nofp\libg-musl.a(__overflow.o)
 .debug_ranges  0x0000000000000840       0x18 c:/program files/microchip/xc32/v4.60/bin/bin/../../lib/gcc/pic32c/8.3.1/../../../../pic32c/lib/thumb/v6-m/nofp\libg-musl.a(__fwrite.o)
 .debug_ranges  0x0000000000000858       0x28 c:/program files/microchip/xc32/v4.60/bin/bin/../../lib/gcc/pic32c/8.3.1/thumb/v6-m/nofp\libgcc.a(_muldi3.o)
 .debug_ranges  0x0000000000000880       0x20 c:/program files/microchip/xc32/v4.60/bin/bin/../../lib/gcc/pic32c/8.3.1/thumb/v6-m/nofp\libgcc.a(_divdi3.o)
 .debug_ranges  0x00000000000008a0       0x10 c:/program files/microchip/xc32/v4.60/bin/bin/../../lib/gcc/pic32c/8.3.1/../../../../pic32c/lib/thumb/v6-m/nofp\libpic32c.a(close.o)
 .debug_ranges  0x00000000000008b0       0x10 c:/program files/microchip/xc32/v4.60/bin/bin/../../lib/gcc/pic32c/8.3.1/../../../../pic32c/lib/thumb/v6-m/nofp\libpic32c.a(lseek.o)
 .debug_ranges  0x00000000000008c0       0x20 c:/program files/microchip/xc32/v4.60/bin/bin/../../lib/gcc/pic32c/8.3.1/../../../../pic32c/lib/thumb/v6-m/nofp\libpic32c.a(sbrk.o)
 .debug_ranges  0x00000000000008e0       0x10 c:/program files/microchip/xc32/v4.60/bin/bin/../../lib/gcc/pic32c/8.3.1/../../../../pic32c/lib/thumb/v6-m/nofp\libc-size-musl.a(strcpy.o)
 .debug_ranges  0x00000000000008f0       0x10 c:/program files/microchip/xc32/v4.60/bin/bin/../../lib/gcc/pic32c/8.3.1/../../../../pic32c/lib/thumb/v6-m/nofp\libc-size-musl.a(stpcpy.o)
 .debug_ranges  0x0000000000000900       0x10 c:/program files/microchip/xc32/v4.60/bin/bin/../../lib/gcc/pic32c/8.3.1/../../../../pic32c/lib/thumb/v6-m/nofp\libpic32c.a(pic32_data_init_clear.o)
 .debug_ranges  0x0000000000000910       0x10 c:/program files/microchip/xc32/v4.60/bin/bin/../../lib/gcc/pic32c/8.3.1/../../../../pic32c/lib/thumb/v6-m/nofp\libpic32c.a(pic32_data_init_copy.o)

.note.GNU-stack
                0x0000000000000000        0x0
 .note.GNU-stack
                0x0000000000000000        0x0 c:/program files/microchip/xc32/v4.60/bin/bin/../../lib/gcc/pic32c/8.3.1/../../../../pic32c/lib/thumb/v6-m/nofp\libc-size-musl.a(memcpy.o)
 .note.GNU-stack
                0x0000000000000000        0x0 c:/program files/microchip/xc32/v4.60/bin/bin/../../lib/gcc/pic32c/8.3.1/../../../../pic32c/lib/thumb/v6-m/nofp\libc-size-musl.a(memset.o)
 .note.GNU-stack
                0x0000000000000000        0x0 c:/program files/microchip/xc32/v4.60/bin/bin/../../lib/gcc/pic32c/8.3.1/../../../../pic32c/lib/thumb/v6-m/nofp\libc-size-musl.a(strlen.o)
 .note.GNU-stack
                0x0000000000000000        0x0 c:/program files/microchip/xc32/v4.60/bin/bin/../../lib/gcc/pic32c/8.3.1/../../../../pic32c/lib/thumb/v6-m/nofp\libc-size-musl.a(strchr.o)
 .note.GNU-stack
                0x0000000000000000        0x0 c:/program files/microchip/xc32/v4.60/bin/bin/../../lib/gcc/pic32c/8.3.1/../../../../pic32c/lib/thumb/v6-m/nofp\libc-size-musl.a(strchrnul.o)
 .note.GNU-stack
                0x0000000000000000        0x0 c:/program files/microchip/xc32/v4.60/bin/bin/../../lib/gcc/pic32c/8.3.1/../../../../pic32c/lib/thumb/v6-m/nofp\libc-size-musl.a(strnlen.o)
 .note.GNU-stack
                0x0000000000000000        0x0 c:/program files/microchip/xc32/v4.60/bin/bin/../../lib/gcc/pic32c/8.3.1/../../../../pic32c/lib/thumb/v6-m/nofp\libc-size-musl.a(memchr.o)
 .note.GNU-stack
                0x0000000000000000        0x0 c:/program files/microchip/xc32/v4.60/bin/bin/../../lib/gcc/pic32c/8.3.1/../../../../pic32c/lib/thumb/v6-m/nofp\liblmalloc-musl.a(lite_free.o)
 .note.GNU-stack
                0x0000000000000000        0x0 c:/program files/microchip/xc32/v4.60/bin/bin/../../lib/gcc/pic32c/8.3.1/../../../../pic32c/lib/thumb/v6-m/nofp\liblmalloc-musl.a(lite_malloc.o)
 .note.GNU-stack
                0x0000000000000000        0x0 c:/program files/microchip/xc32/v4.60/bin/bin/../../lib/gcc/pic32c/8.3.1/../../../../pic32c/lib/thumb/v6-m/nofp\libg-musl.a(__libc_start_main.o)
 .note.GNU-stack
                0x0000000000000000        0x0 c:/program files/microchip/xc32/v4.60/bin/bin/../../lib/gcc/pic32c/8.3.1/../../../../pic32c/lib/thumb/v6-m/nofp\libg-musl.a(__errno_location.o)
 .note.GNU-stack
                0x0000000000000000        0x0 c:/program files/microchip/xc32/v4.60/bin/bin/../../lib/gcc/pic32c/8.3.1/../../../../pic32c/lib/thumb/v6-m/nofp\libg-musl.a(libc.o)
 .note.GNU-stack
                0x0000000000000000        0x0 c:/program files/microchip/xc32/v4.60/bin/bin/../../lib/gcc/pic32c/8.3.1/../../../../pic32c/lib/thumb/v6-m/nofp\libg-musl.a(expand_heap.o)
 .note.GNU-stack
                0x0000000000000000        0x0 c:/program files/microchip/xc32/v4.60/bin/bin/../../lib/gcc/pic32c/8.3.1/../../../../pic32c/lib/thumb/v6-m/nofp\libg-musl.a(__sio_printf_cdeEfFgGnpsuxX.o)
 .note.GNU-stack
                0x0000000000000000        0x0 c:/program files/microchip/xc32/v4.60/bin/bin/../../lib/gcc/pic32c/8.3.1/../../../../pic32c/lib/thumb/v6-m/nofp\libg-musl.a(__sio_sprintf_cdeEfFgGnpsuxX.o)
 .note.GNU-stack
                0x0000000000000000        0x0 c:/program files/microchip/xc32/v4.60/bin/bin/../../lib/gcc/pic32c/8.3.1/../../../../pic32c/lib/thumb/v6-m/nofp\libg-musl.a(__fmt_d.o)
 .note.GNU-stack
                0x0000000000000000        0x0 c:/program files/microchip/xc32/v4.60/bin/bin/../../lib/gcc/pic32c/8.3.1/../../../../pic32c/lib/thumb/v6-m/nofp\libg-musl.a(__fmt_fp.o)
 .note.GNU-stack
                0x0000000000000000        0x0 c:/program files/microchip/xc32/v4.60/bin/bin/../../lib/gcc/pic32c/8.3.1/../../../../pic32c/lib/thumb/v6-m/nofp\libg-musl.a(__fmt_s.o)
 .note.GNU-stack
                0x0000000000000000        0x0 c:/program files/microchip/xc32/v4.60/bin/bin/../../lib/gcc/pic32c/8.3.1/../../../../pic32c/lib/thumb/v6-m/nofp\libg-musl.a(__fmt_u.o)
 .note.GNU-stack
                0x0000000000000000        0x0 c:/program files/microchip/xc32/v4.60/bin/bin/../../lib/gcc/pic32c/8.3.1/../../../../pic32c/lib/thumb/v6-m/nofp\libg-musl.a(__fmt_x.o)
 .note.GNU-stack
                0x0000000000000000        0x0 c:/program files/microchip/xc32/v4.60/bin/bin/../../lib/gcc/pic32c/8.3.1/../../../../pic32c/lib/thumb/v6-m/nofp\libg-musl.a(__pop_float.o)
 .note.GNU-stack
                0x0000000000000000        0x0 c:/program files/microchip/xc32/v4.60/bin/bin/../../lib/gcc/pic32c/8.3.1/../../../../pic32c/lib/thumb/v6-m/nofp\libg-musl.a(__pop_int.o)
 .note.GNU-stack
                0x0000000000000000        0x0 c:/program files/microchip/xc32/v4.60/bin/bin/../../lib/gcc/pic32c/8.3.1/../../../../pic32c/lib/thumb/v6-m/nofp\libg-musl.a(__pop_ptr.o)
 .note.GNU-stack
                0x0000000000000000        0x0 c:/program files/microchip/xc32/v4.60/bin/bin/../../lib/gcc/pic32c/8.3.1/../../../../pic32c/lib/thumb/v6-m/nofp\libg-musl.a(__printf_core.o)
 .note.GNU-stack
                0x0000000000000000        0x0 c:/program files/microchip/xc32/v4.60/bin/bin/../../lib/gcc/pic32c/8.3.1/../../../../pic32c/lib/thumb/v6-m/nofp\libg-musl.a(stdin.o)
 .note.GNU-stack
                0x0000000000000000        0x0 c:/program files/microchip/xc32/v4.60/bin/bin/../../lib/gcc/pic32c/8.3.1/../../../../pic32c/lib/thumb/v6-m/nofp\libg-musl.a(stdout.o)
 .note.GNU-stack
                0x0000000000000000        0x0 c:/program files/microchip/xc32/v4.60/bin/bin/../../lib/gcc/pic32c/8.3.1/../../../../pic32c/lib/thumb/v6-m/nofp\libg-musl.a(putchar.o)
 .note.GNU-stack
                0x0000000000000000        0x0 c:/program files/microchip/xc32/v4.60/bin/bin/../../lib/gcc/pic32c/8.3.1/../../../../pic32c/lib/thumb/v6-m/nofp\libg-musl.a(puts.o)
 .note.GNU-stack
                0x0000000000000000        0x0 c:/program files/microchip/xc32/v4.60/bin/bin/../../lib/gcc/pic32c/8.3.1/../../../../pic32c/lib/thumb/v6-m/nofp\libg-musl.a(setbuf.o)
 .note.GNU-stack
                0x0000000000000000        0x0 c:/program files/microchip/xc32/v4.60/bin/bin/../../lib/gcc/pic32c/8.3.1/../../../../pic32c/lib/thumb/v6-m/nofp\libg-musl.a(atoi.o)
 .note.GNU-stack
                0x0000000000000000        0x0 c:/program files/microchip/xc32/v4.60/bin/bin/../../lib/gcc/pic32c/8.3.1/../../../../pic32c/lib/thumb/v6-m/nofp\libg-musl.a(gmtime.o)
 .note.GNU-stack
                0x0000000000000000        0x0 c:/program files/microchip/xc32/v4.60/bin/bin/../../lib/gcc/pic32c/8.3.1/../../../../pic32c/lib/thumb/v6-m/nofp\libg-musl.a(gmtime_r.o)
 .note.GNU-stack
                0x0000000000000000        0x0 c:/program files/microchip/xc32/v4.60/bin/bin/../../lib/gcc/pic32c/8.3.1/../../../../pic32c/lib/thumb/v6-m/nofp\libg-musl.a(mktime.o)
 .note.GNU-stack
                0x0000000000000000        0x0 c:/program files/microchip/xc32/v4.60/bin/bin/../../lib/gcc/pic32c/8.3.1/../../../../pic32c/lib/thumb/v6-m/nofp\libg-musl.a(tolower.o)
 .note.GNU-stack
                0x0000000000000000        0x0 c:/program files/microchip/xc32/v4.60/bin/bin/../../lib/gcc/pic32c/8.3.1/../../../../pic32c/lib/thumb/v6-m/nofp\libg-musl.a(toupper.o)
 .note.GNU-stack
                0x0000000000000000        0x0 c:/program files/microchip/xc32/v4.60/bin/bin/../../lib/gcc/pic32c/8.3.1/../../../../pic32c/lib/thumb/v6-m/nofp\libg-musl.a(__environ.o)
 .note.GNU-stack
                0x0000000000000000        0x0 c:/program files/microchip/xc32/v4.60/bin/bin/../../lib/gcc/pic32c/8.3.1/../../../../pic32c/lib/thumb/v6-m/nofp\libg-musl.a(__int_vfprintf.o)
 .note.GNU-stack
                0x0000000000000000        0x0 c:/program files/microchip/xc32/v4.60/bin/bin/../../lib/gcc/pic32c/8.3.1/../../../../pic32c/lib/thumb/v6-m/nofp\libg-musl.a(__int_vsprintf.o)
 .note.GNU-stack
                0x0000000000000000        0x0 c:/program files/microchip/xc32/v4.60/bin/bin/../../lib/gcc/pic32c/8.3.1/../../../../pic32c/lib/thumb/v6-m/nofp\libg-musl.a(fputs.o)
 .note.GNU-stack
                0x0000000000000000        0x0 c:/program files/microchip/xc32/v4.60/bin/bin/../../lib/gcc/pic32c/8.3.1/../../../../pic32c/lib/thumb/v6-m/nofp\libg-musl.a(__cvt_u.o)
 .note.GNU-stack
                0x0000000000000000        0x0 c:/program files/microchip/xc32/v4.60/bin/bin/../../lib/gcc/pic32c/8.3.1/../../../../pic32c/lib/thumb/v6-m/nofp\libg-musl.a(__stdio_read.o)
 .note.GNU-stack
                0x0000000000000000        0x0 c:/program files/microchip/xc32/v4.60/bin/bin/../../lib/gcc/pic32c/8.3.1/../../../../pic32c/lib/thumb/v6-m/nofp\libg-musl.a(__towrite_rw.o)
 .note.GNU-stack
                0x0000000000000000        0x0 c:/program files/microchip/xc32/v4.60/bin/bin/../../lib/gcc/pic32c/8.3.1/../../../../pic32c/lib/thumb/v6-m/nofp\libg-musl.a(fwrite.o)
 .note.GNU-stack
                0x0000000000000000        0x0 c:/program files/microchip/xc32/v4.60/bin/bin/../../lib/gcc/pic32c/8.3.1/../../../../pic32c/lib/thumb/v6-m/nofp\libg-musl.a(putc.o)
 .note.GNU-stack
                0x0000000000000000        0x0 c:/program files/microchip/xc32/v4.60/bin/bin/../../lib/gcc/pic32c/8.3.1/../../../../pic32c/lib/thumb/v6-m/nofp\libg-musl.a(setvbuf.o)
 .note.GNU-stack
                0x0000000000000000        0x0 c:/program files/microchip/xc32/v4.60/bin/bin/../../lib/gcc/pic32c/8.3.1/../../../../pic32c/lib/thumb/v6-m/nofp\libg-musl.a(__tm_to_secs.o)
 .note.GNU-stack
                0x0000000000000000        0x0 c:/program files/microchip/xc32/v4.60/bin/bin/../../lib/gcc/pic32c/8.3.1/../../../../pic32c/lib/thumb/v6-m/nofp\libg-musl.a(__year_to_secs.o)
 .note.GNU-stack
                0x0000000000000000        0x0 c:/program files/microchip/xc32/v4.60/bin/bin/../../lib/gcc/pic32c/8.3.1/../../../../pic32c/lib/thumb/v6-m/nofp\libg-musl.a(__secs_to_tm.o)
 .note.GNU-stack
                0x0000000000000000        0x0 c:/program files/microchip/xc32/v4.60/bin/bin/../../lib/gcc/pic32c/8.3.1/../../../../pic32c/lib/thumb/v6-m/nofp\libg-musl.a(readv.o)
 .note.GNU-stack
                0x0000000000000000        0x0 c:/program files/microchip/xc32/v4.60/bin/bin/../../lib/gcc/pic32c/8.3.1/../../../../pic32c/lib/thumb/v6-m/nofp\libg-musl.a(__int_vsnprintf.o)
 .note.GNU-stack
                0x0000000000000000        0x0 c:/program files/microchip/xc32/v4.60/bin/bin/../../lib/gcc/pic32c/8.3.1/../../../../pic32c/lib/thumb/v6-m/nofp\libg-musl.a(__init_stdio.o)
 .note.GNU-stack
                0x0000000000000000        0x0 c:/program files/microchip/xc32/v4.60/bin/bin/../../lib/gcc/pic32c/8.3.1/../../../../pic32c/lib/thumb/v6-m/nofp\libg-musl.a(__out.o)
 .note.GNU-stack
                0x0000000000000000        0x0 c:/program files/microchip/xc32/v4.60/bin/bin/../../lib/gcc/pic32c/8.3.1/../../../../pic32c/lib/thumb/v6-m/nofp\libg-musl.a(__putc.o)
 .note.GNU-stack
                0x0000000000000000        0x0 c:/program files/microchip/xc32/v4.60/bin/bin/../../lib/gcc/pic32c/8.3.1/../../../../pic32c/lib/thumb/v6-m/nofp\libg-musl.a(__stderr.o)
 .note.GNU-stack
                0x0000000000000000        0x0 c:/program files/microchip/xc32/v4.60/bin/bin/../../lib/gcc/pic32c/8.3.1/../../../../pic32c/lib/thumb/v6-m/nofp\libg-musl.a(__stdio_close.o)
 .note.GNU-stack
                0x0000000000000000        0x0 c:/program files/microchip/xc32/v4.60/bin/bin/../../lib/gcc/pic32c/8.3.1/../../../../pic32c/lib/thumb/v6-m/nofp\libg-musl.a(__stdio_write.o)
 .note.GNU-stack
                0x0000000000000000        0x0 c:/program files/microchip/xc32/v4.60/bin/bin/../../lib/gcc/pic32c/8.3.1/../../../../pic32c/lib/thumb/v6-m/nofp\libg-musl.a(__stdout.o)
 .note.GNU-stack
                0x0000000000000000        0x0 c:/program files/microchip/xc32/v4.60/bin/bin/../../lib/gcc/pic32c/8.3.1/../../../../pic32c/lib/thumb/v6-m/nofp\libg-musl.a(__towrite.o)
 .note.GNU-stack
                0x0000000000000000        0x0 c:/program files/microchip/xc32/v4.60/bin/bin/../../lib/gcc/pic32c/8.3.1/../../../../pic32c/lib/thumb/v6-m/nofp\libg-musl.a(__month_to_secs.o)
 .note.GNU-stack
                0x0000000000000000        0x0 c:/program files/microchip/xc32/v4.60/bin/bin/../../lib/gcc/pic32c/8.3.1/../../../../pic32c/lib/thumb/v6-m/nofp\libg-musl.a(writev.o)
 .note.GNU-stack
                0x0000000000000000        0x0 c:/program files/microchip/xc32/v4.60/bin/bin/../../lib/gcc/pic32c/8.3.1/../../../../pic32c/lib/thumb/v6-m/nofp\libg-musl.a(__overflow.o)
 .note.GNU-stack
                0x0000000000000000        0x0 c:/program files/microchip/xc32/v4.60/bin/bin/../../lib/gcc/pic32c/8.3.1/../../../../pic32c/lib/thumb/v6-m/nofp\libg-musl.a(__fwrite.o)
 .note.GNU-stack
                0x0000000000000000        0x0 c:/program files/microchip/xc32/v4.60/bin/bin/../../lib/gcc/pic32c/8.3.1/../../../../pic32c/lib/thumb/v6-m/nofp\libc-size-musl.a(strcpy.o)
 .note.GNU-stack
                0x0000000000000000        0x0 c:/program files/microchip/xc32/v4.60/bin/bin/../../lib/gcc/pic32c/8.3.1/../../../../pic32c/lib/thumb/v6-m/nofp\libc-size-musl.a(stpcpy.o)

__xc_reference_data
                0x0000000000000000       0xdc
 __xc_reference_data
                0x0000000000000000        0x8 c:/program files/microchip/xc32/v4.60/bin/bin/../../lib/gcc/pic32c/8.3.1/../../../../pic32c/lib/thumb/v6-m/nofp\libg-musl.a(stdin.o)
                0x0000000000000000                __stdin_needs_rw
 __xc_reference_data
                0x0000000000000008        0x8 c:/program files/microchip/xc32/v4.60/bin/bin/../../lib/gcc/pic32c/8.3.1/../../../../pic32c/lib/thumb/v6-m/nofp\libg-musl.a(stdout.o)
                0x0000000000000008                __stdout_needs_init
 __xc_reference_data
                0x0000000000000010       0x14 c:/program files/microchip/xc32/v4.60/bin/bin/../../lib/gcc/pic32c/8.3.1/../../../../pic32c/lib/thumb/v6-m/nofp\libg-musl.a(__io_init_needed.o)
                0x0000000000000010                __io_init_needed
                0x000000000000001c                __io_init_needs_file
 __xc_reference_data
                0x0000000000000024       0x20 c:/program files/microchip/xc32/v4.60/bin/bin/../../lib/gcc/pic32c/8.3.1/../../../../pic32c/lib/thumb/v6-m/nofp\libg-musl.a(__io_rw_needed.o)
                0x0000000000000024                __io_rw_needed
 __xc_reference_data
                0x0000000000000044        0xc c:/program files/microchip/xc32/v4.60/bin/bin/../../lib/gcc/pic32c/8.3.1/../../../../pic32c/lib/thumb/v6-m/nofp\libg-musl.a(putc.o)
                0x0000000000000044                __putc_needs_out
 __xc_reference_data
                0x0000000000000050        0x8 c:/program files/microchip/xc32/v4.60/bin/bin/../../lib/gcc/pic32c/8.3.1/../../../../pic32c/lib/thumb/v6-m/nofp\libg-musl.a(setvbuf.o)
                0x0000000000000050                __setvbuf_needs_buf
 __xc_reference_data
                0x0000000000000058       0x34 c:/program files/microchip/xc32/v4.60/bin/bin/../../lib/gcc/pic32c/8.3.1/../../../../pic32c/lib/thumb/v6-m/nofp\libg-musl.a(__io_buf_needed.o)
                0x0000000000000058                __io_buf_needed
 __xc_reference_data
                0x000000000000008c        0xc c:/program files/microchip/xc32/v4.60/bin/bin/../../lib/gcc/pic32c/8.3.1/../../../../pic32c/lib/thumb/v6-m/nofp\libg-musl.a(__io_file_needed.o)
                0x000000000000008c                __io_file_needed
 __xc_reference_data
                0x0000000000000098       0x2c c:/program files/microchip/xc32/v4.60/bin/bin/../../lib/gcc/pic32c/8.3.1/../../../../pic32c/lib/thumb/v6-m/nofp\libg-musl.a(__io_std_needed.o)
                0x0000000000000098                __io_std_needed
 __xc_reference_data
                0x00000000000000c4        0x8 c:/program files/microchip/xc32/v4.60/bin/bin/../../lib/gcc/pic32c/8.3.1/../../../../pic32c/lib/thumb/v6-m/nofp\libg-musl.a(__stderr.o)
                0x00000000000000c4                __stderr_needs_file
 __xc_reference_data
                0x00000000000000cc        0x8 c:/program files/microchip/xc32/v4.60/bin/bin/../../lib/gcc/pic32c/8.3.1/../../../../pic32c/lib/thumb/v6-m/nofp\libg-musl.a(__stdout.o)
                0x00000000000000cc                __stdout_needs_file
 __xc_reference_data
                0x00000000000000d4        0x8 c:/program files/microchip/xc32/v4.60/bin/bin/../../lib/gcc/pic32c/8.3.1/../../../../pic32c/lib/thumb/v6-m/nofp\libg-musl.a(__fwrite.o)
                0x00000000000000d4                __fwrite_needs_std

.stack          0x0000000020002778      0x100
 .stack         0x0000000020002778      0x100 stack

.bss%1          0x0000000020000000      0xf60
 .bss           0x0000000020000000      0xf60 build/SAMD21_IOT_WG_ICM42688/debug/_ext/1360937237/main.o

.bss%2          0x0000000020000f60      0x562
 .bss           0x0000000020000f60      0x562 build/SAMD21_IOT_WG_ICM42688/debug/_ext/336238826/kb.o
                0x0000000020001038                RAW_DATA_BUFFER_0
                0x0000000020001338                rbuffers_0
                0x0000000020001368                RAW_SDATA_BUFFER_0
                0x0000000020001374                sbuffers_0
                0x00000000200013a4                sortedData

.bss%3          0x00000000200014c2      0x408
 .bss           0x00000000200014c2      0x408 c:/program files/microchip/xc32/v4.60/bin/bin/../../lib/gcc/pic32c/8.3.1/../../../../pic32c/lib/thumb/v6-m/nofp\libg-musl.a(stdin.o)

.bss%4          0x00000000200018cc      0x200
 .bss           0x00000000200018cc      0x200 build/SAMD21_IOT_WG_ICM42688/debug/_ext/431689064/sml_recognition_run.o

.bss%5          0x0000000020001acc      0x114
 .bss           0x0000000020001acc      0x114 build/SAMD21_IOT_WG_ICM42688/debug/_ext/907429946/wdrv_winc.o
                0x0000000020001acc                pfWINCDebugPrintCb

.bss%6          0x0000000020001be0      0x102
 .bss           0x0000000020001be0      0x102 build/SAMD21_IOT_WG_ICM42688/debug/_ext/336238826/pme.o
                0x0000000020001be0                KBClassifierTable

.bss%7          0x0000000020001ce8       0xe0
 .bss           0x0000000020001ce8       0xe0 build/SAMD21_IOT_WG_ICM42688/debug/_ext/386530258/sys_time.o

.bss%8          0x0000000020001dc8       0xd2
 .bss           0x0000000020001dc8       0xd2 build/SAMD21_IOT_WG_ICM42688/debug/_ext/548032175/socket.o
                0x0000000020001dc8                gsockerrno
                0x0000000020001dcc                gastrSockets
                0x0000000020001e7c                gu8OpCode
                0x0000000020001e7e                gu16BufferSize
                0x0000000020001e80                gu16SessionID
                0x0000000020001e84                gpfAppSocketCb
                0x0000000020001e88                gpfAppResolveCb
                0x0000000020001e8c                gbSocketInit

.bss%9          0x0000000020001e9c       0xc4
 .bss           0x0000000020001e9c       0xc4 build/SAMD21_IOT_WG_ICM42688/debug/_ext/1832905403/initialization.o
                0x0000000020001f54                sysObj

.bss%10         0x0000000020001f60       0xc0
 .bss           0x0000000020001f60       0xc0 build/SAMD21_IOT_WG_ICM42688/debug/_ext/503204096/plib_eic.o

.bss%11         0x0000000020002020       0x78
 .bss           0x0000000020002020       0x78 build/SAMD21_IOT_WG_ICM42688/debug/_ext/1660664302/drv_spi.o

.bss%12         0x0000000020002098       0x68
 .bss           0x0000000020002098       0x68 build/SAMD21_IOT_WG_ICM42688/debug/_ext/121554788/m2m_ota.o

.bss%13         0x0000000020002100       0x60
 .bss           0x0000000020002100       0x60 build/SAMD21_IOT_WG_ICM42688/debug/_ext/1580516298/plib_dmac.o

.bss%14         0x0000000020002160       0x50
 .bss           0x0000000020002160       0x50 c:/program files/microchip/xc32/v4.60/bin/bin/../../lib/gcc/pic32c/8.3.1/../../../../pic32c/lib/thumb/v6-m/nofp\libg-musl.a(libc.o)
                0x0000000020002160                __progname_full
                0x0000000020002160                program_invocation_name
                0x0000000020002164                program_invocation_short_name
                0x0000000020002164                __progname
                0x0000000020002168                __sysinfo
                0x000000002000216c                __hwcap
                0x0000000020002170                __libc

.bss%15         0x00000000200021b0       0x48
 .bss           0x00000000200021b0       0x48 build/SAMD21_IOT_WG_ICM42688/debug/_ext/336238826/kb_pipeline.o
                0x00000000200021bc                columns

.bss%16         0x00000000200021f8       0x2d
 .bss           0x00000000200021f8       0x2d build/SAMD21_IOT_WG_ICM42688/debug/_ext/1014017276/plib_sercom2_spi_master.o

.bss%17         0x0000000020002228       0x2c
 .bss           0x0000000020002228       0x2c build/SAMD21_IOT_WG_ICM42688/debug/_ext/121554788/m2m_hif.o
                0x000000002000222c                gstrHifCxt

.bss%18         0x0000000020002254       0x2c
 .bss           0x0000000020002254       0x2c c:/program files/microchip/xc32/v4.60/bin/bin/../../lib/gcc/pic32c/8.3.1/../../../../pic32c/lib/thumb/v6-m/nofp\libg-musl.a(gmtime.o)

.bss%19         0x0000000020002280       0x2a
 .bss           0x0000000020002280       0x2a build/SAMD21_IOT_WG_ICM42688/debug/_ext/121554788/m2m_wifi.o

.bss%20         0x00000000200022ac       0x1d
 .bss           0x00000000200022ac       0x1d build/SAMD21_IOT_WG_ICM42688/debug/_ext/101005277/wdrv_winc_spi.o

.bss%21         0x00000000200022cc       0x1c
 .bss           0x00000000200022cc       0x1c c:/program files/microchip/xc32/v4.60/bin/bin/../../lib/gcc/pic32c/8.3.1/thumb/v6-m/nofp/crtbegin.o

.bss%22         0x00000000200022e8        0xc
 .bss           0x00000000200022e8        0xc c:/program files/microchip/xc32/v4.60/bin/bin/../../lib/gcc/pic32c/8.3.1/../../../../pic32c/lib/thumb/v6-m/nofp\libpic32c.a(sbrk.o)
                0x00000000200022ec                _maxbrk
                0x00000000200022f0                _minbrk

.bss%23         0x00000000200022f4        0x8
 .bss           0x00000000200022f4        0x8 build/SAMD21_IOT_WG_ICM42688/debug/_ext/121554788/m2m_ssl.o

.bss%24         0x00000000200022fc        0x8
 .bss           0x00000000200022fc        0x8 build/SAMD21_IOT_WG_ICM42688/debug/_ext/399410062/plib_tc3.o

.bss%25         0x0000000020002304        0x8
 .bss           0x0000000020002304        0x8 build/SAMD21_IOT_WG_ICM42688/debug/_ext/399410062/plib_tc4.o

.bss%26         0x000000002000230c        0x8
 .bss           0x000000002000230c        0x8 c:/program files/microchip/xc32/v4.60/bin/bin/../../lib/gcc/pic32c/8.3.1/../../../../pic32c/lib/thumb/v6-m/nofp\libg-musl.a(stdout.o)
                0x0000000020002310                __stdout_used

.bss%27         0x0000000020002314        0x5
 .bss           0x0000000020002314        0x5 build/SAMD21_IOT_WG_ICM42688/debug/_ext/1360937237/app.o
                0x0000000020002318                appData

.bss%28         0x0000000020001ce4        0x4
 .bss           0x0000000020001ce4        0x4 build/SAMD21_IOT_WG_ICM42688/debug/_ext/2048461350/icm42688_sensor.o

.bss%29         0x000000002000231c        0x4
 .bss           0x000000002000231c        0x4 build/SAMD21_IOT_WG_ICM42688/debug/_ext/121554788/nmasic.o

.bss%30         0x0000000020002320        0x4
 .bss           0x0000000020002320        0x4 build/SAMD21_IOT_WG_ICM42688/debug/_ext/609036575/spi_flash.o

.bss%31         0x0000000020002324        0x4
 .bss           0x0000000020002324        0x4 build/SAMD21_IOT_WG_ICM42688/debug/_ext/1360937237/ws2812.o
                0x0000000020002327                ws2812_transmission_complete

.bss%32         0x0000000020002328        0x4
 .bss           0x0000000020002328        0x4 c:/program files/microchip/xc32/v4.60/bin/bin/../../lib/gcc/pic32c/8.3.1/../../../../pic32c/lib/thumb/v6-m/nofp\libpic32c.a(data_init.o)

.bss%33         0x000000002000232c        0x4
 .bss           0x000000002000232c        0x4 c:/program files/microchip/xc32/v4.60/bin/bin/../../lib/gcc/pic32c/8.3.1/../../../../pic32c/lib/thumb/v6-m/nofp\liblmalloc-musl.a(lite_free.o)
                0x000000002000232c                __freelist

.bss%34         0x0000000020002330        0x4
 .bss           0x0000000020002330        0x4 c:/program files/microchip/xc32/v4.60/bin/bin/../../lib/gcc/pic32c/8.3.1/../../../../pic32c/lib/thumb/v6-m/nofp\libg-musl.a(__errno_location.o)
                0x0000000020002330                __errno_val

.bss%35         0x0000000020002334        0x4
 .bss           0x0000000020002334        0x4 c:/program files/microchip/xc32/v4.60/bin/bin/../../lib/gcc/pic32c/8.3.1/../../../../pic32c/lib/thumb/v6-m/nofp\libg-musl.a(__environ.o)
                0x0000000020002334                __environ
                0x0000000020002334                environ
                0x0000000020002334                ___environ
                0x0000000020002334                _environ

.bss%36         0x00000000200018ca        0x2
 .bss           0x00000000200018ca        0x2 build/SAMD21_IOT_WG_ICM42688/debug/_ext/121554788/nmspi.o

.data%37        0x0000000020002338       0x88
 .data          0x0000000020002338       0x88 build/SAMD21_IOT_WG_ICM42688/debug/_ext/336238826/pme_trained_neurons.o
                0x000000002000237c                kb_neuron_attribs_0
                0x00000000200023a8                kb_classifier_rows

.data%38        0x00000000200023c0       0x6c
 .data          0x00000000200023c0       0x6c c:/program files/microchip/xc32/v4.60/bin/bin/../../lib/gcc/pic32c/8.3.1/../../../../pic32c/lib/thumb/v6-m/nofp\libg-musl.a(stdin.o)
                0x00000000200023c0                __stdin_used
                0x00000000200023c4                _stdin

.data%39        0x000000002000242c       0x60
 .data          0x000000002000242c       0x60 c:/program files/microchip/xc32/v4.60/bin/bin/../../lib/gcc/pic32c/8.3.1/../../../../pic32c/lib/thumb/v6-m/nofp\libg-musl.a(__stdout.o)

.data%40        0x000000002000248c       0x58
 .data          0x000000002000248c       0x58 build/SAMD21_IOT_WG_ICM42688/debug/_ext/336238826/kb_pipeline.o

.data%41        0x00000000200024e4       0x38
 .data          0x00000000200024e4       0x38 build/SAMD21_IOT_WG_ICM42688/debug/_ext/336238826/kb.o
                0x0000000020002500                RAW_DATA_BUFFER
                0x0000000020002504                rbuffers
                0x0000000020002508                RAW_SDATA_BUFFER
                0x000000002000250c                sbuffers

.data%42        0x000000002000251c       0x20
 .data          0x000000002000251c       0x20 c:/program files/microchip/xc32/v4.60/bin/bin/../../lib/gcc/pic32c/8.3.1/../../../../pic32c/lib/thumb/v6-m/nofp\libg-musl.a(stdout.o)
                0x0000000020002538                _stdout

.data%43        0x000000002000253c       0x16
 .data          0x000000002000253c       0x16 build/SAMD21_IOT_WG_ICM42688/debug/_ext/907429946/wdrv_winc.o

.data%44        0x0000000020002554        0x4
 .data          0x0000000020002554        0x4 build/SAMD21_IOT_WG_ICM42688/debug/_ext/121554788/m2m_wifi.o

.data%45        0x0000000020002558        0x4
 .data          0x0000000020002558        0x4 c:/program files/microchip/xc32/v4.60/bin/bin/../../lib/gcc/pic32c/8.3.1/../../../../pic32c/lib/thumb/v6-m/nofp\liblmalloc-musl.a(lite_malloc.o)

.data%46        0x000000002000255c        0x2
 .data          0x000000002000255c        0x2 build/SAMD21_IOT_WG_ICM42688/debug/_ext/121554788/nmbus.o
                0x000000002000255c                egstrNmBusCapabilities

.data%47        0x0000000020001e9a        0x2
 .data          0x0000000020001e9a        0x2 build/SAMD21_IOT_WG_ICM42688/debug/_ext/386530258/sys_time.o

.data%48        0x00000000200022aa        0x1
 .data          0x00000000200022aa        0x1 build/SAMD21_IOT_WG_ICM42688/debug/_ext/121554788/m2m_ssl.o

.data%49        0x00000000200022ab        0x1
 .data          0x00000000200022ab        0x1 build/SAMD21_IOT_WG_ICM42688/debug/_ext/121554788/m2m_ota.o

.data%50        0x0000000020001ce2        0x1
 .data          0x0000000020001ce2        0x1 build/SAMD21_IOT_WG_ICM42688/debug/_ext/1360937237/main.o

.eh_frame%z1    0x0000000000000000        0x0
 .eh_frame      0x0000000000000000        0x0 c:/program files/microchip/xc32/v4.60/bin/bin/../../lib/gcc/pic32c/8.3.1/thumb/v6-m/nofp/crtbegin.o

.text%51        0x00000000000000e0     0x34e0
 .text          0x00000000000000e0     0x34e0 build/SAMD21_IOT_WG_ICM42688/debug/_ext/1341251756/Icm426xxDriver_HL.o
                0x00000000000000e0                inv_icm426xx_set_reg_bank
                0x0000000000000104                inv_icm426xx_init
                0x00000000000001b4                inv_icm426xx_device_reset
                0x0000000000000378                inv_icm426xx_get_who_am_i
                0x0000000000000398                inv_icm426xx_force_clock_source
                0x0000000000000408                inv_icm426xx_enable_accel_low_power_mode
                0x0000000000000734                inv_icm426xx_enable_accel_low_noise_mode
                0x000000000000095c                inv_icm426xx_disable_accel
                0x0000000000000a54                inv_icm426xx_enable_gyro_low_noise_mode
                0x0000000000000cf8                inv_icm426xx_disable_gyro
                0x0000000000000e68                inv_icm426xx_enable_fsync
                0x0000000000000ec6                inv_icm426xx_disable_fsync
                0x0000000000000f1e                inv_icm426xx_configure_timestamp_resolution
                0x0000000000000f84                inv_icm426xx_get_config_ibi
                0x00000000000010a2                inv_icm426xx_get_config_int1
                0x00000000000011f4                inv_icm426xx_get_config_int2
                0x0000000000001346                inv_icm426xx_set_config_ibi
                0x000000000000155e                inv_icm426xx_set_config_int1
                0x00000000000017e0                inv_icm426xx_set_config_int2
                0x0000000000001a62                inv_icm426xx_get_data_from_registers
                0x0000000000001bbc                inv_icm426xx_get_data_from_fifo
                0x0000000000002224                inv_icm426xx_convert_odr_bitfield_to_us
                0x00000000000022ac                inv_icm426xx_set_accel_frequency
                0x000000000000235c                inv_icm426xx_set_gyro_frequency
                0x00000000000023c2                inv_icm426xx_set_accel_fsr
                0x0000000000002428                inv_icm426xx_set_gyro_fsr
                0x000000000000248e                inv_icm426xx_get_accel_fsr
                0x00000000000024f0                inv_icm426xx_get_gyro_fsr
                0x0000000000002550                inv_icm426xx_set_accel_lp_avg
                0x00000000000025d0                inv_icm426xx_set_accel_ln_bw
                0x0000000000002650                inv_icm426xx_set_gyro_ln_bw
                0x00000000000026d0                inv_icm426xx_reset_fifo
                0x00000000000027ac                inv_icm426xx_enable_timestamp_to_register
                0x0000000000002830                inv_icm426xx_disable_timestamp_to_register
                0x00000000000028a8                inv_icm426xx_get_current_timestamp
                0x0000000000002934                inv_icm426xx_enable_clkin_rtc
                0x0000000000002a5e                inv_icm426xx_get_clkin_rtc_status
                0x0000000000002a9a                inv_icm426xx_enable_high_resolution_fifo
                0x0000000000002ab8                inv_icm426xx_disable_high_resolution_fifo
                0x0000000000002ad8                inv_icm426xx_configure_fifo
                0x0000000000002cf8                inv_icm426xx_configure_fifo_wm
                0x0000000000002e8a                inv_icm426xx_get_fifo_timestamp_resolution_us_q24
                0x0000000000002f2c                inv_icm426xx_get_reg_timestamp_resolution_us_q24
                0x0000000000002f6c                inv_icm426xx_get_version

.text%52        0x00000000000035c0     0x2778
 .text          0x00000000000035c0     0x2778 build/SAMD21_IOT_WG_ICM42688/debug/_ext/121554788/m2m_wifi.o
                0x0000000000003a14                m2m_wifi_download_mode
                0x0000000000003bc4                m2m_wifi_send_crl
                0x0000000000003c02                m2m_wifi_init_hold
                0x0000000000003c3c                m2m_wifi_init_start
                0x0000000000003d2c                m2m_wifi_init
                0x0000000000003d6e                m2m_wifi_deinit
                0x0000000000003d98                m2m_wifi_handle_events
                0x0000000000003da8                m2m_wifi_delete_sc
                0x0000000000003dee                m2m_wifi_default_connect
                0x0000000000004052                m2m_wifi_connect_open
                0x00000000000040bc                m2m_wifi_connect_wep
                0x00000000000040da                m2m_wifi_connect_psk
                0x000000000000422c                m2m_wifi_1x_set_option
                0x00000000000043cc                m2m_wifi_1x_get_option
                0x00000000000044e8                m2m_wifi_connect_1x_mschap2
                0x00000000000046f4                m2m_wifi_connect_1x_tls
                0x00000000000049d0                m2m_wifi_connect
                0x0000000000004a16                m2m_wifi_connect_sc
                0x0000000000004c1a                m2m_wifi_disconnect
                0x0000000000004c40                m2m_wifi_set_mac_address
                0x0000000000004c7c                m2m_wifi_set_static_ip
                0x0000000000004cc6                m2m_wifi_enable_dhcp
                0x0000000000004d0a                m2m_wifi_set_lsn_int
                0x0000000000004d34                m2m_wifi_set_cust_InfoElement
                0x0000000000004d8a                m2m_wifi_set_scan_options
                0x0000000000004dd4                m2m_wifi_set_stop_scan_on_first
                0x0000000000004e38                m2m_wifi_set_scan_region
                0x0000000000004e82                m2m_wifi_request_scan
                0x0000000000004f20                m2m_wifi_request_scan_passive
                0x0000000000004fcc                m2m_wifi_request_scan_ssid_list
                0x00000000000050d8                m2m_wifi_wps
                0x0000000000005138                m2m_wifi_wps_disable
                0x0000000000005170                m2m_wifi_req_client_ctrl
                0x0000000000005192                m2m_wifi_req_server_init
                0x00000000000051b4                m2m_wifi_p2p
                0x0000000000005224                m2m_wifi_p2p_disconnect
                0x000000000000525c                m2m_wifi_enable_ap
                0x00000000000052b8                m2m_wifi_enable_ap_ext
                0x0000000000005302                m2m_wifi_set_gains
                0x0000000000005346                m2m_wifi_disable_ap
                0x000000000000537e                m2m_wifi_req_curr_rssi
                0x00000000000053b6                m2m_wifi_send_ethernet_pkt
                0x000000000000541a                m2m_wifi_get_otp_mac_address
                0x0000000000005476                m2m_wifi_get_mac_address
                0x00000000000054cc                m2m_wifi_req_scan_result
                0x0000000000005516                m2m_wifi_get_num_ap_found
                0x000000000000552c                m2m_wifi_get_sleep_mode
                0x000000000000553c                m2m_wifi_set_sleep_mode
                0x000000000000559e                m2m_wifi_request_sleep
                0x00000000000055f6                m2m_wifi_set_device_name
                0x000000000000564e                m2m_wifi_configure_sntp
                0x00000000000056ba                m2m_wifi_get_chipId
                0x00000000000056ca                m2m_wifi_get_firmware_version
                0x0000000000005710                m2m_wifi_start_provision_mode
                0x0000000000005778                m2m_wifi_start_provision_mode_ext
                0x0000000000005830                m2m_wifi_stop_provision_mode
                0x0000000000005856                m2m_wifi_get_connection_info
                0x000000000000587c                m2m_wifi_set_system_time
                0x00000000000058a6                m2m_wifi_get_system_time
                0x00000000000058cc                m2m_wifi_enable_sntp
                0x0000000000005910                m2m_wifi_set_power_profile
                0x000000000000595a                m2m_wifi_set_tx_power
                0x00000000000059a4                m2m_wifi_set_gain_table_idx
                0x00000000000059ee                m2m_wifi_enable_firmware_logs
                0x0000000000005a38                m2m_wifi_set_battery_voltage
                0x0000000000005a88                m2m_wifi_prng_get_random_bytes
                0x0000000000005af8                m2m_wifi_conf_auto_rate
                0x0000000000005b34                m2m_wifi_enable_mac_mcast
                0x0000000000005b98                m2m_wifi_set_receive_buffer
                0x0000000000005be4                m2m_wifi_reinit
                0x0000000000005c20                m2m_wifi_reinit_hold
                0x0000000000005c36                m2m_wifi_reinit_start
                0x0000000000005c50                m2m_wifi_get_state
                0x0000000000005c64                m2m_wifi_enable_roaming
                0x0000000000005cba                m2m_wifi_disable_roaming
                0x0000000000005ce8                m2m_wifi_enable_XO_during_sleep

.text%53        0x0000000000005d38     0x1d28
 .text          0x0000000000005d38     0x1d28 build/SAMD21_IOT_WG_ICM42688/debug/_ext/907429946/wdrv_winc.o
                0x0000000000006eb0                WDRV_WINC_Initialize
                0x0000000000006f48                WDRV_WINC_Deinitialize
                0x0000000000006fe0                WDRV_WINC_Reinitialize
                0x0000000000006ff2                WDRV_WINC_Status
                0x0000000000007034                WDRV_WINC_StatusExt
                0x0000000000007084                WDRV_WINC_Tasks
                0x00000000000073a4                WDRV_WINC_DebugRegisterCallback
                0x00000000000073c0                WDRV_WINC_Open
                0x00000000000074b4                WDRV_WINC_Close
                0x0000000000007502                WDRV_WINC_MulticastMACFilterAdd
                0x0000000000007542                WDRV_WINC_MulticastMACFilterRemove
                0x0000000000007582                WDRV_WINC_EthernetAddressGet
                0x00000000000075ca                WDRV_WINC_OperatingModeGet
                0x0000000000007620                WDRV_WINC_UserHandleSet
                0x000000000000766a                WDRV_WINC_UserHandleGet
                0x00000000000076ae                WDRV_WINC_InfoDriverVersionGet
                0x000000000000770c                WDRV_WINC_InfoDeviceFirmwareVersionGet
                0x00000000000077dc                WDRV_WINC_InfoDeviceIDGet
                0x0000000000007818                WDRV_WINC_InfoDeviceMACAddressGet
                0x000000000000789e                WDRV_WINC_InfoDeviceNameSet
                0x00000000000078fe                WDRV_WINC_GainTableIndexSet
                0x000000000000794e                WDRV_WINC_AutoRateSelectTransmitRate
                0x0000000000007a1c                WDRV_WINC_ISR

.text%54        0x0000000000007a60     0x1b58
 .text          0x0000000000007a60     0x1b58 build/SAMD21_IOT_WG_ICM42688/debug/_ext/548032175/socket.o
                0x0000000000008190                socketInit
                0x00000000000081d8                socketDeinit
                0x0000000000008218                registerSocketCallback
                0x0000000000008240                registerSocketEventCallback
                0x000000000000825c                registerSocketResolveCallback
                0x0000000000008278                socket
                0x0000000000008460                bind
                0x0000000000008554                listen
                0x0000000000008604                accept
                0x0000000000008660                connect
                0x000000000000876c                secure
                0x00000000000088a4                send
                0x0000000000008a14                sendto
                0x0000000000008b40                recv
                0x0000000000008cd4                shutdown
                0x0000000000008db8                recvfrom
                0x0000000000008f2c                gethostbyname
                0x0000000000009180                setsockopt
                0x0000000000009290                getsockopt
                0x00000000000092bc                m2m_ping_req
                0x0000000000009348                set_alpn_list
                0x000000000000946c                get_alpn_index
                0x00000000000094e8                sslEnableCertExpirationCheck
                0x000000000000951e                IsSocketReady
                0x0000000000009534                get_error_detail

.text%55        0x00000000000095b8     0x1660
 .text          0x00000000000095b8     0x1660 build/SAMD21_IOT_WG_ICM42688/debug/_ext/336238826/pme.o
                0x00000000000095b8                delete_node
                0x0000000000009616                sort_by_smallest_distance
                0x000000000000963c                list_to_sort
                0x0000000000009810                sort_results_by_distance
                0x0000000000009884                allocate_memory
                0x0000000000009a38                pme_init
                0x0000000000009a68                pme_simple_init
                0x0000000000009a98                find_classifier_index
                0x0000000000009b14                pme_add_new_pattern
                0x0000000000009c7c                pme_learn_pattern
                0x0000000000009d8c                pme_score_pattern
                0x0000000000009ecc                pme_rebalance_patterns
                0x000000000000a058                pme_print_model_scores
                0x000000000000a128                pme_return_pattern
                0x000000000000a1a4                pme_flush_model
                0x000000000000a248                pme_get_number_patterns
                0x000000000000a28c                pme_submit_pattern
                0x000000000000a624                radial_bias_function_unique_category
                0x000000000000a63e                distance_by_weight
                0x000000000000a658                radial_bias_function
                0x000000000000a76c                k__nearest_neighbor
                0x000000000000a818                reduce_influence_fields
                0x000000000000a8b4                pme_retrieve_results
                0x000000000000a954                pme_simple_submit_pattern
                0x000000000000ab30                pme_simple_submit_pattern_set_result

.text%56        0x000000000000ac18     0x15ec
 .text          0x000000000000ac18     0x15ec build/SAMD21_IOT_WG_ICM42688/debug/_ext/1660664302/drv_spi.o
                0x000000000000ba38                DRV_SPI_Initialize
                0x000000000000bbcc                DRV_SPI_Status
                0x000000000000bc00                DRV_SPI_Open
                0x000000000000bdb0                DRV_SPI_Close
                0x000000000000be9c                DRV_SPI_TransferEventHandlerSet
                0x000000000000bf10                DRV_SPI_TransferSetup
                0x000000000000bf68                DRV_SPI_WriteReadTransferAdd
                0x000000000000c0f4                DRV_SPI_WriteTransferAdd
                0x000000000000c11e                DRV_SPI_ReadTransferAdd
                0x000000000000c14a                DRV_SPI_TransferStatusGet
                0x000000000000c1dc                DRV_SPI_Lock

.text%57        0x000000000000c204     0x14c4
 .text          0x000000000000c204     0x14c4 build/SAMD21_IOT_WG_ICM42688/debug/_ext/336238826/kb.o
                0x000000000000c204                get_feature_vector_type
                0x000000000000c228                kb_get_feature_vector_size
                0x000000000000c24c                get_feature_vector_pointer
                0x000000000000c270                get_feature_vector_data_pointer
                0x000000000000c2c0                copy_feature_vector
                0x000000000000c378                kb_set_feature_vector
                0x000000000000c430                ring_buffer_init
                0x000000000000c514                kb_model_init
                0x000000000000c690                kb_flush_model_buffer
                0x000000000000c78c                kb_flush_model
                0x000000000000c7d4                kb_data_streaming_reset
                0x000000000000c824                kb_reset_model
                0x000000000000c83e                kb_reset_feature_banks
                0x000000000000c874                kb_feature_bank_ready
                0x000000000000c898                kb_feature_generation_reset
                0x000000000000c92c                kb_feature_generation_increment
                0x000000000000c9cc                kb_recognize
                0x000000000000ca04                kb_feature_transform
                0x000000000000ca3c                kb_feature_generation
                0x000000000000ca94                kb_data_streaming
                0x000000000000cad4                kb_segmentation
                0x000000000000cb24                kb_generate_children_features
                0x000000000000cba8                kb_generate_classification
                0x000000000000cbec                kb_run_model
                0x000000000000cc6c                kb_run_model_with_cascade_features
                0x000000000000cd28                kb_run_model_with_cascade_reset
                0x000000000000cde2                kb_add_segment
                0x000000000000ce7c                kb_run_segment
                0x000000000000ced0                kb_run_segment_with_cascade_features
                0x000000000000cf44                kb_run_segment_with_cascade_reset
                0x000000000000cfec                kb_add_last_pattern_to_model
                0x000000000000d058                kb_add_custom_pattern_to_model
                0x000000000000d0b4                kb_score_model
                0x000000000000d0e2                kb_retrain_model
                0x000000000000d10a                kb_print_model_score
                0x000000000000d144                kb_get_model_header
                0x000000000000d1b0                kb_get_model_pattern
                0x000000000000d1f8                kb_get_model_uuid_ptr
                0x000000000000d220                kb_get_feature_vector_raw_size
                0x000000000000d258                kb_set_feature_vector_raw
                0x000000000000d2b0                get_feature_vector_raw_pointer
                0x000000000000d2d4                sml_get_feature_bank_number
                0x000000000000d2f8                kb_copy_feature_vector_raw
                0x000000000000d350                kb_get_segment_length
                0x000000000000d3a8                kb_get_model_sg_length
                0x000000000000d3cc                kb_get_num_sensor_buffers
                0x000000000000d3f0                kb_get_segment_data
                0x000000000000d478                kb_recognize_feature_vector
                0x000000000000d492                kb_get_model_result_info
                0x000000000000d4b4                kb_get_sg_start_index
                0x000000000000d4d8                kb_get_segment_start
                0x000000000000d530                kb_is_profiling_enabled
                0x000000000000d554                kb_get_feature_gen_times
                0x000000000000d5cc                kb_get_feature_gen_cycles
                0x000000000000d644                kb_get_classifier_time
                0x000000000000d688                kb_get_classifier_cycles

.text%58        0x000000000000d6c8     0x12ec
 .text          0x000000000000d6c8     0x12ec build/SAMD21_IOT_WG_ICM42688/debug/_ext/386530258/sys_time.o
                0x000000000000e100                SYS_TIME_Initialize
                0x000000000000e168                SYS_TIME_Deinitialize
                0x000000000000e1b8                SYS_TIME_Status
                0x000000000000e1f0                SYS_TIME_FrequencyGet
                0x000000000000e204                SYS_TIME_Counter64Get
                0x000000000000e268                SYS_TIME_CounterGet
                0x000000000000e282                SYS_TIME_CounterSet
                0x000000000000e2bc                SYS_TIME_CountToUS
                0x000000000000e344                SYS_TIME_CountToMS
                0x000000000000e38c                SYS_TIME_USToCount
                0x000000000000e3d8                SYS_TIME_MSToCount
                0x000000000000e420                SYS_TIME_TimerCreate
                0x000000000000e464                SYS_TIME_TimerReload
                0x000000000000e558                SYS_TIME_TimerDestroy
                0x000000000000e5d8                SYS_TIME_TimerStart
                0x000000000000e680                SYS_TIME_TimerStop
                0x000000000000e702                SYS_TIME_TimerCounterGet
                0x000000000000e774                SYS_TIME_TimerPeriodHasExpired
                0x000000000000e7d4                SYS_TIME_DelayUS
                0x000000000000e840                SYS_TIME_DelayMS
                0x000000000000e8ac                SYS_TIME_DelayIsComplete
                0x000000000000e8e4                SYS_TIME_CallbackRegisterUS
                0x000000000000e94c                SYS_TIME_CallbackRegisterMS

.text%59        0x000000000000e9b4      0xdb0
 .text          0x000000000000e9b4      0xdb0 build/SAMD21_IOT_WG_ICM42688/debug/_ext/609036575/spi_flash.o
                0x000000000000f3f8                spi_flash_enable
                0x000000000000f4a8                spi_flash_read
                0x000000000000f540                spi_flash_write
                0x000000000000f62a                spi_flash_erase
                0x000000000000f70e                spi_flash_get_size

.text%60        0x000000000000f764      0xd5c
 .text          0x000000000000f764      0xd5c build/SAMD21_IOT_WG_ICM42688/debug/_ext/121554788/nmspi.o
                0x00000000000100cc                nm_spi_reset
                0x0000000000010130                nm_spi_lock_init
                0x000000000001014c                nm_spi_init
                0x00000000000101f4                nm_spi_deinit
                0x0000000000010218                nm_spi_read_reg
                0x000000000001023c                nm_spi_read_reg_with_ret
                0x00000000000102c8                nm_spi_write_reg
                0x0000000000010354                nm_spi_read_block
                0x0000000000010420                nm_spi_write_block

.text%61        0x00000000000104c0      0xcb8
 .text          0x00000000000104c0      0xcb8 build/SAMD21_IOT_WG_ICM42688/debug/_ext/121554788/nmasic.o
                0x00000000000104c0                chip_apply_conf
                0x0000000000010532                chip_idle
                0x0000000000010568                enable_interrupts
                0x0000000000010614                cpu_start
                0x0000000000010740                nmi_get_chipid
                0x0000000000010834                nmi_get_rfrevid
                0x0000000000010860                restore_pmu_settings_after_global_reset
                0x0000000000010894                nmi_update_pll
                0x00000000000108dc                nmi_set_sys_clk_src_to_xo
                0x0000000000010914                chip_sleep
                0x00000000000109e6                chip_wake
                0x0000000000010a96                cpu_halt
                0x0000000000010b58                chip_reset
                0x0000000000010b8a                wait_for_bootrom
                0x0000000000010cf8                wait_for_firmware_start
                0x0000000000010da4                chip_deinit
                0x0000000000010e00                set_gpio_dir
                0x0000000000010e88                set_gpio_val
                0x0000000000010f10                get_gpio_val
                0x0000000000010f6c                pullup_ctrl
                0x0000000000010fe4                nmi_get_otp_mac_address
                0x00000000000110c4                nmi_get_mac_address

.text%62        0x0000000000011178      0xb44
 .text          0x0000000000011178      0xb44 build/SAMD21_IOT_WG_ICM42688/debug/_ext/121554788/m2m_hif.o
                0x0000000000011254                hif_chip_wake
                0x00000000000112c0                hif_set_sleep_mode
                0x00000000000112e0                hif_get_sleep_mode
                0x00000000000112f4                hif_chip_sleep_sc
                0x000000000001131c                hif_chip_sleep
                0x0000000000011374                hif_init
                0x00000000000113fc                hif_deinit
                0x0000000000011434                hif_send
                0x0000000000011b1c                hif_handle_isr
                0x0000000000011b40                hif_receive
                0x0000000000011c38                hif_register_cb

.text%63        0x0000000000011cbc      0x9f8
 .text          0x0000000000011cbc      0x9f8 build/SAMD21_IOT_WG_ICM42688/debug/_ext/121554788/m2m_ota.o
                0x0000000000011cbc                m2m_ota_host_file_get_id
                0x0000000000011f14                m2m_ota_init
                0x0000000000011f80                m2m_ota_notif_set_url
                0x0000000000011fd4                m2m_ota_notif_check_for_update
                0x000000000001200c                m2m_ota_notif_sched
                0x0000000000012048                m2m_ota_start_update
                0x000000000001215c                m2m_ota_rollback
                0x0000000000012194                m2m_ota_abort
                0x00000000000121cc                m2m_ota_switch_firmware
                0x0000000000012204                m2m_ota_get_firmware_version
                0x000000000001224a                m2m_ota_host_file_get
                0x0000000000012300                m2m_ota_host_file_read_hif
                0x0000000000012398                m2m_ota_host_file_read_spi
                0x00000000000124a0                m2m_ota_host_file_erase
                0x000000000001251c                m2m_ota_set_ssl_option
                0x00000000000125f0                m2m_ota_get_ssl_option

.text%64        0x00000000000126b4      0x894
 .text          0x00000000000126b4      0x894 build/SAMD21_IOT_WG_ICM42688/debug/_ext/1580516298/plib_dmac.o
                0x00000000000126b4                DMAC_Initialize
                0x0000000000012788                DMAC_ChannelTransfer
                0x0000000000012944                DMAC_ChannelIsBusy
                0x00000000000129c8                DMAC_ChannelTransferStatusGet
                0x0000000000012a44                DMAC_ChannelDisable
                0x0000000000012ac0                DMAC_ChannelGetTransferredCount
                0x0000000000012b10                DMAC_ChannelSuspend
                0x0000000000012b64                DMAC_ChannelResume
                0x0000000000012bb8                DMAC_ChannelCallbackRegister
                0x0000000000012bf8                DMAC_ChannelSettingsGet
                0x0000000000012c24                DMAC_ChannelSettingsSet
                0x0000000000012ca8                DMAC_CRCDisable
                0x0000000000012ccc                DMAC_ChannelCRCSetup
                0x0000000000012d38                DMAC_CRCRead
                0x0000000000012d4c                DMAC_CRCCalculate
                0x0000000000012e70                DMAC_InterruptHandler

.text%65        0x0000000000012f48      0x866
 .text          0x0000000000012f48      0x866 build/SAMD21_IOT_WG_ICM42688/debug/_ext/907429946/wdrv_winc_host_file.o
                0x0000000000012fa6                WDRV_WINC_HostFileDownload
                0x00000000000130d6                WDRV_WINC_HostFileRead
                0x000000000001334c                WDRV_WINC_HostFileErase
                0x00000000000134a2                WDRV_WINC_HostFileFindByID
                0x0000000000013654                WDRV_WINC_HostFileGetSize
                0x00000000000136f8                WDRV_WINC_HostFileUpdateReadBuffer

.text%66        0x00000000000137b0      0x7f0
 .text          0x00000000000137b0      0x7f0 build/SAMD21_IOT_WG_ICM42688/debug/_ext/121554788/m2m_ssl.o
                0x0000000000013994                m2m_ssl_init
                0x00000000000139e8                m2m_ssl_handshake_rsp
                0x0000000000013a2c                m2m_ssl_send_certs_to_winc
                0x0000000000013c10                m2m_ssl_retrieve_next_for_verifying
                0x0000000000013e78                m2m_ssl_retrieve_cert
                0x0000000000013eb6                m2m_ssl_retrieve_hash
                0x0000000000013f24                m2m_ssl_stop_retrieving
                0x0000000000013f3a                m2m_ssl_stop_processing_certs
                0x0000000000013f48                m2m_ssl_ecc_process_done
                0x0000000000013f5c                m2m_ssl_set_active_ciphersuites

.text%67        0x0000000000013fa0      0x714
 .text          0x0000000000013fa0      0x714 build/SAMD21_IOT_WG_ICM42688/debug/_ext/336238826/rb.o
                0x0000000000013fa0                next_pow_2
                0x000000000001402a                rb_init
                0x0000000000014064                setup_rb
                0x0000000000014098                copy_rb_to_buff
                0x00000000000140ea                copy_segment_to_buff
                0x0000000000014134                setup_rb_with_data
                0x00000000000141b4                rb_read
                0x00000000000141e2                rb_read_offset
                0x0000000000014216                rb_add
                0x000000000001427e                rb_write
                0x00000000000142b8                get_axis_data
                0x00000000000142e0                rb_reset
                0x0000000000014308                rb_step_head
                0x0000000000014338                rb_valid
                0x0000000000014358                rb_lock
                0x000000000001436e                rb_unlock
                0x0000000000014384                rb_status
                0x0000000000014398                write_axis_data
                0x00000000000143c6                multiply_axis_data
                0x0000000000014438                divide_axis_data
                0x00000000000144b4                divide_axis_data_float
                0x000000000001453c                multiply_axis_data_float
                0x00000000000145ec                add_axis_data
                0x0000000000014660                rb_num_items
                0x000000000001468a                rb_items

.text%68        0x00000000000146b4      0x6ec
 .text          0x00000000000146b4      0x6ec build/SAMD21_IOT_WG_ICM42688/debug/_ext/121554788/nmdrv.o
                0x00000000000146b4                nm_get_firmware_info
                0x0000000000014820                nm_get_firmware_full_info
                0x00000000000149c8                nm_get_ota_firmware_info
                0x0000000000014b6c                nm_drv_init_download_mode
                0x0000000000014bcc                nm_drv_init_hold
                0x0000000000014c22                nm_drv_init_start
                0x0000000000014cf0                nm_drv_init
                0x0000000000014d32                nm_drv_deinit

.text%69        0x0000000000014da0      0x6dc
 .text          0x0000000000014da0      0x6dc build/SAMD21_IOT_WG_ICM42688/debug/_ext/336238826/kb_output.o
                0x0000000000014da0                sprint_model_feature_vector
                0x0000000000014efc                kb_sprint_model_output_tensor
                0x0000000000014fe8                kb_sprint_model_result
                0x0000000000015188                kb_print_model_class_map
                0x00000000000151a2                kb_print_model_map
                0x00000000000151c0                kb_sprint_model_cycles
                0x0000000000015310                kb_sprint_model_times

.text%70        0x000000000001547c      0x644
 .text          0x000000000001547c      0x644 build/SAMD21_IOT_WG_ICM42688/debug/_ext/1360937237/main.o
                0x000000000001547c                SERCOM5_Handler
                0x00000000000154c8                UART_Write
                0x00000000000154f0                SERCOM1_Handler
                0x00000000000154fa                Null_Handler
                0x0000000000015504                UART_Read
                0x00000000000155a0                read_timer_ms
                0x00000000000155c0                read_timer_us
                0x00000000000155f4                sleep_ms
                0x000000000001563a                sleep_us
                0x0000000000015680                SNSR_ISR_HANDLER
                0x0000000000015700                main

.text%71        0x0000000000015ac0      0x608
 .text          0x0000000000015ac0      0x608 build/SAMD21_IOT_WG_ICM42688/debug/_ext/1014017276/plib_sercom2_spi_master.o
                0x0000000000015ac0                SERCOM2_SPI_Initialize
                0x0000000000015b18                SERCOM2_SPI_TransferSetup
                0x0000000000015c14                SERCOM2_SPI_CallbackRegister
                0x0000000000015c38                SERCOM2_SPI_IsBusy
                0x0000000000015cac                SERCOM2_SPI_IsTransmitterBusy
                0x0000000000015ccc                SERCOM2_SPI_WriteRead
                0x0000000000015ec4                SERCOM2_SPI_Write
                0x0000000000015ee4                SERCOM2_SPI_Read
                0x0000000000015f04                SERCOM2_SPI_InterruptHandler

.text%72        0x00000000000160c8      0x5bc
 .text          0x00000000000160c8      0x5bc build/SAMD21_IOT_WG_ICM42688/debug/_ext/177673482/plib_sercom5_usart.o
                0x0000000000016120                SERCOM5_USART_Initialize
                0x000000000001616c                SERCOM5_USART_FrequencyGet
                0x000000000001617c                SERCOM5_USART_SerialSetup
                0x0000000000016334                SERCOM5_USART_ErrorGet
                0x0000000000016364                SERCOM5_USART_Enable
                0x0000000000016394                SERCOM5_USART_Disable
                0x00000000000163c4                SERCOM5_USART_TransmitterEnable
                0x00000000000163ec                SERCOM5_USART_TransmitterDisable
                0x0000000000016414                SERCOM5_USART_Write
                0x000000000001649c                SERCOM5_USART_TransmitterIsReady
                0x00000000000164d0                SERCOM5_USART_WriteByte
                0x00000000000164fc                SERCOM5_USART_TransmitComplete
                0x0000000000016530                SERCOM5_USART_ReceiverEnable
                0x0000000000016558                SERCOM5_USART_ReceiverDisable
                0x0000000000016580                SERCOM5_USART_Read
                0x000000000001663c                SERCOM5_USART_ReceiverIsReady
                0x0000000000016670                SERCOM5_USART_ReadByte

.text.__fmt_fp%73
                0x0000000000016684      0x4c0
 .text.__fmt_fp
                0x0000000000016684      0x4c0 c:/program files/microchip/xc32/v4.60/bin/bin/../../lib/gcc/pic32c/8.3.1/../../../../pic32c/lib/thumb/v6-m/nofp\libg-musl.a(__fmt_fp.o)
                0x0000000000016684                __fmt_f_needed
                0x0000000000016684                __fmt_fp

.text%74        0x0000000000016b44      0x480
 .text          0x0000000000016b44      0x480 build/SAMD21_IOT_WG_ICM42688/debug/_ext/907429946/wdrv_winc_authctx.o
                0x0000000000016cf4                WDRV_WINC_AuthCtxIsValid
                0x0000000000016d2e                WDRV_WINC_AuthCtxSetDefaults
                0x0000000000016d56                WDRV_WINC_AuthCtxSetOneTimeUse
                0x0000000000016d80                WDRV_WINC_AuthCtxSetOpen
                0x0000000000016da2                WDRV_WINC_AuthCtxSetWPA
                0x0000000000016e02                WDRV_WINC_AuthCtxSetWPAEnterpriseMSCHAPv2
                0x0000000000016ee4                WDRV_WINC_AuthCtxSetWPAEnterpriseTLS

.dinit%75       0x0000000000016fc4      0x480
 .dinit         0x0000000000016fc4      0x480 data_init

.text%76        0x0000000000017444      0x3f8
 .text          0x0000000000017444      0x3f8 build/SAMD21_IOT_WG_ICM42688/debug/_ext/2048461350/icm42688_sensor.o
                0x000000000001755c                inv_icm426xx_get_time_us
                0x0000000000017570                inv_icm426xx_sleep_us
                0x0000000000017588                icm42688_sensor_event_cb
                0x0000000000017614                icm42688_sensor_init
                0x000000000001770c                icm42688_sensor_set_config
                0x0000000000017800                icm42688_sensor_read

.text%77        0x000000000001783c      0x3e4
 .text          0x000000000001783c      0x3e4 build/SAMD21_IOT_WG_ICM42688/debug/_ext/101005277/wdrv_winc_spi.o
                0x0000000000017910                WDRV_WINC_SPISend
                0x0000000000017998                WDRV_WINC_SPIReceive
                0x0000000000017a2c                WDRV_WINC_SPIOpen
                0x0000000000017b6c                WDRV_WINC_SPIInitialize
                0x0000000000017b9c                WDRV_WINC_SPIDeinitialize

.text%78        0x0000000000017c20      0x38c
 .text          0x0000000000017c20      0x38c build/SAMD21_IOT_WG_ICM42688/debug/_ext/1014017276/plib_sercom0_spi_master.o
                0x0000000000017c20                SERCOM0_SPI_Initialize
                0x0000000000017c5c                SERCOM0_SPI_TransferSetup
                0x0000000000017d48                SERCOM0_SPI_IsTransmitterBusy
                0x0000000000017d68                SERCOM0_SPI_WriteRead
                0x0000000000017f6c                SERCOM0_SPI_Write
                0x0000000000017f8c                SERCOM0_SPI_Read

.text%79        0x0000000000017fac      0x384
 .text          0x0000000000017fac      0x384 build/SAMD21_IOT_WG_ICM42688/debug/_ext/1580876256/plib_port.o
                0x0000000000017fac                PORT_Initialize
                0x000000000001811c                PORT_GroupRead
                0x0000000000018130                PORT_GroupWrite
                0x000000000001815c                PORT_GroupLatchRead
                0x0000000000018170                PORT_GroupSet
                0x0000000000018188                PORT_GroupClear
                0x00000000000181a0                PORT_GroupToggle
                0x00000000000181b8                PORT_GroupInputEnable
                0x0000000000018212                PORT_GroupOutputEnable
                0x000000000001822a                PORT_PinPeripheralFunctionConfig
                0x00000000000182d8                PORT_PinGPIOConfig

.text%80        0x0000000000018330      0x384
 .text          0x0000000000018330      0x384 build/SAMD21_IOT_WG_ICM42688/debug/_ext/336238826/kb_pipeline.o
                0x0000000000018330                data_streaming_0
                0x00000000000183dc                data_segmentation_0
                0x0000000000018458                feature_gen_0
                0x000000000001861c                feature_transform_0
                0x0000000000018688                recognize_vector_0

.text%81        0x00000000000186b4      0x378
 .text          0x00000000000186b4      0x378 build/SAMD21_IOT_WG_ICM42688/debug/_ext/1360937237/ringbuffer.o
                0x00000000000186b4                ringbuffer_init
                0x0000000000018712                ringbuffer_reset
                0x000000000001872e                ringbuffer_read
                0x00000000000187ce                ringbuffer_write
                0x000000000001886e                ringbuffer_get_read_items
                0x000000000001888e                ringbuffer_get_write_items
                0x00000000000188b4                ringbuffer_get_read_buffer
                0x000000000001891c                ringbuffer_get_write_buffer
                0x000000000001898a                ringbuffer_advance_read_index
                0x00000000000189d8                ringbuffer_advance_write_index

.text.__printf_core%82
                0x0000000000018a2c      0x33c
 .text.__printf_core
                0x0000000000018a2c      0x33c c:/program files/microchip/xc32/v4.60/bin/bin/../../lib/gcc/pic32c/8.3.1/../../../../pic32c/lib/thumb/v6-m/nofp\libg-musl.a(__printf_core.o)
                0x0000000000018a2c                __printf_core

.text%83        0x0000000000018d68      0x2e4
 .text          0x0000000000018d68      0x2e4 build/SAMD21_IOT_WG_ICM42688/debug/_ext/1580823105/plib_nvic.o
                0x0000000000018ef4                NVIC_Initialize
                0x0000000000018f66                NVIC_INT_Enable
                0x0000000000018f76                NVIC_INT_Disable
                0x0000000000018f9e                NVIC_INT_Restore
                0x0000000000018fc8                NVIC_INT_SourceDisable
                0x000000000001901a                NVIC_INT_SourceRestore

.text%84        0x000000000001904c      0x2e0
 .text          0x000000000001904c      0x2e0 build/SAMD21_IOT_WG_ICM42688/debug/_ext/907429946/wdrv_winc_systime.o
                0x000000000001904c                WDRV_WINC_LocalTimeToUTC
                0x0000000000019114                WDRV_WINC_UTCToLocalTime
                0x0000000000019190                WDRV_WINC_SystemTimeSNTPClientEnable
                0x0000000000019238                WDRV_WINC_SystemTimeSNTPClientDisable
                0x000000000001927e                WDRV_WINC_SystemTimeSetCurrent
                0x00000000000192d4                WDRV_WINC_SystemTimeGetCurrent

.text%85        0x000000000001932c      0x2e0
 .text          0x000000000001932c      0x2e0 build/SAMD21_IOT_WG_ICM42688/debug/_ext/11470383/plib_nvmctrl.o
                0x000000000001932c                NVMCTRL_Initialize
                0x0000000000019340                NVMCTRL_CacheInvalidate
                0x0000000000019358                NVMCTRL_Read
                0x000000000001937e                NVMCTRL_PageBufferWrite
                0x00000000000193bc                NVMCTRL_PageBufferCommit
                0x00000000000193f4                NVMCTRL_PageWrite
                0x0000000000019448                NVMCTRL_RowErase
                0x0000000000019470                NVMCTRL_USER_ROW_PageWrite
                0x00000000000194f0                NVMCTRL_USER_ROW_RowErase
                0x0000000000019544                NVMCTRL_ErrorGet
                0x0000000000019580                NVMCTRL_IsBusy
                0x00000000000195a4                NVMCTRL_RegionLock
                0x00000000000195cc                NVMCTRL_RegionUnlock
                0x00000000000195f4                NVMCTRL_SecurityBitSet

.text%86        0x000000000001960c      0x2dc
 .text          0x000000000001960c      0x2dc build/SAMD21_IOT_WG_ICM42688/debug/_ext/1341251756/Icm426xxTransport.o
                0x000000000001960c                inv_icm426xx_init_transport
                0x00000000000196ce                inv_icm426xx_read_reg
                0x000000000001979e                inv_icm426xx_write_reg

.text%87        0x00000000000198e8      0x2bc
 .text          0x00000000000198e8      0x2bc build/SAMD21_IOT_WG_ICM42688/debug/_ext/121554788/nmbus.o
                0x0000000000019910                nm_bus_iface_init
                0x000000000001993c                nm_bus_iface_deinit
                0x0000000000019960                nm_bus_reset
                0x0000000000019970                nm_bus_iface_reconfigure
                0x0000000000019982                nm_read_reg
                0x000000000001999c                nm_read_reg_with_ret
                0x00000000000199bc                nm_write_reg
                0x0000000000019a02                nm_read_block
                0x0000000000019ae6                nm_write_block

.text%88        0x0000000000019ba4      0x276
 .text          0x0000000000019ba4      0x276 build/SAMD21_IOT_WG_ICM42688/debug/_ext/907429946/wdrv_winc_bssctx.o
                0x0000000000019ba4                WDRV_WINC_BSSCtxIsValid
                0x0000000000019c4c                WDRV_WINC_BSSCtxSetDefaults
                0x0000000000019c96                WDRV_WINC_BSSCtxSetSSID
                0x0000000000019d06                WDRV_WINC_BSSCtxSetBSSID
                0x0000000000019d74                WDRV_WINC_BSSCtxSetChannel
                0x0000000000019dcc                WDRV_WINC_BSSCtxSetSSIDVisibility

.text%89        0x0000000000019e1c      0x268
 .text          0x0000000000019e1c      0x268 build/SAMD21_IOT_WG_ICM42688/debug/_ext/503204096/plib_eic.o
                0x0000000000019e1c                EIC_Initialize
                0x0000000000019f0c                EIC_InterruptEnable
                0x0000000000019f34                EIC_InterruptDisable
                0x0000000000019f5c                EIC_CallbackRegister
                0x0000000000019fc4                EIC_InterruptHandler

.text%90        0x000000000001a084      0x264
 .text          0x000000000001a084      0x264 build/SAMD21_IOT_WG_ICM42688/debug/_ext/1360937237/ws2812.o
                0x000000000001a0c0                ws2812_init
                0x000000000001a132                ws2812_send_data
                0x000000000001a210                ws2812_set_pixel
                0x000000000001a288                ws2812_clear_all
                0x000000000001a2a4                ws2812_show
                0x000000000001a2c8                ws2812_test_timing

.text%91        0x000000000001a2e8      0x240
 .text          0x000000000001a2e8      0x240 build/SAMD21_IOT_WG_ICM42688/debug/_ext/399410062/plib_tc4.o
                0x000000000001a2e8                TC4_TimerInitialize
                0x000000000001a340                TC4_TimerStart
                0x000000000001a36c                TC4_TimerStop
                0x000000000001a398                TC4_TimerFrequencyGet
                0x000000000001a3a8                TC4_TimerCommandSet
                0x000000000001a3dc                TC4_Timer16bitCounterGet
                0x000000000001a408                TC4_Timer16bitCounterSet
                0x000000000001a438                TC4_Timer16bitPeriodSet
                0x000000000001a468                TC4_Timer16bitPeriodGet
                0x000000000001a494                TC4_Timer16bitCompareSet
                0x000000000001a4c4                TC4_TimerCallbackRegister
                0x000000000001a4e8                TC4_TimerInterruptHandler

.text%92        0x000000000001a528      0x210
 .text          0x000000000001a528      0x210 build/SAMD21_IOT_WG_ICM42688/debug/_ext/399410062/plib_tc3.o
                0x000000000001a528                TC3_TimerInitialize
                0x000000000001a580                TC3_TimerStart
                0x000000000001a5ac                TC3_TimerStop
                0x000000000001a5d8                TC3_TimerFrequencyGet
                0x000000000001a5e8                TC3_TimerCommandSet
                0x000000000001a61c                TC3_Timer16bitCounterGet
                0x000000000001a648                TC3_Timer16bitCounterSet
                0x000000000001a678                TC3_Timer16bitPeriodSet
                0x000000000001a6a8                TC3_Timer16bitPeriodGet
                0x000000000001a6d4                TC3_TimerCallbackRegister
                0x000000000001a6f8                TC3_TimerInterruptHandler

.text%93        0x000000000001a738      0x1f8
 .text          0x000000000001a738      0x1f8 build/SAMD21_IOT_WG_ICM42688/debug/_ext/223004715/plib_systick.o
                0x000000000001a738                SYSTICK_TimerInitialize
                0x000000000001a764                SYSTICK_TimerRestart
                0x000000000001a790                SYSTICK_TimerStart
                0x000000000001a7b0                SYSTICK_TimerStop
                0x000000000001a7cc                SYSTICK_TimerPeriodSet
                0x000000000001a7e8                SYSTICK_TimerPeriodGet
                0x000000000001a7fc                SYSTICK_TimerCounterGet
                0x000000000001a810                SYSTICK_TimerFrequencyGet
                0x000000000001a820                SYSTICK_DelayMs
                0x000000000001a898                SYSTICK_DelayUs
                0x000000000001a910                SYSTICK_TimerPeriodHasExpired

.rodata%94      0x000000000001a930      0x1dc
 .rodata        0x000000000001a930      0x1dc build/SAMD21_IOT_WG_ICM42688/debug/_ext/336238826/kb_output.o

.text.__secs_to_tm%95
                0x000000000001ab0c      0x1dc
 .text.__secs_to_tm
                0x000000000001ab0c      0x1dc c:/program files/microchip/xc32/v4.60/bin/bin/../../lib/gcc/pic32c/8.3.1/../../../../pic32c/lib/thumb/v6-m/nofp\libg-musl.a(__secs_to_tm.o)
                0x000000000001ab0c                __secs_to_tm

.text.__aeabi_dadd%96
                0x000000000001ace8      0x1c8
 .text.__aeabi_dadd
                0x000000000001ace8      0x1c8 c:/program files/microchip/xc32/v4.60/bin/bin/../../lib/gcc/pic32c/8.3.1/../../../../pic32c/lib/thumb/v6-m/nofp\libm-fast-emfloat.a(__aeabi_dadd.o)
                0x000000000001ace8                __aeabi_dadd
                0x000000000001acee                .L__aeabi_dadd_fast_entry

.text%97        0x000000000001aeb0      0x1b4
 .text          0x000000000001aeb0      0x1b4 build/SAMD21_IOT_WG_ICM42688/debug/_ext/336238826/utils_model_cross_difference.o
                0x000000000001aeb0                utils_model_cross_difference

.text.__aeabi_dmul_aux%98
                0x000000000001b064      0x18a
 .text.__aeabi_dmul_aux
                0x000000000001b064      0x18a c:/program files/microchip/xc32/v4.60/bin/bin/../../lib/gcc/pic32c/8.3.1/../../../../pic32c/lib/thumb/v6-m/nofp\libm-fast-emfloat.a(__aeabi_dmul_aux.o)
                0x000000000001b064                __aeabi_dmul_aux
                0x000000000001b09c                __aeabi_dmul

.rodata%99      0x000000000001b1f0      0x184
 .rodata        0x000000000001b1f0      0x184 build/SAMD21_IOT_WG_ICM42688/debug/_ext/1360937237/main.o

.text%100       0x000000000001b374      0x170
 .text          0x000000000001b374      0x170 build/SAMD21_IOT_WG_ICM42688/debug/_ext/1318297016/sys_int.o
                0x000000000001b424                SYS_INT_Enable
                0x000000000001b432                SYS_INT_Disable
                0x000000000001b442                SYS_INT_Restore
                0x000000000001b460                SYS_INT_SourceDisable
                0x000000000001b4b2                SYS_INT_SourceRestore

.text%101       0x000000000001b4e4      0x16c
 .text          0x000000000001b4e4      0x16c build/SAMD21_IOT_WG_ICM42688/debug/_ext/1750425231/plib_clock.o
                0x000000000001b5d8                CLOCK_Initialize

.text%102       0x000000000001b650      0x14c
 .text          0x000000000001b650      0x14c build/SAMD21_IOT_WG_ICM42688/debug/_ext/336238826/utils_model_stats_max_min.o
                0x000000000001b650                utils_model_stats_max_min

.text%103       0x000000000001b79c      0x13c
 .text          0x000000000001b79c      0x13c build/SAMD21_IOT_WG_ICM42688/debug/_ext/336238826/tr_min_max_scale.o
                0x000000000001b79c                min_max_scale

.text.__aeabi_fadd%104
                0x000000000001b8d8      0x13a
 .text.__aeabi_fadd
                0x000000000001b8d8      0x13a c:/program files/microchip/xc32/v4.60/bin/bin/../../lib/gcc/pic32c/8.3.1/../../../../pic32c/lib/thumb/v6-m/nofp\libm-fast-emfloat.a(__aeabi_fadd.o)
                0x000000000001b8d8                __aeabi_fadd
                0x000000000001b8dc                .L__aeabi_fadd_fast_entry

.rodata%105     0x000000000001ba14      0x134
 .rodata        0x000000000001ba14      0x134 build/SAMD21_IOT_WG_ICM42688/debug/_ext/121554788/nmspi.o

.text.__fmt_x%106
                0x000000000001bb48      0x132
 .text.__fmt_x  0x000000000001bb48      0x132 c:/program files/microchip/xc32/v4.60/bin/bin/../../lib/gcc/pic32c/8.3.1/../../../../pic32c/lib/thumb/v6-m/nofp\libg-musl.a(__fmt_x.o)
                0x000000000001bb48                __fmt_x_needed
                0x000000000001bb48                __fmt_x

.text%107       0x000000000001bc7a      0x130
 .text          0x000000000001bc7a      0x130 c:/program files/microchip/xc32/v4.60/bin/bin/../../lib/gcc/pic32c/8.3.1/thumb/v6-m/nofp\libgcc.a(_divdi3.o)
                0x000000000001bc7a                __divdi3

.text%108       0x000000000001bdaa      0x128
 .text          0x000000000001bdaa      0x128 build/SAMD21_IOT_WG_ICM42688/debug/_ext/336238826/mean.o
                0x000000000001bdaa                mean
                0x000000000001be32                i_mean
                0x000000000001be8a                i_mean_buff

.text%109       0x000000000001bed2      0x11e
 .text          0x000000000001bed2      0x11e build/SAMD21_IOT_WG_ICM42688/debug/_ext/336238826/utils_array_max_uint8.o
                0x000000000001bed2                array_max_uint8

.text%110       0x000000000001bff0      0x114
 .text          0x000000000001bff0      0x114 build/SAMD21_IOT_WG_ICM42688/debug/_ext/609036575/flexible_flash.o
                0x000000000001bff0                spi_flexible_flash_find_section

.text.__year_to_secs%111
                0x000000000001c104      0x100
 .text.__year_to_secs
                0x000000000001c104      0x100 c:/program files/microchip/xc32/v4.60/bin/bin/../../lib/gcc/pic32c/8.3.1/../../../../pic32c/lib/thumb/v6-m/nofp\libg-musl.a(__year_to_secs.o)
                0x000000000001c104                __year_to_secs

.text%112       0x000000000001c204       0xe2
 .text          0x000000000001c204       0xe2 c:/program files/microchip/xc32/v4.60/bin/bin/../../lib/gcc/pic32c/8.3.1/thumb/v6-m/nofp\libgcc.a(_udivmoddi4.o)
                0x000000000001c204                __udivmoddi4

.rodata%113     0x000000000001c2e8       0xd4
 .rodata        0x000000000001c2e8       0xd4 build/SAMD21_IOT_WG_ICM42688/debug/_ext/907429946/wdrv_winc.o

.rodata%114     0x000000000001c3bc       0xcc
 .rodata        0x000000000001c3bc       0xcc build/SAMD21_IOT_WG_ICM42688/debug/_ext/1832905403/initialization.o

.text%115       0x000000000001c488       0xc4
 .text          0x000000000001c488       0xc4 build/SAMD21_IOT_WG_ICM42688/debug/_ext/1832905403/initialization.o
                0x000000000001c4b8                SYS_Initialize

.text.__aeabi_ddiv%116
                0x000000000001c54c       0xc4
 .text.__aeabi_ddiv
                0x000000000001c54c       0xc4 c:/program files/microchip/xc32/v4.60/bin/bin/../../lib/gcc/pic32c/8.3.1/../../../../pic32c/lib/thumb/v6-m/nofp\libm-fast-emfloat.a(__aeabi_ddiv.o)
                0x000000000001c54c                __aeabi_ddiv

.text.__pop_int%117
                0x000000000001c610       0xbe
 .text.__pop_int
                0x000000000001c610       0xbe c:/program files/microchip/xc32/v4.60/bin/bin/../../lib/gcc/pic32c/8.3.1/../../../../pic32c/lib/thumb/v6-m/nofp\libg-musl.a(__pop_int.o)
                0x000000000001c610                __pop_int_needed
                0x000000000001c610                __pop_int

.text%118       0x000000000001c6d0       0xb8
 .text          0x000000000001c6d0       0xb8 build/SAMD21_IOT_WG_ICM42688/debug/_ext/336238826/utils_buffer_min_max.o
                0x000000000001c6d0                buffer_min_max

.text.__aeabi_fmul%119
                0x000000000001c788       0xb6
 .text.__aeabi_fmul
                0x000000000001c788       0xb6 c:/program files/microchip/xc32/v4.60/bin/bin/../../lib/gcc/pic32c/8.3.1/../../../../pic32c/lib/thumb/v6-m/nofp\libm-fast-emfloat.a(__aeabi_fmul.o)
                0x000000000001c788                __aeabi_fmul

.text.floor%120
                0x000000000001c840       0xb4
 .text.floor    0x000000000001c840       0xb4 c:/program files/microchip/xc32/v4.60/bin/bin/../../lib/gcc/pic32c/8.3.1/../../../../pic32c/lib/thumb/v6-m/nofp\libm-fast-emfloat.a(floor.o)
                0x000000000001c840                floor

.text.__fmt_d%121
                0x000000000001c8f4       0xb2
 .text.__fmt_d  0x000000000001c8f4       0xb2 c:/program files/microchip/xc32/v4.60/bin/bin/../../lib/gcc/pic32c/8.3.1/../../../../pic32c/lib/thumb/v6-m/nofp\libg-musl.a(__fmt_d.o)
                0x000000000001c8f4                __fmt_d
                0x000000000001c8f4                __fmt_d_needed

.text%122       0x000000000001c9a6       0xaa
 .text          0x000000000001c9a6       0xaa build/SAMD21_IOT_WG_ICM42688/debug/_ext/336238826/sortarray.o
                0x000000000001c9a6                sortarray

.text%123       0x000000000001ca50       0xa8
 .text          0x000000000001ca50       0xa8 build/SAMD21_IOT_WG_ICM42688/debug/_ext/1584719636/sys_dma.o
                0x000000000001ca50                SYS_DMA_AddressingModeSetup
                0x000000000001caac                SYS_DMA_DataWidthSetup

.rodata%124     0x000000000001caf8       0xa8
 .rodata        0x000000000001caf8       0xa8 build/SAMD21_IOT_WG_ICM42688/debug/_ext/336238826/pme.o

.text%125       0x000000000001cba0       0xa8
 .text          0x000000000001cba0       0xa8 c:/program files/microchip/xc32/v4.60/bin/bin/../../lib/gcc/pic32c/8.3.1/thumb/v6-m/nofp\libgcc.a(_divsi3.o)
                0x000000000001cba0                __divsi3
                0x000000000001cba0                __aeabi_idiv
                0x000000000001cc34                __aeabi_idivmod

.text.__tm_to_secs%126
                0x000000000001cc48       0xa0
 .text.__tm_to_secs
                0x000000000001cc48       0xa0 c:/program files/microchip/xc32/v4.60/bin/bin/../../lib/gcc/pic32c/8.3.1/../../../../pic32c/lib/thumb/v6-m/nofp\libg-musl.a(__tm_to_secs.o)
                0x000000000001cc48                __tm_to_secs

.text%127       0x000000000001cce8       0x9e
 .text          0x000000000001cce8       0x9e build/SAMD21_IOT_WG_ICM42688/debug/_ext/336238826/fg_cross_peak_location_difference.o
                0x000000000001cce8                fg_cross_column_peak_location_difference

.text%128       0x000000000001cd86       0x98
 .text          0x000000000001cd86       0x98 build/SAMD21_IOT_WG_ICM42688/debug/_ext/1357625803/xc32_monitor.o
                0x000000000001cd86                read
                0x000000000001cdd8                write

.text.__aeabi_fdiv%129
                0x000000000001ce1e       0x94
 .text.__aeabi_fdiv
                0x000000000001ce1e       0x94 c:/program files/microchip/xc32/v4.60/bin/bin/../../lib/gcc/pic32c/8.3.1/../../../../pic32c/lib/thumb/v6-m/nofp\libm-fast-emfloat.a(__aeabi_fdiv.o)
                0x000000000001ce1e                __aeabi_fdiv

.text%130       0x000000000001ceb4       0x8c
 .text          0x000000000001ceb4       0x8c c:/program files/microchip/xc32/v4.60/bin/bin/../../lib/gcc/pic32c/8.3.1/thumb/v6-m/nofp\libgcc.a(_udivsi3.o)
                0x000000000001ceb4                __aeabi_uidiv
                0x000000000001ceb4                __udivsi3
                0x000000000001cf2c                __aeabi_uidivmod

.text%131       0x000000000001cf40       0x86
 .text          0x000000000001cf40       0x86 build/SAMD21_IOT_WG_ICM42688/debug/_ext/336238826/save_sensor_data.o
                0x000000000001cf40                saveSensorData
                0x000000000001cf80                saveSenseDataOffset

.text%132       0x000000000001cfc6       0x86
 .text          0x000000000001cfc6       0x86 build/SAMD21_IOT_WG_ICM42688/debug/_ext/336238826/utils_buffer_argmax.o
                0x000000000001cfc6                buffer_argmax

.text%133       0x000000000001d04c       0x84
 .text          0x000000000001d04c       0x84 build/SAMD21_IOT_WG_ICM42688/debug/_ext/431689064/sml_recognition_run.o
                0x000000000001d04c                sml_output_results
                0x000000000001d094                sml_recognition_run

.text.__write_buffered%134
                0x000000000001d0d0       0x82
 .text.__write_buffered
                0x000000000001d0d0       0x82 c:/program files/microchip/xc32/v4.60/bin/bin/../../lib/gcc/pic32c/8.3.1/../../../../pic32c/lib/thumb/v6-m/nofp\libg-musl.a(__stdio_write.o)
                0x000000000001d0d0                __do_write

.text%135       0x000000000001d152       0x80
 .text          0x000000000001d152       0x80 build/SAMD21_IOT_WG_ICM42688/debug/_ext/336238826/sf_downsample_by_averaging.o
                0x000000000001d152                streaming_downsample_by_averaging

.text.__simple_search_fl%136
                0x000000000001d1d4       0x80
 .text.__simple_search_fl
                0x000000000001d1d4       0x80 c:/program files/microchip/xc32/v4.60/bin/bin/../../lib/gcc/pic32c/8.3.1/../../../../pic32c/lib/thumb/v6-m/nofp\liblmalloc-musl.a(lite_free.o)
                0x000000000001d1d4                __simple_search_fl

.text.__stdio_write_buffered%137
                0x000000000001d254       0x7c
 .text.__stdio_write_buffered
                0x000000000001d254       0x7c c:/program files/microchip/xc32/v4.60/bin/bin/../../lib/gcc/pic32c/8.3.1/../../../../pic32c/lib/thumb/v6-m/nofp\libg-musl.a(__stdio_write.o)
                0x000000000001d254                __stdio_write_buffered

.text%138       0x000000000001d2d0       0x7a
 .text          0x000000000001d2d0       0x7a build/SAMD21_IOT_WG_ICM42688/debug/_ext/336238826/fg_amplitude_peak_to_peak.o
                0x000000000001d2d0                fg_amplitude_peak_to_peak

.text.__pad%139
                0x000000000001d34a       0x7a
 .text.__pad    0x000000000001d34a       0x7a c:/program files/microchip/xc32/v4.60/bin/bin/../../lib/gcc/pic32c/8.3.1/../../../../pic32c/lib/thumb/v6-m/nofp\libg-musl.a(__printf_core.o)
                0x000000000001d34a                __pad

.text.__cvt_u%140
                0x000000000001d3c4       0x76
 .text.__cvt_u  0x000000000001d3c4       0x76 c:/program files/microchip/xc32/v4.60/bin/bin/../../lib/gcc/pic32c/8.3.1/../../../../pic32c/lib/thumb/v6-m/nofp\libg-musl.a(__cvt_u.o)
                0x000000000001d3c4                __cvt_u

.text%141       0x000000000001d43c       0x74
 .text          0x000000000001d43c       0x74 build/SAMD21_IOT_WG_ICM42688/debug/_ext/336238826/sorted_copy.o
                0x000000000001d43c                sorted_copy

.text%142       0x000000000001d4b0       0x6e
 .text          0x000000000001d4b0       0x6e build/SAMD21_IOT_WG_ICM42688/debug/_ext/336238826/fg_cross_mean_difference.o
                0x000000000001d4b0                fg_cross_column_mean_difference

.text%143       0x000000000001d51e       0x68
 .text          0x000000000001d51e       0x68 build/SAMD21_IOT_WG_ICM42688/debug/_ext/336238826/dsp_lsup_distance.o
                0x000000000001d51e                lsup_distance

.text.__pop_ptr%144
                0x000000000001d586       0x68
 .text.__pop_ptr
                0x000000000001d586       0x68 c:/program files/microchip/xc32/v4.60/bin/bin/../../lib/gcc/pic32c/8.3.1/../../../../pic32c/lib/thumb/v6-m/nofp\libg-musl.a(__pop_ptr.o)
                0x000000000001d586                __pop_ptr
                0x000000000001d586                __pop_ptr_needed

.text.__simple_malloc%145
                0x000000000001d5f0       0x64
 .text.__simple_malloc
                0x000000000001d5f0       0x64 c:/program files/microchip/xc32/v4.60/bin/bin/../../lib/gcc/pic32c/8.3.1/../../../../pic32c/lib/thumb/v6-m/nofp\liblmalloc-musl.a(lite_malloc.o)
                0x000000000001d5f0                __malloc0
                0x000000000001d5f0                __simple_malloc
                0x000000000001d5f0                malloc

.text.__stdio_read%146
                0x000000000001d654       0x64
 .text.__stdio_read
                0x000000000001d654       0x64 c:/program files/microchip/xc32/v4.60/bin/bin/../../lib/gcc/pic32c/8.3.1/../../../../pic32c/lib/thumb/v6-m/nofp\libg-musl.a(__stdio_read.o)
                0x000000000001d654                __stdio_read

.text.__aeabi_d2f%147
                0x000000000001d6b8       0x62
 .text.__aeabi_d2f
                0x000000000001d6b8       0x62 c:/program files/microchip/xc32/v4.60/bin/bin/../../lib/gcc/pic32c/8.3.1/../../../../pic32c/lib/thumb/v6-m/nofp\libm-fast-emfloat.a(__aeabi_d2f.o)
                0x000000000001d6b8                __aeabi_d2f

.text%148       0x000000000001d71c       0x60
 .text          0x000000000001d71c       0x60 build/SAMD21_IOT_WG_ICM42688/debug/_ext/1164161090/wdrv_winc_gpio.o
                0x000000000001d71c                WDRV_WINC_GPIOResetAssert
                0x000000000001d734                WDRV_WINC_GPIOResetDeassert
                0x000000000001d74c                WDRV_WINC_GPIOChipEnableAssert
                0x000000000001d764                WDRV_WINC_GPIOChipEnableDeassert

.text.__strchrnul%149
                0x000000000001d77c       0x60
 .text.__strchrnul
                0x000000000001d77c       0x60 c:/program files/microchip/xc32/v4.60/bin/bin/../../lib/gcc/pic32c/8.3.1/../../../../pic32c/lib/thumb/v6-m/nofp\libc-size-musl.a(strchrnul.o)
                0x000000000001d77c                strchrnul
                0x000000000001d77c                __strchrnul

.text%150       0x000000000001d7dc       0x5e
 .text          0x000000000001d7dc       0x5e build/SAMD21_IOT_WG_ICM42688/debug/_ext/336238826/sg_windowing.o
                0x000000000001d7dc                sg_windowing
                0x000000000001d80c                sg_windowing_init

.text%151       0x000000000001d83a       0x5c
 .text          0x000000000001d83a       0x5c build/SAMD21_IOT_WG_ICM42688/debug/_ext/336238826/dsp_l1_distance.o
                0x000000000001d83a                l1_distance

.text.__libc_start_init%152
                0x000000000001d898       0x5c
 .text.__libc_start_init
                0x000000000001d898       0x5c c:/program files/microchip/xc32/v4.60/bin/bin/../../lib/gcc/pic32c/8.3.1/../../../../pic32c/lib/thumb/v6-m/nofp\libg-musl.a(__libc_start_main.o)
                0x000000000001d898                __libc_init_array

.text.__stdio_close_rw%153
                0x000000000001d8f4       0x5c
 .text.__stdio_close_rw
                0x000000000001d8f4       0x5c c:/program files/microchip/xc32/v4.60/bin/bin/../../lib/gcc/pic32c/8.3.1/../../../../pic32c/lib/thumb/v6-m/nofp\libg-musl.a(__stdio_close.o)
                0x000000000001d8f4                __stdio_close_rw

.rodata%154     0x000000000001d950       0x58
 .rodata        0x000000000001d950       0x58 build/SAMD21_IOT_WG_ICM42688/debug/_ext/1341251756/Icm426xxDriver_HL.o

.text.__fmt_u%155
                0x000000000001d9a8       0x56
 .text.__fmt_u  0x000000000001d9a8       0x56 c:/program files/microchip/xc32/v4.60/bin/bin/../../lib/gcc/pic32c/8.3.1/../../../../pic32c/lib/thumb/v6-m/nofp\libg-musl.a(__fmt_u.o)
                0x000000000001d9a8                __fmt_u_needed
                0x000000000001d9a8                __fmt_u

.text%156       0x000000000001d9fe       0x52
 .text          0x000000000001d9fe       0x52 build/SAMD21_IOT_WG_ICM42688/debug/_ext/336238826/dsp_dtw_distance.o
                0x000000000001d9fe                compute_distance_matrix
                0x000000000001da14                compute_warping_distance
                0x000000000001da28                get_distance_matrix_value
                0x000000000001da3c                get_globdist

.text%157       0x000000000001da50       0x50
 .text          0x000000000001da50       0x50 build/SAMD21_IOT_WG_ICM42688/debug/_ext/336238826/utils_tr_sensor.o
                0x000000000001da50                tr_sensor_sensors

.text.__fmt_s%158
                0x000000000001daa0       0x50
 .text.__fmt_s  0x000000000001daa0       0x50 c:/program files/microchip/xc32/v4.60/bin/bin/../../lib/gcc/pic32c/8.3.1/../../../../pic32c/lib/thumb/v6-m/nofp\libg-musl.a(__fmt_s.o)
                0x000000000001daa0                __fmt_s
                0x000000000001daa0                __fmt_0_needed
                0x000000000001daa0                __fmt_s_needed

.text.setvbuf%159
                0x000000000001daf0       0x50
 .text.setvbuf  0x000000000001daf0       0x50 c:/program files/microchip/xc32/v4.60/bin/bin/../../lib/gcc/pic32c/8.3.1/../../../../pic32c/lib/thumb/v6-m/nofp\libg-musl.a(setvbuf.o)
                0x000000000001daf0                setvbuf

.text.__vsnprintf%160
                0x000000000001db40       0x50
 .text.__vsnprintf
                0x000000000001db40       0x50 c:/program files/microchip/xc32/v4.60/bin/bin/../../lib/gcc/pic32c/8.3.1/../../../../pic32c/lib/thumb/v6-m/nofp\libg-musl.a(__int_vsnprintf.o)
                0x000000000001db40                __vsnprintf

.text._sbrk%161
                0x000000000001db90       0x50
 .text._sbrk    0x000000000001db90       0x50 c:/program files/microchip/xc32/v4.60/bin/bin/../../lib/gcc/pic32c/8.3.1/../../../../pic32c/lib/thumb/v6-m/nofp\libpic32c.a(sbrk.o)
                0x000000000001db90                _sbrk

.text.__overflow%162
                0x000000000001dbe0       0x4e
 .text.__overflow
                0x000000000001dbe0       0x4e c:/program files/microchip/xc32/v4.60/bin/bin/../../lib/gcc/pic32c/8.3.1/../../../../pic32c/lib/thumb/v6-m/nofp\libg-musl.a(__overflow.o)
                0x000000000001dbe0                __overflow

.text%163       0x000000000001dc30       0x4c
 .text          0x000000000001dc30       0x4c build/SAMD21_IOT_WG_ICM42688/debug/_ext/1164161090/wdrv_winc_eint.o
                0x000000000001dc30                WDRV_WINC_INTInitialize
                0x000000000001dc60                WDRV_WINC_INTDeinitialize

.text%164       0x000000000001dc7c       0x48
 .text          0x000000000001dc7c       0x48 c:/program files/microchip/xc32/v4.60/bin/bin/../../lib/gcc/pic32c/8.3.1/thumb/v6-m/nofp/crtbegin.o

.text.Reset_Handler%165
                0x000000000001dcc4       0x48
 .text.Reset_Handler
                0x000000000001dcc4       0x48 build/SAMD21_IOT_WG_ICM42688/debug/_ext/1832905403/startup_xc32.o
                0x000000000001dcc4                Reset_Handler

.text.mktime%166
                0x000000000001dd0c       0x48
 .text.mktime   0x000000000001dd0c       0x48 c:/program files/microchip/xc32/v4.60/bin/bin/../../lib/gcc/pic32c/8.3.1/../../../../pic32c/lib/thumb/v6-m/nofp\libg-musl.a(mktime.o)
                0x000000000001dd0c                mktime

.text%167       0x000000000001dd54       0x48
 .text          0x000000000001dd54       0x48 c:/program files/microchip/xc32/v4.60/bin/bin/../../lib/gcc/pic32c/8.3.1/thumb/v6-m/nofp\libgcc.a(_aeabi_ldivmod.o)
                0x000000000001dd54                __aeabi_ldivmod

.text%168       0x000000000001dd9c       0x44
 .text          0x000000000001dd9c       0x44 build/SAMD21_IOT_WG_ICM42688/debug/_ext/90265895/nm_common.o
                0x000000000001dd9c                nm_sleep
                0x000000000001ddb4                nm_reset

.text.__aeabi_f2d%169
                0x000000000001dde0       0x44
 .text.__aeabi_f2d
                0x000000000001dde0       0x44 c:/program files/microchip/xc32/v4.60/bin/bin/../../lib/gcc/pic32c/8.3.1/../../../../pic32c/lib/thumb/v6-m/nofp\libm-fast-emfloat.a(__aeabi_f2d.o)
                0x000000000001dde0                __aeabi_f2d

.text.__aeabi_dcmple%170
                0x000000000001de24       0x44
 .text.__aeabi_dcmple
                0x000000000001de24       0x44 c:/program files/microchip/xc32/v4.60/bin/bin/../../lib/gcc/pic32c/8.3.1/../../../../pic32c/lib/thumb/v6-m/nofp\libm-fast-emfloat.a(__aeabi_dcmple.o)
                0x000000000001de24                __aeabi_dcmple

.text%171       0x000000000001de68       0x44
 .text          0x000000000001de68       0x44 c:/program files/microchip/xc32/v4.60/bin/bin/../../lib/gcc/pic32c/8.3.1/thumb/v6-m/nofp\libgcc.a(_muldi3.o)
                0x000000000001de68                __muldi3
                0x000000000001de68                __aeabi_lmul

.text%172       0x000000000001deac       0x42
 .text          0x000000000001deac       0x42 build/SAMD21_IOT_WG_ICM42688/debug/_ext/1784303044/wdrv_winc_osal.o
                0x000000000001deac                WDRV_MSDelay

.text%173       0x000000000001def0       0x40
 .text          0x000000000001def0       0x40 build/SAMD21_IOT_WG_ICM42688/debug/_ext/1360937237/app.o
                0x000000000001def0                APP_Initialize
                0x000000000001df24                APP_Tasks

.text.__simple_free%174
                0x000000000001df30       0x40
 .text.__simple_free
                0x000000000001df30       0x40 c:/program files/microchip/xc32/v4.60/bin/bin/../../lib/gcc/pic32c/8.3.1/../../../../pic32c/lib/thumb/v6-m/nofp\liblmalloc-musl.a(lite_free.o)
                0x000000000001df30                __simple_free
                0x000000000001df30                free
                0x000000000001df30                __free0

.text.atoi%175  0x000000000001df70       0x40
 .text.atoi     0x000000000001df70       0x40 c:/program files/microchip/xc32/v4.60/bin/bin/../../lib/gcc/pic32c/8.3.1/../../../../pic32c/lib/thumb/v6-m/nofp\libg-musl.a(atoi.o)
                0x000000000001df70                atoi

.text%176       0x000000000001dfb0       0x40
 .text          0x000000000001dfb0       0x40 c:/program files/microchip/xc32/v4.60/bin/bin/../../lib/gcc/pic32c/8.3.1/thumb/v6-m/nofp\libgcc.a(_aeabi_uldivmod.o)
                0x000000000001dfb0                __aeabi_uldivmod

.text.__aeabi_dcmpgt%177
                0x000000000001dff0       0x3e
 .text.__aeabi_dcmpgt
                0x000000000001dff0       0x3e c:/program files/microchip/xc32/v4.60/bin/bin/../../lib/gcc/pic32c/8.3.1/../../../../pic32c/lib/thumb/v6-m/nofp\libm-fast-emfloat.a(__aeabi_dcmpgt.o)
                0x000000000001dff0                __aeabi_dcmpgt

.text.__aeabi_dcmplt%178
                0x000000000001e02e       0x3e
 .text.__aeabi_dcmplt
                0x000000000001e02e       0x3e c:/program files/microchip/xc32/v4.60/bin/bin/../../lib/gcc/pic32c/8.3.1/../../../../pic32c/lib/thumb/v6-m/nofp\libm-fast-emfloat.a(__aeabi_dcmplt.o)
                0x000000000001e02e                __aeabi_dcmplt

.text.__aeabi_f2iz%179
                0x000000000001e06c       0x3e
 .text.__aeabi_f2iz
                0x000000000001e06c       0x3e c:/program files/microchip/xc32/v4.60/bin/bin/../../lib/gcc/pic32c/8.3.1/../../../../pic32c/lib/thumb/v6-m/nofp\libm-fast-emfloat.a(__aeabi_f2iz.o)
                0x000000000001e06c                __aeabi_f2iz

.text.__out%180
                0x000000000001e0aa       0x3c
 .text.__out    0x000000000001e0aa       0x3c c:/program files/microchip/xc32/v4.60/bin/bin/../../lib/gcc/pic32c/8.3.1/../../../../pic32c/lib/thumb/v6-m/nofp\libg-musl.a(__out.o)
                0x000000000001e0aa                __out
                0x000000000001e0aa                __out_needed

.text.__putc%181
                0x000000000001e0e6       0x3c
 .text.__putc   0x000000000001e0e6       0x3c c:/program files/microchip/xc32/v4.60/bin/bin/../../lib/gcc/pic32c/8.3.1/../../../../pic32c/lib/thumb/v6-m/nofp\libg-musl.a(__putc.o)
                0x000000000001e0e6                __putc_needed
                0x000000000001e0e6                __putc

.text%182       0x000000000001e124       0x3c
 .text          0x000000000001e124       0x3c c:/program files/microchip/xc32/v4.60/bin/bin/../../lib/gcc/pic32c/8.3.1/thumb/v6-m/nofp\libgcc.a(_clzsi2.o)
                0x000000000001e124                __clzsi2

.text%183       0x000000000001e160       0x38
 .text          0x000000000001e160       0x38 build/SAMD21_IOT_WG_ICM42688/debug/_ext/336238826/utils_bitwise_abs_val.o
                0x000000000001e160                bitwise_absolute_value

.text.__pic32c_data_initialization%184
                0x000000000001e198       0x38
 .text.__pic32c_data_initialization
                0x000000000001e198       0x38 c:/program files/microchip/xc32/v4.60/bin/bin/../../lib/gcc/pic32c/8.3.1/../../../../pic32c/lib/thumb/v6-m/nofp\libpic32c.a(data_init.o)
                0x000000000001e198                __pic32c_data_initialization

.text.__putc_unbuffered%185
                0x000000000001e1d0       0x36
 .text.__putc_unbuffered
                0x000000000001e1d0       0x36 c:/program files/microchip/xc32/v4.60/bin/bin/../../lib/gcc/pic32c/8.3.1/../../../../pic32c/lib/thumb/v6-m/nofp\libg-musl.a(putc.o)
                0x000000000001e1d0                __putc_unbuffered

.text.__aeabi_d2iz%186
                0x000000000001e206       0x34
 .text.__aeabi_d2iz
                0x000000000001e206       0x34 c:/program files/microchip/xc32/v4.60/bin/bin/../../lib/gcc/pic32c/8.3.1/../../../../pic32c/lib/thumb/v6-m/nofp\libm-fast-emfloat.a(__aeabi_d2iz.o)
                0x000000000001e206                __aeabi_d2iz

.text.__fmt_state%187
                0x000000000001e23c       0x34
 .text.__fmt_state
                0x000000000001e23c       0x34 c:/program files/microchip/xc32/v4.60/bin/bin/../../lib/gcc/pic32c/8.3.1/../../../../pic32c/lib/thumb/v6-m/nofp\libg-musl.a(__printf_core.o)
                0x000000000001e23c                __fmt_state

.text.__gmtime_r%188
                0x000000000001e270       0x34
 .text.__gmtime_r
                0x000000000001e270       0x34 c:/program files/microchip/xc32/v4.60/bin/bin/../../lib/gcc/pic32c/8.3.1/../../../../pic32c/lib/thumb/v6-m/nofp\libg-musl.a(gmtime_r.o)
                0x000000000001e270                __gmtime_r
                0x000000000001e270                gmtime_r

.text%189       0x000000000001e2a4       0x34
 .text          0x000000000001e2a4       0x34 c:/program files/microchip/xc32/v4.60/bin/bin/../../lib/gcc/pic32c/8.3.1/thumb/v6-m/nofp\libgcc.a(bpabi.o)
                0x000000000001e2a4                __gnu_ldivmod_helper

.text._sbrk_init%190
                0x000000000001e2d8       0x34
 .text._sbrk_init
                0x000000000001e2d8       0x34 c:/program files/microchip/xc32/v4.60/bin/bin/../../lib/gcc/pic32c/8.3.1/../../../../pic32c/lib/thumb/v6-m/nofp\libpic32c.a(sbrk.o)

.text.__aeabi_ul2f%191
                0x000000000001e30c       0x30
 .text.__aeabi_ul2f
                0x000000000001e30c       0x30 c:/program files/microchip/xc32/v4.60/bin/bin/../../lib/gcc/pic32c/8.3.1/../../../../pic32c/lib/thumb/v6-m/nofp\libm-fast-emfloat.a(__aeabi_ul2f.o)
                0x000000000001e30c                __aeabi_ul2f

.rodata%192     0x000000000001e33c       0x30
 .rodata        0x000000000001e33c       0x30 c:/program files/microchip/xc32/v4.60/bin/bin/../../lib/gcc/pic32c/8.3.1/../../../../pic32c/lib/thumb/v6-m/nofp\libg-musl.a(__month_to_secs.o)

.text.__aeabi_dcmpeq%193
                0x000000000001e36c       0x2e
 .text.__aeabi_dcmpeq
                0x000000000001e36c       0x2e c:/program files/microchip/xc32/v4.60/bin/bin/../../lib/gcc/pic32c/8.3.1/../../../../pic32c/lib/thumb/v6-m/nofp\libm-fast-emfloat.a(__aeabi_dcmpeq.o)
                0x000000000001e36c                __aeabi_dcmpeq

.text.__aeabi_fcmpgt%194
                0x000000000001e39a       0x2e
 .text.__aeabi_fcmpgt
                0x000000000001e39a       0x2e c:/program files/microchip/xc32/v4.60/bin/bin/../../lib/gcc/pic32c/8.3.1/../../../../pic32c/lib/thumb/v6-m/nofp\libm-fast-emfloat.a(__aeabi_fcmpgt.o)
                0x000000000001e39a                __aeabi_fcmpgt

.text.__aeabi_fcmplt%195
                0x000000000001e3c8       0x2e
 .text.__aeabi_fcmplt
                0x000000000001e3c8       0x2e c:/program files/microchip/xc32/v4.60/bin/bin/../../lib/gcc/pic32c/8.3.1/../../../../pic32c/lib/thumb/v6-m/nofp\libm-fast-emfloat.a(__aeabi_fcmplt.o)
                0x000000000001e3c8                __aeabi_fcmplt

.text.__aeabi_d2uiz%196
                0x000000000001e3f6       0x2e
 .text.__aeabi_d2uiz
                0x000000000001e3f6       0x2e c:/program files/microchip/xc32/v4.60/bin/bin/../../lib/gcc/pic32c/8.3.1/../../../../pic32c/lib/thumb/v6-m/nofp\libm-fast-emfloat.a(__aeabi_d2uiz.o)
                0x000000000001e3f6                __aeabi_d2uiz
                0x000000000001e3fa                .L__aeabi_d2uiz_fast_entry

.text.fwrite%197
                0x000000000001e424       0x2e
 .text.fwrite   0x000000000001e424       0x2e c:/program files/microchip/xc32/v4.60/bin/bin/../../lib/gcc/pic32c/8.3.1/../../../../pic32c/lib/thumb/v6-m/nofp\libg-musl.a(fwrite.o)
                0x000000000001e424                fwrite
                0x000000000001e424                fwrite_unlocked

.text%198       0x000000000001e452       0x2a
 .text          0x000000000001e452       0x2a build/SAMD21_IOT_WG_ICM42688/debug/_ext/336238826/fg_cross_p2p_difference.o
                0x000000000001e452                fg_cross_column_p2p_difference

.text%199       0x000000000001e47c       0x2a
 .text          0x000000000001e47c       0x2a build/SAMD21_IOT_WG_ICM42688/debug/_ext/336238826/fg_stats_minimum.o
                0x000000000001e47c                fg_stats_minimum

.text.__pop_float%200
                0x000000000001e4a6       0x2a
 .text.__pop_float
                0x000000000001e4a6       0x2a c:/program files/microchip/xc32/v4.60/bin/bin/../../lib/gcc/pic32c/8.3.1/../../../../pic32c/lib/thumb/v6-m/nofp\libg-musl.a(__pop_float.o)
                0x000000000001e4a6                __pop_float_needed
                0x000000000001e4a6                __pop_float

.text.__towrite_rw%201
                0x000000000001e4d0       0x2a
 .text.__towrite_rw
                0x000000000001e4d0       0x2a c:/program files/microchip/xc32/v4.60/bin/bin/../../lib/gcc/pic32c/8.3.1/../../../../pic32c/lib/thumb/v6-m/nofp\libg-musl.a(__towrite_rw.o)
                0x000000000001e4d0                __towrite_rw
                0x000000000001e4d0                __towrite_rw_needed

.rodata%202     0x000000000001e4fc       0x28
 .rodata        0x000000000001e4fc       0x28 build/SAMD21_IOT_WG_ICM42688/debug/_ext/907429946/wdrv_winc_authctx.o

.text.puts%203  0x000000000001e524       0x28
 .text.puts     0x000000000001e524       0x28 c:/program files/microchip/xc32/v4.60/bin/bin/../../lib/gcc/pic32c/8.3.1/../../../../pic32c/lib/thumb/v6-m/nofp\libg-musl.a(puts.o)
                0x000000000001e524                puts

.text.__readv%204
                0x000000000001e54c       0x28
 .text.__readv  0x000000000001e54c       0x28 c:/program files/microchip/xc32/v4.60/bin/bin/../../lib/gcc/pic32c/8.3.1/../../../../pic32c/lib/thumb/v6-m/nofp\libg-musl.a(readv.o)
                0x000000000001e54c                readv

.text.__writev%205
                0x000000000001e574       0x28
 .text.__writev
                0x000000000001e574       0x28 c:/program files/microchip/xc32/v4.60/bin/bin/../../lib/gcc/pic32c/8.3.1/../../../../pic32c/lib/thumb/v6-m/nofp\libg-musl.a(writev.o)
                0x000000000001e574                writev

.text.__aeabi_i2f%206
                0x000000000001e59c       0x26
 .text.__aeabi_i2f
                0x000000000001e59c       0x26 c:/program files/microchip/xc32/v4.60/bin/bin/../../lib/gcc/pic32c/8.3.1/../../../../pic32c/lib/thumb/v6-m/nofp\libm-fast-emfloat.a(__aeabi_i2f.o)
                0x000000000001e59c                __aeabi_i2f

.text.__aeabi_f2uiz%207
                0x000000000001e5c2       0x24
 .text.__aeabi_f2uiz
                0x000000000001e5c2       0x24 c:/program files/microchip/xc32/v4.60/bin/bin/../../lib/gcc/pic32c/8.3.1/../../../../pic32c/lib/thumb/v6-m/nofp\libm-fast-emfloat.a(__aeabi_f2uiz.o)
                0x000000000001e5c2                __aeabi_f2uiz

.text.fputs%208
                0x000000000001e5e6       0x22
 .text.fputs    0x000000000001e5e6       0x22 c:/program files/microchip/xc32/v4.60/bin/bin/../../lib/gcc/pic32c/8.3.1/../../../../pic32c/lib/thumb/v6-m/nofp\libg-musl.a(fputs.o)
                0x000000000001e5e6                fputs
                0x000000000001e5e6                fputs_unlocked

.rodata%209     0x000000000001e608       0x20
 .rodata        0x000000000001e608       0x20 build/SAMD21_IOT_WG_ICM42688/debug/_ext/121554788/m2m_hif.o

.rodata%210     0x000000000001e628       0x20
 .rodata        0x000000000001e628       0x20 build/SAMD21_IOT_WG_ICM42688/debug/_ext/1341251756/Icm426xxTransport.o

.text.memchr%211
                0x000000000001e648       0x20
 .text.memchr   0x000000000001e648       0x20 c:/program files/microchip/xc32/v4.60/bin/bin/../../lib/gcc/pic32c/8.3.1/../../../../pic32c/lib/thumb/v6-m/nofp\libc-size-musl.a(memchr.o)
                0x000000000001e648                memchr

.text.__aeabi_l2f%212
                0x000000000001e668       0x20
 .text.__aeabi_l2f
                0x000000000001e668       0x20 c:/program files/microchip/xc32/v4.60/bin/bin/../../lib/gcc/pic32c/8.3.1/../../../../pic32c/lib/thumb/v6-m/nofp\libm-fast-emfloat.a(__aeabi_l2f.o)
                0x000000000001e668                __aeabi_l2f

.text.__wrap_printf%213
                0x000000000001e688       0x20
 .text.__wrap_printf
                0x000000000001e688       0x20 c:/program files/microchip/xc32/v4.60/bin/bin/../../lib/gcc/pic32c/8.3.1/../../../../pic32c/lib/thumb/v6-m/nofp\libg-musl.a(__sio_printf_cdeEfFgGnpsuxX.o)
                0x000000000001e688                _dprintf_cdeEfFgGnpsuxX
                0x000000000001e688                _printf_cdeEfFgGnpsuxX

.text.__month_to_secs%214
                0x000000000001e6a8       0x20
 .text.__month_to_secs
                0x000000000001e6a8       0x20 c:/program files/microchip/xc32/v4.60/bin/bin/../../lib/gcc/pic32c/8.3.1/../../../../pic32c/lib/thumb/v6-m/nofp\libg-musl.a(__month_to_secs.o)
                0x000000000001e6a8                __month_to_secs

.text._get_heap_left_space%215
                0x000000000001e6c8       0x20
 .text._get_heap_left_space
                0x000000000001e6c8       0x20 c:/program files/microchip/xc32/v4.60/bin/bin/../../lib/gcc/pic32c/8.3.1/../../../../pic32c/lib/thumb/v6-m/nofp\libpic32c.a(sbrk.o)
                0x000000000001e6c8                _get_heap_left_space

.text.__aeabi_fcmpeq%216
                0x000000000001e6e8       0x1e
 .text.__aeabi_fcmpeq
                0x000000000001e6e8       0x1e c:/program files/microchip/xc32/v4.60/bin/bin/../../lib/gcc/pic32c/8.3.1/../../../../pic32c/lib/thumb/v6-m/nofp\libm-fast-emfloat.a(__aeabi_fcmpeq.o)
                0x000000000001e6e8                __aeabi_fcmpeq

.text.__aeabi_ui2f%217
                0x000000000001e706       0x1e
 .text.__aeabi_ui2f
                0x000000000001e706       0x1e c:/program files/microchip/xc32/v4.60/bin/bin/../../lib/gcc/pic32c/8.3.1/../../../../pic32c/lib/thumb/v6-m/nofp\libm-fast-emfloat.a(__aeabi_ui2f.o)
                0x000000000001e706                __aeabi_ui2f

.text.__dinit_copy%218
                0x000000000001e724       0x1e
 .text.__dinit_copy
                0x000000000001e724       0x1e c:/program files/microchip/xc32/v4.60/bin/bin/../../lib/gcc/pic32c/8.3.1/../../../../pic32c/lib/thumb/v6-m/nofp\libpic32c.a(pic32_data_init_copy.o)
                0x000000000001e724                __dinit_copy_needed
                0x000000000001e724                __dinit_copy

.text.__init_search_fl%219
                0x000000000001e744       0x1c
 .text.__init_search_fl
                0x000000000001e744       0x1c c:/program files/microchip/xc32/v4.60/bin/bin/../../lib/gcc/pic32c/8.3.1/../../../../pic32c/lib/thumb/v6-m/nofp\liblmalloc-musl.a(lite_free.o)
                0x000000000001e744                __init_search_fl

.text.__towrite%220
                0x000000000001e760       0x1a
 .text.__towrite
                0x000000000001e760       0x1a c:/program files/microchip/xc32/v4.60/bin/bin/../../lib/gcc/pic32c/8.3.1/../../../../pic32c/lib/thumb/v6-m/nofp\libg-musl.a(__towrite.o)
                0x000000000001e760                __towrite

.text.strlen%221
                0x000000000001e77c       0x18
 .text.strlen   0x000000000001e77c       0x18 c:/program files/microchip/xc32/v4.60/bin/bin/../../lib/gcc/pic32c/8.3.1/../../../../pic32c/lib/thumb/v6-m/nofp\libc-size-musl.a(strlen.o)
                0x000000000001e77c                strlen

.text.strnlen%222
                0x000000000001e794       0x18
 .text.strnlen  0x000000000001e794       0x18 c:/program files/microchip/xc32/v4.60/bin/bin/../../lib/gcc/pic32c/8.3.1/../../../../pic32c/lib/thumb/v6-m/nofp\libc-size-musl.a(strnlen.o)
                0x000000000001e794                strnlen

.text.__vfprintf%223
                0x000000000001e7ac       0x18
 .text.__vfprintf
                0x000000000001e7ac       0x18 c:/program files/microchip/xc32/v4.60/bin/bin/../../lib/gcc/pic32c/8.3.1/../../../../pic32c/lib/thumb/v6-m/nofp\libg-musl.a(__int_vfprintf.o)
                0x000000000001e7ac                __vfprintf

.text%224       0x000000000001e7c4       0x18
 .text          0x000000000001e7c4       0x18 c:/program files/microchip/xc32/v4.60/bin/bin/../../lib/gcc/pic32c/8.3.1/thumb/v6-m/nofp\libgcc.a(_lshrdi3.o)
                0x000000000001e7c4                __lshrdi3
                0x000000000001e7c4                __aeabi_llsr

.text%225       0x000000000001e7dc       0x18
 .text          0x000000000001e7dc       0x18 c:/program files/microchip/xc32/v4.60/bin/bin/../../lib/gcc/pic32c/8.3.1/thumb/v6-m/nofp\libgcc.a(_ashldi3.o)
                0x000000000001e7dc                __aeabi_llsl
                0x000000000001e7dc                __ashldi3

.text%226       0x000000000001e7f4       0x18
 .text          0x000000000001e7f4       0x18 c:/program files/microchip/xc32/v4.60/bin/bin/../../lib/gcc/pic32c/8.3.1/thumb/v6-m/nofp\libgcc.a(_clzdi2.o)
                0x000000000001e7f4                __clzdi2

.text.__expand_heap%227
                0x000000000001e80c       0x16
 .text.__expand_heap
                0x000000000001e80c       0x16 c:/program files/microchip/xc32/v4.60/bin/bin/../../lib/gcc/pic32c/8.3.1/../../../../pic32c/lib/thumb/v6-m/nofp\libg-musl.a(expand_heap.o)
                0x000000000001e80c                __expand_heap

.text.__wrap_sprintf%228
                0x000000000001e822       0x16
 .text.__wrap_sprintf
                0x000000000001e822       0x16 c:/program files/microchip/xc32/v4.60/bin/bin/../../lib/gcc/pic32c/8.3.1/../../../../pic32c/lib/thumb/v6-m/nofp\libg-musl.a(__sio_sprintf_cdeEfFgGnpsuxX.o)
                0x000000000001e822                _dsprintf_cdeEfFgGnpsuxX
                0x000000000001e822                _sprintf_cdeEfFgGnpsuxX

.rodata%229     0x000000000001e838       0x16
 .rodata        0x000000000001e838       0x16 c:/program files/microchip/xc32/v4.60/bin/bin/../../lib/gcc/pic32c/8.3.1/../../../../pic32c/lib/thumb/v6-m/nofp\libg-musl.a(__printf_core.o)

.rodata%230     0x000000000001e850       0x14
 .rodata        0x000000000001e850       0x14 c:/program files/microchip/xc32/v4.60/bin/bin/../../lib/gcc/pic32c/8.3.1/../../../../pic32c/lib/thumb/v6-m/nofp\libpic32c.a(data_init.o)

.text.memcpy%231
                0x000000000001e864       0x14
 .text.memcpy   0x000000000001e864       0x14 c:/program files/microchip/xc32/v4.60/bin/bin/../../lib/gcc/pic32c/8.3.1/../../../../pic32c/lib/thumb/v6-m/nofp\libc-size-musl.a(memcpy.o)
                0x000000000001e864                memcpy

.text.memset%232
                0x000000000001e878       0x14
 .text.memset   0x000000000001e878       0x14 c:/program files/microchip/xc32/v4.60/bin/bin/../../lib/gcc/pic32c/8.3.1/../../../../pic32c/lib/thumb/v6-m/nofp\libc-size-musl.a(memset.o)
                0x000000000001e878                memset

.text.strchr%233
                0x000000000001e88c       0x14
 .text.strchr   0x000000000001e88c       0x14 c:/program files/microchip/xc32/v4.60/bin/bin/../../lib/gcc/pic32c/8.3.1/../../../../pic32c/lib/thumb/v6-m/nofp\libc-size-musl.a(strchr.o)
                0x000000000001e88c                strchr

.text.__init_stdout%234
                0x000000000001e8a0       0x14
 .text.__init_stdout
                0x000000000001e8a0       0x14 c:/program files/microchip/xc32/v4.60/bin/bin/../../lib/gcc/pic32c/8.3.1/../../../../pic32c/lib/thumb/v6-m/nofp\libg-musl.a(stdout.o)
                0x000000000001e8a0                __init_stdout

.text.putchar%235
                0x000000000001e8b4       0x14
 .text.putchar  0x000000000001e8b4       0x14 c:/program files/microchip/xc32/v4.60/bin/bin/../../lib/gcc/pic32c/8.3.1/../../../../pic32c/lib/thumb/v6-m/nofp\libg-musl.a(putchar.o)
                0x000000000001e8b4                putchar

.text.__vsprintf%236
                0x000000000001e8c8       0x14
 .text.__vsprintf
                0x000000000001e8c8       0x14 c:/program files/microchip/xc32/v4.60/bin/bin/../../lib/gcc/pic32c/8.3.1/../../../../pic32c/lib/thumb/v6-m/nofp\libg-musl.a(__int_vsprintf.o)
                0x000000000001e8c8                __vsprintf

.text.__fwrite%237
                0x000000000001e8dc       0x14
 .text.__fwrite
                0x000000000001e8dc       0x14 c:/program files/microchip/xc32/v4.60/bin/bin/../../lib/gcc/pic32c/8.3.1/../../../../pic32c/lib/thumb/v6-m/nofp\libg-musl.a(__fwrite.o)
                0x000000000001e8dc                __fwrite
                0x000000000001e8dc                __fwrite_needed

.text.stpcpy%238
                0x000000000001e8f0       0x14
 .text.stpcpy   0x000000000001e8f0       0x14 c:/program files/microchip/xc32/v4.60/bin/bin/../../lib/gcc/pic32c/8.3.1/../../../../pic32c/lib/thumb/v6-m/nofp\libc-size-musl.a(stpcpy.o)
                0x000000000001e8f0                __stpcpy
                0x000000000001e8f0                stpcpy

.text.setbuf%239
                0x000000000001e904       0x12
 .text.setbuf   0x000000000001e904       0x12 c:/program files/microchip/xc32/v4.60/bin/bin/../../lib/gcc/pic32c/8.3.1/../../../../pic32c/lib/thumb/v6-m/nofp\libg-musl.a(setbuf.o)
                0x000000000001e904                setbuf

.text.__dinit_clear%240
                0x000000000001e916       0x12
 .text.__dinit_clear
                0x000000000001e916       0x12 c:/program files/microchip/xc32/v4.60/bin/bin/../../lib/gcc/pic32c/8.3.1/../../../../pic32c/lib/thumb/v6-m/nofp\libpic32c.a(pic32_data_init_clear.o)
                0x000000000001e916                __dinit_clear
                0x000000000001e916                __dinit_clear_needed

.text%241       0x000000000001e928       0x10
 .text          0x000000000001e928       0x10 build/SAMD21_IOT_WG_ICM42688/debug/_ext/1832905403/exceptions.o
                0x000000000001e928                NonMaskableInt_Handler
                0x000000000001e930                HardFault_Handler

.text.__aeabi_fsub%242
                0x000000000001e938       0x10
 .text.__aeabi_fsub
                0x000000000001e938       0x10 c:/program files/microchip/xc32/v4.60/bin/bin/../../lib/gcc/pic32c/8.3.1/../../../../pic32c/lib/thumb/v6-m/nofp\libm-fast-emfloat.a(__aeabi_fsub.o)
                0x000000000001e938                __aeabi_fsub

.rodata.str1.1%243
                0x000000000001e948       0x10
 .rodata.str1.1
                0x000000000001e948       0x10 c:/program files/microchip/xc32/v4.60/bin/bin/../../lib/gcc/pic32c/8.3.1/../../../../pic32c/lib/thumb/v6-m/nofp\libg-musl.a(__fmt_fp.o)

.text.gmtime%244
                0x000000000001e958       0x10
 .text.gmtime   0x000000000001e958       0x10 c:/program files/microchip/xc32/v4.60/bin/bin/../../lib/gcc/pic32c/8.3.1/../../../../pic32c/lib/thumb/v6-m/nofp\libg-musl.a(gmtime.o)
                0x000000000001e958                gmtime

.text.__init_stdio%245
                0x000000000001e968       0x10
 .text.__init_stdio
                0x000000000001e968       0x10 c:/program files/microchip/xc32/v4.60/bin/bin/../../lib/gcc/pic32c/8.3.1/../../../../pic32c/lib/thumb/v6-m/nofp\libg-musl.a(__init_stdio.o)
                0x000000000001e968                __init_stdio_needed
                0x000000000001e968                __init_stdio

.text.fma%246   0x000000000001e978       0x10
 .text.fma      0x000000000001e978       0x10 c:/program files/microchip/xc32/v4.60/bin/bin/../../lib/gcc/pic32c/8.3.1/../../../../pic32c/lib/thumb/v6-m/nofp\libm-fast-emfloat.a(fma.o)
                0x000000000001e978                fma

.text%247       0x000000000001e988        0xe
 .text          0x000000000001e988        0xe build/SAMD21_IOT_WG_ICM42688/debug/_ext/1832905403/tasks.o
                0x000000000001e988                SYS_Tasks

.text.tolower%248
                0x000000000001e996        0xe
 .text.tolower  0x000000000001e996        0xe c:/program files/microchip/xc32/v4.60/bin/bin/../../lib/gcc/pic32c/8.3.1/../../../../pic32c/lib/thumb/v6-m/nofp\libg-musl.a(tolower.o)
                0x000000000001e996                tolower

.text.toupper%249
                0x000000000001e9a4        0xe
 .text.toupper  0x000000000001e9a4        0xe c:/program files/microchip/xc32/v4.60/bin/bin/../../lib/gcc/pic32c/8.3.1/../../../../pic32c/lib/thumb/v6-m/nofp\libg-musl.a(toupper.o)
                0x000000000001e9a4                toupper

.rodata%250     0x000000000001e9b2        0xc
 .rodata        0x000000000001e9b2        0xc c:/program files/microchip/xc32/v4.60/bin/bin/../../lib/gcc/pic32c/8.3.1/../../../../pic32c/lib/thumb/v6-m/nofp\libg-musl.a(__secs_to_tm.o)

.text.strcpy%251
                0x000000000001e9be        0xc
 .text.strcpy   0x000000000001e9be        0xc c:/program files/microchip/xc32/v4.60/bin/bin/../../lib/gcc/pic32c/8.3.1/../../../../pic32c/lib/thumb/v6-m/nofp\libc-size-musl.a(strcpy.o)
                0x000000000001e9be                strcpy

.text.__fwrite_min%252
                0x000000000001e9ca        0xa
 .text.__fwrite_min
                0x000000000001e9ca        0xa c:/program files/microchip/xc32/v4.60/bin/bin/../../lib/gcc/pic32c/8.3.1/../../../../pic32c/lib/thumb/v6-m/nofp\libg-musl.a(__out.o)
                0x000000000001e9ca                __stdio_write_unbuffered
                0x000000000001e9ca                __stdio_write

.rodata.str1.1%253
                0x000000000001e9d4        0x8
 .rodata.str1.1
                0x000000000001e9d4        0x8 c:/program files/microchip/xc32/v4.60/bin/bin/../../lib/gcc/pic32c/8.3.1/../../../../pic32c/lib/thumb/v6-m/nofp\libg-musl.a(__printf_core.o)

.text.putc%254  0x000000000001e9dc        0x8
 .text.putc     0x000000000001e9dc        0x8 c:/program files/microchip/xc32/v4.60/bin/bin/../../lib/gcc/pic32c/8.3.1/../../../../pic32c/lib/thumb/v6-m/nofp\libg-musl.a(putc.o)
                0x000000000001e9dc                putc
                0x000000000001e9dc                fputc
                0x000000000001e9dc                _IO_putc
                0x000000000001e9dc                putc_unlocked

.text.__get_stdout%255
                0x000000000001e9e4        0x8
 .text.__get_stdout
                0x000000000001e9e4        0x8 c:/program files/microchip/xc32/v4.60/bin/bin/../../lib/gcc/pic32c/8.3.1/../../../../pic32c/lib/thumb/v6-m/nofp\libg-musl.a(__stdout.o)
                0x000000000001e9e4                __get_stdout
                0x000000000001e9e4                __init_stdout_needed

.rodata.str1.1%256
                0x000000000001e9ec        0x7
 .rodata.str1.1
                0x000000000001e9ec        0x7 c:/program files/microchip/xc32/v4.60/bin/bin/../../lib/gcc/pic32c/8.3.1/../../../../pic32c/lib/thumb/v6-m/nofp\libg-musl.a(__fmt_s.o)

.text.close%257
                0x000000000001e9f4        0x6
 .text.close    0x000000000001e9f4        0x6 c:/program files/microchip/xc32/v4.60/bin/bin/../../lib/gcc/pic32c/8.3.1/../../../../pic32c/lib/thumb/v6-m/nofp\libpic32c.a(close.o)
                0x000000000001e9f4                close

.text.__dummy_decompress%258
                0x000000000001e9fa        0x4
 .text.__dummy_decompress
                0x000000000001e9fa        0x4 c:/program files/microchip/xc32/v4.60/bin/bin/../../lib/gcc/pic32c/8.3.1/../../../../pic32c/lib/thumb/v6-m/nofp\libpic32c.a(data_init.o)
                0x000000000001e9fa                __dinit_decompress
                0x000000000001e9fa                __dinit_copy_val_data
                0x000000000001e9fa                __dinit_copy_emb

.text.__dummy_fmt3%259
                0x000000000001e9fe        0x4
 .text.__dummy_fmt3
                0x000000000001e9fe        0x4 c:/program files/microchip/xc32/v4.60/bin/bin/../../lib/gcc/pic32c/8.3.1/../../../../pic32c/lib/thumb/v6-m/nofp\libg-musl.a(__printf_core.o)
                0x000000000001e9fe                __fmt_o

.text.__dummy_fmt4%260
                0x000000000001ea02        0x4
 .text.__dummy_fmt4
                0x000000000001ea02        0x4 c:/program files/microchip/xc32/v4.60/bin/bin/../../lib/gcc/pic32c/8.3.1/../../../../pic32c/lib/thumb/v6-m/nofp\libg-musl.a(__printf_core.o)
                0x000000000001ea02                __fmt_a

.text.__dummy%261
                0x000000000001ea06        0x4
 .text.__dummy  0x000000000001ea06        0x4 c:/program files/microchip/xc32/v4.60/bin/bin/../../lib/gcc/pic32c/8.3.1/../../../../pic32c/lib/thumb/v6-m/nofp\libg-musl.a(stdin.o)
                0x000000000001ea06                __stdio_seek_rw

.rodata.str1.1%262
                0x000000000001ea0a        0x4
 .rodata.str1.1
                0x000000000001ea0a        0x4 c:/program files/microchip/xc32/v4.60/bin/bin/../../lib/gcc/pic32c/8.3.1/../../../../pic32c/lib/thumb/v6-m/nofp\libg-musl.a(gmtime_r.o)

.rodata.str1.1%263
                0x000000000001ea0e        0x4
 .rodata.str1.1
                0x000000000001ea0e        0x4 c:/program files/microchip/xc32/v4.60/bin/bin/../../lib/gcc/pic32c/8.3.1/../../../../pic32c/lib/thumb/v6-m/nofp\libg-musl.a(mktime.o)

.text%264       0x000000000001ea14        0x4
 .text          0x000000000001ea14        0x4 c:/program files/microchip/xc32/v4.60/bin/bin/../../lib/gcc/pic32c/8.3.1/thumb/v6-m/nofp\libgcc.a(_dvmd_tls.o)
                0x000000000001ea14                __aeabi_idiv0
                0x000000000001ea14                __aeabi_ldiv0

.text.lseek%265
                0x000000000001ea18        0x4
 .text.lseek    0x000000000001ea18        0x4 c:/program files/microchip/xc32/v4.60/bin/bin/../../lib/gcc/pic32c/8.3.1/../../../../pic32c/lib/thumb/v6-m/nofp\libpic32c.a(lseek.o)
                0x000000000001ea18                lseek

.text%266       0x00000000000137ae        0x2
 .text          0x00000000000137ae        0x2 build/SAMD21_IOT_WG_ICM42688/debug/_ext/1832905403/interrupts.o
                0x00000000000137ae                SVCall_Handler
                0x00000000000137ae                AC_Handler
                0x00000000000137ae                SysTick_Handler
                0x00000000000137ae                PendSV_Handler
                0x00000000000137ae                ADC_Handler
                0x00000000000137ae                TCC1_Handler
                0x00000000000137ae                TCC0_Handler
                0x00000000000137ae                RTC_Handler
                0x00000000000137ae                WDT_Handler
                0x00000000000137ae                USB_Handler
                0x00000000000137ae                Dummy_Handler
                0x00000000000137ae                PM_Handler
                0x00000000000137ae                TCC2_Handler
                0x00000000000137ae                EVSYS_Handler
                0x00000000000137ae                SERCOM3_Handler
                0x00000000000137ae                SERCOM4_Handler
                0x00000000000137ae                I2S_Handler
                0x00000000000137ae                NVMCTRL_Handler
                0x00000000000137ae                SERCOM0_Handler
                0x00000000000137ae                DAC_Handler
                0x00000000000137ae                PTC_Handler
                0x00000000000137ae                TC5_Handler
                0x00000000000137ae                SYSCTRL_Handler

.text%267       0x0000000000019e1a        0x2
 .text          0x0000000000019e1a        0x2 build/SAMD21_IOT_WG_ICM42688/debug/_ext/1832905403/startup_xc32.o
                0x0000000000019e1a                _on_reset
                0x0000000000019e1a                _on_bootstrap
                0x0000000000019e1a                __xc32_on_reset
                0x0000000000019e1a                Dummy_App_Func
                0x0000000000019e1a                __xc32_on_bootstrap

.text.__dummy_init_tls%268
                0x000000000001b1ee        0x2
 .text.__dummy_init_tls
                0x000000000001b1ee        0x2 c:/program files/microchip/xc32/v4.60/bin/bin/../../lib/gcc/pic32c/8.3.1/../../../../pic32c/lib/thumb/v6-m/nofp\libpic32c.a(data_init.o)
                0x000000000001b1ee                xc32_init_tls

.text.__dummy%269
                0x000000000001ba12        0x2
 .text.__dummy  0x000000000001ba12        0x2 c:/program files/microchip/xc32/v4.60/bin/bin/../../lib/gcc/pic32c/8.3.1/../../../../pic32c/lib/thumb/v6-m/nofp\libg-musl.a(__libc_start_main.o)
                0x000000000001ba12                __init_host

.text.__dummy%270
                0x000000000001c2e6        0x2
 .text.__dummy  0x000000000001c2e6        0x2 c:/program files/microchip/xc32/v4.60/bin/bin/../../lib/gcc/pic32c/8.3.1/../../../../pic32c/lib/thumb/v6-m/nofp\libg-musl.a(__init_stdio.o)
                0x000000000001c2e6                __init_stdin
                0x000000000001c2e6                __init_stderr

.text.__dummy%271
                0x000000000001c6ce        0x2
 .text.__dummy  0x000000000001c6ce        0x2 c:/program files/microchip/xc32/v4.60/bin/bin/../../lib/gcc/pic32c/8.3.1/../../../../pic32c/lib/thumb/v6-m/nofp\libg-musl.a(__stderr.o)
                0x000000000001c6ce                __stdio_seek
