Archive member included to satisfy reference by file (symbol)

c:/program files/microchip/xc32/v4.60/bin/bin/../../lib/gcc/pic32c/8.3.1/../../../../pic32c/lib/thumb/v6-m/nofp\libpic32c.a(data_init.o)
                              build/samd21IOT_winc1500/production/_ext/2058341299/startup_xc32.o (__pic32c_data_initialization)
c:/program files/microchip/xc32/v4.60/bin/bin/../../lib/gcc/pic32c/8.3.1/../../../../pic32c/lib/thumb/v6-m/nofp\libc-size-musl.a(memcpy.o)
                              build/samd21IOT_winc1500/production/_ext/284355797/wdrv_winc_spi.o (memcpy)
c:/program files/microchip/xc32/v4.60/bin/bin/../../lib/gcc/pic32c/8.3.1/../../../../pic32c/lib/thumb/v6-m/nofp\libc-size-musl.a(memset.o)
                              build/samd21IOT_winc1500/production/_ext/881504404/m2m_wifi.o (memset)
c:/program files/microchip/xc32/v4.60/bin/bin/../../lib/gcc/pic32c/8.3.1/../../../../pic32c/lib/thumb/v6-m/nofp\libc-size-musl.a(strlen.o)
                              build/samd21IOT_winc1500/production/_ext/881504404/m2m_wifi.o (strlen)
c:/program files/microchip/xc32/v4.60/bin/bin/../../lib/gcc/pic32c/8.3.1/../../../../pic32c/lib/thumb/v6-m/nofp\libc-size-musl.a(strchr.o)
                              build/samd21IOT_winc1500/production/_ext/1235514674/wdrv_winc_authctx.o (strchr)
c:/program files/microchip/xc32/v4.60/bin/bin/../../lib/gcc/pic32c/8.3.1/../../../../pic32c/lib/thumb/v6-m/nofp\libc-size-musl.a(strchrnul.o)
                              c:/program files/microchip/xc32/v4.60/bin/bin/../../lib/gcc/pic32c/8.3.1/../../../../pic32c/lib/thumb/v6-m/nofp\libc-size-musl.a(strchr.o) (__strchrnul)
c:/program files/microchip/xc32/v4.60/bin/bin/../../lib/gcc/pic32c/8.3.1/../../../../pic32c/lib/thumb/v6-m/nofp\libc-size-musl.a(strnlen.o)
                              build/samd21IOT_winc1500/production/_ext/881504404/m2m_ota.o (strnlen)
c:/program files/microchip/xc32/v4.60/bin/bin/../../lib/gcc/pic32c/8.3.1/../../../../pic32c/lib/thumb/v6-m/nofp\libc-size-musl.a(memchr.o)
                              c:/program files/microchip/xc32/v4.60/bin/bin/../../lib/gcc/pic32c/8.3.1/../../../../pic32c/lib/thumb/v6-m/nofp\libc-size-musl.a(strnlen.o) (memchr)
c:/program files/microchip/xc32/v4.60/bin/bin/../../lib/gcc/pic32c/8.3.1/../../../../pic32c/lib/thumb/v6-m/nofp\liblmalloc-musl.a(lite_free.o)
                              build/samd21IOT_winc1500/production/_ext/881504404/m2m_wifi.o (free)
c:/program files/microchip/xc32/v4.60/bin/bin/../../lib/gcc/pic32c/8.3.1/../../../../pic32c/lib/thumb/v6-m/nofp\liblmalloc-musl.a(lite_malloc.o)
                              build/samd21IOT_winc1500/production/_ext/881504404/m2m_wifi.o (malloc)
c:/program files/microchip/xc32/v4.60/bin/bin/../../lib/gcc/pic32c/8.3.1/../../../../pic32c/lib/thumb/v6-m/nofp\libc-musl.a(__libc_start_main.o)
                              build/samd21IOT_winc1500/production/_ext/2058341299/startup_xc32.o (__libc_init_array)
c:/program files/microchip/xc32/v4.60/bin/bin/../../lib/gcc/pic32c/8.3.1/../../../../pic32c/lib/thumb/v6-m/nofp\libc-musl.a(__errno_location.o)
                              c:/program files/microchip/xc32/v4.60/bin/bin/../../lib/gcc/pic32c/8.3.1/../../../../pic32c/lib/thumb/v6-m/nofp\liblmalloc-musl.a(lite_malloc.o) (__errno_val)
c:/program files/microchip/xc32/v4.60/bin/bin/../../lib/gcc/pic32c/8.3.1/../../../../pic32c/lib/thumb/v6-m/nofp\libc-musl.a(libc.o)
                              c:/program files/microchip/xc32/v4.60/bin/bin/../../lib/gcc/pic32c/8.3.1/../../../../pic32c/lib/thumb/v6-m/nofp\libc-musl.a(__libc_start_main.o) (__progname_full)
c:/program files/microchip/xc32/v4.60/bin/bin/../../lib/gcc/pic32c/8.3.1/../../../../pic32c/lib/thumb/v6-m/nofp\libc-musl.a(expand_heap.o)
                              c:/program files/microchip/xc32/v4.60/bin/bin/../../lib/gcc/pic32c/8.3.1/../../../../pic32c/lib/thumb/v6-m/nofp\liblmalloc-musl.a(lite_malloc.o) (__expand_heap)
c:/program files/microchip/xc32/v4.60/bin/bin/../../lib/gcc/pic32c/8.3.1/../../../../pic32c/lib/thumb/v6-m/nofp\libc-musl.a(vsnprintf.o)
                              build/samd21IOT_winc1500/production/_ext/106321624/sys_console.o (vsnprintf)
c:/program files/microchip/xc32/v4.60/bin/bin/../../lib/gcc/pic32c/8.3.1/../../../../pic32c/lib/thumb/v6-m/nofp\libc-musl.a(sprintf.o)
                              (sprintf)
c:/program files/microchip/xc32/v4.60/bin/bin/../../lib/gcc/pic32c/8.3.1/../../../../pic32c/lib/thumb/v6-m/nofp\libc-musl.a(vsprintf.o)
                              c:/program files/microchip/xc32/v4.60/bin/bin/../../lib/gcc/pic32c/8.3.1/../../../../pic32c/lib/thumb/v6-m/nofp\libc-musl.a(sprintf.o) (vsprintf)
c:/program files/microchip/xc32/v4.60/bin/bin/../../lib/gcc/pic32c/8.3.1/../../../../pic32c/lib/thumb/v6-m/nofp\libc-musl.a(gmtime.o)
                              build/samd21IOT_winc1500/production/_ext/1235514674/wdrv_winc_systime.o (gmtime)
c:/program files/microchip/xc32/v4.60/bin/bin/../../lib/gcc/pic32c/8.3.1/../../../../pic32c/lib/thumb/v6-m/nofp\libc-musl.a(gmtime_r.o)
                              c:/program files/microchip/xc32/v4.60/bin/bin/../../lib/gcc/pic32c/8.3.1/../../../../pic32c/lib/thumb/v6-m/nofp\libc-musl.a(gmtime.o) (__gmtime_r)
c:/program files/microchip/xc32/v4.60/bin/bin/../../lib/gcc/pic32c/8.3.1/../../../../pic32c/lib/thumb/v6-m/nofp\libc-musl.a(mktime.o)
                              build/samd21IOT_winc1500/production/_ext/1235514674/wdrv_winc_systime.o (mktime)
c:/program files/microchip/xc32/v4.60/bin/bin/../../lib/gcc/pic32c/8.3.1/../../../../pic32c/lib/thumb/v6-m/nofp\libc-musl.a(__environ.o)
                              c:/program files/microchip/xc32/v4.60/bin/bin/../../lib/gcc/pic32c/8.3.1/../../../../pic32c/lib/thumb/v6-m/nofp\libc-musl.a(__libc_start_main.o) (__environ)
c:/program files/microchip/xc32/v4.60/bin/bin/../../lib/gcc/pic32c/8.3.1/../../../../pic32c/lib/thumb/v6-m/nofp\libc-musl.a(vfprintf.o)
                              c:/program files/microchip/xc32/v4.60/bin/bin/../../lib/gcc/pic32c/8.3.1/../../../../pic32c/lib/thumb/v6-m/nofp\libc-musl.a(vsnprintf.o) (vfprintf)
c:/program files/microchip/xc32/v4.60/bin/bin/../../lib/gcc/pic32c/8.3.1/../../../../pic32c/lib/thumb/v6-m/nofp\libc-musl.a(__tm_to_secs.o)
                              c:/program files/microchip/xc32/v4.60/bin/bin/../../lib/gcc/pic32c/8.3.1/../../../../pic32c/lib/thumb/v6-m/nofp\libc-musl.a(mktime.o) (__tm_to_secs)
c:/program files/microchip/xc32/v4.60/bin/bin/../../lib/gcc/pic32c/8.3.1/../../../../pic32c/lib/thumb/v6-m/nofp\libc-musl.a(__year_to_secs.o)
                              c:/program files/microchip/xc32/v4.60/bin/bin/../../lib/gcc/pic32c/8.3.1/../../../../pic32c/lib/thumb/v6-m/nofp\libc-musl.a(__tm_to_secs.o) (__year_to_secs)
c:/program files/microchip/xc32/v4.60/bin/bin/../../lib/gcc/pic32c/8.3.1/../../../../pic32c/lib/thumb/v6-m/nofp\libc-musl.a(__secs_to_tm.o)
                              c:/program files/microchip/xc32/v4.60/bin/bin/../../lib/gcc/pic32c/8.3.1/../../../../pic32c/lib/thumb/v6-m/nofp\libc-musl.a(gmtime_r.o) (__secs_to_tm)
c:/program files/microchip/xc32/v4.60/bin/bin/../../lib/gcc/pic32c/8.3.1/../../../../pic32c/lib/thumb/v6-m/nofp\libc-musl.a(__io_fmt_needed.o)
                              c:/program files/microchip/xc32/v4.60/bin/bin/../../lib/gcc/pic32c/8.3.1/../../../../pic32c/lib/thumb/v6-m/nofp\libc-musl.a(vfprintf.o) (__io_fmt_needed)
c:/program files/microchip/xc32/v4.60/bin/bin/../../lib/gcc/pic32c/8.3.1/../../../../pic32c/lib/thumb/v6-m/nofp\libc-musl.a(__pop_float.o)
                              c:/program files/microchip/xc32/v4.60/bin/bin/../../lib/gcc/pic32c/8.3.1/../../../../pic32c/lib/thumb/v6-m/nofp\libc-musl.a(__io_fmt_needed.o) (__pop_float_needed)
c:/program files/microchip/xc32/v4.60/bin/bin/../../lib/gcc/pic32c/8.3.1/../../../../pic32c/lib/thumb/v6-m/nofp\libc-musl.a(__pop_int.o)
                              c:/program files/microchip/xc32/v4.60/bin/bin/../../lib/gcc/pic32c/8.3.1/../../../../pic32c/lib/thumb/v6-m/nofp\libc-musl.a(__io_fmt_needed.o) (__pop_int_needed)
c:/program files/microchip/xc32/v4.60/bin/bin/../../lib/gcc/pic32c/8.3.1/../../../../pic32c/lib/thumb/v6-m/nofp\libc-musl.a(__pop_ptr.o)
                              c:/program files/microchip/xc32/v4.60/bin/bin/../../lib/gcc/pic32c/8.3.1/../../../../pic32c/lib/thumb/v6-m/nofp\libc-musl.a(__io_fmt_needed.o) (__pop_ptr_needed)
c:/program files/microchip/xc32/v4.60/bin/bin/../../lib/gcc/pic32c/8.3.1/../../../../pic32c/lib/thumb/v6-m/nofp\libc-musl.a(__printf_core.o)
                              c:/program files/microchip/xc32/v4.60/bin/bin/../../lib/gcc/pic32c/8.3.1/../../../../pic32c/lib/thumb/v6-m/nofp\libc-musl.a(vfprintf.o) (__printf_core)
c:/program files/microchip/xc32/v4.60/bin/bin/../../lib/gcc/pic32c/8.3.1/../../../../pic32c/lib/thumb/v6-m/nofp\libc-musl.a(atoi.o)
                              c:/program files/microchip/xc32/v4.60/bin/bin/../../lib/gcc/pic32c/8.3.1/../../../../pic32c/lib/thumb/v6-m/nofp\libc-musl.a(__printf_core.o) (atoi)
c:/program files/microchip/xc32/v4.60/bin/bin/../../lib/gcc/pic32c/8.3.1/../../../../pic32c/lib/thumb/v6-m/nofp\libc-musl.a(__month_to_secs.o)
                              c:/program files/microchip/xc32/v4.60/bin/bin/../../lib/gcc/pic32c/8.3.1/../../../../pic32c/lib/thumb/v6-m/nofp\libc-musl.a(__tm_to_secs.o) (__month_to_secs)
c:/program files/microchip/xc32/v4.60/bin/bin/../../lib/gcc/pic32c/8.3.1/../../../../pic32c/lib/thumb/v6-m/nofp\libc-musl.a(tolower.o)
                              c:/program files/microchip/xc32/v4.60/bin/bin/../../lib/gcc/pic32c/8.3.1/../../../../pic32c/lib/thumb/v6-m/nofp\libc-musl.a(__printf_core.o) (tolower)
c:/program files/microchip/xc32/v4.60/bin/bin/../../lib/gcc/pic32c/8.3.1/../../../../pic32c/lib/thumb/v6-m/nofp\libc-musl.a(__fmt_a.o)
                              c:/program files/microchip/xc32/v4.60/bin/bin/../../lib/gcc/pic32c/8.3.1/../../../../pic32c/lib/thumb/v6-m/nofp\libc-musl.a(__io_fmt_needed.o) (__fmt_a_needed)
c:/program files/microchip/xc32/v4.60/bin/bin/../../lib/gcc/pic32c/8.3.1/../../../../pic32c/lib/thumb/v6-m/nofp\libc-musl.a(__fmt_d.o)
                              c:/program files/microchip/xc32/v4.60/bin/bin/../../lib/gcc/pic32c/8.3.1/../../../../pic32c/lib/thumb/v6-m/nofp\libc-musl.a(__io_fmt_needed.o) (__fmt_d_needed)
c:/program files/microchip/xc32/v4.60/bin/bin/../../lib/gcc/pic32c/8.3.1/../../../../pic32c/lib/thumb/v6-m/nofp\libc-musl.a(__fmt_fp.o)
                              c:/program files/microchip/xc32/v4.60/bin/bin/../../lib/gcc/pic32c/8.3.1/../../../../pic32c/lib/thumb/v6-m/nofp\libc-musl.a(__io_fmt_needed.o) (__fmt_f_needed)
c:/program files/microchip/xc32/v4.60/bin/bin/../../lib/gcc/pic32c/8.3.1/../../../../pic32c/lib/thumb/v6-m/nofp\libc-musl.a(__fmt_o.o)
                              c:/program files/microchip/xc32/v4.60/bin/bin/../../lib/gcc/pic32c/8.3.1/../../../../pic32c/lib/thumb/v6-m/nofp\libc-musl.a(__io_fmt_needed.o) (__fmt_o_needed)
c:/program files/microchip/xc32/v4.60/bin/bin/../../lib/gcc/pic32c/8.3.1/../../../../pic32c/lib/thumb/v6-m/nofp\libc-musl.a(__fmt_s.o)
                              c:/program files/microchip/xc32/v4.60/bin/bin/../../lib/gcc/pic32c/8.3.1/../../../../pic32c/lib/thumb/v6-m/nofp\libc-musl.a(__io_fmt_needed.o) (__fmt_s_needed)
c:/program files/microchip/xc32/v4.60/bin/bin/../../lib/gcc/pic32c/8.3.1/../../../../pic32c/lib/thumb/v6-m/nofp\libc-musl.a(__fmt_u.o)
                              c:/program files/microchip/xc32/v4.60/bin/bin/../../lib/gcc/pic32c/8.3.1/../../../../pic32c/lib/thumb/v6-m/nofp\libc-musl.a(__io_fmt_needed.o) (__fmt_u_needed)
c:/program files/microchip/xc32/v4.60/bin/bin/../../lib/gcc/pic32c/8.3.1/../../../../pic32c/lib/thumb/v6-m/nofp\libc-musl.a(__fmt_x.o)
                              c:/program files/microchip/xc32/v4.60/bin/bin/../../lib/gcc/pic32c/8.3.1/../../../../pic32c/lib/thumb/v6-m/nofp\libc-musl.a(__io_fmt_needed.o) (__fmt_x_needed)
c:/program files/microchip/xc32/v4.60/bin/bin/../../lib/gcc/pic32c/8.3.1/../../../../pic32c/lib/thumb/v6-m/nofp\libc-musl.a(toupper.o)
                              c:/program files/microchip/xc32/v4.60/bin/bin/../../lib/gcc/pic32c/8.3.1/../../../../pic32c/lib/thumb/v6-m/nofp\libc-musl.a(__fmt_a.o) (toupper)
c:/program files/microchip/xc32/v4.60/bin/bin/../../lib/gcc/pic32c/8.3.1/../../../../pic32c/lib/thumb/v6-m/nofp\libc-musl.a(__cvt_u.o)
                              c:/program files/microchip/xc32/v4.60/bin/bin/../../lib/gcc/pic32c/8.3.1/../../../../pic32c/lib/thumb/v6-m/nofp\libc-musl.a(__fmt_d.o) (__cvt_u)
c:/program files/microchip/xc32/v4.60/bin/bin/../../lib/gcc/pic32c/8.3.1/../../../../pic32c/lib/thumb/v6-m/nofp\libm-fast-emfloat.a(fma.o)
                              c:/program files/microchip/xc32/v4.60/bin/bin/../../lib/gcc/pic32c/8.3.1/../../../../pic32c/lib/thumb/v6-m/nofp\libc-musl.a(__fmt_fp.o) (fma)
c:/program files/microchip/xc32/v4.60/bin/bin/../../lib/gcc/pic32c/8.3.1/../../../../pic32c/lib/thumb/v6-m/nofp\libm-fast-emfloat.a(floor.o)
                              c:/program files/microchip/xc32/v4.60/bin/bin/../../lib/gcc/pic32c/8.3.1/../../../../pic32c/lib/thumb/v6-m/nofp\libc-musl.a(__fmt_a.o) (floor)
c:/program files/microchip/xc32/v4.60/bin/bin/../../lib/gcc/pic32c/8.3.1/../../../../pic32c/lib/thumb/v6-m/nofp\libm-fast-emfloat.a(__aeabi_dadd.o)
                              c:/program files/microchip/xc32/v4.60/bin/bin/../../lib/gcc/pic32c/8.3.1/../../../../pic32c/lib/thumb/v6-m/nofp\libc-musl.a(__fmt_a.o) (__aeabi_dadd)
c:/program files/microchip/xc32/v4.60/bin/bin/../../lib/gcc/pic32c/8.3.1/../../../../pic32c/lib/thumb/v6-m/nofp\libm-fast-emfloat.a(__aeabi_dsub.o)
                              c:/program files/microchip/xc32/v4.60/bin/bin/../../lib/gcc/pic32c/8.3.1/../../../../pic32c/lib/thumb/v6-m/nofp\libc-musl.a(__fmt_a.o) (__aeabi_dsub)
c:/program files/microchip/xc32/v4.60/bin/bin/../../lib/gcc/pic32c/8.3.1/../../../../pic32c/lib/thumb/v6-m/nofp\libm-fast-emfloat.a(__aeabi_dmul_aux.o)
                              c:/program files/microchip/xc32/v4.60/bin/bin/../../lib/gcc/pic32c/8.3.1/../../../../pic32c/lib/thumb/v6-m/nofp\libc-musl.a(__fmt_a.o) (__aeabi_dmul)
c:/program files/microchip/xc32/v4.60/bin/bin/../../lib/gcc/pic32c/8.3.1/../../../../pic32c/lib/thumb/v6-m/nofp\libm-fast-emfloat.a(__aeabi_ddiv.o)
                              c:/program files/microchip/xc32/v4.60/bin/bin/../../lib/gcc/pic32c/8.3.1/../../../../pic32c/lib/thumb/v6-m/nofp\libc-musl.a(__fmt_a.o) (__aeabi_ddiv)
c:/program files/microchip/xc32/v4.60/bin/bin/../../lib/gcc/pic32c/8.3.1/../../../../pic32c/lib/thumb/v6-m/nofp\libm-fast-emfloat.a(__aeabi_dcmple.o)
                              c:/program files/microchip/xc32/v4.60/bin/bin/../../lib/gcc/pic32c/8.3.1/../../../../pic32c/lib/thumb/v6-m/nofp\libc-musl.a(__fmt_fp.o) (__aeabi_dcmple)
c:/program files/microchip/xc32/v4.60/bin/bin/../../lib/gcc/pic32c/8.3.1/../../../../pic32c/lib/thumb/v6-m/nofp\libm-fast-emfloat.a(__aeabi_dcmpeq.o)
                              c:/program files/microchip/xc32/v4.60/bin/bin/../../lib/gcc/pic32c/8.3.1/../../../../pic32c/lib/thumb/v6-m/nofp\libc-musl.a(__fmt_a.o) (__aeabi_dcmpeq)
c:/program files/microchip/xc32/v4.60/bin/bin/../../lib/gcc/pic32c/8.3.1/../../../../pic32c/lib/thumb/v6-m/nofp\libm-fast-emfloat.a(__aeabi_dcmpgt.o)
                              c:/program files/microchip/xc32/v4.60/bin/bin/../../lib/gcc/pic32c/8.3.1/../../../../pic32c/lib/thumb/v6-m/nofp\libc-musl.a(__fmt_fp.o) (__aeabi_dcmpgt)
c:/program files/microchip/xc32/v4.60/bin/bin/../../lib/gcc/pic32c/8.3.1/../../../../pic32c/lib/thumb/v6-m/nofp\libm-fast-emfloat.a(__aeabi_dcmplt.o)
                              c:/program files/microchip/xc32/v4.60/bin/bin/../../lib/gcc/pic32c/8.3.1/../../../../pic32c/lib/thumb/v6-m/nofp\libc-musl.a(__fmt_a.o) (__aeabi_dcmplt)
c:/program files/microchip/xc32/v4.60/bin/bin/../../lib/gcc/pic32c/8.3.1/../../../../pic32c/lib/thumb/v6-m/nofp\libm-fast-emfloat.a(__aeabi_d2iz.o)
                              c:/program files/microchip/xc32/v4.60/bin/bin/../../lib/gcc/pic32c/8.3.1/../../../../pic32c/lib/thumb/v6-m/nofp\libc-musl.a(__fmt_a.o) (__aeabi_d2iz)
c:/program files/microchip/xc32/v4.60/bin/bin/../../lib/gcc/pic32c/8.3.1/../../../../pic32c/lib/thumb/v6-m/nofp\libm-fast-emfloat.a(__aeabi_d2uiz.o)
                              c:/program files/microchip/xc32/v4.60/bin/bin/../../lib/gcc/pic32c/8.3.1/../../../../pic32c/lib/thumb/v6-m/nofp\libm-fast-emfloat.a(__aeabi_d2iz.o) (.L__aeabi_d2uiz_fast_entry)
c:/program files/microchip/xc32/v4.60/bin/bin/../../lib/gcc/pic32c/8.3.1/thumb/v6-m/nofp\libgcc.a(_udivsi3.o)
                              build/samd21IOT_winc1500/production/_ext/455027017/inet_ntop.o (__aeabi_uidiv)
c:/program files/microchip/xc32/v4.60/bin/bin/../../lib/gcc/pic32c/8.3.1/thumb/v6-m/nofp\libgcc.a(_divsi3.o)
                              c:/program files/microchip/xc32/v4.60/bin/bin/../../lib/gcc/pic32c/8.3.1/../../../../pic32c/lib/thumb/v6-m/nofp\libc-musl.a(__tm_to_secs.o) (__aeabi_idiv)
c:/program files/microchip/xc32/v4.60/bin/bin/../../lib/gcc/pic32c/8.3.1/thumb/v6-m/nofp\libgcc.a(_dvmd_tls.o)
                              c:/program files/microchip/xc32/v4.60/bin/bin/../../lib/gcc/pic32c/8.3.1/thumb/v6-m/nofp\libgcc.a(_udivsi3.o) (__aeabi_idiv0)
c:/program files/microchip/xc32/v4.60/bin/bin/../../lib/gcc/pic32c/8.3.1/thumb/v6-m/nofp\libgcc.a(_aeabi_ldivmod.o)
                              c:/program files/microchip/xc32/v4.60/bin/bin/../../lib/gcc/pic32c/8.3.1/../../../../pic32c/lib/thumb/v6-m/nofp\libc-musl.a(__year_to_secs.o) (__aeabi_ldivmod)
c:/program files/microchip/xc32/v4.60/bin/bin/../../lib/gcc/pic32c/8.3.1/thumb/v6-m/nofp\libgcc.a(_aeabi_uldivmod.o)
                              build/samd21IOT_winc1500/production/_ext/1207737362/plib_sercom5_usart.o (__aeabi_uldivmod)
c:/program files/microchip/xc32/v4.60/bin/bin/../../lib/gcc/pic32c/8.3.1/thumb/v6-m/nofp\libgcc.a(_muldi3.o)
                              build/samd21IOT_winc1500/production/_ext/1207737362/plib_sercom5_usart.o (__aeabi_lmul)
c:/program files/microchip/xc32/v4.60/bin/bin/../../lib/gcc/pic32c/8.3.1/thumb/v6-m/nofp\libgcc.a(_udivmoddi4.o)
                              c:/program files/microchip/xc32/v4.60/bin/bin/../../lib/gcc/pic32c/8.3.1/thumb/v6-m/nofp\libgcc.a(_aeabi_uldivmod.o) (__udivmoddi4)
c:/program files/microchip/xc32/v4.60/bin/bin/../../lib/gcc/pic32c/8.3.1/thumb/v6-m/nofp\libgcc.a(bpabi.o)
                              c:/program files/microchip/xc32/v4.60/bin/bin/../../lib/gcc/pic32c/8.3.1/thumb/v6-m/nofp\libgcc.a(_aeabi_ldivmod.o) (__gnu_ldivmod_helper)
c:/program files/microchip/xc32/v4.60/bin/bin/../../lib/gcc/pic32c/8.3.1/thumb/v6-m/nofp\libgcc.a(_lshrdi3.o)
                              c:/program files/microchip/xc32/v4.60/bin/bin/../../lib/gcc/pic32c/8.3.1/thumb/v6-m/nofp\libgcc.a(_udivmoddi4.o) (__aeabi_llsr)
c:/program files/microchip/xc32/v4.60/bin/bin/../../lib/gcc/pic32c/8.3.1/thumb/v6-m/nofp\libgcc.a(_ashldi3.o)
                              c:/program files/microchip/xc32/v4.60/bin/bin/../../lib/gcc/pic32c/8.3.1/thumb/v6-m/nofp\libgcc.a(_udivmoddi4.o) (__aeabi_llsl)
c:/program files/microchip/xc32/v4.60/bin/bin/../../lib/gcc/pic32c/8.3.1/thumb/v6-m/nofp\libgcc.a(_clzdi2.o)
                              c:/program files/microchip/xc32/v4.60/bin/bin/../../lib/gcc/pic32c/8.3.1/thumb/v6-m/nofp\libgcc.a(_udivmoddi4.o) (__clzdi2)
c:/program files/microchip/xc32/v4.60/bin/bin/../../lib/gcc/pic32c/8.3.1/thumb/v6-m/nofp\libgcc.a(_divdi3.o)
                              c:/program files/microchip/xc32/v4.60/bin/bin/../../lib/gcc/pic32c/8.3.1/thumb/v6-m/nofp\libgcc.a(bpabi.o) (__divdi3)
c:/program files/microchip/xc32/v4.60/bin/bin/../../lib/gcc/pic32c/8.3.1/thumb/v6-m/nofp\libgcc.a(_clzsi2.o)
                              c:/program files/microchip/xc32/v4.60/bin/bin/../../lib/gcc/pic32c/8.3.1/thumb/v6-m/nofp\libgcc.a(_clzdi2.o) (__clzsi2)
c:/program files/microchip/xc32/v4.60/bin/bin/../../lib/gcc/pic32c/8.3.1/../../../../pic32c/lib/thumb/v6-m/nofp\libpic32c.a(sbrk.o)
                              c:/program files/microchip/xc32/v4.60/bin/bin/../../lib/gcc/pic32c/8.3.1/../../../../pic32c/lib/thumb/v6-m/nofp\liblmalloc-musl.a(lite_malloc.o) (_get_heap_left_space)
c:/program files/microchip/xc32/v4.60/bin/bin/../../lib/gcc/pic32c/8.3.1/../../../../pic32c/lib/thumb/v6-m/nofp\libc-size-musl.a(strcpy.o)
                              c:/program files/microchip/xc32/v4.60/bin/bin/../../lib/gcc/pic32c/8.3.1/../../../../pic32c/lib/thumb/v6-m/nofp\libc-musl.a(__fmt_a.o) (strcpy)
c:/program files/microchip/xc32/v4.60/bin/bin/../../lib/gcc/pic32c/8.3.1/../../../../pic32c/lib/thumb/v6-m/nofp\libc-size-musl.a(stpcpy.o)
                              c:/program files/microchip/xc32/v4.60/bin/bin/../../lib/gcc/pic32c/8.3.1/../../../../pic32c/lib/thumb/v6-m/nofp\libc-size-musl.a(strcpy.o) (__stpcpy)
c:/program files/microchip/xc32/v4.60/bin/bin/../../lib/gcc/pic32c/8.3.1/../../../../pic32c/lib/thumb/v6-m/nofp\libpic32c.a(pic32_data_init_clear.o)
                              (__dinit_clear_needed)
c:/program files/microchip/xc32/v4.60/bin/bin/../../lib/gcc/pic32c/8.3.1/../../../../pic32c/lib/thumb/v6-m/nofp\libpic32c.a(pic32_data_init_copy.o)
                              (__dinit_copy_needed)

Microchip PIC32 Memory-Usage Report

ROM Program-Memory Usage
section                    address  length [bytes]      (dec)  Description
-------                 ----------  -------------------------  -----------
.vectors                         0           0xb0         176   
.text                         0xb0           0x20          32  App's exec code 
.ARM.exidx                    0xd0           0x10          16   
.text                         0xe0         0x1910        6416  App's exec code 
.text                       0x19f0          0xf54        3924  App's exec code 
.text                       0x2944          0xf4c        3916  App's exec code 
.text                       0x3890          0xe34        3636  App's exec code 
.text                       0x46c4          0xab0        2736  App's exec code 
.text                       0x5174          0xa38        2616  App's exec code 
.text                       0x5bac          0x890        2192  App's exec code 
.text                       0x643c          0x850        2128  App's exec code 
.text                       0x6c8c          0x74c        1868  App's exec code 
.text                       0x73d8          0x6f8        1784  App's exec code 
.rodata.str1.4              0x7ad0          0x664        1636   
.text                       0x8134          0x654        1620  App's exec code 
.text                       0x8788          0x5d0        1488  App's exec code 
.text.__fmt_fp              0x8d58          0x4c0        1216   
.text                       0x9218          0x484        1156  App's exec code 
.text.__fmt_a               0x969c          0x484        1156   
.text                       0x9b20          0x444        1092  App's exec code 
.text                       0x9f64          0x428        1064  App's exec code 
.text                       0xa38c          0x40c        1036  App's exec code 
.text                       0xa798          0x40c        1036  App's exec code 
.text                       0xaba4          0x3fc        1020  App's exec code 
.text                       0xafa0          0x3ae         942  App's exec code 
.text                       0xb34e          0x392         914  App's exec code 
.rodata.str1.4              0xb6e0          0x37c         892   
.rodata.str1.4              0xba5c          0x35c         860   
.text.__printf_core         0xbdb8          0x33c         828   
.text                       0xc0f4          0x32c         812  App's exec code 
.text                       0xc420          0x324         804  App's exec code 
.text                       0xc744          0x314         788  App's exec code 
.text                       0xca58          0x2e4         740  App's exec code 
.rodata.str1.4              0xcd3c          0x2c4         708   
.text                       0xd000          0x248         584  App's exec code 
.dinit                      0xd248          0x200         512   
.text                       0xd448          0x1de         478  App's exec code 
.text                       0xd626            0x2           2  App's exec code 
.text.__secs_to_tm          0xd628          0x1dc         476   
.text.__aeabi_dadd          0xd804          0x1c8         456   
.text                       0xd9cc          0x1bc         444  App's exec code 
.text                       0xdb88          0x19c         412  App's exec code 
.text                       0xdd24          0x198         408  App's exec code 
.text.__aeabi_dmul_aux      0xdebc          0x18a         394   
.text                       0xe046          0x174         372  App's exec code 
.text                       0xe1ba            0x2           2  App's exec code 
.text                       0xe1bc          0x164         356  App's exec code 
.text                       0xe320          0x160         352  App's exec code 
.text                       0xe480          0x148         328  App's exec code 
.text                       0xe5c8          0x140         320  App's exec code 
.rodata                     0xe708          0x134         308  Read-only const 
.text.__fmt_x               0xe83c          0x132         306   
.text                       0xe96e          0x130         304  App's exec code 
.text                       0xea9e            0x2           2  App's exec code 
.text                       0xeaa0          0x12c         300  App's exec code 
.rodata.str1.4              0xebcc          0x124         292   
.text                       0xecf0          0x110         272  App's exec code 
.text                       0xee00          0x110         272  App's exec code 
.rodata.str1.4              0xef10          0x10c         268   
.rodata                     0xf01c          0x100         256  Read-only const 
.text.__year_to_secs        0xf11c          0x100         256   
.text                       0xf21c           0xf8         248  App's exec code 
.text                       0xf314           0xf8         248  App's exec code 
.rodata.str1.4              0xf40c           0xf0         240   
.rodata                     0xf4fc           0xec         236  Read-only const 
.text                       0xf5e8           0xe8         232  App's exec code 
.text                       0xf6d0           0xe2         226  App's exec code 
.text                       0xf7b2            0x2           2  App's exec code 
.rodata.str1.4              0xf7b4           0xdc         220   
.text                       0xf890           0xdc         220  App's exec code 
.rodata.str1.4              0xf96c           0xd4         212   
.rodata.str1.4              0xfa40           0xd4         212   
.text.__aeabi_ddiv          0xfb14           0xc4         196   
.text                       0xfbd8           0xc0         192  App's exec code 
.text.__pop_int             0xfc98           0xbe         190   
.text.__dummy_init_tls      0xfd56            0x2           2   
.text.floor                 0xfd58           0xb4         180   
.text.__fmt_d               0xfe0c           0xb2         178   
.text.__dummy               0xfebe            0x2           2   
.text                       0xfec0           0xa8         168  App's exec code 
.text                       0xff68           0xa4         164  App's exec code 
.text.__tm_to_secs         0x1000c           0xa0         160   
.text                      0x100ac           0x9c         156  App's exec code 
.text                      0x10148           0x8c         140  App's exec code 
.text.__simple_search_f    0x101d4           0x80         128   
.text                      0x10254           0x7c         124  App's exec code 
.text.__pad                0x102d0           0x7a         122   
.text.__cvt_u              0x1034a           0x76         118   
.rodata.str1.4             0x103c0           0x74         116   
.rodata.str1.4             0x10434           0x74         116   
.text                      0x104a8           0x70         112  App's exec code 
.text.__fmt_o              0x10518           0x6e         110   
.text                      0x10588           0x6c         108  App's exec code 
.text                      0x105f4           0x6a         106  App's exec code 
.text                      0x1065e           0x68         104  App's exec code 
.text.__pop_ptr            0x106c6           0x68         104   
.text.__simple_malloc      0x10730           0x64         100   
.text.vsnprintf            0x10794           0x64         100   
.text                      0x107f8           0x60          96  App's exec code 
.text.__strchrnul          0x10858           0x60          96   
.text.__libc_start_init    0x108b8           0x5c          92   
.rodata                    0x10914           0x58          88  Read-only const 
.text.__fmt_u              0x1096c           0x56          86   
.text.__fmt_s              0x109c4           0x50          80   
.text._sbrk                0x10a14           0x50          80   
.text                      0x10a64           0x48          72  App's exec code 
.text.Reset_Handler        0x10aac           0x48          72   
.text.mktime               0x10af4           0x48          72   
.text                      0x10b3c           0x48          72  App's exec code 
.text                      0x10b84           0x44          68  App's exec code 
.text.__aeabi_dcmple       0x10bc8           0x44          68   
.text                      0x10c0c           0x44          68  App's exec code 
.text                      0x10c50           0x40          64  App's exec code 
.text.__simple_free        0x10c90           0x40          64   
.text.atoi                 0x10cd0           0x40          64   
.text                      0x10d10           0x40          64  App's exec code 
.text.__aeabi_dcmpgt       0x10d50           0x3e          62   
.text.__aeabi_dcmplt       0x10d8e           0x3e          62   
.text                      0x10dcc           0x3c          60  App's exec code 
.text.__pic32c_data_ini    0x10e08           0x38          56   
.rodata.str1.4             0x10e40           0x34          52   
.text.__gmtime_r           0x10e74           0x34          52   
.text.__fmt_state          0x10ea8           0x34          52   
.text.__aeabi_d2iz         0x10edc           0x34          52   
.text                      0x10f10           0x34          52  App's exec code 
.text._sbrk_init           0x10f44           0x34          52   
.rodata.str1.4             0x10f78           0x30          48   
.rodata                    0x10fa8           0x30          48  Read-only const 
.text                      0x10fd8           0x2e          46  App's exec code 
.text.__aeabi_dcmpeq       0x11006           0x2e          46   
.text.__aeabi_d2uiz        0x11034           0x2e          46   
.rodata                    0x11064           0x2c          44  Read-only const 
.text.__pop_float          0x11090           0x2a          42   
.text.__string_out         0x110ba           0x2a          42   
.text                      0x110e4           0x28          40  App's exec code 
.rodata                    0x1110c           0x28          40  Read-only const 
.text                      0x11134           0x22          34  App's exec code 
.rodata                    0x11158           0x20          32  Read-only const 
.rodata.str1.4             0x11178           0x20          32   
.rodata                    0x11198           0x20          32  Read-only const 
.text.memchr               0x111b8           0x20          32   
.text.__month_to_secs      0x111d8           0x20          32   
.text._get_heap_left_sp    0x111f8           0x20          32   
.text.__dinit_copy         0x11218           0x1e          30   
.text.__init_search_fl     0x11238           0x1c          28   
.rodata                    0x11254           0x18          24  Read-only const 
.text.strlen               0x1126c           0x18          24   
.text.strnlen              0x11284           0x18          24   
.text.vfprintf             0x1129c           0x18          24   
.text                      0x112b4           0x18          24  App's exec code 
.text                      0x112cc           0x18          24  App's exec code 
.text                      0x112e4           0x18          24  App's exec code 
.text.__expand_heap        0x112fc           0x16          22   
.text.sprintf              0x11312           0x16          22   
.rodata                    0x11328           0x16          22  Read-only const 
.text                      0x11340           0x14          20  App's exec code 
.rodata                    0x11354           0x14          20  Read-only const 
.text.memcpy               0x11368           0x14          20   
.text.memset               0x1137c           0x14          20   
.text.strchr               0x11390           0x14          20   
.text.vsprintf             0x113a4           0x14          20   
.text.stpcpy               0x113b8           0x14          20   
.text.__dinit_clear        0x113cc           0x12          18   
.text.gmtime               0x113e0           0x10          16   
.rodata.str1.1             0x113f0           0x10          16   
.rodata.str1.1             0x11400           0x10          16   
.text.fma                  0x11410           0x10          16   
.text.__aeabi_dsub         0x11420           0x10          16   
.text                      0x11430            0xe          14  App's exec code 
.text.tolower              0x1143e            0xe          14   
.text.toupper              0x1144c            0xe          14   
.text                      0x1145a            0xc          12  App's exec code 
.rodata                    0x11466            0xc          12  Read-only const 
.text.strcpy               0x11472            0xc          12   
.rodata.str1.4             0x11480            0x8           8   
.rodata.str1.1             0x11488            0x8           8   
.text.__tolower_l          0x11490            0x8           8   
.text.__toupper_l          0x11498            0x8           8   
.rodata.str1.1             0x114a0            0x7           7   
.rodata                    0x114a7            0x1           1  Read-only const 
.text                      0x114a8            0x4           4  App's exec code 
.text.__dummy_decompres    0x114ac            0x4           4   
.rodata.str1.1             0x114b0            0x4           4   
.rodata.str1.1             0x114b4            0x4           4   
.text.__dummy_fmt3         0x114b8            0x4           4   
.text.__dummy_fmt4         0x114bc            0x4           4   
.text.__dummy_fmts         0x114c0            0x4           4   
.text                      0x114c4            0x4           4  App's exec code 
      Total ROM used  :     0x114b6       70838  27.0% of 0x40000
        --------------------------------------------------------------------------
         Total Program Memory used  :     0x114b6       70838  27.0% of 0x40000
        --------------------------------------------------------------------------


RAM Data-Memory Usage
section                    address  length [bytes]      (dec)  Description
-------                 ----------  -------------------------  -----------
.bss                    0x20000000          0x8c0        2240  Uninitialized data 
.bss                    0x200008c0          0x1b0         432  Uninitialized data 
.bss                    0x20000a70          0x110         272  Uninitialized data 
.bss                    0x20000b80           0xe0         224  Uninitialized data 
.bss                    0x20000c60           0xd8         216  Uninitialized data 
.bss                    0x20000d38           0xcd         205  Uninitialized data 
.bss                    0x20000e05            0x2           2  Uninitialized data 
.data                   0x20000e07            0x1           1  Initialized data 
.bss                    0x20000e08           0xcc         204  Uninitialized data 
.bss                    0x20000ed4           0xc0         192  Uninitialized data 
.bss                    0x20000f94           0x78         120  Uninitialized data 
.bss                    0x2000100c           0x68         104  Uninitialized data 
.bss                    0x20001074            0x4           4  Uninitialized data 
.bss                    0x20001078           0x60          96  Uninitialized data 
.bss                    0x200010d8           0x50          80  Uninitialized data 
.bss                    0x20001128           0x2d          45  Uninitialized data 
.data                   0x20001155            0x1           1  Initialized data 
.data                   0x20001156            0x2           2  Initialized data 
.bss                    0x20001158           0x2c          44  Uninitialized data 
.bss                    0x20001184           0x29          41  Uninitialized data 
.data                   0x200011ad            0x2           2  Initialized data 
.bss                    0x200011b0           0x28          40  Uninitialized data 
.bss                    0x200011d8           0x1d          29  Uninitialized data 
.bss                    0x200011f8           0x1c          28  Uninitialized data 
.bss                    0x20001214            0xc          12  Uninitialized data 
.bss                    0x20001220            0xc          12  Uninitialized data 
.bss                    0x2000122c            0x8           8  Uninitialized data 
.bss                    0x20001234            0x8           8  Uninitialized data 
.bss                    0x2000123c            0x8           8  Uninitialized data 
.bss                    0x20001244            0x8           8  Uninitialized data 
.bss                    0x2000124c            0x4           4  Uninitialized data 
.bss                    0x20001250            0x4           4  Uninitialized data 
.bss                    0x20001254            0x4           4  Uninitialized data 
.bss                    0x20001258            0x4           4  Uninitialized data 
.bss                    0x2000125c            0x4           4  Uninitialized data 
.data                   0x20001260            0x4           4  Initialized data 
.data                   0x20001264            0x4           4  Initialized data 
.data                   0x20001268            0x4           4  Initialized data 
.eh_frame               0x2000126c            0x4           4   
.data                   0x20001270            0x2           2  Initialized data 
         Total RAM used  :      0x126e        4718  14.4% of 0x8000
        --------------------------------------------------------------------------
            Total Data Memory used  :      0x126e        4718  14.4% of 0x8000
        --------------------------------------------------------------------------


Dynamic Data-Memory Reservation
section                    address  length [bytes]      (dec)  Description
-------                 ----------  -------------------------  -----------
heap                    0x20001278          0x200         512  Reserved for heap 
stack                   0x20001490         0x6b60       27488  Reserved for stack 

        --------------------------------------------------------------------------

Microchip PIC32 Memory-Usage Report By Module

        text        data         bss         dec         hex    basename                     filename
--------------------------------------------------------------------------------
        7276           4          40        7320        1c98    m2m_wifi.o               build/samd21IOT_winc1500/production/_ext/881504404/m2m_wifi.o
        4560           0           2        4562        11d2    nmspi.o                  build/samd21IOT_winc1500/production/_ext/881504404/nmspi.o
        4276           0         272        4548        11c4    wdrv_winc.o              build/samd21IOT_winc1500/production/_ext/1235514674/wdrv_winc.o
        4156           0         205        4361        1109    socket.o                 build/samd21IOT_winc1500/production/_ext/455027017/socket.o
        3904           0         120        4024         fb8    drv_spi.o                build/samd21IOT_winc1500/production/_ext/287230454/drv_spi.o
        1784           0        2240        4024         fb8    plib_sercom5_usart.o     build/samd21IOT_winc1500/production/_ext/1207737362/plib_sercom5_usart.o
        3052           0          41        3093         c15    m2m_hif.o                build/samd21IOT_winc1500/production/_ext/881504404/m2m_hif.o
        2736           2         224        2962         b92    sys_time.o               build/samd21IOT_winc1500/production/_ext/13306586/sys_time.o
        2484           0           4        2488         9b8    nmasic.o                 build/samd21IOT_winc1500/production/_ext/881504404/nmasic.o
        1804           2         432        2238         8be    winc1500_tcp_server.o    build/samd21IOT_winc1500/production/_ext/1360937237/winc1500_tcp_server.o
        1984           0           4        1988         7c4    spi_flash.o              build/samd21IOT_winc1500/production/_ext/1637020121/spi_flash.o
        1832           1         104        1937         791    m2m_ota.o                build/samd21IOT_winc1500/production/_ext/881504404/m2m_ota.o
        1708           1           8        1717         6b5    m2m_ssl.o                build/samd21IOT_winc1500/production/_ext/881504404/m2m_ssl.o
        1248           0           0        1248         4e0    nmdrv.o                  build/samd21IOT_winc1500/production/_ext/881504404/nmdrv.o
        1232           0           0        1232         4d0    __fmt_fp.o               libc-musl.a
        1209           0           0        1209         4b9    wdrv_winc_socket.o       build/samd21IOT_winc1500/production/_ext/1235514674/wdrv_winc_socket.o
        1172           0           0        1172         494    __fmt_a.o                libc-musl.a
        1020           0          96        1116         45c    plib_dmac.o              build/samd21IOT_winc1500/production/_ext/1953739970/plib_dmac.o
        1092           0           0        1092         444    wdrv_winc_host_file.o    build/samd21IOT_winc1500/production/_ext/1235514674/wdrv_winc_host_file.o
        1086           0           0        1086         43e    __printf_core.o          libc-musl.a
        1036           0          45        1081         439    plib_sercom2_spi_master.obuild/samd21IOT_winc1500/production/_ext/34491124/plib_sercom2_spi_master.o
         804           0         216        1020         3fc    sys_console.o            build/samd21IOT_winc1500/production/_ext/106321624/sys_console.o
         942           0           0         942         3ae    wdrv_winc_sta.o          build/samd21IOT_winc1500/production/_ext/1235514674/wdrv_winc_sta.o
         914           0           0         914         392    wdrv_winc_bssfind.o      build/samd21IOT_winc1500/production/_ext/1235514674/wdrv_winc_bssfind.o
         876           0           0         876         36c    wdrv_winc_ssl.o          build/samd21IOT_winc1500/production/_ext/1235514674/wdrv_winc_ssl.o
         868           0           0         868         364    wdrv_winc_nvm.o          build/samd21IOT_winc1500/production/_ext/1235514674/wdrv_winc_nvm.o
         780           0           0         780         30c    wdrv_winc_authctx.o      build/samd21IOT_winc1500/production/_ext/1235514674/wdrv_winc_authctx.o
         388           0         204         592         250    initialization.o         build/samd21IOT_winc1500/production/_ext/2058341299/initialization.o
         584           0           0         584         248    wdrv_winc_softap.o       build/samd21IOT_winc1500/production/_ext/1235514674/wdrv_winc_softap.o
         492           0          29         521         209    wdrv_winc_spi.o          build/samd21IOT_winc1500/production/_ext/284355797/wdrv_winc_spi.o
         512           0           0         512         200    data_init                data_init
         300           0         192         492         1ec    plib_eic.o               build/samd21IOT_winc1500/production/_ext/1876637944/plib_eic.o
         488           0           0         488         1e8    __secs_to_tm.o           libc-musl.a
         478           0           0         478         1de    wdrv_winc_enterprise.o   build/samd21IOT_winc1500/production/_ext/1235514674/wdrv_winc_enterprise.o
         456           0           0         456         1c8    __aeabi_dadd.o           libm-fast-emfloat.a
         412           0           0         412         19c    wdrv_winc_systime.o      build/samd21IOT_winc1500/production/_ext/1235514674/wdrv_winc_systime.o
         400           0           8         408         198    sys_console_uart.o       build/samd21IOT_winc1500/production/_ext/106321624/sys_console_uart.o
         408           0           0         408         198    wdrv_winc_assoc.o        build/samd21IOT_winc1500/production/_ext/1235514674/wdrv_winc_assoc.o
         394           0           0         394         18a    __aeabi_dmul_aux.o       libm-fast-emfloat.a
         372           0           0         372         174    wdrv_winc_bssctx.o       build/samd21IOT_winc1500/production/_ext/1235514674/wdrv_winc_bssctx.o
         352           0           0         352         160    plib_nvmctrl.o           build/samd21IOT_winc1500/production/_ext/975387175/plib_nvmctrl.o
         336           0           0         336         150    wdrv_winc_wps.o          build/samd21IOT_winc1500/production/_ext/1235514674/wdrv_winc_wps.o
         320           0           8         328         148    plib_tc3.o               build/samd21IOT_winc1500/production/_ext/2138746234/plib_tc3.o
         312           0           0         312         138    _divdi3.o                libgcc.a
         306           0           0         306         132    __fmt_x.o                libc-musl.a
         272           0           0         272         110    wdrv_winc_custie.o       build/samd21IOT_winc1500/production/_ext/1235514674/wdrv_winc_custie.o
         272           0           0         272         110    plib_port.o              build/samd21IOT_winc1500/production/_ext/1954099928/plib_port.o
         256           0           0         256         100    __year_to_secs.o         libc-musl.a
         248           0           0         248          f8    plib_nvic.o              build/samd21IOT_winc1500/production/_ext/1954046777/plib_nvic.o
         248           0           0         248          f8    wdrv_winc_powersave.o    build/samd21IOT_winc1500/production/_ext/1235514674/wdrv_winc_powersave.o
         232           2           0         234          ea    nmbus.o                  build/samd21IOT_winc1500/production/_ext/881504404/nmbus.o
         234           0           0         234          ea    _udivmoddi4.o            libgcc.a
         220           0           4         224          e0    lite_free.o              liblmalloc-musl.a
         220           0           0         220          dc    inet_addr.o              build/samd21IOT_winc1500/production/_ext/455027017/inet_addr.o
         196           0           0         196          c4    __aeabi_ddiv.o           libm-fast-emfloat.a
         192           0           0         192          c0    inet_ntop.o              build/samd21IOT_winc1500/production/_ext/455027017/inet_ntop.o
         190           0           0         190          be    __pop_int.o              libc-musl.a
         180           0           0         180          b4    floor.o                  libm-fast-emfloat.a
         178           0           0         178          b2    interrupts.o             build/samd21IOT_winc1500/production/_ext/2058341299/interrupts.o
         178           0           0         178          b2    __fmt_d.o                libc-musl.a
         164           0          12         176          b0    sbrk.o                   libpic32c.a
         168           0           0         168          a8    _divsi3.o                libgcc.a
         164           0           0         164          a4    plib_clock.o             build/samd21IOT_winc1500/production/_ext/435457175/plib_clock.o
         160           0           0         160          a0    __tm_to_secs.o           libc-musl.a
         156           0           0         156          9c    flexible_flash.o         build/samd21IOT_winc1500/production/_ext/1637020121/flexible_flash.o
         140           0           0         140          8c    _udivsi3.o               libgcc.a
         108           0          12         120          78    app.o                    build/samd21IOT_winc1500/production/_ext/1360937237/app.o
         118           0           0         118          76    __cvt_u.o                libc-musl.a
          80           4          28         112          70    crtbegin.o               c:/program files/microchip/xc32/v4.60/bin/bin/../../lib/gcc/pic32c/8.3.1/thumb/v6-m/nofp/crtbegin.o
         112           0           0         112          70    sys_int.o                build/samd21IOT_winc1500/production/_ext/55136832/sys_int.o
         110           0           0         110          6e    __fmt_o.o                libc-musl.a
         106           0           0         106          6a    wdrv_winc_httpprovctx.o  build/samd21IOT_winc1500/production/_ext/1235514674/wdrv_winc_httpprovctx.o
          96           0           8         104          68    sys_debug.o              build/samd21IOT_winc1500/production/_ext/604157148/sys_debug.o
         104           0           0         104          68    __pop_ptr.o              libc-musl.a
         100           4           0         104          68    lite_malloc.o            liblmalloc-musl.a
         104           0           0         104          68    m2m_periph.o             build/samd21IOT_winc1500/production/_ext/881504404/m2m_periph.o
         100           0           0         100          64    vsnprintf.o              libc-musl.a
          96           0           0          96          60    strchrnul.o              libc-size-musl.a
          94           0           0          94          5e    __libc_start_main.o      libc-musl.a
          87           0           0          87          57    __fmt_s.o                libc-musl.a
          86           0           0          86          56    __fmt_u.o                libc-musl.a
          82           0           4          86          56    data_init.o              libpic32c.a
          80           0           0          80          50    __month_to_secs.o        libc-musl.a
           0           0          80          80          50    libc.o                   libc-musl.a
          76           0           0          76          4c    mktime.o                 libc-musl.a
          74           0           0          74          4a    startup_xc32.o           build/samd21IOT_winc1500/production/_ext/2058341299/startup_xc32.o
          72           0           0          72          48    _aeabi_ldivmod.o         libgcc.a
          68           0           0          68          44    __aeabi_dcmple.o         libm-fast-emfloat.a
          68           0           0          68          44    sys_dma.o                build/samd21IOT_winc1500/production/_ext/226979060/sys_dma.o
          68           0           0          68          44    _muldi3.o                libgcc.a
          64           0           0          64          40    atoi.o                   libc-musl.a
          64           0           0          64          40    wdrv_winc_gpio.o         build/samd21IOT_winc1500/production/_ext/224737734/wdrv_winc_gpio.o
          64           0           0          64          40    _aeabi_uldivmod.o        libgcc.a
          62           0           0          62          3e    __aeabi_dcmpgt.o         libm-fast-emfloat.a
          62           0           0          62          3e    __aeabi_dcmplt.o         libm-fast-emfloat.a
          16           0          44          60          3c    gmtime.o                 libc-musl.a
          60           0           0          60          3c    _clzsi2.o                libgcc.a
          56           0           0          56          38    gmtime_r.o               libc-musl.a
          52           0           0          52          34    __aeabi_d2iz.o           libm-fast-emfloat.a
          52           0           0          52          34    bpabi.o                  libgcc.a
          46           0           0          46          2e    __aeabi_d2uiz.o          libm-fast-emfloat.a
          46           0           0          46          2e    __aeabi_dcmpeq.o         libm-fast-emfloat.a
          46           0           0          46          2e    nm_common.o              build/samd21IOT_winc1500/production/_ext/912793297/nm_common.o
          42           0           0          42          2a    __pop_float.o            libc-musl.a
          40           0           0          40          28    wdrv_winc_eint.o         build/samd21IOT_winc1500/production/_ext/224737734/wdrv_winc_eint.o
          34           0           0          34          22    wdrv_winc_osal.o         build/samd21IOT_winc1500/production/_ext/469334988/wdrv_winc_osal.o
          32           0           0          32          20    memchr.o                 libc-size-musl.a
          30           0           0          30          1e    pic32_data_init_copy.o   libpic32c.a
          24           0           0          24          18    strnlen.o                libc-size-musl.a
          24           0           0          24          18    vfprintf.o               libc-musl.a
          24           0           0          24          18    strlen.o                 libc-size-musl.a
          24           0           0          24          18    _clzdi2.o                libgcc.a
          24           0           0          24          18    _ashldi3.o               libgcc.a
          24           0           0          24          18    _lshrdi3.o               libgcc.a
          22           0           0          22          16    expand_heap.o            libc-musl.a
          22           0           0          22          16    sprintf.o                libc-musl.a
          22           0           0          22          16    toupper.o                libc-musl.a
          22           0           0          22          16    tolower.o                libc-musl.a
          20           0           0          20          14    stpcpy.o                 libc-size-musl.a
          20           0           0          20          14    memcpy.o                 libc-size-musl.a
          20           0           0          20          14    tasks.o                  build/samd21IOT_winc1500/production/_ext/2058341299/tasks.o
          20           0           0          20          14    vsprintf.o               libc-musl.a
          20           0           0          20          14    memset.o                 libc-size-musl.a
          20           0           0          20          14    strchr.o                 libc-size-musl.a
          18           0           0          18          12    pic32_data_init_clear.o  libpic32c.a
          16           0           0          16          10    __aeabi_dsub.o           libm-fast-emfloat.a
          16           0           0          16          10    crtn.o                   c:/program files/microchip/xc32/v4.60/bin/bin/../../lib/gcc/pic32c/8.3.1/thumb/v6-m/nofp/crtn.o
          16           0           0          16          10    fma.o                    libm-fast-emfloat.a
          14           0           0          14           e    main.o                   build/samd21IOT_winc1500/production/_ext/1360937237/main.o
          12           0           0          12           c    xc32_monitor.o           build/samd21IOT_winc1500/production/_ext/1613073709/xc32_monitor.o
          12           0           0          12           c    strcpy.o                 libc-size-musl.a
           8           0           0           8           8    crti.o                   c:/program files/microchip/xc32/v4.60/bin/bin/../../lib/gcc/pic32c/8.3.1/thumb/v6-m/nofp/crti.o
           0           0           4           4           4    __environ.o              libc-musl.a
           0           4           0           4           4    crtend.o                 c:/program files/microchip/xc32/v4.60/bin/bin/../../lib/gcc/pic32c/8.3.1/thumb/v6-m/nofp/crtend.o
           4           0           0           4           4    _dvmd_tls.o              libgcc.a
           0           0           4           4           4    __errno_location.o       libc-musl.a
           4           0           0           4           4    exceptions.o             build/samd21IOT_winc1500/production/_ext/2058341299/exceptions.o
           2           0           0           2           2    libc_syscalls.o          build/samd21IOT_winc1500/production/_ext/2058341299/libc_syscalls.o
           2           0           0           2           2    plib_evsys.o             build/samd21IOT_winc1500/production/_ext/437606661/plib_evsys.o
--------------------------------------------------------------------------------
       70846          24        4694       75564       1272c    dist/samd21IOT_winc1500/production/tcp_server_wic1500_samdIOT.X.production.elf


Discarded input sections

 .xc_stack_usage.hdr
                0x0000000000000000        0xe c:/program files/microchip/xc32/v4.60/bin/bin/../../lib/gcc/pic32c/8.3.1/thumb/v6-m/nofp/crti.o
 .xc_stack_usage
                0x0000000000000000       0x26 c:/program files/microchip/xc32/v4.60/bin/bin/../../lib/gcc/pic32c/8.3.1/thumb/v6-m/nofp/crti.o
 .xc_stack_usage
                0x0000000000000000       0x3c c:/program files/microchip/xc32/v4.60/bin/bin/../../lib/gcc/pic32c/8.3.1/thumb/v6-m/nofp/crtbegin.o
 .xc_stack_usage.hdr
                0x0000000000000000        0xe c:/program files/microchip/xc32/v4.60/bin/bin/../../lib/gcc/pic32c/8.3.1/thumb/v6-m/nofp/crtbegin.o
 .xc_stack_usage
                0x0000000000000000       0x68 c:/program files/microchip/xc32/v4.60/bin/bin/../../lib/gcc/pic32c/8.3.1/../../../../pic32c/lib/thumb/v6-m/nofp\libpic32c.a(data_init.o)
 .xc_stack_usage.hdr
                0x0000000000000000        0xe c:/program files/microchip/xc32/v4.60/bin/bin/../../lib/gcc/pic32c/8.3.1/../../../../pic32c/lib/thumb/v6-m/nofp\libpic32c.a(data_init.o)
 .xc_stack_usage
                0x0000000000000000       0x14 c:/program files/microchip/xc32/v4.60/bin/bin/../../lib/gcc/pic32c/8.3.1/../../../../pic32c/lib/thumb/v6-m/nofp\libc-size-musl.a(memcpy.o)
 .xc_stack_usage.hdr
                0x0000000000000000        0xe c:/program files/microchip/xc32/v4.60/bin/bin/../../lib/gcc/pic32c/8.3.1/../../../../pic32c/lib/thumb/v6-m/nofp\libc-size-musl.a(memcpy.o)
 .xc_stack_usage
                0x0000000000000000       0x14 c:/program files/microchip/xc32/v4.60/bin/bin/../../lib/gcc/pic32c/8.3.1/../../../../pic32c/lib/thumb/v6-m/nofp\libc-size-musl.a(memset.o)
 .xc_stack_usage.hdr
                0x0000000000000000        0xe c:/program files/microchip/xc32/v4.60/bin/bin/../../lib/gcc/pic32c/8.3.1/../../../../pic32c/lib/thumb/v6-m/nofp\libc-size-musl.a(memset.o)
 .xc_stack_usage
                0x0000000000000000       0x14 c:/program files/microchip/xc32/v4.60/bin/bin/../../lib/gcc/pic32c/8.3.1/../../../../pic32c/lib/thumb/v6-m/nofp\libc-size-musl.a(strlen.o)
 .xc_stack_usage.hdr
                0x0000000000000000        0xe c:/program files/microchip/xc32/v4.60/bin/bin/../../lib/gcc/pic32c/8.3.1/../../../../pic32c/lib/thumb/v6-m/nofp\libc-size-musl.a(strlen.o)
 .xc_stack_usage
                0x0000000000000000       0x14 c:/program files/microchip/xc32/v4.60/bin/bin/../../lib/gcc/pic32c/8.3.1/../../../../pic32c/lib/thumb/v6-m/nofp\libc-size-musl.a(strchr.o)
 .xc_stack_usage.hdr
                0x0000000000000000        0xe c:/program files/microchip/xc32/v4.60/bin/bin/../../lib/gcc/pic32c/8.3.1/../../../../pic32c/lib/thumb/v6-m/nofp\libc-size-musl.a(strchr.o)
 .xc_stack_usage
                0x0000000000000000       0x19 c:/program files/microchip/xc32/v4.60/bin/bin/../../lib/gcc/pic32c/8.3.1/../../../../pic32c/lib/thumb/v6-m/nofp\libc-size-musl.a(strchrnul.o)
 .xc_stack_usage.hdr
                0x0000000000000000        0xe c:/program files/microchip/xc32/v4.60/bin/bin/../../lib/gcc/pic32c/8.3.1/../../../../pic32c/lib/thumb/v6-m/nofp\libc-size-musl.a(strchrnul.o)
 .xc_stack_usage
                0x0000000000000000       0x15 c:/program files/microchip/xc32/v4.60/bin/bin/../../lib/gcc/pic32c/8.3.1/../../../../pic32c/lib/thumb/v6-m/nofp\libc-size-musl.a(strnlen.o)
 .xc_stack_usage.hdr
                0x0000000000000000        0xe c:/program files/microchip/xc32/v4.60/bin/bin/../../lib/gcc/pic32c/8.3.1/../../../../pic32c/lib/thumb/v6-m/nofp\libc-size-musl.a(strnlen.o)
 .xc_stack_usage
                0x0000000000000000       0x14 c:/program files/microchip/xc32/v4.60/bin/bin/../../lib/gcc/pic32c/8.3.1/../../../../pic32c/lib/thumb/v6-m/nofp\libc-size-musl.a(memchr.o)
 .xc_stack_usage.hdr
                0x0000000000000000        0xe c:/program files/microchip/xc32/v4.60/bin/bin/../../lib/gcc/pic32c/8.3.1/../../../../pic32c/lib/thumb/v6-m/nofp\libc-size-musl.a(memchr.o)
 .xc_stack_usage
                0x0000000000000000       0x59 c:/program files/microchip/xc32/v4.60/bin/bin/../../lib/gcc/pic32c/8.3.1/../../../../pic32c/lib/thumb/v6-m/nofp\liblmalloc-musl.a(lite_free.o)
 .xc_stack_usage.hdr
                0x0000000000000000        0xe c:/program files/microchip/xc32/v4.60/bin/bin/../../lib/gcc/pic32c/8.3.1/../../../../pic32c/lib/thumb/v6-m/nofp\liblmalloc-musl.a(lite_free.o)
 .xc_stack_usage
                0x0000000000000000       0x1d c:/program files/microchip/xc32/v4.60/bin/bin/../../lib/gcc/pic32c/8.3.1/../../../../pic32c/lib/thumb/v6-m/nofp\liblmalloc-musl.a(lite_malloc.o)
 .xc_stack_usage.hdr
                0x0000000000000000        0xe c:/program files/microchip/xc32/v4.60/bin/bin/../../lib/gcc/pic32c/8.3.1/../../../../pic32c/lib/thumb/v6-m/nofp\liblmalloc-musl.a(lite_malloc.o)
 .xc_stack_usage
                0x0000000000000000       0x34 c:/program files/microchip/xc32/v4.60/bin/bin/../../lib/gcc/pic32c/8.3.1/../../../../pic32c/lib/thumb/v6-m/nofp\libc-musl.a(__libc_start_main.o)
 .xc_stack_usage.hdr
                0x0000000000000000        0xe c:/program files/microchip/xc32/v4.60/bin/bin/../../lib/gcc/pic32c/8.3.1/../../../../pic32c/lib/thumb/v6-m/nofp\libc-musl.a(__libc_start_main.o)
 .xc_stack_usage.hdr
                0x0000000000000000        0xe c:/program files/microchip/xc32/v4.60/bin/bin/../../lib/gcc/pic32c/8.3.1/../../../../pic32c/lib/thumb/v6-m/nofp\libc-musl.a(__errno_location.o)
 .xc_stack_usage.hdr
                0x0000000000000000        0xe c:/program files/microchip/xc32/v4.60/bin/bin/../../lib/gcc/pic32c/8.3.1/../../../../pic32c/lib/thumb/v6-m/nofp\libc-musl.a(libc.o)
 .xc_stack_usage
                0x0000000000000000       0x1b c:/program files/microchip/xc32/v4.60/bin/bin/../../lib/gcc/pic32c/8.3.1/../../../../pic32c/lib/thumb/v6-m/nofp\libc-musl.a(expand_heap.o)
 .xc_stack_usage.hdr
                0x0000000000000000        0xe c:/program files/microchip/xc32/v4.60/bin/bin/../../lib/gcc/pic32c/8.3.1/../../../../pic32c/lib/thumb/v6-m/nofp\libc-musl.a(expand_heap.o)
 .xc_stack_usage
                0x0000000000000000       0x17 c:/program files/microchip/xc32/v4.60/bin/bin/../../lib/gcc/pic32c/8.3.1/../../../../pic32c/lib/thumb/v6-m/nofp\libc-musl.a(vsnprintf.o)
 .xc_stack_usage.hdr
                0x0000000000000000        0xe c:/program files/microchip/xc32/v4.60/bin/bin/../../lib/gcc/pic32c/8.3.1/../../../../pic32c/lib/thumb/v6-m/nofp\libc-musl.a(vsnprintf.o)
 .xc_stack_usage
                0x0000000000000000       0x15 c:/program files/microchip/xc32/v4.60/bin/bin/../../lib/gcc/pic32c/8.3.1/../../../../pic32c/lib/thumb/v6-m/nofp\libc-musl.a(sprintf.o)
 .xc_stack_usage.hdr
                0x0000000000000000        0xe c:/program files/microchip/xc32/v4.60/bin/bin/../../lib/gcc/pic32c/8.3.1/../../../../pic32c/lib/thumb/v6-m/nofp\libc-musl.a(sprintf.o)
 .xc_stack_usage
                0x0000000000000000       0x16 c:/program files/microchip/xc32/v4.60/bin/bin/../../lib/gcc/pic32c/8.3.1/../../../../pic32c/lib/thumb/v6-m/nofp\libc-musl.a(vsprintf.o)
 .xc_stack_usage.hdr
                0x0000000000000000        0xe c:/program files/microchip/xc32/v4.60/bin/bin/../../lib/gcc/pic32c/8.3.1/../../../../pic32c/lib/thumb/v6-m/nofp\libc-musl.a(vsprintf.o)
 .xc_stack_usage
                0x0000000000000000       0x14 c:/program files/microchip/xc32/v4.60/bin/bin/../../lib/gcc/pic32c/8.3.1/../../../../pic32c/lib/thumb/v6-m/nofp\libc-musl.a(gmtime.o)
 .xc_stack_usage.hdr
                0x0000000000000000        0xe c:/program files/microchip/xc32/v4.60/bin/bin/../../lib/gcc/pic32c/8.3.1/../../../../pic32c/lib/thumb/v6-m/nofp\libc-musl.a(gmtime.o)
 .xc_stack_usage
                0x0000000000000000       0x18 c:/program files/microchip/xc32/v4.60/bin/bin/../../lib/gcc/pic32c/8.3.1/../../../../pic32c/lib/thumb/v6-m/nofp\libc-musl.a(gmtime_r.o)
 .xc_stack_usage.hdr
                0x0000000000000000        0xe c:/program files/microchip/xc32/v4.60/bin/bin/../../lib/gcc/pic32c/8.3.1/../../../../pic32c/lib/thumb/v6-m/nofp\libc-musl.a(gmtime_r.o)
 .xc_stack_usage
                0x0000000000000000       0x14 c:/program files/microchip/xc32/v4.60/bin/bin/../../lib/gcc/pic32c/8.3.1/../../../../pic32c/lib/thumb/v6-m/nofp\libc-musl.a(mktime.o)
 .xc_stack_usage.hdr
                0x0000000000000000        0xe c:/program files/microchip/xc32/v4.60/bin/bin/../../lib/gcc/pic32c/8.3.1/../../../../pic32c/lib/thumb/v6-m/nofp\libc-musl.a(mktime.o)
 .xc_stack_usage.hdr
                0x0000000000000000        0xe c:/program files/microchip/xc32/v4.60/bin/bin/../../lib/gcc/pic32c/8.3.1/../../../../pic32c/lib/thumb/v6-m/nofp\libc-musl.a(__environ.o)
 .xc_stack_usage
                0x0000000000000000       0x38 c:/program files/microchip/xc32/v4.60/bin/bin/../../lib/gcc/pic32c/8.3.1/../../../../pic32c/lib/thumb/v6-m/nofp\libc-musl.a(vfprintf.o)
 .xc_stack_usage.hdr
                0x0000000000000000        0xe c:/program files/microchip/xc32/v4.60/bin/bin/../../lib/gcc/pic32c/8.3.1/../../../../pic32c/lib/thumb/v6-m/nofp\libc-musl.a(vfprintf.o)
 .xc_stack_usage
                0x0000000000000000       0x1a c:/program files/microchip/xc32/v4.60/bin/bin/../../lib/gcc/pic32c/8.3.1/../../../../pic32c/lib/thumb/v6-m/nofp\libc-musl.a(__tm_to_secs.o)
 .xc_stack_usage.hdr
                0x0000000000000000        0xe c:/program files/microchip/xc32/v4.60/bin/bin/../../lib/gcc/pic32c/8.3.1/../../../../pic32c/lib/thumb/v6-m/nofp\libc-musl.a(__tm_to_secs.o)
 .xc_stack_usage
                0x0000000000000000       0x1c c:/program files/microchip/xc32/v4.60/bin/bin/../../lib/gcc/pic32c/8.3.1/../../../../pic32c/lib/thumb/v6-m/nofp\libc-musl.a(__year_to_secs.o)
 .xc_stack_usage.hdr
                0x0000000000000000        0xe c:/program files/microchip/xc32/v4.60/bin/bin/../../lib/gcc/pic32c/8.3.1/../../../../pic32c/lib/thumb/v6-m/nofp\libc-musl.a(__year_to_secs.o)
 .xc_stack_usage
                0x0000000000000000       0x1a c:/program files/microchip/xc32/v4.60/bin/bin/../../lib/gcc/pic32c/8.3.1/../../../../pic32c/lib/thumb/v6-m/nofp\libc-musl.a(__secs_to_tm.o)
 .xc_stack_usage.hdr
                0x0000000000000000        0xe c:/program files/microchip/xc32/v4.60/bin/bin/../../lib/gcc/pic32c/8.3.1/../../../../pic32c/lib/thumb/v6-m/nofp\libc-musl.a(__secs_to_tm.o)
 .xc_stack_usage
                0x0000000000000000       0x1d c:/program files/microchip/xc32/v4.60/bin/bin/../../lib/gcc/pic32c/8.3.1/../../../../pic32c/lib/thumb/v6-m/nofp\libc-musl.a(__io_fmt_needed.o)
 .xc_stack_usage.hdr
                0x0000000000000000        0xe c:/program files/microchip/xc32/v4.60/bin/bin/../../lib/gcc/pic32c/8.3.1/../../../../pic32c/lib/thumb/v6-m/nofp\libc-musl.a(__io_fmt_needed.o)
 .xc_stack_usage
                0x0000000000000000       0x19 c:/program files/microchip/xc32/v4.60/bin/bin/../../lib/gcc/pic32c/8.3.1/../../../../pic32c/lib/thumb/v6-m/nofp\libc-musl.a(__pop_float.o)
 .xc_stack_usage.hdr
                0x0000000000000000        0xe c:/program files/microchip/xc32/v4.60/bin/bin/../../lib/gcc/pic32c/8.3.1/../../../../pic32c/lib/thumb/v6-m/nofp\libc-musl.a(__pop_float.o)
 .xc_stack_usage
                0x0000000000000000       0x17 c:/program files/microchip/xc32/v4.60/bin/bin/../../lib/gcc/pic32c/8.3.1/../../../../pic32c/lib/thumb/v6-m/nofp\libc-musl.a(__pop_int.o)
 .xc_stack_usage.hdr
                0x0000000000000000        0xe c:/program files/microchip/xc32/v4.60/bin/bin/../../lib/gcc/pic32c/8.3.1/../../../../pic32c/lib/thumb/v6-m/nofp\libc-musl.a(__pop_int.o)
 .xc_stack_usage
                0x0000000000000000       0x17 c:/program files/microchip/xc32/v4.60/bin/bin/../../lib/gcc/pic32c/8.3.1/../../../../pic32c/lib/thumb/v6-m/nofp\libc-musl.a(__pop_ptr.o)
 .xc_stack_usage.hdr
                0x0000000000000000        0xe c:/program files/microchip/xc32/v4.60/bin/bin/../../lib/gcc/pic32c/8.3.1/../../../../pic32c/lib/thumb/v6-m/nofp\libc-musl.a(__pop_ptr.o)
 .xc_stack_usage
                0x0000000000000000       0xaf c:/program files/microchip/xc32/v4.60/bin/bin/../../lib/gcc/pic32c/8.3.1/../../../../pic32c/lib/thumb/v6-m/nofp\libc-musl.a(__printf_core.o)
 .xc_stack_usage.hdr
                0x0000000000000000        0xe c:/program files/microchip/xc32/v4.60/bin/bin/../../lib/gcc/pic32c/8.3.1/../../../../pic32c/lib/thumb/v6-m/nofp\libc-musl.a(__printf_core.o)
 .xc_stack_usage
                0x0000000000000000       0x12 c:/program files/microchip/xc32/v4.60/bin/bin/../../lib/gcc/pic32c/8.3.1/../../../../pic32c/lib/thumb/v6-m/nofp\libc-musl.a(atoi.o)
 .xc_stack_usage.hdr
                0x0000000000000000        0xe c:/program files/microchip/xc32/v4.60/bin/bin/../../lib/gcc/pic32c/8.3.1/../../../../pic32c/lib/thumb/v6-m/nofp\libc-musl.a(atoi.o)
 .xc_stack_usage
                0x0000000000000000       0x1d c:/program files/microchip/xc32/v4.60/bin/bin/../../lib/gcc/pic32c/8.3.1/../../../../pic32c/lib/thumb/v6-m/nofp\libc-musl.a(__month_to_secs.o)
 .xc_stack_usage.hdr
                0x0000000000000000        0xe c:/program files/microchip/xc32/v4.60/bin/bin/../../lib/gcc/pic32c/8.3.1/../../../../pic32c/lib/thumb/v6-m/nofp\libc-musl.a(__month_to_secs.o)
 .xc_stack_usage
                0x0000000000000000       0x2e c:/program files/microchip/xc32/v4.60/bin/bin/../../lib/gcc/pic32c/8.3.1/../../../../pic32c/lib/thumb/v6-m/nofp\libc-musl.a(tolower.o)
 .xc_stack_usage.hdr
                0x0000000000000000        0xe c:/program files/microchip/xc32/v4.60/bin/bin/../../lib/gcc/pic32c/8.3.1/../../../../pic32c/lib/thumb/v6-m/nofp\libc-musl.a(tolower.o)
 .xc_stack_usage
                0x0000000000000000       0x15 c:/program files/microchip/xc32/v4.60/bin/bin/../../lib/gcc/pic32c/8.3.1/../../../../pic32c/lib/thumb/v6-m/nofp\libc-musl.a(__fmt_a.o)
 .xc_stack_usage.hdr
                0x0000000000000000        0xe c:/program files/microchip/xc32/v4.60/bin/bin/../../lib/gcc/pic32c/8.3.1/../../../../pic32c/lib/thumb/v6-m/nofp\libc-musl.a(__fmt_a.o)
 .xc_stack_usage
                0x0000000000000000       0x15 c:/program files/microchip/xc32/v4.60/bin/bin/../../lib/gcc/pic32c/8.3.1/../../../../pic32c/lib/thumb/v6-m/nofp\libc-musl.a(__fmt_d.o)
 .xc_stack_usage.hdr
                0x0000000000000000        0xe c:/program files/microchip/xc32/v4.60/bin/bin/../../lib/gcc/pic32c/8.3.1/../../../../pic32c/lib/thumb/v6-m/nofp\libc-musl.a(__fmt_d.o)
 .xc_stack_usage
                0x0000000000000000       0x16 c:/program files/microchip/xc32/v4.60/bin/bin/../../lib/gcc/pic32c/8.3.1/../../../../pic32c/lib/thumb/v6-m/nofp\libc-musl.a(__fmt_fp.o)
 .xc_stack_usage.hdr
                0x0000000000000000        0xe c:/program files/microchip/xc32/v4.60/bin/bin/../../lib/gcc/pic32c/8.3.1/../../../../pic32c/lib/thumb/v6-m/nofp\libc-musl.a(__fmt_fp.o)
 .xc_stack_usage
                0x0000000000000000       0x15 c:/program files/microchip/xc32/v4.60/bin/bin/../../lib/gcc/pic32c/8.3.1/../../../../pic32c/lib/thumb/v6-m/nofp\libc-musl.a(__fmt_o.o)
 .xc_stack_usage.hdr
                0x0000000000000000        0xe c:/program files/microchip/xc32/v4.60/bin/bin/../../lib/gcc/pic32c/8.3.1/../../../../pic32c/lib/thumb/v6-m/nofp\libc-musl.a(__fmt_o.o)
 .xc_stack_usage
                0x0000000000000000       0x15 c:/program files/microchip/xc32/v4.60/bin/bin/../../lib/gcc/pic32c/8.3.1/../../../../pic32c/lib/thumb/v6-m/nofp\libc-musl.a(__fmt_s.o)
 .xc_stack_usage.hdr
                0x0000000000000000        0xe c:/program files/microchip/xc32/v4.60/bin/bin/../../lib/gcc/pic32c/8.3.1/../../../../pic32c/lib/thumb/v6-m/nofp\libc-musl.a(__fmt_s.o)
 .xc_stack_usage
                0x0000000000000000       0x15 c:/program files/microchip/xc32/v4.60/bin/bin/../../lib/gcc/pic32c/8.3.1/../../../../pic32c/lib/thumb/v6-m/nofp\libc-musl.a(__fmt_u.o)
 .xc_stack_usage.hdr
                0x0000000000000000        0xe c:/program files/microchip/xc32/v4.60/bin/bin/../../lib/gcc/pic32c/8.3.1/../../../../pic32c/lib/thumb/v6-m/nofp\libc-musl.a(__fmt_u.o)
 .xc_stack_usage
                0x0000000000000000       0x15 c:/program files/microchip/xc32/v4.60/bin/bin/../../lib/gcc/pic32c/8.3.1/../../../../pic32c/lib/thumb/v6-m/nofp\libc-musl.a(__fmt_x.o)
 .xc_stack_usage.hdr
                0x0000000000000000        0xe c:/program files/microchip/xc32/v4.60/bin/bin/../../lib/gcc/pic32c/8.3.1/../../../../pic32c/lib/thumb/v6-m/nofp\libc-musl.a(__fmt_x.o)
 .xc_stack_usage
                0x0000000000000000       0x2e c:/program files/microchip/xc32/v4.60/bin/bin/../../lib/gcc/pic32c/8.3.1/../../../../pic32c/lib/thumb/v6-m/nofp\libc-musl.a(toupper.o)
 .xc_stack_usage.hdr
                0x0000000000000000        0xe c:/program files/microchip/xc32/v4.60/bin/bin/../../lib/gcc/pic32c/8.3.1/../../../../pic32c/lib/thumb/v6-m/nofp\libc-musl.a(toupper.o)
 .xc_stack_usage
                0x0000000000000000       0x15 c:/program files/microchip/xc32/v4.60/bin/bin/../../lib/gcc/pic32c/8.3.1/../../../../pic32c/lib/thumb/v6-m/nofp\libc-musl.a(__cvt_u.o)
 .xc_stack_usage.hdr
                0x0000000000000000        0xe c:/program files/microchip/xc32/v4.60/bin/bin/../../lib/gcc/pic32c/8.3.1/../../../../pic32c/lib/thumb/v6-m/nofp\libc-musl.a(__cvt_u.o)
 .xc_stack_usage.hdr
                0x0000000000000000        0xe c:/program files/microchip/xc32/v4.60/bin/bin/../../lib/gcc/pic32c/8.3.1/../../../../pic32c/lib/thumb/v6-m/nofp\libm-fast-emfloat.a(fma.o)
 .xc_stack_usage
                0x0000000000000000       0x11 c:/program files/microchip/xc32/v4.60/bin/bin/../../lib/gcc/pic32c/8.3.1/../../../../pic32c/lib/thumb/v6-m/nofp\libm-fast-emfloat.a(fma.o)
 .xc_stack_usage.hdr
                0x0000000000000000        0xe c:/program files/microchip/xc32/v4.60/bin/bin/../../lib/gcc/pic32c/8.3.1/../../../../pic32c/lib/thumb/v6-m/nofp\libm-fast-emfloat.a(floor.o)
 .xc_stack_usage
                0x0000000000000000       0x13 c:/program files/microchip/xc32/v4.60/bin/bin/../../lib/gcc/pic32c/8.3.1/../../../../pic32c/lib/thumb/v6-m/nofp\libm-fast-emfloat.a(floor.o)
 .xc_stack_usage.hdr
                0x0000000000000000        0xe c:/program files/microchip/xc32/v4.60/bin/bin/../../lib/gcc/pic32c/8.3.1/../../../../pic32c/lib/thumb/v6-m/nofp\libm-fast-emfloat.a(__aeabi_dadd.o)
 .xc_stack_usage
                0x0000000000000000       0x41 c:/program files/microchip/xc32/v4.60/bin/bin/../../lib/gcc/pic32c/8.3.1/../../../../pic32c/lib/thumb/v6-m/nofp\libm-fast-emfloat.a(__aeabi_dadd.o)
 .xc_stack_usage.hdr
                0x0000000000000000        0xe c:/program files/microchip/xc32/v4.60/bin/bin/../../lib/gcc/pic32c/8.3.1/../../../../pic32c/lib/thumb/v6-m/nofp\libm-fast-emfloat.a(__aeabi_dsub.o)
 .xc_stack_usage
                0x0000000000000000       0x1a c:/program files/microchip/xc32/v4.60/bin/bin/../../lib/gcc/pic32c/8.3.1/../../../../pic32c/lib/thumb/v6-m/nofp\libm-fast-emfloat.a(__aeabi_dsub.o)
 .xc_stack_usage.hdr
                0x0000000000000000        0xe c:/program files/microchip/xc32/v4.60/bin/bin/../../lib/gcc/pic32c/8.3.1/../../../../pic32c/lib/thumb/v6-m/nofp\libm-fast-emfloat.a(__aeabi_dmul_aux.o)
 .xc_stack_usage
                0x0000000000000000       0x38 c:/program files/microchip/xc32/v4.60/bin/bin/../../lib/gcc/pic32c/8.3.1/../../../../pic32c/lib/thumb/v6-m/nofp\libm-fast-emfloat.a(__aeabi_dmul_aux.o)
 .xc_stack_usage.hdr
                0x0000000000000000        0xe c:/program files/microchip/xc32/v4.60/bin/bin/../../lib/gcc/pic32c/8.3.1/../../../../pic32c/lib/thumb/v6-m/nofp\libm-fast-emfloat.a(__aeabi_ddiv.o)
 .xc_stack_usage
                0x0000000000000000       0x1a c:/program files/microchip/xc32/v4.60/bin/bin/../../lib/gcc/pic32c/8.3.1/../../../../pic32c/lib/thumb/v6-m/nofp\libm-fast-emfloat.a(__aeabi_ddiv.o)
 .xc_stack_usage.hdr
                0x0000000000000000        0xe c:/program files/microchip/xc32/v4.60/bin/bin/../../lib/gcc/pic32c/8.3.1/../../../../pic32c/lib/thumb/v6-m/nofp\libm-fast-emfloat.a(__aeabi_dcmple.o)
 .xc_stack_usage
                0x0000000000000000       0x1c c:/program files/microchip/xc32/v4.60/bin/bin/../../lib/gcc/pic32c/8.3.1/../../../../pic32c/lib/thumb/v6-m/nofp\libm-fast-emfloat.a(__aeabi_dcmple.o)
 .xc_stack_usage.hdr
                0x0000000000000000        0xe c:/program files/microchip/xc32/v4.60/bin/bin/../../lib/gcc/pic32c/8.3.1/../../../../pic32c/lib/thumb/v6-m/nofp\libm-fast-emfloat.a(__aeabi_dcmpeq.o)
 .xc_stack_usage
                0x0000000000000000       0x1c c:/program files/microchip/xc32/v4.60/bin/bin/../../lib/gcc/pic32c/8.3.1/../../../../pic32c/lib/thumb/v6-m/nofp\libm-fast-emfloat.a(__aeabi_dcmpeq.o)
 .xc_stack_usage.hdr
                0x0000000000000000        0xe c:/program files/microchip/xc32/v4.60/bin/bin/../../lib/gcc/pic32c/8.3.1/../../../../pic32c/lib/thumb/v6-m/nofp\libm-fast-emfloat.a(__aeabi_dcmpgt.o)
 .xc_stack_usage
                0x0000000000000000       0x1c c:/program files/microchip/xc32/v4.60/bin/bin/../../lib/gcc/pic32c/8.3.1/../../../../pic32c/lib/thumb/v6-m/nofp\libm-fast-emfloat.a(__aeabi_dcmpgt.o)
 .xc_stack_usage.hdr
                0x0000000000000000        0xe c:/program files/microchip/xc32/v4.60/bin/bin/../../lib/gcc/pic32c/8.3.1/../../../../pic32c/lib/thumb/v6-m/nofp\libm-fast-emfloat.a(__aeabi_dcmplt.o)
 .xc_stack_usage
                0x0000000000000000       0x1c c:/program files/microchip/xc32/v4.60/bin/bin/../../lib/gcc/pic32c/8.3.1/../../../../pic32c/lib/thumb/v6-m/nofp\libm-fast-emfloat.a(__aeabi_dcmplt.o)
 .xc_stack_usage.hdr
                0x0000000000000000        0xe c:/program files/microchip/xc32/v4.60/bin/bin/../../lib/gcc/pic32c/8.3.1/../../../../pic32c/lib/thumb/v6-m/nofp\libm-fast-emfloat.a(__aeabi_d2iz.o)
 .xc_stack_usage
                0x0000000000000000       0x1a c:/program files/microchip/xc32/v4.60/bin/bin/../../lib/gcc/pic32c/8.3.1/../../../../pic32c/lib/thumb/v6-m/nofp\libm-fast-emfloat.a(__aeabi_d2iz.o)
 .xc_stack_usage.hdr
                0x0000000000000000        0xe c:/program files/microchip/xc32/v4.60/bin/bin/../../lib/gcc/pic32c/8.3.1/../../../../pic32c/lib/thumb/v6-m/nofp\libm-fast-emfloat.a(__aeabi_d2uiz.o)
 .xc_stack_usage
                0x0000000000000000       0x43 c:/program files/microchip/xc32/v4.60/bin/bin/../../lib/gcc/pic32c/8.3.1/../../../../pic32c/lib/thumb/v6-m/nofp\libm-fast-emfloat.a(__aeabi_d2uiz.o)
 .xc_stack_usage.hdr
                0x0000000000000000        0xe c:/program files/microchip/xc32/v4.60/bin/bin/../../lib/gcc/pic32c/8.3.1/thumb/v6-m/nofp\libgcc.a(_udivsi3.o)
 .xc_stack_usage
                0x0000000000000000       0x35 c:/program files/microchip/xc32/v4.60/bin/bin/../../lib/gcc/pic32c/8.3.1/thumb/v6-m/nofp\libgcc.a(_udivsi3.o)
 .xc_stack_usage.hdr
                0x0000000000000000        0xe c:/program files/microchip/xc32/v4.60/bin/bin/../../lib/gcc/pic32c/8.3.1/thumb/v6-m/nofp\libgcc.a(_divsi3.o)
 .xc_stack_usage
                0x0000000000000000       0x33 c:/program files/microchip/xc32/v4.60/bin/bin/../../lib/gcc/pic32c/8.3.1/thumb/v6-m/nofp\libgcc.a(_divsi3.o)
 .xc_stack_usage.hdr
                0x0000000000000000        0xe c:/program files/microchip/xc32/v4.60/bin/bin/../../lib/gcc/pic32c/8.3.1/thumb/v6-m/nofp\libgcc.a(_dvmd_tls.o)
 .xc_stack_usage
                0x0000000000000000       0x36 c:/program files/microchip/xc32/v4.60/bin/bin/../../lib/gcc/pic32c/8.3.1/thumb/v6-m/nofp\libgcc.a(_dvmd_tls.o)
 .xc_stack_usage.hdr
                0x0000000000000000        0xe c:/program files/microchip/xc32/v4.60/bin/bin/../../lib/gcc/pic32c/8.3.1/thumb/v6-m/nofp\libgcc.a(_aeabi_ldivmod.o)
 .xc_stack_usage
                0x0000000000000000       0x1d c:/program files/microchip/xc32/v4.60/bin/bin/../../lib/gcc/pic32c/8.3.1/thumb/v6-m/nofp\libgcc.a(_aeabi_ldivmod.o)
 .xc_stack_usage.hdr
                0x0000000000000000        0xe c:/program files/microchip/xc32/v4.60/bin/bin/../../lib/gcc/pic32c/8.3.1/thumb/v6-m/nofp\libgcc.a(_aeabi_uldivmod.o)
 .xc_stack_usage
                0x0000000000000000       0x1e c:/program files/microchip/xc32/v4.60/bin/bin/../../lib/gcc/pic32c/8.3.1/thumb/v6-m/nofp\libgcc.a(_aeabi_uldivmod.o)
 .xc_stack_usage
                0x0000000000000000       0x16 c:/program files/microchip/xc32/v4.60/bin/bin/../../lib/gcc/pic32c/8.3.1/thumb/v6-m/nofp\libgcc.a(_muldi3.o)
 .xc_stack_usage.hdr
                0x0000000000000000        0xe c:/program files/microchip/xc32/v4.60/bin/bin/../../lib/gcc/pic32c/8.3.1/thumb/v6-m/nofp\libgcc.a(_muldi3.o)
 .xc_stack_usage
                0x0000000000000000       0x1a c:/program files/microchip/xc32/v4.60/bin/bin/../../lib/gcc/pic32c/8.3.1/thumb/v6-m/nofp\libgcc.a(_udivmoddi4.o)
 .xc_stack_usage.hdr
                0x0000000000000000        0xe c:/program files/microchip/xc32/v4.60/bin/bin/../../lib/gcc/pic32c/8.3.1/thumb/v6-m/nofp\libgcc.a(_udivmoddi4.o)
 .xc_stack_usage
                0x0000000000000000       0x22 c:/program files/microchip/xc32/v4.60/bin/bin/../../lib/gcc/pic32c/8.3.1/thumb/v6-m/nofp\libgcc.a(bpabi.o)
 .xc_stack_usage.hdr
                0x0000000000000000        0xe c:/program files/microchip/xc32/v4.60/bin/bin/../../lib/gcc/pic32c/8.3.1/thumb/v6-m/nofp\libgcc.a(bpabi.o)
 .xc_stack_usage.hdr
                0x0000000000000000        0xe c:/program files/microchip/xc32/v4.60/bin/bin/../../lib/gcc/pic32c/8.3.1/thumb/v6-m/nofp\libgcc.a(_lshrdi3.o)
 .xc_stack_usage
                0x0000000000000000       0x17 c:/program files/microchip/xc32/v4.60/bin/bin/../../lib/gcc/pic32c/8.3.1/thumb/v6-m/nofp\libgcc.a(_lshrdi3.o)
 .xc_stack_usage.hdr
                0x0000000000000000        0xe c:/program files/microchip/xc32/v4.60/bin/bin/../../lib/gcc/pic32c/8.3.1/thumb/v6-m/nofp\libgcc.a(_ashldi3.o)
 .xc_stack_usage
                0x0000000000000000       0x17 c:/program files/microchip/xc32/v4.60/bin/bin/../../lib/gcc/pic32c/8.3.1/thumb/v6-m/nofp\libgcc.a(_ashldi3.o)
 .xc_stack_usage.hdr
                0x0000000000000000        0xe c:/program files/microchip/xc32/v4.60/bin/bin/../../lib/gcc/pic32c/8.3.1/thumb/v6-m/nofp\libgcc.a(_clzdi2.o)
 .xc_stack_usage
                0x0000000000000000       0x16 c:/program files/microchip/xc32/v4.60/bin/bin/../../lib/gcc/pic32c/8.3.1/thumb/v6-m/nofp\libgcc.a(_clzdi2.o)
 .xc_stack_usage
                0x0000000000000000       0x16 c:/program files/microchip/xc32/v4.60/bin/bin/../../lib/gcc/pic32c/8.3.1/thumb/v6-m/nofp\libgcc.a(_divdi3.o)
 .xc_stack_usage.hdr
                0x0000000000000000        0xe c:/program files/microchip/xc32/v4.60/bin/bin/../../lib/gcc/pic32c/8.3.1/thumb/v6-m/nofp\libgcc.a(_divdi3.o)
 .xc_stack_usage.hdr
                0x0000000000000000        0xe c:/program files/microchip/xc32/v4.60/bin/bin/../../lib/gcc/pic32c/8.3.1/thumb/v6-m/nofp\libgcc.a(_clzsi2.o)
 .xc_stack_usage
                0x0000000000000000       0x16 c:/program files/microchip/xc32/v4.60/bin/bin/../../lib/gcc/pic32c/8.3.1/thumb/v6-m/nofp\libgcc.a(_clzsi2.o)
 .xc_stack_usage
                0x0000000000000000       0x4d c:/program files/microchip/xc32/v4.60/bin/bin/../../lib/gcc/pic32c/8.3.1/../../../../pic32c/lib/thumb/v6-m/nofp\libpic32c.a(sbrk.o)
 .xc_stack_usage.hdr
                0x0000000000000000        0xe c:/program files/microchip/xc32/v4.60/bin/bin/../../lib/gcc/pic32c/8.3.1/../../../../pic32c/lib/thumb/v6-m/nofp\libpic32c.a(sbrk.o)
 .xc_stack_usage
                0x0000000000000000       0x14 c:/program files/microchip/xc32/v4.60/bin/bin/../../lib/gcc/pic32c/8.3.1/../../../../pic32c/lib/thumb/v6-m/nofp\libc-size-musl.a(strcpy.o)
 .xc_stack_usage.hdr
                0x0000000000000000        0xe c:/program files/microchip/xc32/v4.60/bin/bin/../../lib/gcc/pic32c/8.3.1/../../../../pic32c/lib/thumb/v6-m/nofp\libc-size-musl.a(strcpy.o)
 .xc_stack_usage
                0x0000000000000000       0x14 c:/program files/microchip/xc32/v4.60/bin/bin/../../lib/gcc/pic32c/8.3.1/../../../../pic32c/lib/thumb/v6-m/nofp\libc-size-musl.a(stpcpy.o)
 .xc_stack_usage.hdr
                0x0000000000000000        0xe c:/program files/microchip/xc32/v4.60/bin/bin/../../lib/gcc/pic32c/8.3.1/../../../../pic32c/lib/thumb/v6-m/nofp\libc-size-musl.a(stpcpy.o)
 .xc_stack_usage.hdr
                0x0000000000000000        0xe c:/program files/microchip/xc32/v4.60/bin/bin/../../lib/gcc/pic32c/8.3.1/thumb/v6-m/nofp/crtend.o
 .xc_stack_usage.hdr
                0x0000000000000000        0xe c:/program files/microchip/xc32/v4.60/bin/bin/../../lib/gcc/pic32c/8.3.1/thumb/v6-m/nofp/crtn.o
 .xc_stack_usage
                0x0000000000000000       0x1b c:/program files/microchip/xc32/v4.60/bin/bin/../../lib/gcc/pic32c/8.3.1/../../../../pic32c/lib/thumb/v6-m/nofp\libpic32c.a(pic32_data_init_clear.o)
 .xc_stack_usage.hdr
                0x0000000000000000        0xe c:/program files/microchip/xc32/v4.60/bin/bin/../../lib/gcc/pic32c/8.3.1/../../../../pic32c/lib/thumb/v6-m/nofp\libpic32c.a(pic32_data_init_clear.o)
 .xc_stack_usage
                0x0000000000000000       0x1a c:/program files/microchip/xc32/v4.60/bin/bin/../../lib/gcc/pic32c/8.3.1/../../../../pic32c/lib/thumb/v6-m/nofp\libpic32c.a(pic32_data_init_copy.o)
 .xc_stack_usage.hdr
                0x0000000000000000        0xe c:/program files/microchip/xc32/v4.60/bin/bin/../../lib/gcc/pic32c/8.3.1/../../../../pic32c/lib/thumb/v6-m/nofp\libpic32c.a(pic32_data_init_copy.o)

Memory Configuration

Name             Origin             Length             Attributes
rom              0x0000000000000000 0x0000000000040000 xrl
ram              0x0000000020000000 0x0000000000008000 xw !r
config_00804000  0x0000000000804000 0x0000000000000004
config_00804004  0x0000000000804004 0x0000000000000004
*default*        0x0000000000000000 0xffffffffffffffff

Linker script and memory map

LOAD c:/program files/microchip/xc32/v4.60/bin/bin/../../lib/gcc/pic32c/8.3.1/thumb/v6-m/nofp/crti.o
LOAD c:/program files/microchip/xc32/v4.60/bin/bin/../../lib/gcc/pic32c/8.3.1/thumb/v6-m/nofp/crtbegin.o
LOAD build/samd21IOT_winc1500/production/_ext/287230454/drv_spi.o
LOAD build/samd21IOT_winc1500/production/_ext/224737734/wdrv_winc_gpio.o
LOAD build/samd21IOT_winc1500/production/_ext/224737734/wdrv_winc_eint.o
LOAD build/samd21IOT_winc1500/production/_ext/284355797/wdrv_winc_spi.o
LOAD build/samd21IOT_winc1500/production/_ext/912793297/nm_common.o
LOAD build/samd21IOT_winc1500/production/_ext/881504404/m2m_wifi.o
LOAD build/samd21IOT_winc1500/production/_ext/881504404/m2m_ota.o
LOAD build/samd21IOT_winc1500/production/_ext/881504404/m2m_hif.o
LOAD build/samd21IOT_winc1500/production/_ext/881504404/m2m_periph.o
LOAD build/samd21IOT_winc1500/production/_ext/881504404/nmbus.o
LOAD build/samd21IOT_winc1500/production/_ext/881504404/m2m_ssl.o
LOAD build/samd21IOT_winc1500/production/_ext/881504404/nmspi.o
LOAD build/samd21IOT_winc1500/production/_ext/881504404/nmdrv.o
LOAD build/samd21IOT_winc1500/production/_ext/881504404/nmasic.o
LOAD build/samd21IOT_winc1500/production/_ext/455027017/inet_ntop.o
LOAD build/samd21IOT_winc1500/production/_ext/455027017/inet_addr.o
LOAD build/samd21IOT_winc1500/production/_ext/455027017/socket.o
LOAD build/samd21IOT_winc1500/production/_ext/1637020121/flexible_flash.o
LOAD build/samd21IOT_winc1500/production/_ext/1637020121/spi_flash.o
LOAD build/samd21IOT_winc1500/production/_ext/469334988/wdrv_winc_osal.o
LOAD build/samd21IOT_winc1500/production/_ext/1235514674/wdrv_winc.o
LOAD build/samd21IOT_winc1500/production/_ext/1235514674/wdrv_winc_host_file.o
LOAD build/samd21IOT_winc1500/production/_ext/1235514674/wdrv_winc_httpprovctx.o
LOAD build/samd21IOT_winc1500/production/_ext/1235514674/wdrv_winc_custie.o
LOAD build/samd21IOT_winc1500/production/_ext/1235514674/wdrv_winc_bssctx.o
LOAD build/samd21IOT_winc1500/production/_ext/1235514674/wdrv_winc_powersave.o
LOAD build/samd21IOT_winc1500/production/_ext/1235514674/wdrv_winc_authctx.o
LOAD build/samd21IOT_winc1500/production/_ext/1235514674/wdrv_winc_bssfind.o
LOAD build/samd21IOT_winc1500/production/_ext/1235514674/wdrv_winc_socket.o
LOAD build/samd21IOT_winc1500/production/_ext/1235514674/wdrv_winc_nvm.o
LOAD build/samd21IOT_winc1500/production/_ext/1235514674/wdrv_winc_sta.o
LOAD build/samd21IOT_winc1500/production/_ext/1235514674/wdrv_winc_ssl.o
LOAD build/samd21IOT_winc1500/production/_ext/1235514674/wdrv_winc_systime.o
LOAD build/samd21IOT_winc1500/production/_ext/1235514674/wdrv_winc_wps.o
LOAD build/samd21IOT_winc1500/production/_ext/1235514674/wdrv_winc_enterprise.o
LOAD build/samd21IOT_winc1500/production/_ext/1235514674/wdrv_winc_softap.o
LOAD build/samd21IOT_winc1500/production/_ext/1235514674/wdrv_winc_assoc.o
LOAD build/samd21IOT_winc1500/production/_ext/435457175/plib_clock.o
LOAD build/samd21IOT_winc1500/production/_ext/1953739970/plib_dmac.o
LOAD build/samd21IOT_winc1500/production/_ext/1876637944/plib_eic.o
LOAD build/samd21IOT_winc1500/production/_ext/437606661/plib_evsys.o
LOAD build/samd21IOT_winc1500/production/_ext/1954046777/plib_nvic.o
LOAD build/samd21IOT_winc1500/production/_ext/975387175/plib_nvmctrl.o
LOAD build/samd21IOT_winc1500/production/_ext/1954099928/plib_port.o
LOAD build/samd21IOT_winc1500/production/_ext/34491124/plib_sercom2_spi_master.o
LOAD build/samd21IOT_winc1500/production/_ext/1207737362/plib_sercom5_usart.o
LOAD build/samd21IOT_winc1500/production/_ext/2138746234/plib_tc3.o
LOAD build/samd21IOT_winc1500/production/_ext/1613073709/xc32_monitor.o
LOAD build/samd21IOT_winc1500/production/_ext/106321624/sys_console.o
LOAD build/samd21IOT_winc1500/production/_ext/106321624/sys_console_uart.o
LOAD build/samd21IOT_winc1500/production/_ext/604157148/sys_debug.o
LOAD build/samd21IOT_winc1500/production/_ext/226979060/sys_dma.o
LOAD build/samd21IOT_winc1500/production/_ext/55136832/sys_int.o
LOAD build/samd21IOT_winc1500/production/_ext/13306586/sys_time.o
LOAD build/samd21IOT_winc1500/production/_ext/2058341299/tasks.o
LOAD build/samd21IOT_winc1500/production/_ext/2058341299/interrupts.o
LOAD build/samd21IOT_winc1500/production/_ext/2058341299/initialization.o
LOAD build/samd21IOT_winc1500/production/_ext/2058341299/startup_xc32.o
LOAD build/samd21IOT_winc1500/production/_ext/2058341299/libc_syscalls.o
LOAD build/samd21IOT_winc1500/production/_ext/2058341299/exceptions.o
LOAD build/samd21IOT_winc1500/production/_ext/1360937237/main.o
LOAD build/samd21IOT_winc1500/production/_ext/1360937237/app.o
LOAD build/samd21IOT_winc1500/production/_ext/1360937237/winc1500_tcp_server.o
                0x0000000000000001                __MPLAB_BUILD = 0x1
                0x0000000000040000                __rom_end = (ORIGIN (rom) + LENGTH (rom))
                0x0000000020008000                __ram_end = (ORIGIN (ram) + LENGTH (ram))

.config_00804000
                0x0000000000804000        0x4
 *(.config_00804000)
 .config_00804000
                0x0000000000804000        0x4 build/samd21IOT_winc1500/production/_ext/2058341299/initialization.o
                0x0000000000804000                __config_00804000

.config_00804004
                0x0000000000804004        0x4
 *(.config_00804004)
 .config_00804004
                0x0000000000804004        0x4 build/samd21IOT_winc1500/production/_ext/2058341299/initialization.o
                0x0000000000804004                __config_00804004

.vectors        0x0000000000000000       0xb0
                0x0000000000000000                . = ALIGN (0x4)
                0x0000000000000000                _sfixed = .
 *(.vectors .vectors.* .vectors_default .vectors_default.*)
 .vectors       0x0000000000000000       0xb0 build/samd21IOT_winc1500/production/_ext/2058341299/interrupts.o
                0x0000000000000000                exception_table
 *(.isr_vector)
 *(.reset*)
 *(.after_vectors)

.text           0x00000000000000b0       0x20
                0x00000000000000b0                . = ALIGN (0x4)
 *(.glue_7t)
 .glue_7t       0x00000000000000b0        0x0 linker stubs
 *(.glue_7)
 .glue_7        0x00000000000000b0        0x0 linker stubs
 *(.gnu.linkonce.r.*)
 *(.ARM.extab* .gnu.linkonce.armextab.*)
 .ARM.extab     0x00000000000000b0        0x0 c:/program files/microchip/xc32/v4.60/bin/bin/../../lib/gcc/pic32c/8.3.1/thumb/v6-m/nofp\libgcc.a(_udivmoddi4.o)
 .ARM.extab     0x00000000000000b0        0x0 c:/program files/microchip/xc32/v4.60/bin/bin/../../lib/gcc/pic32c/8.3.1/thumb/v6-m/nofp\libgcc.a(_divdi3.o)
                0x00000000000000b0                . = ALIGN (0x4)
 *(.init)
 .init          0x00000000000000b0        0x4 c:/program files/microchip/xc32/v4.60/bin/bin/../../lib/gcc/pic32c/8.3.1/thumb/v6-m/nofp/crti.o
                0x00000000000000b0                _init
 .init          0x00000000000000b4        0x8 c:/program files/microchip/xc32/v4.60/bin/bin/../../lib/gcc/pic32c/8.3.1/thumb/v6-m/nofp/crtn.o
                0x00000000000000bc                . = ALIGN (0x4)
                0x00000000000000bc                __preinit_array_start = .
 *(.preinit_array)
                0x00000000000000bc                __preinit_array_end = .
                0x00000000000000bc                . = ALIGN (0x4)
                0x00000000000000bc                __init_array_start = .
 *(SORT_BY_NAME(.init_array.*))
 *(.init_array)
 .init_array    0x00000000000000bc        0x4 c:/program files/microchip/xc32/v4.60/bin/bin/../../lib/gcc/pic32c/8.3.1/thumb/v6-m/nofp/crtbegin.o
                0x00000000000000c0                __init_array_end = .
                0x00000000000000c0                . = ALIGN (0x4)
 *crtbegin.o(.ctors)
 *(EXCLUDE_FILE(*crtend.o) .ctors)
 *(SORT_BY_NAME(.ctors.*))
 *crtend.o(.ctors)
                0x00000000000000c0                . = ALIGN (0x4)
 *(.fini)
 .fini          0x00000000000000c0        0x4 c:/program files/microchip/xc32/v4.60/bin/bin/../../lib/gcc/pic32c/8.3.1/thumb/v6-m/nofp/crti.o
                0x00000000000000c0                _fini
 .fini          0x00000000000000c4        0x8 c:/program files/microchip/xc32/v4.60/bin/bin/../../lib/gcc/pic32c/8.3.1/thumb/v6-m/nofp/crtn.o
                0x00000000000000cc                . = ALIGN (0x4)
                0x00000000000000cc                __fini_array_start = .
 *(.fini_array)
 .fini_array    0x00000000000000cc        0x4 c:/program files/microchip/xc32/v4.60/bin/bin/../../lib/gcc/pic32c/8.3.1/thumb/v6-m/nofp/crtbegin.o
 *(SORT_BY_NAME(.fini_array.*))
                0x00000000000000d0                __fini_array_end = .
 *crtbegin.o(.dtors)
 *(EXCLUDE_FILE(*crtend.o) .dtors)
 *(SORT_BY_NAME(.dtors.*))
 *crtend.o(.dtors)
                0x00000000000000d0                . = ALIGN (0x4)
                0x00000000000000d0                _efixed = .
                [!provide]                        PROVIDE (__exidx_start = .)

.ARM.exidx      0x00000000000000d0       0x10
 *(.ARM.exidx* .gnu.linkonce.armexidx.*)
 .ARM.exidx     0x00000000000000d8        0x8 c:/program files/microchip/xc32/v4.60/bin/bin/../../lib/gcc/pic32c/8.3.1/thumb/v6-m/nofp\libgcc.a(_udivmoddi4.o)
 .ARM.exidx     0x00000000000000d0        0x8 c:/program files/microchip/xc32/v4.60/bin/bin/../../lib/gcc/pic32c/8.3.1/thumb/v6-m/nofp\libgcc.a(_divdi3.o)
                [!provide]                        PROVIDE (__exidx_end = .)
                0x00000000000000e0                . = ALIGN (0x4)
                0x00000000000000e0                _etext = .

.bss            0x0000000020000000        0x0
                0x0000000020000000                . = ALIGN (0x4)
                0x0000000020000000                __bss_start__ = .
                0x0000000020000000                _sbss = .
                0x0000000020000000                _szero = .
 *(COMMON)
                0x0000000020000000                . = ALIGN (0x4)
                0x0000000020000000                __bss_end__ = .
                0x0000000020000000                _ebss = .
                0x0000000020000000                _ezero = .
                0x0000000020000000                . = ALIGN (0x4)
                0x0000000020000000                _end = .
                0x0000000020007fff                _ram_end_ = ((ORIGIN (ram) + LENGTH (ram)) - 0x1)
                0x0000000000000200                _min_heap_size = 0x200
START GROUP
LOAD c:/program files/microchip/xc32/v4.60/bin/bin/../../lib/gcc/pic32c/8.3.1/../../../../pic32c/lib/thumb/v6-m/nofp\libpic32c.a
LOAD c:/program files/microchip/xc32/v4.60/bin/bin/../../lib/gcc/pic32c/8.3.1/../../../../pic32c/lib/thumb/v6-m/nofp\libc-size-musl.a
LOAD c:/program files/microchip/xc32/v4.60/bin/bin/../../lib/gcc/pic32c/8.3.1/../../../../pic32c/lib/thumb/v6-m/nofp\liblmalloc-musl.a
LOAD c:/program files/microchip/xc32/v4.60/bin/bin/../../lib/gcc/pic32c/8.3.1/../../../../pic32c/lib/thumb/v6-m/nofp\libm-fast-emfloat.a
LOAD c:/program files/microchip/xc32/v4.60/bin/bin/../../lib/gcc/pic32c/8.3.1/../../../../pic32c/lib/thumb/v6-m/nofp\libm-musl.a
LOAD c:/program files/microchip/xc32/v4.60/bin/bin/../../lib/gcc/pic32c/8.3.1/../../../../pic32c/lib/thumb/v6-m/nofp\libc-musl.a
LOAD c:/program files/microchip/xc32/v4.60/bin/bin/../../lib/gcc/pic32c/8.3.1/../../../../pic32c/lib/thumb/v6-m/nofp\libm-fast-emfloat.a
LOAD c:/program files/microchip/xc32/v4.60/bin/bin/../../lib/gcc/pic32c/8.3.1/../../../../pic32c/lib/thumb/v6-m/nofp\libm-musl.a
LOAD c:/program files/microchip/xc32/v4.60/bin/bin/../../lib/gcc/pic32c/8.3.1/thumb/v6-m/nofp\libgcc.a
END GROUP
LOAD c:/program files/microchip/xc32/v4.60/bin/bin/../../lib/gcc/pic32c/8.3.1/thumb/v6-m/nofp/crtend.o
LOAD c:/program files/microchip/xc32/v4.60/bin/bin/../../lib/gcc/pic32c/8.3.1/thumb/v6-m/nofp/crtn.o
OUTPUT(dist/samd21IOT_winc1500/production/tcp_server_wic1500_samdIOT.X.production.elf elf32-littlearm)
LOAD data_init
LOAD stack

.ARM.attributes
                0x0000000000000000       0x2a
 .ARM.attributes
                0x0000000000000000       0x1e c:/program files/microchip/xc32/v4.60/bin/bin/../../lib/gcc/pic32c/8.3.1/thumb/v6-m/nofp/crti.o
 .ARM.attributes
                0x000000000000001e       0x2c c:/program files/microchip/xc32/v4.60/bin/bin/../../lib/gcc/pic32c/8.3.1/thumb/v6-m/nofp/crtbegin.o
 .ARM.attributes
                0x000000000000004a       0x2c build/samd21IOT_winc1500/production/_ext/287230454/drv_spi.o
 .ARM.attributes
                0x0000000000000076       0x2c build/samd21IOT_winc1500/production/_ext/224737734/wdrv_winc_gpio.o
 .ARM.attributes
                0x00000000000000a2       0x2c build/samd21IOT_winc1500/production/_ext/224737734/wdrv_winc_eint.o
 .ARM.attributes
                0x00000000000000ce       0x2c build/samd21IOT_winc1500/production/_ext/284355797/wdrv_winc_spi.o
 .ARM.attributes
                0x00000000000000fa       0x2c build/samd21IOT_winc1500/production/_ext/912793297/nm_common.o
 .ARM.attributes
                0x0000000000000126       0x2c build/samd21IOT_winc1500/production/_ext/881504404/m2m_wifi.o
 .ARM.attributes
                0x0000000000000152       0x2c build/samd21IOT_winc1500/production/_ext/881504404/m2m_ota.o
 .ARM.attributes
                0x000000000000017e       0x2c build/samd21IOT_winc1500/production/_ext/881504404/m2m_hif.o
 .ARM.attributes
                0x00000000000001aa       0x2c build/samd21IOT_winc1500/production/_ext/881504404/m2m_periph.o
 .ARM.attributes
                0x00000000000001d6       0x2c build/samd21IOT_winc1500/production/_ext/881504404/nmbus.o
 .ARM.attributes
                0x0000000000000202       0x2c build/samd21IOT_winc1500/production/_ext/881504404/m2m_ssl.o
 .ARM.attributes
                0x000000000000022e       0x2c build/samd21IOT_winc1500/production/_ext/881504404/nmspi.o
 .ARM.attributes
                0x000000000000025a       0x2c build/samd21IOT_winc1500/production/_ext/881504404/nmdrv.o
 .ARM.attributes
                0x0000000000000286       0x2c build/samd21IOT_winc1500/production/_ext/881504404/nmasic.o
 .ARM.attributes
                0x00000000000002b2       0x2c build/samd21IOT_winc1500/production/_ext/455027017/inet_ntop.o
 .ARM.attributes
                0x00000000000002de       0x2c build/samd21IOT_winc1500/production/_ext/455027017/inet_addr.o
 .ARM.attributes
                0x000000000000030a       0x2c build/samd21IOT_winc1500/production/_ext/455027017/socket.o
 .ARM.attributes
                0x0000000000000336       0x2c build/samd21IOT_winc1500/production/_ext/1637020121/flexible_flash.o
 .ARM.attributes
                0x0000000000000362       0x2c build/samd21IOT_winc1500/production/_ext/1637020121/spi_flash.o
 .ARM.attributes
                0x000000000000038e       0x2c build/samd21IOT_winc1500/production/_ext/469334988/wdrv_winc_osal.o
 .ARM.attributes
                0x00000000000003ba       0x2c build/samd21IOT_winc1500/production/_ext/1235514674/wdrv_winc.o
 .ARM.attributes
                0x00000000000003e6       0x2c build/samd21IOT_winc1500/production/_ext/1235514674/wdrv_winc_host_file.o
 .ARM.attributes
                0x0000000000000412       0x2c build/samd21IOT_winc1500/production/_ext/1235514674/wdrv_winc_httpprovctx.o
 .ARM.attributes
                0x000000000000043e       0x2c build/samd21IOT_winc1500/production/_ext/1235514674/wdrv_winc_custie.o
 .ARM.attributes
                0x000000000000046a       0x2c build/samd21IOT_winc1500/production/_ext/1235514674/wdrv_winc_bssctx.o
 .ARM.attributes
                0x0000000000000496       0x2c build/samd21IOT_winc1500/production/_ext/1235514674/wdrv_winc_powersave.o
 .ARM.attributes
                0x00000000000004c2       0x2c build/samd21IOT_winc1500/production/_ext/1235514674/wdrv_winc_authctx.o
 .ARM.attributes
                0x00000000000004ee       0x2c build/samd21IOT_winc1500/production/_ext/1235514674/wdrv_winc_bssfind.o
 .ARM.attributes
                0x000000000000051a       0x2c build/samd21IOT_winc1500/production/_ext/1235514674/wdrv_winc_socket.o
 .ARM.attributes
                0x0000000000000546       0x2c build/samd21IOT_winc1500/production/_ext/1235514674/wdrv_winc_nvm.o
 .ARM.attributes
                0x0000000000000572       0x2c build/samd21IOT_winc1500/production/_ext/1235514674/wdrv_winc_sta.o
 .ARM.attributes
                0x000000000000059e       0x2c build/samd21IOT_winc1500/production/_ext/1235514674/wdrv_winc_ssl.o
 .ARM.attributes
                0x00000000000005ca       0x2c build/samd21IOT_winc1500/production/_ext/1235514674/wdrv_winc_systime.o
 .ARM.attributes
                0x00000000000005f6       0x2c build/samd21IOT_winc1500/production/_ext/1235514674/wdrv_winc_wps.o
 .ARM.attributes
                0x0000000000000622       0x2c build/samd21IOT_winc1500/production/_ext/1235514674/wdrv_winc_enterprise.o
 .ARM.attributes
                0x000000000000064e       0x2c build/samd21IOT_winc1500/production/_ext/1235514674/wdrv_winc_softap.o
 .ARM.attributes
                0x000000000000067a       0x2c build/samd21IOT_winc1500/production/_ext/1235514674/wdrv_winc_assoc.o
 .ARM.attributes
                0x00000000000006a6       0x2c build/samd21IOT_winc1500/production/_ext/435457175/plib_clock.o
 .ARM.attributes
                0x00000000000006d2       0x2c build/samd21IOT_winc1500/production/_ext/1953739970/plib_dmac.o
 .ARM.attributes
                0x00000000000006fe       0x2c build/samd21IOT_winc1500/production/_ext/1876637944/plib_eic.o
 .ARM.attributes
                0x000000000000072a       0x2c build/samd21IOT_winc1500/production/_ext/437606661/plib_evsys.o
 .ARM.attributes
                0x0000000000000756       0x2c build/samd21IOT_winc1500/production/_ext/1954046777/plib_nvic.o
 .ARM.attributes
                0x0000000000000782       0x2c build/samd21IOT_winc1500/production/_ext/975387175/plib_nvmctrl.o
 .ARM.attributes
                0x00000000000007ae       0x2c build/samd21IOT_winc1500/production/_ext/1954099928/plib_port.o
 .ARM.attributes
                0x00000000000007da       0x2c build/samd21IOT_winc1500/production/_ext/34491124/plib_sercom2_spi_master.o
 .ARM.attributes
                0x0000000000000806       0x2c build/samd21IOT_winc1500/production/_ext/1207737362/plib_sercom5_usart.o
 .ARM.attributes
                0x0000000000000832       0x2c build/samd21IOT_winc1500/production/_ext/2138746234/plib_tc3.o
 .ARM.attributes
                0x000000000000085e       0x2c build/samd21IOT_winc1500/production/_ext/1613073709/xc32_monitor.o
 .ARM.attributes
                0x000000000000088a       0x2c build/samd21IOT_winc1500/production/_ext/106321624/sys_console.o
 .ARM.attributes
                0x00000000000008b6       0x2c build/samd21IOT_winc1500/production/_ext/106321624/sys_console_uart.o
 .ARM.attributes
                0x00000000000008e2       0x2c build/samd21IOT_winc1500/production/_ext/604157148/sys_debug.o
 .ARM.attributes
                0x000000000000090e       0x2c build/samd21IOT_winc1500/production/_ext/226979060/sys_dma.o
 .ARM.attributes
                0x000000000000093a       0x2c build/samd21IOT_winc1500/production/_ext/55136832/sys_int.o
 .ARM.attributes
                0x0000000000000966       0x2c build/samd21IOT_winc1500/production/_ext/13306586/sys_time.o
 .ARM.attributes
                0x0000000000000992       0x2c build/samd21IOT_winc1500/production/_ext/2058341299/tasks.o
 .ARM.attributes
                0x00000000000009be       0x2c build/samd21IOT_winc1500/production/_ext/2058341299/interrupts.o
 .ARM.attributes
                0x00000000000009ea       0x2c build/samd21IOT_winc1500/production/_ext/2058341299/initialization.o
 .ARM.attributes
                0x0000000000000a16       0x2c build/samd21IOT_winc1500/production/_ext/2058341299/startup_xc32.o
 .ARM.attributes
                0x0000000000000a42       0x2c build/samd21IOT_winc1500/production/_ext/2058341299/libc_syscalls.o
 .ARM.attributes
                0x0000000000000a6e       0x2c build/samd21IOT_winc1500/production/_ext/2058341299/exceptions.o
 .ARM.attributes
                0x0000000000000a9a       0x2c build/samd21IOT_winc1500/production/_ext/1360937237/main.o
 .ARM.attributes
                0x0000000000000ac6       0x2c build/samd21IOT_winc1500/production/_ext/1360937237/app.o
 .ARM.attributes
                0x0000000000000af2       0x2c build/samd21IOT_winc1500/production/_ext/1360937237/winc1500_tcp_server.o
 .ARM.attributes
                0x0000000000000b1e       0x2c c:/program files/microchip/xc32/v4.60/bin/bin/../../lib/gcc/pic32c/8.3.1/../../../../pic32c/lib/thumb/v6-m/nofp\libpic32c.a(data_init.o)
 .ARM.attributes
                0x0000000000000b4a       0x2e c:/program files/microchip/xc32/v4.60/bin/bin/../../lib/gcc/pic32c/8.3.1/../../../../pic32c/lib/thumb/v6-m/nofp\libc-size-musl.a(memcpy.o)
 .ARM.attributes
                0x0000000000000b78       0x2e c:/program files/microchip/xc32/v4.60/bin/bin/../../lib/gcc/pic32c/8.3.1/../../../../pic32c/lib/thumb/v6-m/nofp\libc-size-musl.a(memset.o)
 .ARM.attributes
                0x0000000000000ba6       0x2e c:/program files/microchip/xc32/v4.60/bin/bin/../../lib/gcc/pic32c/8.3.1/../../../../pic32c/lib/thumb/v6-m/nofp\libc-size-musl.a(strlen.o)
 .ARM.attributes
                0x0000000000000bd4       0x2e c:/program files/microchip/xc32/v4.60/bin/bin/../../lib/gcc/pic32c/8.3.1/../../../../pic32c/lib/thumb/v6-m/nofp\libc-size-musl.a(strchr.o)
 .ARM.attributes
                0x0000000000000c02       0x2e c:/program files/microchip/xc32/v4.60/bin/bin/../../lib/gcc/pic32c/8.3.1/../../../../pic32c/lib/thumb/v6-m/nofp\libc-size-musl.a(strchrnul.o)
 .ARM.attributes
                0x0000000000000c30       0x2e c:/program files/microchip/xc32/v4.60/bin/bin/../../lib/gcc/pic32c/8.3.1/../../../../pic32c/lib/thumb/v6-m/nofp\libc-size-musl.a(strnlen.o)
 .ARM.attributes
                0x0000000000000c5e       0x2e c:/program files/microchip/xc32/v4.60/bin/bin/../../lib/gcc/pic32c/8.3.1/../../../../pic32c/lib/thumb/v6-m/nofp\libc-size-musl.a(memchr.o)
 .ARM.attributes
                0x0000000000000c8c       0x2e c:/program files/microchip/xc32/v4.60/bin/bin/../../lib/gcc/pic32c/8.3.1/../../../../pic32c/lib/thumb/v6-m/nofp\liblmalloc-musl.a(lite_free.o)
 .ARM.attributes
                0x0000000000000cba       0x2e c:/program files/microchip/xc32/v4.60/bin/bin/../../lib/gcc/pic32c/8.3.1/../../../../pic32c/lib/thumb/v6-m/nofp\liblmalloc-musl.a(lite_malloc.o)
 .ARM.attributes
                0x0000000000000ce8       0x2e c:/program files/microchip/xc32/v4.60/bin/bin/../../lib/gcc/pic32c/8.3.1/../../../../pic32c/lib/thumb/v6-m/nofp\libc-musl.a(__libc_start_main.o)
 .ARM.attributes
                0x0000000000000d16       0x2e c:/program files/microchip/xc32/v4.60/bin/bin/../../lib/gcc/pic32c/8.3.1/../../../../pic32c/lib/thumb/v6-m/nofp\libc-musl.a(__errno_location.o)
 .ARM.attributes
                0x0000000000000d44       0x2e c:/program files/microchip/xc32/v4.60/bin/bin/../../lib/gcc/pic32c/8.3.1/../../../../pic32c/lib/thumb/v6-m/nofp\libc-musl.a(libc.o)
 .ARM.attributes
                0x0000000000000d72       0x2e c:/program files/microchip/xc32/v4.60/bin/bin/../../lib/gcc/pic32c/8.3.1/../../../../pic32c/lib/thumb/v6-m/nofp\libc-musl.a(expand_heap.o)
 .ARM.attributes
                0x0000000000000da0       0x2e c:/program files/microchip/xc32/v4.60/bin/bin/../../lib/gcc/pic32c/8.3.1/../../../../pic32c/lib/thumb/v6-m/nofp\libc-musl.a(vsnprintf.o)
 .ARM.attributes
                0x0000000000000dce       0x2e c:/program files/microchip/xc32/v4.60/bin/bin/../../lib/gcc/pic32c/8.3.1/../../../../pic32c/lib/thumb/v6-m/nofp\libc-musl.a(sprintf.o)
 .ARM.attributes
                0x0000000000000dfc       0x2e c:/program files/microchip/xc32/v4.60/bin/bin/../../lib/gcc/pic32c/8.3.1/../../../../pic32c/lib/thumb/v6-m/nofp\libc-musl.a(vsprintf.o)
 .ARM.attributes
                0x0000000000000e2a       0x2e c:/program files/microchip/xc32/v4.60/bin/bin/../../lib/gcc/pic32c/8.3.1/../../../../pic32c/lib/thumb/v6-m/nofp\libc-musl.a(gmtime.o)
 .ARM.attributes
                0x0000000000000e58       0x2e c:/program files/microchip/xc32/v4.60/bin/bin/../../lib/gcc/pic32c/8.3.1/../../../../pic32c/lib/thumb/v6-m/nofp\libc-musl.a(gmtime_r.o)
 .ARM.attributes
                0x0000000000000e86       0x2e c:/program files/microchip/xc32/v4.60/bin/bin/../../lib/gcc/pic32c/8.3.1/../../../../pic32c/lib/thumb/v6-m/nofp\libc-musl.a(mktime.o)
 .ARM.attributes
                0x0000000000000eb4       0x2e c:/program files/microchip/xc32/v4.60/bin/bin/../../lib/gcc/pic32c/8.3.1/../../../../pic32c/lib/thumb/v6-m/nofp\libc-musl.a(__environ.o)
 .ARM.attributes
                0x0000000000000ee2       0x2e c:/program files/microchip/xc32/v4.60/bin/bin/../../lib/gcc/pic32c/8.3.1/../../../../pic32c/lib/thumb/v6-m/nofp\libc-musl.a(vfprintf.o)
 .ARM.attributes
                0x0000000000000f10       0x2e c:/program files/microchip/xc32/v4.60/bin/bin/../../lib/gcc/pic32c/8.3.1/../../../../pic32c/lib/thumb/v6-m/nofp\libc-musl.a(__tm_to_secs.o)
 .ARM.attributes
                0x0000000000000f3e       0x2e c:/program files/microchip/xc32/v4.60/bin/bin/../../lib/gcc/pic32c/8.3.1/../../../../pic32c/lib/thumb/v6-m/nofp\libc-musl.a(__year_to_secs.o)
 .ARM.attributes
                0x0000000000000f6c       0x2e c:/program files/microchip/xc32/v4.60/bin/bin/../../lib/gcc/pic32c/8.3.1/../../../../pic32c/lib/thumb/v6-m/nofp\libc-musl.a(__secs_to_tm.o)
 .ARM.attributes
                0x0000000000000f9a       0x2e c:/program files/microchip/xc32/v4.60/bin/bin/../../lib/gcc/pic32c/8.3.1/../../../../pic32c/lib/thumb/v6-m/nofp\libc-musl.a(__io_fmt_needed.o)
 .ARM.attributes
                0x0000000000000fc8       0x2e c:/program files/microchip/xc32/v4.60/bin/bin/../../lib/gcc/pic32c/8.3.1/../../../../pic32c/lib/thumb/v6-m/nofp\libc-musl.a(__pop_float.o)
 .ARM.attributes
                0x0000000000000ff6       0x2e c:/program files/microchip/xc32/v4.60/bin/bin/../../lib/gcc/pic32c/8.3.1/../../../../pic32c/lib/thumb/v6-m/nofp\libc-musl.a(__pop_int.o)
 .ARM.attributes
                0x0000000000001024       0x2e c:/program files/microchip/xc32/v4.60/bin/bin/../../lib/gcc/pic32c/8.3.1/../../../../pic32c/lib/thumb/v6-m/nofp\libc-musl.a(__pop_ptr.o)
 .ARM.attributes
                0x0000000000001052       0x2e c:/program files/microchip/xc32/v4.60/bin/bin/../../lib/gcc/pic32c/8.3.1/../../../../pic32c/lib/thumb/v6-m/nofp\libc-musl.a(__printf_core.o)
 .ARM.attributes
                0x0000000000001080       0x2e c:/program files/microchip/xc32/v4.60/bin/bin/../../lib/gcc/pic32c/8.3.1/../../../../pic32c/lib/thumb/v6-m/nofp\libc-musl.a(atoi.o)
 .ARM.attributes
                0x00000000000010ae       0x2e c:/program files/microchip/xc32/v4.60/bin/bin/../../lib/gcc/pic32c/8.3.1/../../../../pic32c/lib/thumb/v6-m/nofp\libc-musl.a(__month_to_secs.o)
 .ARM.attributes
                0x00000000000010dc       0x2e c:/program files/microchip/xc32/v4.60/bin/bin/../../lib/gcc/pic32c/8.3.1/../../../../pic32c/lib/thumb/v6-m/nofp\libc-musl.a(tolower.o)
 .ARM.attributes
                0x000000000000110a       0x2e c:/program files/microchip/xc32/v4.60/bin/bin/../../lib/gcc/pic32c/8.3.1/../../../../pic32c/lib/thumb/v6-m/nofp\libc-musl.a(__fmt_a.o)
 .ARM.attributes
                0x0000000000001138       0x2e c:/program files/microchip/xc32/v4.60/bin/bin/../../lib/gcc/pic32c/8.3.1/../../../../pic32c/lib/thumb/v6-m/nofp\libc-musl.a(__fmt_d.o)
 .ARM.attributes
                0x0000000000001166       0x2e c:/program files/microchip/xc32/v4.60/bin/bin/../../lib/gcc/pic32c/8.3.1/../../../../pic32c/lib/thumb/v6-m/nofp\libc-musl.a(__fmt_fp.o)
 .ARM.attributes
                0x0000000000001194       0x2e c:/program files/microchip/xc32/v4.60/bin/bin/../../lib/gcc/pic32c/8.3.1/../../../../pic32c/lib/thumb/v6-m/nofp\libc-musl.a(__fmt_o.o)
 .ARM.attributes
                0x00000000000011c2       0x2e c:/program files/microchip/xc32/v4.60/bin/bin/../../lib/gcc/pic32c/8.3.1/../../../../pic32c/lib/thumb/v6-m/nofp\libc-musl.a(__fmt_s.o)
 .ARM.attributes
                0x00000000000011f0       0x2e c:/program files/microchip/xc32/v4.60/bin/bin/../../lib/gcc/pic32c/8.3.1/../../../../pic32c/lib/thumb/v6-m/nofp\libc-musl.a(__fmt_u.o)
 .ARM.attributes
                0x000000000000121e       0x2e c:/program files/microchip/xc32/v4.60/bin/bin/../../lib/gcc/pic32c/8.3.1/../../../../pic32c/lib/thumb/v6-m/nofp\libc-musl.a(__fmt_x.o)
 .ARM.attributes
                0x000000000000124c       0x2e c:/program files/microchip/xc32/v4.60/bin/bin/../../lib/gcc/pic32c/8.3.1/../../../../pic32c/lib/thumb/v6-m/nofp\libc-musl.a(toupper.o)
 .ARM.attributes
                0x000000000000127a       0x2e c:/program files/microchip/xc32/v4.60/bin/bin/../../lib/gcc/pic32c/8.3.1/../../../../pic32c/lib/thumb/v6-m/nofp\libc-musl.a(__cvt_u.o)
 .ARM.attributes
                0x00000000000012a8       0x2c c:/program files/microchip/xc32/v4.60/bin/bin/../../lib/gcc/pic32c/8.3.1/../../../../pic32c/lib/thumb/v6-m/nofp\libm-fast-emfloat.a(fma.o)
 .ARM.attributes
                0x00000000000012d4       0x2c c:/program files/microchip/xc32/v4.60/bin/bin/../../lib/gcc/pic32c/8.3.1/../../../../pic32c/lib/thumb/v6-m/nofp\libm-fast-emfloat.a(floor.o)
 .ARM.attributes
                0x0000000000001300       0x1c c:/program files/microchip/xc32/v4.60/bin/bin/../../lib/gcc/pic32c/8.3.1/../../../../pic32c/lib/thumb/v6-m/nofp\libm-fast-emfloat.a(__aeabi_dadd.o)
 .ARM.attributes
                0x000000000000131c       0x1c c:/program files/microchip/xc32/v4.60/bin/bin/../../lib/gcc/pic32c/8.3.1/../../../../pic32c/lib/thumb/v6-m/nofp\libm-fast-emfloat.a(__aeabi_dsub.o)
 .ARM.attributes
                0x0000000000001338       0x1c c:/program files/microchip/xc32/v4.60/bin/bin/../../lib/gcc/pic32c/8.3.1/../../../../pic32c/lib/thumb/v6-m/nofp\libm-fast-emfloat.a(__aeabi_dmul_aux.o)
 .ARM.attributes
                0x0000000000001354       0x1c c:/program files/microchip/xc32/v4.60/bin/bin/../../lib/gcc/pic32c/8.3.1/../../../../pic32c/lib/thumb/v6-m/nofp\libm-fast-emfloat.a(__aeabi_ddiv.o)
 .ARM.attributes
                0x0000000000001370       0x1c c:/program files/microchip/xc32/v4.60/bin/bin/../../lib/gcc/pic32c/8.3.1/../../../../pic32c/lib/thumb/v6-m/nofp\libm-fast-emfloat.a(__aeabi_dcmple.o)
 .ARM.attributes
                0x000000000000138c       0x1c c:/program files/microchip/xc32/v4.60/bin/bin/../../lib/gcc/pic32c/8.3.1/../../../../pic32c/lib/thumb/v6-m/nofp\libm-fast-emfloat.a(__aeabi_dcmpeq.o)
 .ARM.attributes
                0x00000000000013a8       0x1c c:/program files/microchip/xc32/v4.60/bin/bin/../../lib/gcc/pic32c/8.3.1/../../../../pic32c/lib/thumb/v6-m/nofp\libm-fast-emfloat.a(__aeabi_dcmpgt.o)
 .ARM.attributes
                0x00000000000013c4       0x1c c:/program files/microchip/xc32/v4.60/bin/bin/../../lib/gcc/pic32c/8.3.1/../../../../pic32c/lib/thumb/v6-m/nofp\libm-fast-emfloat.a(__aeabi_dcmplt.o)
 .ARM.attributes
                0x00000000000013e0       0x1c c:/program files/microchip/xc32/v4.60/bin/bin/../../lib/gcc/pic32c/8.3.1/../../../../pic32c/lib/thumb/v6-m/nofp\libm-fast-emfloat.a(__aeabi_d2iz.o)
 .ARM.attributes
                0x00000000000013fc       0x1c c:/program files/microchip/xc32/v4.60/bin/bin/../../lib/gcc/pic32c/8.3.1/../../../../pic32c/lib/thumb/v6-m/nofp\libm-fast-emfloat.a(__aeabi_d2uiz.o)
 .ARM.attributes
                0x0000000000001418       0x1e c:/program files/microchip/xc32/v4.60/bin/bin/../../lib/gcc/pic32c/8.3.1/thumb/v6-m/nofp\libgcc.a(_udivsi3.o)
 .ARM.attributes
                0x0000000000001436       0x1e c:/program files/microchip/xc32/v4.60/bin/bin/../../lib/gcc/pic32c/8.3.1/thumb/v6-m/nofp\libgcc.a(_divsi3.o)
 .ARM.attributes
                0x0000000000001454       0x1e c:/program files/microchip/xc32/v4.60/bin/bin/../../lib/gcc/pic32c/8.3.1/thumb/v6-m/nofp\libgcc.a(_dvmd_tls.o)
 .ARM.attributes
                0x0000000000001472       0x1e c:/program files/microchip/xc32/v4.60/bin/bin/../../lib/gcc/pic32c/8.3.1/thumb/v6-m/nofp\libgcc.a(_aeabi_ldivmod.o)
 .ARM.attributes
                0x0000000000001490       0x1e c:/program files/microchip/xc32/v4.60/bin/bin/../../lib/gcc/pic32c/8.3.1/thumb/v6-m/nofp\libgcc.a(_aeabi_uldivmod.o)
 .ARM.attributes
                0x00000000000014ae       0x2c c:/program files/microchip/xc32/v4.60/bin/bin/../../lib/gcc/pic32c/8.3.1/thumb/v6-m/nofp\libgcc.a(_muldi3.o)
 .ARM.attributes
                0x00000000000014da       0x2c c:/program files/microchip/xc32/v4.60/bin/bin/../../lib/gcc/pic32c/8.3.1/thumb/v6-m/nofp\libgcc.a(_udivmoddi4.o)
 .ARM.attributes
                0x0000000000001506       0x2c c:/program files/microchip/xc32/v4.60/bin/bin/../../lib/gcc/pic32c/8.3.1/thumb/v6-m/nofp\libgcc.a(bpabi.o)
 .ARM.attributes
                0x0000000000001532       0x1e c:/program files/microchip/xc32/v4.60/bin/bin/../../lib/gcc/pic32c/8.3.1/thumb/v6-m/nofp\libgcc.a(_lshrdi3.o)
 .ARM.attributes
                0x0000000000001550       0x1e c:/program files/microchip/xc32/v4.60/bin/bin/../../lib/gcc/pic32c/8.3.1/thumb/v6-m/nofp\libgcc.a(_ashldi3.o)
 .ARM.attributes
                0x000000000000156e       0x1e c:/program files/microchip/xc32/v4.60/bin/bin/../../lib/gcc/pic32c/8.3.1/thumb/v6-m/nofp\libgcc.a(_clzdi2.o)
 .ARM.attributes
                0x000000000000158c       0x2c c:/program files/microchip/xc32/v4.60/bin/bin/../../lib/gcc/pic32c/8.3.1/thumb/v6-m/nofp\libgcc.a(_divdi3.o)
 .ARM.attributes
                0x00000000000015b8       0x1e c:/program files/microchip/xc32/v4.60/bin/bin/../../lib/gcc/pic32c/8.3.1/thumb/v6-m/nofp\libgcc.a(_clzsi2.o)
 .ARM.attributes
                0x00000000000015d6       0x2c c:/program files/microchip/xc32/v4.60/bin/bin/../../lib/gcc/pic32c/8.3.1/../../../../pic32c/lib/thumb/v6-m/nofp\libpic32c.a(sbrk.o)
 .ARM.attributes
                0x0000000000001602       0x2e c:/program files/microchip/xc32/v4.60/bin/bin/../../lib/gcc/pic32c/8.3.1/../../../../pic32c/lib/thumb/v6-m/nofp\libc-size-musl.a(strcpy.o)
 .ARM.attributes
                0x0000000000001630       0x2e c:/program files/microchip/xc32/v4.60/bin/bin/../../lib/gcc/pic32c/8.3.1/../../../../pic32c/lib/thumb/v6-m/nofp\libc-size-musl.a(stpcpy.o)
 .ARM.attributes
                0x000000000000165e       0x2c c:/program files/microchip/xc32/v4.60/bin/bin/../../lib/gcc/pic32c/8.3.1/thumb/v6-m/nofp/crtend.o
 .ARM.attributes
                0x000000000000168a       0x1e c:/program files/microchip/xc32/v4.60/bin/bin/../../lib/gcc/pic32c/8.3.1/thumb/v6-m/nofp/crtn.o
 .ARM.attributes
                0x00000000000016a8       0x2c c:/program files/microchip/xc32/v4.60/bin/bin/../../lib/gcc/pic32c/8.3.1/../../../../pic32c/lib/thumb/v6-m/nofp\libpic32c.a(pic32_data_init_clear.o)
 .ARM.attributes
                0x00000000000016d4       0x2c c:/program files/microchip/xc32/v4.60/bin/bin/../../lib/gcc/pic32c/8.3.1/../../../../pic32c/lib/thumb/v6-m/nofp\libpic32c.a(pic32_data_init_copy.o)

.comment        0x0000000000000000       0x2b
 .comment       0x0000000000000000       0x2b c:/program files/microchip/xc32/v4.60/bin/bin/../../lib/gcc/pic32c/8.3.1/thumb/v6-m/nofp/crtbegin.o
                                         0x2c (size before relaxing)
 .comment       0x000000000000002b       0x2c build/samd21IOT_winc1500/production/_ext/287230454/drv_spi.o
 .comment       0x000000000000002b       0x2c build/samd21IOT_winc1500/production/_ext/224737734/wdrv_winc_gpio.o
 .comment       0x000000000000002b       0x2c build/samd21IOT_winc1500/production/_ext/224737734/wdrv_winc_eint.o
 .comment       0x000000000000002b       0x2c build/samd21IOT_winc1500/production/_ext/284355797/wdrv_winc_spi.o
 .comment       0x000000000000002b       0x2c build/samd21IOT_winc1500/production/_ext/912793297/nm_common.o
 .comment       0x000000000000002b       0x2c build/samd21IOT_winc1500/production/_ext/881504404/m2m_wifi.o
 .comment       0x000000000000002b       0x2c build/samd21IOT_winc1500/production/_ext/881504404/m2m_ota.o
 .comment       0x000000000000002b       0x2c build/samd21IOT_winc1500/production/_ext/881504404/m2m_hif.o
 .comment       0x000000000000002b       0x2c build/samd21IOT_winc1500/production/_ext/881504404/m2m_periph.o
 .comment       0x000000000000002b       0x2c build/samd21IOT_winc1500/production/_ext/881504404/nmbus.o
 .comment       0x000000000000002b       0x2c build/samd21IOT_winc1500/production/_ext/881504404/m2m_ssl.o
 .comment       0x000000000000002b       0x2c build/samd21IOT_winc1500/production/_ext/881504404/nmspi.o
 .comment       0x000000000000002b       0x2c build/samd21IOT_winc1500/production/_ext/881504404/nmdrv.o
 .comment       0x000000000000002b       0x2c build/samd21IOT_winc1500/production/_ext/881504404/nmasic.o
 .comment       0x000000000000002b       0x2c build/samd21IOT_winc1500/production/_ext/455027017/inet_ntop.o
 .comment       0x000000000000002b       0x2c build/samd21IOT_winc1500/production/_ext/455027017/inet_addr.o
 .comment       0x000000000000002b       0x2c build/samd21IOT_winc1500/production/_ext/455027017/socket.o
 .comment       0x000000000000002b       0x2c build/samd21IOT_winc1500/production/_ext/1637020121/flexible_flash.o
 .comment       0x000000000000002b       0x2c build/samd21IOT_winc1500/production/_ext/1637020121/spi_flash.o
 .comment       0x000000000000002b       0x2c build/samd21IOT_winc1500/production/_ext/469334988/wdrv_winc_osal.o
 .comment       0x000000000000002b       0x2c build/samd21IOT_winc1500/production/_ext/1235514674/wdrv_winc.o
 .comment       0x000000000000002b       0x2c build/samd21IOT_winc1500/production/_ext/1235514674/wdrv_winc_host_file.o
 .comment       0x000000000000002b       0x2c build/samd21IOT_winc1500/production/_ext/1235514674/wdrv_winc_httpprovctx.o
 .comment       0x000000000000002b       0x2c build/samd21IOT_winc1500/production/_ext/1235514674/wdrv_winc_custie.o
 .comment       0x000000000000002b       0x2c build/samd21IOT_winc1500/production/_ext/1235514674/wdrv_winc_bssctx.o
 .comment       0x000000000000002b       0x2c build/samd21IOT_winc1500/production/_ext/1235514674/wdrv_winc_powersave.o
 .comment       0x000000000000002b       0x2c build/samd21IOT_winc1500/production/_ext/1235514674/wdrv_winc_authctx.o
 .comment       0x000000000000002b       0x2c build/samd21IOT_winc1500/production/_ext/1235514674/wdrv_winc_bssfind.o
 .comment       0x000000000000002b       0x2c build/samd21IOT_winc1500/production/_ext/1235514674/wdrv_winc_socket.o
 .comment       0x000000000000002b       0x2c build/samd21IOT_winc1500/production/_ext/1235514674/wdrv_winc_nvm.o
 .comment       0x000000000000002b       0x2c build/samd21IOT_winc1500/production/_ext/1235514674/wdrv_winc_sta.o
 .comment       0x000000000000002b       0x2c build/samd21IOT_winc1500/production/_ext/1235514674/wdrv_winc_ssl.o
 .comment       0x000000000000002b       0x2c build/samd21IOT_winc1500/production/_ext/1235514674/wdrv_winc_systime.o
 .comment       0x000000000000002b       0x2c build/samd21IOT_winc1500/production/_ext/1235514674/wdrv_winc_wps.o
 .comment       0x000000000000002b       0x2c build/samd21IOT_winc1500/production/_ext/1235514674/wdrv_winc_enterprise.o
 .comment       0x000000000000002b       0x2c build/samd21IOT_winc1500/production/_ext/1235514674/wdrv_winc_softap.o
 .comment       0x000000000000002b       0x2c build/samd21IOT_winc1500/production/_ext/1235514674/wdrv_winc_assoc.o
 .comment       0x000000000000002b       0x2c build/samd21IOT_winc1500/production/_ext/435457175/plib_clock.o
 .comment       0x000000000000002b       0x2c build/samd21IOT_winc1500/production/_ext/1953739970/plib_dmac.o
 .comment       0x000000000000002b       0x2c build/samd21IOT_winc1500/production/_ext/1876637944/plib_eic.o
 .comment       0x000000000000002b       0x2c build/samd21IOT_winc1500/production/_ext/437606661/plib_evsys.o
 .comment       0x000000000000002b       0x2c build/samd21IOT_winc1500/production/_ext/1954046777/plib_nvic.o
 .comment       0x000000000000002b       0x2c build/samd21IOT_winc1500/production/_ext/975387175/plib_nvmctrl.o
 .comment       0x000000000000002b       0x2c build/samd21IOT_winc1500/production/_ext/1954099928/plib_port.o
 .comment       0x000000000000002b       0x2c build/samd21IOT_winc1500/production/_ext/34491124/plib_sercom2_spi_master.o
 .comment       0x000000000000002b       0x2c build/samd21IOT_winc1500/production/_ext/1207737362/plib_sercom5_usart.o
 .comment       0x000000000000002b       0x2c build/samd21IOT_winc1500/production/_ext/2138746234/plib_tc3.o
 .comment       0x000000000000002b       0x2c build/samd21IOT_winc1500/production/_ext/1613073709/xc32_monitor.o
 .comment       0x000000000000002b       0x2c build/samd21IOT_winc1500/production/_ext/106321624/sys_console.o
 .comment       0x000000000000002b       0x2c build/samd21IOT_winc1500/production/_ext/106321624/sys_console_uart.o
 .comment       0x000000000000002b       0x2c build/samd21IOT_winc1500/production/_ext/604157148/sys_debug.o
 .comment       0x000000000000002b       0x2c build/samd21IOT_winc1500/production/_ext/226979060/sys_dma.o
 .comment       0x000000000000002b       0x2c build/samd21IOT_winc1500/production/_ext/55136832/sys_int.o
 .comment       0x000000000000002b       0x2c build/samd21IOT_winc1500/production/_ext/13306586/sys_time.o
 .comment       0x000000000000002b       0x2c build/samd21IOT_winc1500/production/_ext/2058341299/tasks.o
 .comment       0x000000000000002b       0x2c build/samd21IOT_winc1500/production/_ext/2058341299/interrupts.o
 .comment       0x000000000000002b       0x2c build/samd21IOT_winc1500/production/_ext/2058341299/initialization.o
 .comment       0x000000000000002b       0x2c build/samd21IOT_winc1500/production/_ext/2058341299/startup_xc32.o
 .comment       0x000000000000002b       0x2c build/samd21IOT_winc1500/production/_ext/2058341299/libc_syscalls.o
 .comment       0x000000000000002b       0x2c build/samd21IOT_winc1500/production/_ext/2058341299/exceptions.o
 .comment       0x000000000000002b       0x2c build/samd21IOT_winc1500/production/_ext/1360937237/main.o
 .comment       0x000000000000002b       0x2c build/samd21IOT_winc1500/production/_ext/1360937237/app.o
 .comment       0x000000000000002b       0x2c build/samd21IOT_winc1500/production/_ext/1360937237/winc1500_tcp_server.o
 .comment       0x000000000000002b       0x2c c:/program files/microchip/xc32/v4.60/bin/bin/../../lib/gcc/pic32c/8.3.1/../../../../pic32c/lib/thumb/v6-m/nofp\libpic32c.a(data_init.o)
 .comment       0x000000000000002b       0x2c c:/program files/microchip/xc32/v4.60/bin/bin/../../lib/gcc/pic32c/8.3.1/../../../../pic32c/lib/thumb/v6-m/nofp\libc-size-musl.a(memcpy.o)
 .comment       0x000000000000002b       0x2c c:/program files/microchip/xc32/v4.60/bin/bin/../../lib/gcc/pic32c/8.3.1/../../../../pic32c/lib/thumb/v6-m/nofp\libc-size-musl.a(memset.o)
 .comment       0x000000000000002b       0x2c c:/program files/microchip/xc32/v4.60/bin/bin/../../lib/gcc/pic32c/8.3.1/../../../../pic32c/lib/thumb/v6-m/nofp\libc-size-musl.a(strlen.o)
 .comment       0x000000000000002b       0x2c c:/program files/microchip/xc32/v4.60/bin/bin/../../lib/gcc/pic32c/8.3.1/../../../../pic32c/lib/thumb/v6-m/nofp\libc-size-musl.a(strchr.o)
 .comment       0x000000000000002b       0x2c c:/program files/microchip/xc32/v4.60/bin/bin/../../lib/gcc/pic32c/8.3.1/../../../../pic32c/lib/thumb/v6-m/nofp\libc-size-musl.a(strchrnul.o)
 .comment       0x000000000000002b       0x2c c:/program files/microchip/xc32/v4.60/bin/bin/../../lib/gcc/pic32c/8.3.1/../../../../pic32c/lib/thumb/v6-m/nofp\libc-size-musl.a(strnlen.o)
 .comment       0x000000000000002b       0x2c c:/program files/microchip/xc32/v4.60/bin/bin/../../lib/gcc/pic32c/8.3.1/../../../../pic32c/lib/thumb/v6-m/nofp\libc-size-musl.a(memchr.o)
 .comment       0x000000000000002b       0x2c c:/program files/microchip/xc32/v4.60/bin/bin/../../lib/gcc/pic32c/8.3.1/../../../../pic32c/lib/thumb/v6-m/nofp\liblmalloc-musl.a(lite_free.o)
 .comment       0x000000000000002b       0x2c c:/program files/microchip/xc32/v4.60/bin/bin/../../lib/gcc/pic32c/8.3.1/../../../../pic32c/lib/thumb/v6-m/nofp\liblmalloc-musl.a(lite_malloc.o)
 .comment       0x000000000000002b       0x2c c:/program files/microchip/xc32/v4.60/bin/bin/../../lib/gcc/pic32c/8.3.1/../../../../pic32c/lib/thumb/v6-m/nofp\libc-musl.a(__libc_start_main.o)
 .comment       0x000000000000002b       0x2c c:/program files/microchip/xc32/v4.60/bin/bin/../../lib/gcc/pic32c/8.3.1/../../../../pic32c/lib/thumb/v6-m/nofp\libc-musl.a(__errno_location.o)
 .comment       0x000000000000002b       0x2c c:/program files/microchip/xc32/v4.60/bin/bin/../../lib/gcc/pic32c/8.3.1/../../../../pic32c/lib/thumb/v6-m/nofp\libc-musl.a(libc.o)
 .comment       0x000000000000002b       0x2c c:/program files/microchip/xc32/v4.60/bin/bin/../../lib/gcc/pic32c/8.3.1/../../../../pic32c/lib/thumb/v6-m/nofp\libc-musl.a(expand_heap.o)
 .comment       0x000000000000002b       0x2c c:/program files/microchip/xc32/v4.60/bin/bin/../../lib/gcc/pic32c/8.3.1/../../../../pic32c/lib/thumb/v6-m/nofp\libc-musl.a(vsnprintf.o)
 .comment       0x000000000000002b       0x2c c:/program files/microchip/xc32/v4.60/bin/bin/../../lib/gcc/pic32c/8.3.1/../../../../pic32c/lib/thumb/v6-m/nofp\libc-musl.a(sprintf.o)
 .comment       0x000000000000002b       0x2c c:/program files/microchip/xc32/v4.60/bin/bin/../../lib/gcc/pic32c/8.3.1/../../../../pic32c/lib/thumb/v6-m/nofp\libc-musl.a(vsprintf.o)
 .comment       0x000000000000002b       0x2c c:/program files/microchip/xc32/v4.60/bin/bin/../../lib/gcc/pic32c/8.3.1/../../../../pic32c/lib/thumb/v6-m/nofp\libc-musl.a(gmtime.o)
 .comment       0x000000000000002b       0x2c c:/program files/microchip/xc32/v4.60/bin/bin/../../lib/gcc/pic32c/8.3.1/../../../../pic32c/lib/thumb/v6-m/nofp\libc-musl.a(gmtime_r.o)
 .comment       0x000000000000002b       0x2c c:/program files/microchip/xc32/v4.60/bin/bin/../../lib/gcc/pic32c/8.3.1/../../../../pic32c/lib/thumb/v6-m/nofp\libc-musl.a(mktime.o)
 .comment       0x000000000000002b       0x2c c:/program files/microchip/xc32/v4.60/bin/bin/../../lib/gcc/pic32c/8.3.1/../../../../pic32c/lib/thumb/v6-m/nofp\libc-musl.a(__environ.o)
 .comment       0x000000000000002b       0x2c c:/program files/microchip/xc32/v4.60/bin/bin/../../lib/gcc/pic32c/8.3.1/../../../../pic32c/lib/thumb/v6-m/nofp\libc-musl.a(vfprintf.o)
 .comment       0x000000000000002b       0x2c c:/program files/microchip/xc32/v4.60/bin/bin/../../lib/gcc/pic32c/8.3.1/../../../../pic32c/lib/thumb/v6-m/nofp\libc-musl.a(__tm_to_secs.o)
 .comment       0x000000000000002b       0x2c c:/program files/microchip/xc32/v4.60/bin/bin/../../lib/gcc/pic32c/8.3.1/../../../../pic32c/lib/thumb/v6-m/nofp\libc-musl.a(__year_to_secs.o)
 .comment       0x000000000000002b       0x2c c:/program files/microchip/xc32/v4.60/bin/bin/../../lib/gcc/pic32c/8.3.1/../../../../pic32c/lib/thumb/v6-m/nofp\libc-musl.a(__secs_to_tm.o)
 .comment       0x000000000000002b       0x2c c:/program files/microchip/xc32/v4.60/bin/bin/../../lib/gcc/pic32c/8.3.1/../../../../pic32c/lib/thumb/v6-m/nofp\libc-musl.a(__io_fmt_needed.o)
 .comment       0x000000000000002b       0x2c c:/program files/microchip/xc32/v4.60/bin/bin/../../lib/gcc/pic32c/8.3.1/../../../../pic32c/lib/thumb/v6-m/nofp\libc-musl.a(__pop_float.o)
 .comment       0x000000000000002b       0x2c c:/program files/microchip/xc32/v4.60/bin/bin/../../lib/gcc/pic32c/8.3.1/../../../../pic32c/lib/thumb/v6-m/nofp\libc-musl.a(__pop_int.o)
 .comment       0x000000000000002b       0x2c c:/program files/microchip/xc32/v4.60/bin/bin/../../lib/gcc/pic32c/8.3.1/../../../../pic32c/lib/thumb/v6-m/nofp\libc-musl.a(__pop_ptr.o)
 .comment       0x000000000000002b       0x2c c:/program files/microchip/xc32/v4.60/bin/bin/../../lib/gcc/pic32c/8.3.1/../../../../pic32c/lib/thumb/v6-m/nofp\libc-musl.a(__printf_core.o)
 .comment       0x000000000000002b       0x2c c:/program files/microchip/xc32/v4.60/bin/bin/../../lib/gcc/pic32c/8.3.1/../../../../pic32c/lib/thumb/v6-m/nofp\libc-musl.a(atoi.o)
 .comment       0x000000000000002b       0x2c c:/program files/microchip/xc32/v4.60/bin/bin/../../lib/gcc/pic32c/8.3.1/../../../../pic32c/lib/thumb/v6-m/nofp\libc-musl.a(__month_to_secs.o)
 .comment       0x000000000000002b       0x2c c:/program files/microchip/xc32/v4.60/bin/bin/../../lib/gcc/pic32c/8.3.1/../../../../pic32c/lib/thumb/v6-m/nofp\libc-musl.a(tolower.o)
 .comment       0x000000000000002b       0x2c c:/program files/microchip/xc32/v4.60/bin/bin/../../lib/gcc/pic32c/8.3.1/../../../../pic32c/lib/thumb/v6-m/nofp\libc-musl.a(__fmt_a.o)
 .comment       0x000000000000002b       0x2c c:/program files/microchip/xc32/v4.60/bin/bin/../../lib/gcc/pic32c/8.3.1/../../../../pic32c/lib/thumb/v6-m/nofp\libc-musl.a(__fmt_d.o)
 .comment       0x000000000000002b       0x2c c:/program files/microchip/xc32/v4.60/bin/bin/../../lib/gcc/pic32c/8.3.1/../../../../pic32c/lib/thumb/v6-m/nofp\libc-musl.a(__fmt_fp.o)
 .comment       0x000000000000002b       0x2c c:/program files/microchip/xc32/v4.60/bin/bin/../../lib/gcc/pic32c/8.3.1/../../../../pic32c/lib/thumb/v6-m/nofp\libc-musl.a(__fmt_o.o)
 .comment       0x000000000000002b       0x2c c:/program files/microchip/xc32/v4.60/bin/bin/../../lib/gcc/pic32c/8.3.1/../../../../pic32c/lib/thumb/v6-m/nofp\libc-musl.a(__fmt_s.o)
 .comment       0x000000000000002b       0x2c c:/program files/microchip/xc32/v4.60/bin/bin/../../lib/gcc/pic32c/8.3.1/../../../../pic32c/lib/thumb/v6-m/nofp\libc-musl.a(__fmt_u.o)
 .comment       0x000000000000002b       0x2c c:/program files/microchip/xc32/v4.60/bin/bin/../../lib/gcc/pic32c/8.3.1/../../../../pic32c/lib/thumb/v6-m/nofp\libc-musl.a(__fmt_x.o)
 .comment       0x000000000000002b       0x2c c:/program files/microchip/xc32/v4.60/bin/bin/../../lib/gcc/pic32c/8.3.1/../../../../pic32c/lib/thumb/v6-m/nofp\libc-musl.a(toupper.o)
 .comment       0x000000000000002b       0x2c c:/program files/microchip/xc32/v4.60/bin/bin/../../lib/gcc/pic32c/8.3.1/../../../../pic32c/lib/thumb/v6-m/nofp\libc-musl.a(__cvt_u.o)
 .comment       0x000000000000002b       0x2c c:/program files/microchip/xc32/v4.60/bin/bin/../../lib/gcc/pic32c/8.3.1/../../../../pic32c/lib/thumb/v6-m/nofp\libm-fast-emfloat.a(fma.o)
 .comment       0x000000000000002b       0x2c c:/program files/microchip/xc32/v4.60/bin/bin/../../lib/gcc/pic32c/8.3.1/../../../../pic32c/lib/thumb/v6-m/nofp\libm-fast-emfloat.a(floor.o)
 .comment       0x000000000000002b       0x2c c:/program files/microchip/xc32/v4.60/bin/bin/../../lib/gcc/pic32c/8.3.1/thumb/v6-m/nofp\libgcc.a(_muldi3.o)
 .comment       0x000000000000002b       0x2c c:/program files/microchip/xc32/v4.60/bin/bin/../../lib/gcc/pic32c/8.3.1/thumb/v6-m/nofp\libgcc.a(_udivmoddi4.o)
 .comment       0x000000000000002b       0x2c c:/program files/microchip/xc32/v4.60/bin/bin/../../lib/gcc/pic32c/8.3.1/thumb/v6-m/nofp\libgcc.a(bpabi.o)
 .comment       0x000000000000002b       0x2c c:/program files/microchip/xc32/v4.60/bin/bin/../../lib/gcc/pic32c/8.3.1/thumb/v6-m/nofp\libgcc.a(_divdi3.o)
 .comment       0x000000000000002b       0x2c c:/program files/microchip/xc32/v4.60/bin/bin/../../lib/gcc/pic32c/8.3.1/../../../../pic32c/lib/thumb/v6-m/nofp\libpic32c.a(sbrk.o)
 .comment       0x000000000000002b       0x2c c:/program files/microchip/xc32/v4.60/bin/bin/../../lib/gcc/pic32c/8.3.1/../../../../pic32c/lib/thumb/v6-m/nofp\libc-size-musl.a(strcpy.o)
 .comment       0x000000000000002b       0x2c c:/program files/microchip/xc32/v4.60/bin/bin/../../lib/gcc/pic32c/8.3.1/../../../../pic32c/lib/thumb/v6-m/nofp\libc-size-musl.a(stpcpy.o)
 .comment       0x000000000000002b       0x2c c:/program files/microchip/xc32/v4.60/bin/bin/../../lib/gcc/pic32c/8.3.1/thumb/v6-m/nofp/crtend.o
 .comment       0x000000000000002b       0x2c c:/program files/microchip/xc32/v4.60/bin/bin/../../lib/gcc/pic32c/8.3.1/../../../../pic32c/lib/thumb/v6-m/nofp\libpic32c.a(pic32_data_init_clear.o)
 .comment       0x000000000000002b       0x2c c:/program files/microchip/xc32/v4.60/bin/bin/../../lib/gcc/pic32c/8.3.1/../../../../pic32c/lib/thumb/v6-m/nofp\libpic32c.a(pic32_data_init_copy.o)

.debug_info     0x0000000000000000    0x42324
 .debug_info    0x0000000000000000     0x2bc9 build/samd21IOT_winc1500/production/_ext/287230454/drv_spi.o
 .debug_info    0x0000000000002bc9      0x2ac build/samd21IOT_winc1500/production/_ext/224737734/wdrv_winc_gpio.o
 .debug_info    0x0000000000002e75      0x17a build/samd21IOT_winc1500/production/_ext/224737734/wdrv_winc_eint.o
 .debug_info    0x0000000000002fef      0xff2 build/samd21IOT_winc1500/production/_ext/284355797/wdrv_winc_spi.o
 .debug_info    0x0000000000003fe1      0x210 build/samd21IOT_winc1500/production/_ext/912793297/nm_common.o
 .debug_info    0x00000000000041f1     0x5a30 build/samd21IOT_winc1500/production/_ext/881504404/m2m_wifi.o
 .debug_info    0x0000000000009c21     0x15c2 build/samd21IOT_winc1500/production/_ext/881504404/m2m_ota.o
 .debug_info    0x000000000000b1e3     0x164e build/samd21IOT_winc1500/production/_ext/881504404/m2m_hif.o
 .debug_info    0x000000000000c831      0x4b2 build/samd21IOT_winc1500/production/_ext/881504404/m2m_periph.o
 .debug_info    0x000000000000cce3      0x6e1 build/samd21IOT_winc1500/production/_ext/881504404/nmbus.o
 .debug_info    0x000000000000d3c4      0xfb9 build/samd21IOT_winc1500/production/_ext/881504404/m2m_ssl.o
 .debug_info    0x000000000000e37d     0x1b16 build/samd21IOT_winc1500/production/_ext/881504404/nmspi.o
 .debug_info    0x000000000000fe93      0xa5d build/samd21IOT_winc1500/production/_ext/881504404/nmdrv.o
 .debug_info    0x00000000000108f0     0x1381 build/samd21IOT_winc1500/production/_ext/881504404/nmasic.o
 .debug_info    0x0000000000011c71      0x1dd build/samd21IOT_winc1500/production/_ext/455027017/inet_ntop.o
 .debug_info    0x0000000000011e4e      0x153 build/samd21IOT_winc1500/production/_ext/455027017/inet_addr.o
 .debug_info    0x0000000000011fa1     0x2720 build/samd21IOT_winc1500/production/_ext/455027017/socket.o
 .debug_info    0x00000000000146c1      0x1e6 build/samd21IOT_winc1500/production/_ext/1637020121/flexible_flash.o
 .debug_info    0x00000000000148a7     0x1304 build/samd21IOT_winc1500/production/_ext/1637020121/spi_flash.o
 .debug_info    0x0000000000015bab      0x148 build/samd21IOT_winc1500/production/_ext/469334988/wdrv_winc_osal.o
 .debug_info    0x0000000000015cf3     0x4b3a build/samd21IOT_winc1500/production/_ext/1235514674/wdrv_winc.o
 .debug_info    0x000000000001a82d     0x2979 build/samd21IOT_winc1500/production/_ext/1235514674/wdrv_winc_host_file.o
 .debug_info    0x000000000001d1a6      0x5c2 build/samd21IOT_winc1500/production/_ext/1235514674/wdrv_winc_httpprovctx.o
 .debug_info    0x000000000001d768      0x3a2 build/samd21IOT_winc1500/production/_ext/1235514674/wdrv_winc_custie.o
 .debug_info    0x000000000001db0a      0x549 build/samd21IOT_winc1500/production/_ext/1235514674/wdrv_winc_bssctx.o
 .debug_info    0x000000000001e053     0x12b0 build/samd21IOT_winc1500/production/_ext/1235514674/wdrv_winc_powersave.o
 .debug_info    0x000000000001f303      0xc37 build/samd21IOT_winc1500/production/_ext/1235514674/wdrv_winc_authctx.o
 .debug_info    0x000000000001ff3a     0x17e6 build/samd21IOT_winc1500/production/_ext/1235514674/wdrv_winc_bssfind.o
 .debug_info    0x0000000000021720     0x1c45 build/samd21IOT_winc1500/production/_ext/1235514674/wdrv_winc_socket.o
 .debug_info    0x0000000000023365     0x1957 build/samd21IOT_winc1500/production/_ext/1235514674/wdrv_winc_nvm.o
 .debug_info    0x0000000000024cbc     0x18da build/samd21IOT_winc1500/production/_ext/1235514674/wdrv_winc_sta.o
 .debug_info    0x0000000000026596     0x1a21 build/samd21IOT_winc1500/production/_ext/1235514674/wdrv_winc_ssl.o
 .debug_info    0x0000000000027fb7     0x154c build/samd21IOT_winc1500/production/_ext/1235514674/wdrv_winc_systime.o
 .debug_info    0x0000000000029503     0x1271 build/samd21IOT_winc1500/production/_ext/1235514674/wdrv_winc_wps.o
 .debug_info    0x000000000002a774     0x154c build/samd21IOT_winc1500/production/_ext/1235514674/wdrv_winc_enterprise.o
 .debug_info    0x000000000002bcc0     0x155c build/samd21IOT_winc1500/production/_ext/1235514674/wdrv_winc_softap.o
 .debug_info    0x000000000002d21c     0x1307 build/samd21IOT_winc1500/production/_ext/1235514674/wdrv_winc_assoc.o
 .debug_info    0x000000000002e523      0x59d build/samd21IOT_winc1500/production/_ext/435457175/plib_clock.o
 .debug_info    0x000000000002eac0      0xbef build/samd21IOT_winc1500/production/_ext/1953739970/plib_dmac.o
 .debug_info    0x000000000002f6af      0x34d build/samd21IOT_winc1500/production/_ext/1876637944/plib_eic.o
 .debug_info    0x000000000002f9fc       0x97 build/samd21IOT_winc1500/production/_ext/437606661/plib_evsys.o
 .debug_info    0x000000000002fa93      0x8d1 build/samd21IOT_winc1500/production/_ext/1954046777/plib_nvic.o
 .debug_info    0x0000000000030364      0x59c build/samd21IOT_winc1500/production/_ext/975387175/plib_nvmctrl.o
 .debug_info    0x0000000000030900      0x6a6 build/samd21IOT_winc1500/production/_ext/1954099928/plib_port.o
 .debug_info    0x0000000000030fa6      0xf16 build/samd21IOT_winc1500/production/_ext/34491124/plib_sercom2_spi_master.o
 .debug_info    0x0000000000031ebc     0x17ca build/samd21IOT_winc1500/production/_ext/1207737362/plib_sercom5_usart.o
 .debug_info    0x0000000000033686      0x799 build/samd21IOT_winc1500/production/_ext/2138746234/plib_tc3.o
 .debug_info    0x0000000000033e1f       0xf1 build/samd21IOT_winc1500/production/_ext/1613073709/xc32_monitor.o
 .debug_info    0x0000000000033f10      0xc70 build/samd21IOT_winc1500/production/_ext/106321624/sys_console.o
 .debug_info    0x0000000000034b80      0xdba build/samd21IOT_winc1500/production/_ext/106321624/sys_console_uart.o
 .debug_info    0x000000000003593a      0x346 build/samd21IOT_winc1500/production/_ext/604157148/sys_debug.o
 .debug_info    0x0000000000035c80      0x2e6 build/samd21IOT_winc1500/production/_ext/226979060/sys_dma.o
 .debug_info    0x0000000000035f66      0x55a build/samd21IOT_winc1500/production/_ext/55136832/sys_int.o
 .debug_info    0x00000000000364c0     0x1cfc build/samd21IOT_winc1500/production/_ext/13306586/sys_time.o
 .debug_info    0x00000000000381bc      0x15a build/samd21IOT_winc1500/production/_ext/2058341299/tasks.o
 .debug_info    0x0000000000038316      0x3e1 build/samd21IOT_winc1500/production/_ext/2058341299/interrupts.o
 .debug_info    0x00000000000386f7     0x1e99 build/samd21IOT_winc1500/production/_ext/2058341299/initialization.o
 .debug_info    0x000000000003a590      0x205 build/samd21IOT_winc1500/production/_ext/2058341299/startup_xc32.o
 .debug_info    0x000000000003a795       0xa6 build/samd21IOT_winc1500/production/_ext/2058341299/libc_syscalls.o
 .debug_info    0x000000000003a83b       0xb6 build/samd21IOT_winc1500/production/_ext/2058341299/exceptions.o
 .debug_info    0x000000000003a8f1       0xe0 build/samd21IOT_winc1500/production/_ext/1360937237/main.o
 .debug_info    0x000000000003a9d1      0x444 build/samd21IOT_winc1500/production/_ext/1360937237/app.o
 .debug_info    0x000000000003ae15     0x106d build/samd21IOT_winc1500/production/_ext/1360937237/winc1500_tcp_server.o
 .debug_info    0x000000000003be82       0x68 c:/program files/microchip/xc32/v4.60/bin/bin/../../lib/gcc/pic32c/8.3.1/../../../../pic32c/lib/thumb/v6-m/nofp\libpic32c.a(data_init.o)
 .debug_info    0x000000000003beea       0xed c:/program files/microchip/xc32/v4.60/bin/bin/../../lib/gcc/pic32c/8.3.1/../../../../pic32c/lib/thumb/v6-m/nofp\libc-size-musl.a(memcpy.o)
 .debug_info    0x000000000003bfd7       0xbb c:/program files/microchip/xc32/v4.60/bin/bin/../../lib/gcc/pic32c/8.3.1/../../../../pic32c/lib/thumb/v6-m/nofp\libc-size-musl.a(memset.o)
 .debug_info    0x000000000003c092       0xa4 c:/program files/microchip/xc32/v4.60/bin/bin/../../lib/gcc/pic32c/8.3.1/../../../../pic32c/lib/thumb/v6-m/nofp\libc-size-musl.a(strlen.o)
 .debug_info    0x000000000003c136       0xd2 c:/program files/microchip/xc32/v4.60/bin/bin/../../lib/gcc/pic32c/8.3.1/../../../../pic32c/lib/thumb/v6-m/nofp\libc-size-musl.a(strchr.o)
 .debug_info    0x000000000003c208      0x133 c:/program files/microchip/xc32/v4.60/bin/bin/../../lib/gcc/pic32c/8.3.1/../../../../pic32c/lib/thumb/v6-m/nofp\libc-size-musl.a(strchrnul.o)
 .debug_info    0x000000000003c33b       0xd5 c:/program files/microchip/xc32/v4.60/bin/bin/../../lib/gcc/pic32c/8.3.1/../../../../pic32c/lib/thumb/v6-m/nofp\libc-size-musl.a(strnlen.o)
 .debug_info    0x000000000003c410       0xe5 c:/program files/microchip/xc32/v4.60/bin/bin/../../lib/gcc/pic32c/8.3.1/../../../../pic32c/lib/thumb/v6-m/nofp\libc-size-musl.a(memchr.o)
 .debug_info    0x000000000003c4f5      0x272 c:/program files/microchip/xc32/v4.60/bin/bin/../../lib/gcc/pic32c/8.3.1/../../../../pic32c/lib/thumb/v6-m/nofp\liblmalloc-musl.a(lite_free.o)
 .debug_info    0x000000000003c767      0x1bd c:/program files/microchip/xc32/v4.60/bin/bin/../../lib/gcc/pic32c/8.3.1/../../../../pic32c/lib/thumb/v6-m/nofp\liblmalloc-musl.a(lite_malloc.o)
 .debug_info    0x000000000003c924      0x2fb c:/program files/microchip/xc32/v4.60/bin/bin/../../lib/gcc/pic32c/8.3.1/../../../../pic32c/lib/thumb/v6-m/nofp\libc-musl.a(__libc_start_main.o)
 .debug_info    0x000000000003cc1f       0x5b c:/program files/microchip/xc32/v4.60/bin/bin/../../lib/gcc/pic32c/8.3.1/../../../../pic32c/lib/thumb/v6-m/nofp\libc-musl.a(__errno_location.o)
 .debug_info    0x000000000003cc7a      0x276 c:/program files/microchip/xc32/v4.60/bin/bin/../../lib/gcc/pic32c/8.3.1/../../../../pic32c/lib/thumb/v6-m/nofp\libc-musl.a(libc.o)
 .debug_info    0x000000000003cef0      0x10e c:/program files/microchip/xc32/v4.60/bin/bin/../../lib/gcc/pic32c/8.3.1/../../../../pic32c/lib/thumb/v6-m/nofp\libc-musl.a(expand_heap.o)
 .debug_info    0x000000000003cffe      0x43a c:/program files/microchip/xc32/v4.60/bin/bin/../../lib/gcc/pic32c/8.3.1/../../../../pic32c/lib/thumb/v6-m/nofp\libc-musl.a(vsnprintf.o)
 .debug_info    0x000000000003d438      0x116 c:/program files/microchip/xc32/v4.60/bin/bin/../../lib/gcc/pic32c/8.3.1/../../../../pic32c/lib/thumb/v6-m/nofp\libc-musl.a(sprintf.o)
 .debug_info    0x000000000003d54e      0x10e c:/program files/microchip/xc32/v4.60/bin/bin/../../lib/gcc/pic32c/8.3.1/../../../../pic32c/lib/thumb/v6-m/nofp\libc-musl.a(vsprintf.o)
 .debug_info    0x000000000003d65c      0x199 c:/program files/microchip/xc32/v4.60/bin/bin/../../lib/gcc/pic32c/8.3.1/../../../../pic32c/lib/thumb/v6-m/nofp\libc-musl.a(gmtime.o)
 .debug_info    0x000000000003d7f5      0x1a6 c:/program files/microchip/xc32/v4.60/bin/bin/../../lib/gcc/pic32c/8.3.1/../../../../pic32c/lib/thumb/v6-m/nofp\libc-musl.a(gmtime_r.o)
 .debug_info    0x000000000003d99b      0x205 c:/program files/microchip/xc32/v4.60/bin/bin/../../lib/gcc/pic32c/8.3.1/../../../../pic32c/lib/thumb/v6-m/nofp\libc-musl.a(mktime.o)
 .debug_info    0x000000000003dba0       0x97 c:/program files/microchip/xc32/v4.60/bin/bin/../../lib/gcc/pic32c/8.3.1/../../../../pic32c/lib/thumb/v6-m/nofp\libc-musl.a(__environ.o)
 .debug_info    0x000000000003dc37      0x40e c:/program files/microchip/xc32/v4.60/bin/bin/../../lib/gcc/pic32c/8.3.1/../../../../pic32c/lib/thumb/v6-m/nofp\libc-musl.a(vfprintf.o)
 .debug_info    0x000000000003e045      0x201 c:/program files/microchip/xc32/v4.60/bin/bin/../../lib/gcc/pic32c/8.3.1/../../../../pic32c/lib/thumb/v6-m/nofp\libc-musl.a(__tm_to_secs.o)
 .debug_info    0x000000000003e246      0x109 c:/program files/microchip/xc32/v4.60/bin/bin/../../lib/gcc/pic32c/8.3.1/../../../../pic32c/lib/thumb/v6-m/nofp\libc-musl.a(__year_to_secs.o)
 .debug_info    0x000000000003e34f      0x295 c:/program files/microchip/xc32/v4.60/bin/bin/../../lib/gcc/pic32c/8.3.1/../../../../pic32c/lib/thumb/v6-m/nofp\libc-musl.a(__secs_to_tm.o)
 .debug_info    0x000000000003e5e4      0x187 c:/program files/microchip/xc32/v4.60/bin/bin/../../lib/gcc/pic32c/8.3.1/../../../../pic32c/lib/thumb/v6-m/nofp\libc-musl.a(__io_fmt_needed.o)
 .debug_info    0x000000000003e76b      0x162 c:/program files/microchip/xc32/v4.60/bin/bin/../../lib/gcc/pic32c/8.3.1/../../../../pic32c/lib/thumb/v6-m/nofp\libc-musl.a(__pop_float.o)
 .debug_info    0x000000000003e8cd      0x183 c:/program files/microchip/xc32/v4.60/bin/bin/../../lib/gcc/pic32c/8.3.1/../../../../pic32c/lib/thumb/v6-m/nofp\libc-musl.a(__pop_int.o)
 .debug_info    0x000000000003ea50      0x18d c:/program files/microchip/xc32/v4.60/bin/bin/../../lib/gcc/pic32c/8.3.1/../../../../pic32c/lib/thumb/v6-m/nofp\libc-musl.a(__pop_ptr.o)
 .debug_info    0x000000000003ebdd      0xa6f c:/program files/microchip/xc32/v4.60/bin/bin/../../lib/gcc/pic32c/8.3.1/../../../../pic32c/lib/thumb/v6-m/nofp\libc-musl.a(__printf_core.o)
 .debug_info    0x000000000003f64c       0xf4 c:/program files/microchip/xc32/v4.60/bin/bin/../../lib/gcc/pic32c/8.3.1/../../../../pic32c/lib/thumb/v6-m/nofp\libc-musl.a(atoi.o)
 .debug_info    0x000000000003f740       0xbe c:/program files/microchip/xc32/v4.60/bin/bin/../../lib/gcc/pic32c/8.3.1/../../../../pic32c/lib/thumb/v6-m/nofp\libc-musl.a(__month_to_secs.o)
 .debug_info    0x000000000003f7fe      0x131 c:/program files/microchip/xc32/v4.60/bin/bin/../../lib/gcc/pic32c/8.3.1/../../../../pic32c/lib/thumb/v6-m/nofp\libc-musl.a(tolower.o)
 .debug_info    0x000000000003f92f      0x5fb c:/program files/microchip/xc32/v4.60/bin/bin/../../lib/gcc/pic32c/8.3.1/../../../../pic32c/lib/thumb/v6-m/nofp\libc-musl.a(__fmt_a.o)
 .debug_info    0x000000000003ff2a      0x330 c:/program files/microchip/xc32/v4.60/bin/bin/../../lib/gcc/pic32c/8.3.1/../../../../pic32c/lib/thumb/v6-m/nofp\libc-musl.a(__fmt_d.o)
 .debug_info    0x000000000004025a      0x676 c:/program files/microchip/xc32/v4.60/bin/bin/../../lib/gcc/pic32c/8.3.1/../../../../pic32c/lib/thumb/v6-m/nofp\libc-musl.a(__fmt_fp.o)
 .debug_info    0x00000000000408d0      0x301 c:/program files/microchip/xc32/v4.60/bin/bin/../../lib/gcc/pic32c/8.3.1/../../../../pic32c/lib/thumb/v6-m/nofp\libc-musl.a(__fmt_o.o)
 .debug_info    0x0000000000040bd1      0x2e9 c:/program files/microchip/xc32/v4.60/bin/bin/../../lib/gcc/pic32c/8.3.1/../../../../pic32c/lib/thumb/v6-m/nofp\libc-musl.a(__fmt_s.o)
 .debug_info    0x0000000000040eba      0x301 c:/program files/microchip/xc32/v4.60/bin/bin/../../lib/gcc/pic32c/8.3.1/../../../../pic32c/lib/thumb/v6-m/nofp\libc-musl.a(__fmt_u.o)
 .debug_info    0x00000000000411bb      0x335 c:/program files/microchip/xc32/v4.60/bin/bin/../../lib/gcc/pic32c/8.3.1/../../../../pic32c/lib/thumb/v6-m/nofp\libc-musl.a(__fmt_x.o)
 .debug_info    0x00000000000414f0      0x131 c:/program files/microchip/xc32/v4.60/bin/bin/../../lib/gcc/pic32c/8.3.1/../../../../pic32c/lib/thumb/v6-m/nofp\libc-musl.a(toupper.o)
 .debug_info    0x0000000000041621      0x1cf c:/program files/microchip/xc32/v4.60/bin/bin/../../lib/gcc/pic32c/8.3.1/../../../../pic32c/lib/thumb/v6-m/nofp\libc-musl.a(__cvt_u.o)
 .debug_info    0x00000000000417f0       0x26 c:/program files/microchip/xc32/v4.60/bin/bin/../../lib/gcc/pic32c/8.3.1/thumb/v6-m/nofp\libgcc.a(_udivsi3.o)
 .debug_info    0x0000000000041816       0x26 c:/program files/microchip/xc32/v4.60/bin/bin/../../lib/gcc/pic32c/8.3.1/thumb/v6-m/nofp\libgcc.a(_divsi3.o)
 .debug_info    0x000000000004183c       0x26 c:/program files/microchip/xc32/v4.60/bin/bin/../../lib/gcc/pic32c/8.3.1/thumb/v6-m/nofp\libgcc.a(_dvmd_tls.o)
 .debug_info    0x0000000000041862       0x26 c:/program files/microchip/xc32/v4.60/bin/bin/../../lib/gcc/pic32c/8.3.1/thumb/v6-m/nofp\libgcc.a(_aeabi_ldivmod.o)
 .debug_info    0x0000000000041888       0x26 c:/program files/microchip/xc32/v4.60/bin/bin/../../lib/gcc/pic32c/8.3.1/thumb/v6-m/nofp\libgcc.a(_aeabi_uldivmod.o)
 .debug_info    0x00000000000418ae      0x243 c:/program files/microchip/xc32/v4.60/bin/bin/../../lib/gcc/pic32c/8.3.1/thumb/v6-m/nofp\libgcc.a(_muldi3.o)
 .debug_info    0x0000000000041af1      0x193 c:/program files/microchip/xc32/v4.60/bin/bin/../../lib/gcc/pic32c/8.3.1/thumb/v6-m/nofp\libgcc.a(_udivmoddi4.o)
 .debug_info    0x0000000000041c84       0xd5 c:/program files/microchip/xc32/v4.60/bin/bin/../../lib/gcc/pic32c/8.3.1/thumb/v6-m/nofp\libgcc.a(bpabi.o)
 .debug_info    0x0000000000041d59       0x26 c:/program files/microchip/xc32/v4.60/bin/bin/../../lib/gcc/pic32c/8.3.1/thumb/v6-m/nofp\libgcc.a(_lshrdi3.o)
 .debug_info    0x0000000000041d7f       0x26 c:/program files/microchip/xc32/v4.60/bin/bin/../../lib/gcc/pic32c/8.3.1/thumb/v6-m/nofp\libgcc.a(_ashldi3.o)
 .debug_info    0x0000000000041da5       0x26 c:/program files/microchip/xc32/v4.60/bin/bin/../../lib/gcc/pic32c/8.3.1/thumb/v6-m/nofp\libgcc.a(_clzdi2.o)
 .debug_info    0x0000000000041dcb      0x2e1 c:/program files/microchip/xc32/v4.60/bin/bin/../../lib/gcc/pic32c/8.3.1/thumb/v6-m/nofp\libgcc.a(_divdi3.o)
 .debug_info    0x00000000000420ac       0x26 c:/program files/microchip/xc32/v4.60/bin/bin/../../lib/gcc/pic32c/8.3.1/thumb/v6-m/nofp\libgcc.a(_clzsi2.o)
 .debug_info    0x00000000000420d2       0x6a c:/program files/microchip/xc32/v4.60/bin/bin/../../lib/gcc/pic32c/8.3.1/../../../../pic32c/lib/thumb/v6-m/nofp\libpic32c.a(sbrk.o)
 .debug_info    0x000000000004213c       0xbd c:/program files/microchip/xc32/v4.60/bin/bin/../../lib/gcc/pic32c/8.3.1/../../../../pic32c/lib/thumb/v6-m/nofp\libc-size-musl.a(strcpy.o)
 .debug_info    0x00000000000421f9       0xac c:/program files/microchip/xc32/v4.60/bin/bin/../../lib/gcc/pic32c/8.3.1/../../../../pic32c/lib/thumb/v6-m/nofp\libc-size-musl.a(stpcpy.o)
 .debug_info    0x00000000000422a5       0x3f c:/program files/microchip/xc32/v4.60/bin/bin/../../lib/gcc/pic32c/8.3.1/../../../../pic32c/lib/thumb/v6-m/nofp\libpic32c.a(pic32_data_init_clear.o)
 .debug_info    0x00000000000422e4       0x40 c:/program files/microchip/xc32/v4.60/bin/bin/../../lib/gcc/pic32c/8.3.1/../../../../pic32c/lib/thumb/v6-m/nofp\libpic32c.a(pic32_data_init_copy.o)

.debug_abbrev   0x0000000000000000     0xbe71
 .debug_abbrev  0x0000000000000000      0x4cc build/samd21IOT_winc1500/production/_ext/287230454/drv_spi.o
 .debug_abbrev  0x00000000000004cc       0xb1 build/samd21IOT_winc1500/production/_ext/224737734/wdrv_winc_gpio.o
 .debug_abbrev  0x000000000000057d       0xa1 build/samd21IOT_winc1500/production/_ext/224737734/wdrv_winc_eint.o
 .debug_abbrev  0x000000000000061e      0x2c8 build/samd21IOT_winc1500/production/_ext/284355797/wdrv_winc_spi.o
 .debug_abbrev  0x00000000000008e6       0xf9 build/samd21IOT_winc1500/production/_ext/912793297/nm_common.o
 .debug_abbrev  0x00000000000009df      0x42c build/samd21IOT_winc1500/production/_ext/881504404/m2m_wifi.o
 .debug_abbrev  0x0000000000000e0b      0x2a5 build/samd21IOT_winc1500/production/_ext/881504404/m2m_ota.o
 .debug_abbrev  0x00000000000010b0      0x456 build/samd21IOT_winc1500/production/_ext/881504404/m2m_hif.o
 .debug_abbrev  0x0000000000001506      0x171 build/samd21IOT_winc1500/production/_ext/881504404/m2m_periph.o
 .debug_abbrev  0x0000000000001677      0x234 build/samd21IOT_winc1500/production/_ext/881504404/nmbus.o
 .debug_abbrev  0x00000000000018ab      0x321 build/samd21IOT_winc1500/production/_ext/881504404/m2m_ssl.o
 .debug_abbrev  0x0000000000001bcc      0x3ad build/samd21IOT_winc1500/production/_ext/881504404/nmspi.o
 .debug_abbrev  0x0000000000001f79      0x210 build/samd21IOT_winc1500/production/_ext/881504404/nmdrv.o
 .debug_abbrev  0x0000000000002189      0x2c1 build/samd21IOT_winc1500/production/_ext/881504404/nmasic.o
 .debug_abbrev  0x000000000000244a       0xd9 build/samd21IOT_winc1500/production/_ext/455027017/inet_ntop.o
 .debug_abbrev  0x0000000000002523       0x9e build/samd21IOT_winc1500/production/_ext/455027017/inet_addr.o
 .debug_abbrev  0x00000000000025c1      0x422 build/samd21IOT_winc1500/production/_ext/455027017/socket.o
 .debug_abbrev  0x00000000000029e3       0xfd build/samd21IOT_winc1500/production/_ext/1637020121/flexible_flash.o
 .debug_abbrev  0x0000000000002ae0      0x30e build/samd21IOT_winc1500/production/_ext/1637020121/spi_flash.o
 .debug_abbrev  0x0000000000002dee       0xdd build/samd21IOT_winc1500/production/_ext/469334988/wdrv_winc_osal.o
 .debug_abbrev  0x0000000000002ecb      0x4b4 build/samd21IOT_winc1500/production/_ext/1235514674/wdrv_winc.o
 .debug_abbrev  0x000000000000337f      0x3c9 build/samd21IOT_winc1500/production/_ext/1235514674/wdrv_winc_host_file.o
 .debug_abbrev  0x0000000000003748      0x1ea build/samd21IOT_winc1500/production/_ext/1235514674/wdrv_winc_httpprovctx.o
 .debug_abbrev  0x0000000000003932      0x14e build/samd21IOT_winc1500/production/_ext/1235514674/wdrv_winc_custie.o
 .debug_abbrev  0x0000000000003a80      0x1c2 build/samd21IOT_winc1500/production/_ext/1235514674/wdrv_winc_bssctx.o
 .debug_abbrev  0x0000000000003c42      0x239 build/samd21IOT_winc1500/production/_ext/1235514674/wdrv_winc_powersave.o
 .debug_abbrev  0x0000000000003e7b      0x280 build/samd21IOT_winc1500/production/_ext/1235514674/wdrv_winc_authctx.o
 .debug_abbrev  0x00000000000040fb      0x2d2 build/samd21IOT_winc1500/production/_ext/1235514674/wdrv_winc_bssfind.o
 .debug_abbrev  0x00000000000043cd      0x35c build/samd21IOT_winc1500/production/_ext/1235514674/wdrv_winc_socket.o
 .debug_abbrev  0x0000000000004729      0x377 build/samd21IOT_winc1500/production/_ext/1235514674/wdrv_winc_nvm.o
 .debug_abbrev  0x0000000000004aa0      0x2d4 build/samd21IOT_winc1500/production/_ext/1235514674/wdrv_winc_sta.o
 .debug_abbrev  0x0000000000004d74      0x33d build/samd21IOT_winc1500/production/_ext/1235514674/wdrv_winc_ssl.o
 .debug_abbrev  0x00000000000050b1      0x28e build/samd21IOT_winc1500/production/_ext/1235514674/wdrv_winc_systime.o
 .debug_abbrev  0x000000000000533f      0x2e5 build/samd21IOT_winc1500/production/_ext/1235514674/wdrv_winc_wps.o
 .debug_abbrev  0x0000000000005624      0x297 build/samd21IOT_winc1500/production/_ext/1235514674/wdrv_winc_enterprise.o
 .debug_abbrev  0x00000000000058bb      0x2bd build/samd21IOT_winc1500/production/_ext/1235514674/wdrv_winc_softap.o
 .debug_abbrev  0x0000000000005b78      0x287 build/samd21IOT_winc1500/production/_ext/1235514674/wdrv_winc_assoc.o
 .debug_abbrev  0x0000000000005dff      0x136 build/samd21IOT_winc1500/production/_ext/435457175/plib_clock.o
 .debug_abbrev  0x0000000000005f35      0x2d5 build/samd21IOT_winc1500/production/_ext/1953739970/plib_dmac.o
 .debug_abbrev  0x000000000000620a      0x1af build/samd21IOT_winc1500/production/_ext/1876637944/plib_eic.o
 .debug_abbrev  0x00000000000063b9       0x44 build/samd21IOT_winc1500/production/_ext/437606661/plib_evsys.o
 .debug_abbrev  0x00000000000063fd      0x26f build/samd21IOT_winc1500/production/_ext/1954046777/plib_nvic.o
 .debug_abbrev  0x000000000000666c      0x1a4 build/samd21IOT_winc1500/production/_ext/975387175/plib_nvmctrl.o
 .debug_abbrev  0x0000000000006810      0x1e8 build/samd21IOT_winc1500/production/_ext/1954099928/plib_port.o
 .debug_abbrev  0x00000000000069f8      0x274 build/samd21IOT_winc1500/production/_ext/34491124/plib_sercom2_spi_master.o
 .debug_abbrev  0x0000000000006c6c      0x42a build/samd21IOT_winc1500/production/_ext/1207737362/plib_sercom5_usart.o
 .debug_abbrev  0x0000000000007096      0x1bc build/samd21IOT_winc1500/production/_ext/2138746234/plib_tc3.o
 .debug_abbrev  0x0000000000007252       0xb0 build/samd21IOT_winc1500/production/_ext/1613073709/xc32_monitor.o
 .debug_abbrev  0x0000000000007302      0x3b6 build/samd21IOT_winc1500/production/_ext/106321624/sys_console.o
 .debug_abbrev  0x00000000000076b8      0x31a build/samd21IOT_winc1500/production/_ext/106321624/sys_console_uart.o
 .debug_abbrev  0x00000000000079d2      0x1a3 build/samd21IOT_winc1500/production/_ext/604157148/sys_debug.o
 .debug_abbrev  0x0000000000007b75       0xfb build/samd21IOT_winc1500/production/_ext/226979060/sys_dma.o
 .debug_abbrev  0x0000000000007c70      0x260 build/samd21IOT_winc1500/production/_ext/55136832/sys_int.o
 .debug_abbrev  0x0000000000007ed0      0x51b build/samd21IOT_winc1500/production/_ext/13306586/sys_time.o
 .debug_abbrev  0x00000000000083eb       0xbb build/samd21IOT_winc1500/production/_ext/2058341299/tasks.o
 .debug_abbrev  0x00000000000084a6       0xe3 build/samd21IOT_winc1500/production/_ext/2058341299/interrupts.o
 .debug_abbrev  0x0000000000008589      0x271 build/samd21IOT_winc1500/production/_ext/2058341299/initialization.o
 .debug_abbrev  0x00000000000087fa      0x118 build/samd21IOT_winc1500/production/_ext/2058341299/startup_xc32.o
 .debug_abbrev  0x0000000000008912       0x5b build/samd21IOT_winc1500/production/_ext/2058341299/libc_syscalls.o
 .debug_abbrev  0x000000000000896d       0x47 build/samd21IOT_winc1500/production/_ext/2058341299/exceptions.o
 .debug_abbrev  0x00000000000089b4       0x80 build/samd21IOT_winc1500/production/_ext/1360937237/main.o
 .debug_abbrev  0x0000000000008a34      0x159 build/samd21IOT_winc1500/production/_ext/1360937237/app.o
 .debug_abbrev  0x0000000000008b8d      0x2b4 build/samd21IOT_winc1500/production/_ext/1360937237/winc1500_tcp_server.o
 .debug_abbrev  0x0000000000008e41       0x44 c:/program files/microchip/xc32/v4.60/bin/bin/../../lib/gcc/pic32c/8.3.1/../../../../pic32c/lib/thumb/v6-m/nofp\libpic32c.a(data_init.o)
 .debug_abbrev  0x0000000000008e85       0xbb c:/program files/microchip/xc32/v4.60/bin/bin/../../lib/gcc/pic32c/8.3.1/../../../../pic32c/lib/thumb/v6-m/nofp\libc-size-musl.a(memcpy.o)
 .debug_abbrev  0x0000000000008f40       0xa2 c:/program files/microchip/xc32/v4.60/bin/bin/../../lib/gcc/pic32c/8.3.1/../../../../pic32c/lib/thumb/v6-m/nofp\libc-size-musl.a(memset.o)
 .debug_abbrev  0x0000000000008fe2       0x91 c:/program files/microchip/xc32/v4.60/bin/bin/../../lib/gcc/pic32c/8.3.1/../../../../pic32c/lib/thumb/v6-m/nofp\libc-size-musl.a(strlen.o)
 .debug_abbrev  0x0000000000009073       0xad c:/program files/microchip/xc32/v4.60/bin/bin/../../lib/gcc/pic32c/8.3.1/../../../../pic32c/lib/thumb/v6-m/nofp\libc-size-musl.a(strchr.o)
 .debug_abbrev  0x0000000000009120       0xbc c:/program files/microchip/xc32/v4.60/bin/bin/../../lib/gcc/pic32c/8.3.1/../../../../pic32c/lib/thumb/v6-m/nofp\libc-size-musl.a(strchrnul.o)
 .debug_abbrev  0x00000000000091dc       0xb1 c:/program files/microchip/xc32/v4.60/bin/bin/../../lib/gcc/pic32c/8.3.1/../../../../pic32c/lib/thumb/v6-m/nofp\libc-size-musl.a(strnlen.o)
 .debug_abbrev  0x000000000000928d       0xb1 c:/program files/microchip/xc32/v4.60/bin/bin/../../lib/gcc/pic32c/8.3.1/../../../../pic32c/lib/thumb/v6-m/nofp\libc-size-musl.a(memchr.o)
 .debug_abbrev  0x000000000000933e      0x18b c:/program files/microchip/xc32/v4.60/bin/bin/../../lib/gcc/pic32c/8.3.1/../../../../pic32c/lib/thumb/v6-m/nofp\liblmalloc-musl.a(lite_free.o)
 .debug_abbrev  0x00000000000094c9      0x117 c:/program files/microchip/xc32/v4.60/bin/bin/../../lib/gcc/pic32c/8.3.1/../../../../pic32c/lib/thumb/v6-m/nofp\liblmalloc-musl.a(lite_malloc.o)
 .debug_abbrev  0x00000000000095e0      0x133 c:/program files/microchip/xc32/v4.60/bin/bin/../../lib/gcc/pic32c/8.3.1/../../../../pic32c/lib/thumb/v6-m/nofp\libc-musl.a(__libc_start_main.o)
 .debug_abbrev  0x0000000000009713       0x39 c:/program files/microchip/xc32/v4.60/bin/bin/../../lib/gcc/pic32c/8.3.1/../../../../pic32c/lib/thumb/v6-m/nofp\libc-musl.a(__errno_location.o)
 .debug_abbrev  0x000000000000974c       0xd4 c:/program files/microchip/xc32/v4.60/bin/bin/../../lib/gcc/pic32c/8.3.1/../../../../pic32c/lib/thumb/v6-m/nofp\libc-musl.a(libc.o)
 .debug_abbrev  0x0000000000009820       0xc4 c:/program files/microchip/xc32/v4.60/bin/bin/../../lib/gcc/pic32c/8.3.1/../../../../pic32c/lib/thumb/v6-m/nofp\libc-musl.a(expand_heap.o)
 .debug_abbrev  0x00000000000098e4      0x195 c:/program files/microchip/xc32/v4.60/bin/bin/../../lib/gcc/pic32c/8.3.1/../../../../pic32c/lib/thumb/v6-m/nofp\libc-musl.a(vsnprintf.o)
 .debug_abbrev  0x0000000000009a79      0x106 c:/program files/microchip/xc32/v4.60/bin/bin/../../lib/gcc/pic32c/8.3.1/../../../../pic32c/lib/thumb/v6-m/nofp\libc-musl.a(sprintf.o)
 .debug_abbrev  0x0000000000009b7f       0xcb c:/program files/microchip/xc32/v4.60/bin/bin/../../lib/gcc/pic32c/8.3.1/../../../../pic32c/lib/thumb/v6-m/nofp\libc-musl.a(vsprintf.o)
 .debug_abbrev  0x0000000000009c4a       0xdb c:/program files/microchip/xc32/v4.60/bin/bin/../../lib/gcc/pic32c/8.3.1/../../../../pic32c/lib/thumb/v6-m/nofp\libc-musl.a(gmtime.o)
 .debug_abbrev  0x0000000000009d25       0xdd c:/program files/microchip/xc32/v4.60/bin/bin/../../lib/gcc/pic32c/8.3.1/../../../../pic32c/lib/thumb/v6-m/nofp\libc-musl.a(gmtime_r.o)
 .debug_abbrev  0x0000000000009e02      0x130 c:/program files/microchip/xc32/v4.60/bin/bin/../../lib/gcc/pic32c/8.3.1/../../../../pic32c/lib/thumb/v6-m/nofp\libc-musl.a(mktime.o)
 .debug_abbrev  0x0000000000009f32       0x62 c:/program files/microchip/xc32/v4.60/bin/bin/../../lib/gcc/pic32c/8.3.1/../../../../pic32c/lib/thumb/v6-m/nofp\libc-musl.a(__environ.o)
 .debug_abbrev  0x0000000000009f94      0x18b c:/program files/microchip/xc32/v4.60/bin/bin/../../lib/gcc/pic32c/8.3.1/../../../../pic32c/lib/thumb/v6-m/nofp\libc-musl.a(vfprintf.o)
 .debug_abbrev  0x000000000000a11f      0x10c c:/program files/microchip/xc32/v4.60/bin/bin/../../lib/gcc/pic32c/8.3.1/../../../../pic32c/lib/thumb/v6-m/nofp\libc-musl.a(__tm_to_secs.o)
 .debug_abbrev  0x000000000000a22b       0x96 c:/program files/microchip/xc32/v4.60/bin/bin/../../lib/gcc/pic32c/8.3.1/../../../../pic32c/lib/thumb/v6-m/nofp\libc-musl.a(__year_to_secs.o)
 .debug_abbrev  0x000000000000a2c1       0xc7 c:/program files/microchip/xc32/v4.60/bin/bin/../../lib/gcc/pic32c/8.3.1/../../../../pic32c/lib/thumb/v6-m/nofp\libc-musl.a(__secs_to_tm.o)
 .debug_abbrev  0x000000000000a388       0x67 c:/program files/microchip/xc32/v4.60/bin/bin/../../lib/gcc/pic32c/8.3.1/../../../../pic32c/lib/thumb/v6-m/nofp\libc-musl.a(__io_fmt_needed.o)
 .debug_abbrev  0x000000000000a3ef       0xdc c:/program files/microchip/xc32/v4.60/bin/bin/../../lib/gcc/pic32c/8.3.1/../../../../pic32c/lib/thumb/v6-m/nofp\libc-musl.a(__pop_float.o)
 .debug_abbrev  0x000000000000a4cb       0xdc c:/program files/microchip/xc32/v4.60/bin/bin/../../lib/gcc/pic32c/8.3.1/../../../../pic32c/lib/thumb/v6-m/nofp\libc-musl.a(__pop_int.o)
 .debug_abbrev  0x000000000000a5a7       0xdc c:/program files/microchip/xc32/v4.60/bin/bin/../../lib/gcc/pic32c/8.3.1/../../../../pic32c/lib/thumb/v6-m/nofp\libc-musl.a(__pop_ptr.o)
 .debug_abbrev  0x000000000000a683      0x317 c:/program files/microchip/xc32/v4.60/bin/bin/../../lib/gcc/pic32c/8.3.1/../../../../pic32c/lib/thumb/v6-m/nofp\libc-musl.a(__printf_core.o)
 .debug_abbrev  0x000000000000a99a       0xc6 c:/program files/microchip/xc32/v4.60/bin/bin/../../lib/gcc/pic32c/8.3.1/../../../../pic32c/lib/thumb/v6-m/nofp\libc-musl.a(atoi.o)
 .debug_abbrev  0x000000000000aa60       0xad c:/program files/microchip/xc32/v4.60/bin/bin/../../lib/gcc/pic32c/8.3.1/../../../../pic32c/lib/thumb/v6-m/nofp\libc-musl.a(__month_to_secs.o)
 .debug_abbrev  0x000000000000ab0d       0xf4 c:/program files/microchip/xc32/v4.60/bin/bin/../../lib/gcc/pic32c/8.3.1/../../../../pic32c/lib/thumb/v6-m/nofp\libc-musl.a(tolower.o)
 .debug_abbrev  0x000000000000ac01      0x1d5 c:/program files/microchip/xc32/v4.60/bin/bin/../../lib/gcc/pic32c/8.3.1/../../../../pic32c/lib/thumb/v6-m/nofp\libc-musl.a(__fmt_a.o)
 .debug_abbrev  0x000000000000add6      0x161 c:/program files/microchip/xc32/v4.60/bin/bin/../../lib/gcc/pic32c/8.3.1/../../../../pic32c/lib/thumb/v6-m/nofp\libc-musl.a(__fmt_d.o)
 .debug_abbrev  0x000000000000af37      0x1e3 c:/program files/microchip/xc32/v4.60/bin/bin/../../lib/gcc/pic32c/8.3.1/../../../../pic32c/lib/thumb/v6-m/nofp\libc-musl.a(__fmt_fp.o)
 .debug_abbrev  0x000000000000b11a      0x161 c:/program files/microchip/xc32/v4.60/bin/bin/../../lib/gcc/pic32c/8.3.1/../../../../pic32c/lib/thumb/v6-m/nofp\libc-musl.a(__fmt_o.o)
 .debug_abbrev  0x000000000000b27b      0x15e c:/program files/microchip/xc32/v4.60/bin/bin/../../lib/gcc/pic32c/8.3.1/../../../../pic32c/lib/thumb/v6-m/nofp\libc-musl.a(__fmt_s.o)
 .debug_abbrev  0x000000000000b3d9      0x161 c:/program files/microchip/xc32/v4.60/bin/bin/../../lib/gcc/pic32c/8.3.1/../../../../pic32c/lib/thumb/v6-m/nofp\libc-musl.a(__fmt_u.o)
 .debug_abbrev  0x000000000000b53a      0x150 c:/program files/microchip/xc32/v4.60/bin/bin/../../lib/gcc/pic32c/8.3.1/../../../../pic32c/lib/thumb/v6-m/nofp\libc-musl.a(__fmt_x.o)
 .debug_abbrev  0x000000000000b68a       0xf4 c:/program files/microchip/xc32/v4.60/bin/bin/../../lib/gcc/pic32c/8.3.1/../../../../pic32c/lib/thumb/v6-m/nofp\libc-musl.a(toupper.o)
 .debug_abbrev  0x000000000000b77e       0xf3 c:/program files/microchip/xc32/v4.60/bin/bin/../../lib/gcc/pic32c/8.3.1/../../../../pic32c/lib/thumb/v6-m/nofp\libc-musl.a(__cvt_u.o)
 .debug_abbrev  0x000000000000b871       0x14 c:/program files/microchip/xc32/v4.60/bin/bin/../../lib/gcc/pic32c/8.3.1/thumb/v6-m/nofp\libgcc.a(_udivsi3.o)
 .debug_abbrev  0x000000000000b885       0x14 c:/program files/microchip/xc32/v4.60/bin/bin/../../lib/gcc/pic32c/8.3.1/thumb/v6-m/nofp\libgcc.a(_divsi3.o)
 .debug_abbrev  0x000000000000b899       0x14 c:/program files/microchip/xc32/v4.60/bin/bin/../../lib/gcc/pic32c/8.3.1/thumb/v6-m/nofp\libgcc.a(_dvmd_tls.o)
 .debug_abbrev  0x000000000000b8ad       0x14 c:/program files/microchip/xc32/v4.60/bin/bin/../../lib/gcc/pic32c/8.3.1/thumb/v6-m/nofp\libgcc.a(_aeabi_ldivmod.o)
 .debug_abbrev  0x000000000000b8c1       0x14 c:/program files/microchip/xc32/v4.60/bin/bin/../../lib/gcc/pic32c/8.3.1/thumb/v6-m/nofp\libgcc.a(_aeabi_uldivmod.o)
 .debug_abbrev  0x000000000000b8d5      0x10b c:/program files/microchip/xc32/v4.60/bin/bin/../../lib/gcc/pic32c/8.3.1/thumb/v6-m/nofp\libgcc.a(_muldi3.o)
 .debug_abbrev  0x000000000000b9e0       0x99 c:/program files/microchip/xc32/v4.60/bin/bin/../../lib/gcc/pic32c/8.3.1/thumb/v6-m/nofp\libgcc.a(_udivmoddi4.o)
 .debug_abbrev  0x000000000000ba79       0xaa c:/program files/microchip/xc32/v4.60/bin/bin/../../lib/gcc/pic32c/8.3.1/thumb/v6-m/nofp\libgcc.a(bpabi.o)
 .debug_abbrev  0x000000000000bb23       0x14 c:/program files/microchip/xc32/v4.60/bin/bin/../../lib/gcc/pic32c/8.3.1/thumb/v6-m/nofp\libgcc.a(_lshrdi3.o)
 .debug_abbrev  0x000000000000bb37       0x14 c:/program files/microchip/xc32/v4.60/bin/bin/../../lib/gcc/pic32c/8.3.1/thumb/v6-m/nofp\libgcc.a(_ashldi3.o)
 .debug_abbrev  0x000000000000bb4b       0x14 c:/program files/microchip/xc32/v4.60/bin/bin/../../lib/gcc/pic32c/8.3.1/thumb/v6-m/nofp\libgcc.a(_clzdi2.o)
 .debug_abbrev  0x000000000000bb5f      0x14e c:/program files/microchip/xc32/v4.60/bin/bin/../../lib/gcc/pic32c/8.3.1/thumb/v6-m/nofp\libgcc.a(_divdi3.o)
 .debug_abbrev  0x000000000000bcad       0x14 c:/program files/microchip/xc32/v4.60/bin/bin/../../lib/gcc/pic32c/8.3.1/thumb/v6-m/nofp\libgcc.a(_clzsi2.o)
 .debug_abbrev  0x000000000000bcc1       0x44 c:/program files/microchip/xc32/v4.60/bin/bin/../../lib/gcc/pic32c/8.3.1/../../../../pic32c/lib/thumb/v6-m/nofp\libpic32c.a(sbrk.o)
 .debug_abbrev  0x000000000000bd05       0xa2 c:/program files/microchip/xc32/v4.60/bin/bin/../../lib/gcc/pic32c/8.3.1/../../../../pic32c/lib/thumb/v6-m/nofp\libc-size-musl.a(strcpy.o)
 .debug_abbrev  0x000000000000bda7       0x6e c:/program files/microchip/xc32/v4.60/bin/bin/../../lib/gcc/pic32c/8.3.1/../../../../pic32c/lib/thumb/v6-m/nofp\libc-size-musl.a(stpcpy.o)
 .debug_abbrev  0x000000000000be15       0x2e c:/program files/microchip/xc32/v4.60/bin/bin/../../lib/gcc/pic32c/8.3.1/../../../../pic32c/lib/thumb/v6-m/nofp\libpic32c.a(pic32_data_init_clear.o)
 .debug_abbrev  0x000000000000be43       0x2e c:/program files/microchip/xc32/v4.60/bin/bin/../../lib/gcc/pic32c/8.3.1/../../../../pic32c/lib/thumb/v6-m/nofp\libpic32c.a(pic32_data_init_copy.o)

.debug_loc      0x0000000000000000    0x2b071
 .debug_loc     0x0000000000000000     0x2351 build/samd21IOT_winc1500/production/_ext/287230454/drv_spi.o
 .debug_loc     0x0000000000002351       0xbc build/samd21IOT_winc1500/production/_ext/224737734/wdrv_winc_eint.o
 .debug_loc     0x000000000000240d      0x70b build/samd21IOT_winc1500/production/_ext/284355797/wdrv_winc_spi.o
 .debug_loc     0x0000000000002b18       0xa8 build/samd21IOT_winc1500/production/_ext/912793297/nm_common.o
 .debug_loc     0x0000000000002bc0     0x459a build/samd21IOT_winc1500/production/_ext/881504404/m2m_wifi.o
 .debug_loc     0x000000000000715a     0x1221 build/samd21IOT_winc1500/production/_ext/881504404/m2m_ota.o
 .debug_loc     0x000000000000837b     0x1018 build/samd21IOT_winc1500/production/_ext/881504404/m2m_hif.o
 .debug_loc     0x0000000000009393      0x314 build/samd21IOT_winc1500/production/_ext/881504404/m2m_periph.o
 .debug_loc     0x00000000000096a7      0x69a build/samd21IOT_winc1500/production/_ext/881504404/nmbus.o
 .debug_loc     0x0000000000009d41      0xe61 build/samd21IOT_winc1500/production/_ext/881504404/m2m_ssl.o
 .debug_loc     0x000000000000aba2     0x18e2 build/samd21IOT_winc1500/production/_ext/881504404/nmspi.o
 .debug_loc     0x000000000000c484      0x948 build/samd21IOT_winc1500/production/_ext/881504404/nmdrv.o
 .debug_loc     0x000000000000cdcc      0xe72 build/samd21IOT_winc1500/production/_ext/881504404/nmasic.o
 .debug_loc     0x000000000000dc3e      0x404 build/samd21IOT_winc1500/production/_ext/455027017/inet_ntop.o
 .debug_loc     0x000000000000e042      0x382 build/samd21IOT_winc1500/production/_ext/455027017/inet_addr.o
 .debug_loc     0x000000000000e3c4     0x2259 build/samd21IOT_winc1500/production/_ext/455027017/socket.o
 .debug_loc     0x000000000001061d      0x274 build/samd21IOT_winc1500/production/_ext/1637020121/flexible_flash.o
 .debug_loc     0x0000000000010891      0xff0 build/samd21IOT_winc1500/production/_ext/1637020121/spi_flash.o
 .debug_loc     0x0000000000011881       0x51 build/samd21IOT_winc1500/production/_ext/469334988/wdrv_winc_osal.o
 .debug_loc     0x00000000000118d2     0x2b29 build/samd21IOT_winc1500/production/_ext/1235514674/wdrv_winc.o
 .debug_loc     0x00000000000143fb     0x1d82 build/samd21IOT_winc1500/production/_ext/1235514674/wdrv_winc_host_file.o
 .debug_loc     0x000000000001617d      0x1c9 build/samd21IOT_winc1500/production/_ext/1235514674/wdrv_winc_httpprovctx.o
 .debug_loc     0x0000000000016346      0x3f6 build/samd21IOT_winc1500/production/_ext/1235514674/wdrv_winc_custie.o
 .debug_loc     0x000000000001673c      0x48b build/samd21IOT_winc1500/production/_ext/1235514674/wdrv_winc_bssctx.o
 .debug_loc     0x0000000000016bc7      0x4ca build/samd21IOT_winc1500/production/_ext/1235514674/wdrv_winc_powersave.o
 .debug_loc     0x0000000000017091      0xd7f build/samd21IOT_winc1500/production/_ext/1235514674/wdrv_winc_authctx.o
 .debug_loc     0x0000000000017e10     0x102f build/samd21IOT_winc1500/production/_ext/1235514674/wdrv_winc_bssfind.o
 .debug_loc     0x0000000000018e3f     0x176b build/samd21IOT_winc1500/production/_ext/1235514674/wdrv_winc_socket.o
 .debug_loc     0x000000000001a5aa      0xbbd build/samd21IOT_winc1500/production/_ext/1235514674/wdrv_winc_nvm.o
 .debug_loc     0x000000000001b167      0x99a build/samd21IOT_winc1500/production/_ext/1235514674/wdrv_winc_sta.o
 .debug_loc     0x000000000001bb01      0xd14 build/samd21IOT_winc1500/production/_ext/1235514674/wdrv_winc_ssl.o
 .debug_loc     0x000000000001c815      0x633 build/samd21IOT_winc1500/production/_ext/1235514674/wdrv_winc_systime.o
 .debug_loc     0x000000000001ce48      0x65c build/samd21IOT_winc1500/production/_ext/1235514674/wdrv_winc_wps.o
 .debug_loc     0x000000000001d4a4      0x7e6 build/samd21IOT_winc1500/production/_ext/1235514674/wdrv_winc_enterprise.o
 .debug_loc     0x000000000001dc8a      0x6af build/samd21IOT_winc1500/production/_ext/1235514674/wdrv_winc_softap.o
 .debug_loc     0x000000000001e339      0x8d9 build/samd21IOT_winc1500/production/_ext/1235514674/wdrv_winc_assoc.o
 .debug_loc     0x000000000001ec12       0x31 build/samd21IOT_winc1500/production/_ext/435457175/plib_clock.o
 .debug_loc     0x000000000001ec43      0xb30 build/samd21IOT_winc1500/production/_ext/1953739970/plib_dmac.o
 .debug_loc     0x000000000001f773      0x110 build/samd21IOT_winc1500/production/_ext/1876637944/plib_eic.o
 .debug_loc     0x000000000001f883      0x27b build/samd21IOT_winc1500/production/_ext/1954046777/plib_nvic.o
 .debug_loc     0x000000000001fafe      0x42e build/samd21IOT_winc1500/production/_ext/975387175/plib_nvmctrl.o
 .debug_loc     0x000000000001ff2c      0x2bb build/samd21IOT_winc1500/production/_ext/1954099928/plib_port.o
 .debug_loc     0x00000000000201e7      0x68a build/samd21IOT_winc1500/production/_ext/34491124/plib_sercom2_spi_master.o
 .debug_loc     0x0000000000020871      0xd8f build/samd21IOT_winc1500/production/_ext/1207737362/plib_sercom5_usart.o
 .debug_loc     0x0000000000021600       0x6f build/samd21IOT_winc1500/production/_ext/2138746234/plib_tc3.o
 .debug_loc     0x000000000002166f       0x4a build/samd21IOT_winc1500/production/_ext/1613073709/xc32_monitor.o
 .debug_loc     0x00000000000216b9      0xc4c build/samd21IOT_winc1500/production/_ext/106321624/sys_console.o
 .debug_loc     0x0000000000022305      0x997 build/samd21IOT_winc1500/production/_ext/106321624/sys_console_uart.o
 .debug_loc     0x0000000000022c9c       0xb5 build/samd21IOT_winc1500/production/_ext/604157148/sys_debug.o
 .debug_loc     0x0000000000022d51      0x186 build/samd21IOT_winc1500/production/_ext/226979060/sys_dma.o
 .debug_loc     0x0000000000022ed7      0x17d build/samd21IOT_winc1500/production/_ext/55136832/sys_int.o
 .debug_loc     0x0000000000023054     0x23fc build/samd21IOT_winc1500/production/_ext/13306586/sys_time.o
 .debug_loc     0x0000000000025450       0x20 build/samd21IOT_winc1500/production/_ext/2058341299/tasks.o
 .debug_loc     0x0000000000025470       0x45 build/samd21IOT_winc1500/production/_ext/2058341299/initialization.o
 .debug_loc     0x00000000000254b5       0x20 build/samd21IOT_winc1500/production/_ext/2058341299/startup_xc32.o
 .debug_loc     0x00000000000254d5       0x15 build/samd21IOT_winc1500/production/_ext/2058341299/libc_syscalls.o
 .debug_loc     0x00000000000254ea       0x20 build/samd21IOT_winc1500/production/_ext/1360937237/main.o
 .debug_loc     0x000000000002550a       0x20 build/samd21IOT_winc1500/production/_ext/1360937237/app.o
 .debug_loc     0x000000000002552a      0x699 build/samd21IOT_winc1500/production/_ext/1360937237/winc1500_tcp_server.o
 .debug_loc     0x0000000000025bc3       0x14 c:/program files/microchip/xc32/v4.60/bin/bin/../../lib/gcc/pic32c/8.3.1/../../../../pic32c/lib/thumb/v6-m/nofp\libpic32c.a(data_init.o)
 .debug_loc     0x0000000000025bd7      0x12d c:/program files/microchip/xc32/v4.60/bin/bin/../../lib/gcc/pic32c/8.3.1/../../../../pic32c/lib/thumb/v6-m/nofp\libc-size-musl.a(memcpy.o)
 .debug_loc     0x0000000000025d04       0xcd c:/program files/microchip/xc32/v4.60/bin/bin/../../lib/gcc/pic32c/8.3.1/../../../../pic32c/lib/thumb/v6-m/nofp\libc-size-musl.a(memset.o)
 .debug_loc     0x0000000000025dd1       0x81 c:/program files/microchip/xc32/v4.60/bin/bin/../../lib/gcc/pic32c/8.3.1/../../../../pic32c/lib/thumb/v6-m/nofp\libc-size-musl.a(strlen.o)
 .debug_loc     0x0000000000025e52       0x8c c:/program files/microchip/xc32/v4.60/bin/bin/../../lib/gcc/pic32c/8.3.1/../../../../pic32c/lib/thumb/v6-m/nofp\libc-size-musl.a(strchr.o)
 .debug_loc     0x0000000000025ede       0xd5 c:/program files/microchip/xc32/v4.60/bin/bin/../../lib/gcc/pic32c/8.3.1/../../../../pic32c/lib/thumb/v6-m/nofp\libc-size-musl.a(strchrnul.o)
 .debug_loc     0x0000000000025fb3       0xa6 c:/program files/microchip/xc32/v4.60/bin/bin/../../lib/gcc/pic32c/8.3.1/../../../../pic32c/lib/thumb/v6-m/nofp\libc-size-musl.a(strnlen.o)
 .debug_loc     0x0000000000026059       0xaa c:/program files/microchip/xc32/v4.60/bin/bin/../../lib/gcc/pic32c/8.3.1/../../../../pic32c/lib/thumb/v6-m/nofp\libc-size-musl.a(memchr.o)
 .debug_loc     0x0000000000026103      0x343 c:/program files/microchip/xc32/v4.60/bin/bin/../../lib/gcc/pic32c/8.3.1/../../../../pic32c/lib/thumb/v6-m/nofp\liblmalloc-musl.a(lite_free.o)
 .debug_loc     0x0000000000026446       0xe2 c:/program files/microchip/xc32/v4.60/bin/bin/../../lib/gcc/pic32c/8.3.1/../../../../pic32c/lib/thumb/v6-m/nofp\liblmalloc-musl.a(lite_malloc.o)
 .debug_loc     0x0000000000026528       0x5e c:/program files/microchip/xc32/v4.60/bin/bin/../../lib/gcc/pic32c/8.3.1/../../../../pic32c/lib/thumb/v6-m/nofp\libc-musl.a(__libc_start_main.o)
 .debug_loc     0x0000000000026586       0x7c c:/program files/microchip/xc32/v4.60/bin/bin/../../lib/gcc/pic32c/8.3.1/../../../../pic32c/lib/thumb/v6-m/nofp\libc-musl.a(expand_heap.o)
 .debug_loc     0x0000000000026602      0x10c c:/program files/microchip/xc32/v4.60/bin/bin/../../lib/gcc/pic32c/8.3.1/../../../../pic32c/lib/thumb/v6-m/nofp\libc-musl.a(vsnprintf.o)
 .debug_loc     0x000000000002670e       0x66 c:/program files/microchip/xc32/v4.60/bin/bin/../../lib/gcc/pic32c/8.3.1/../../../../pic32c/lib/thumb/v6-m/nofp\libc-musl.a(sprintf.o)
 .debug_loc     0x0000000000026774       0x8c c:/program files/microchip/xc32/v4.60/bin/bin/../../lib/gcc/pic32c/8.3.1/../../../../pic32c/lib/thumb/v6-m/nofp\libc-musl.a(vsprintf.o)
 .debug_loc     0x0000000000026800       0x45 c:/program files/microchip/xc32/v4.60/bin/bin/../../lib/gcc/pic32c/8.3.1/../../../../pic32c/lib/thumb/v6-m/nofp\libc-musl.a(gmtime.o)
 .debug_loc     0x0000000000026845       0x91 c:/program files/microchip/xc32/v4.60/bin/bin/../../lib/gcc/pic32c/8.3.1/../../../../pic32c/lib/thumb/v6-m/nofp\libc-musl.a(gmtime_r.o)
 .debug_loc     0x00000000000268d6       0x86 c:/program files/microchip/xc32/v4.60/bin/bin/../../lib/gcc/pic32c/8.3.1/../../../../pic32c/lib/thumb/v6-m/nofp\libc-musl.a(mktime.o)
 .debug_loc     0x000000000002695c       0xd0 c:/program files/microchip/xc32/v4.60/bin/bin/../../lib/gcc/pic32c/8.3.1/../../../../pic32c/lib/thumb/v6-m/nofp\libc-musl.a(vfprintf.o)
 .debug_loc     0x0000000000026a2c      0x111 c:/program files/microchip/xc32/v4.60/bin/bin/../../lib/gcc/pic32c/8.3.1/../../../../pic32c/lib/thumb/v6-m/nofp\libc-musl.a(__tm_to_secs.o)
 .debug_loc     0x0000000000026b3d      0x258 c:/program files/microchip/xc32/v4.60/bin/bin/../../lib/gcc/pic32c/8.3.1/../../../../pic32c/lib/thumb/v6-m/nofp\libc-musl.a(__year_to_secs.o)
 .debug_loc     0x0000000000026d95      0x2f7 c:/program files/microchip/xc32/v4.60/bin/bin/../../lib/gcc/pic32c/8.3.1/../../../../pic32c/lib/thumb/v6-m/nofp\libc-musl.a(__secs_to_tm.o)
 .debug_loc     0x000000000002708c       0x20 c:/program files/microchip/xc32/v4.60/bin/bin/../../lib/gcc/pic32c/8.3.1/../../../../pic32c/lib/thumb/v6-m/nofp\libc-musl.a(__io_fmt_needed.o)
 .debug_loc     0x00000000000270ac       0x6f c:/program files/microchip/xc32/v4.60/bin/bin/../../lib/gcc/pic32c/8.3.1/../../../../pic32c/lib/thumb/v6-m/nofp\libc-musl.a(__pop_float.o)
 .debug_loc     0x000000000002711b      0x34c c:/program files/microchip/xc32/v4.60/bin/bin/../../lib/gcc/pic32c/8.3.1/../../../../pic32c/lib/thumb/v6-m/nofp\libc-musl.a(__pop_int.o)
 .debug_loc     0x0000000000027467      0x1fe c:/program files/microchip/xc32/v4.60/bin/bin/../../lib/gcc/pic32c/8.3.1/../../../../pic32c/lib/thumb/v6-m/nofp\libc-musl.a(__pop_ptr.o)
 .debug_loc     0x0000000000027665      0x6d9 c:/program files/microchip/xc32/v4.60/bin/bin/../../lib/gcc/pic32c/8.3.1/../../../../pic32c/lib/thumb/v6-m/nofp\libc-musl.a(__printf_core.o)
 .debug_loc     0x0000000000027d3e       0xdc c:/program files/microchip/xc32/v4.60/bin/bin/../../lib/gcc/pic32c/8.3.1/../../../../pic32c/lib/thumb/v6-m/nofp\libc-musl.a(atoi.o)
 .debug_loc     0x0000000000027e1a       0x3a c:/program files/microchip/xc32/v4.60/bin/bin/../../lib/gcc/pic32c/8.3.1/../../../../pic32c/lib/thumb/v6-m/nofp\libc-musl.a(__month_to_secs.o)
 .debug_loc     0x0000000000027e54       0x8f c:/program files/microchip/xc32/v4.60/bin/bin/../../lib/gcc/pic32c/8.3.1/../../../../pic32c/lib/thumb/v6-m/nofp\libc-musl.a(tolower.o)
 .debug_loc     0x0000000000027ee3      0xdb0 c:/program files/microchip/xc32/v4.60/bin/bin/../../lib/gcc/pic32c/8.3.1/../../../../pic32c/lib/thumb/v6-m/nofp\libc-musl.a(__fmt_a.o)
 .debug_loc     0x0000000000028c93      0x2a6 c:/program files/microchip/xc32/v4.60/bin/bin/../../lib/gcc/pic32c/8.3.1/../../../../pic32c/lib/thumb/v6-m/nofp\libc-musl.a(__fmt_d.o)
 .debug_loc     0x0000000000028f39      0xc94 c:/program files/microchip/xc32/v4.60/bin/bin/../../lib/gcc/pic32c/8.3.1/../../../../pic32c/lib/thumb/v6-m/nofp\libc-musl.a(__fmt_fp.o)
 .debug_loc     0x0000000000029bcd      0x12d c:/program files/microchip/xc32/v4.60/bin/bin/../../lib/gcc/pic32c/8.3.1/../../../../pic32c/lib/thumb/v6-m/nofp\libc-musl.a(__fmt_o.o)
 .debug_loc     0x0000000000029cfa      0x144 c:/program files/microchip/xc32/v4.60/bin/bin/../../lib/gcc/pic32c/8.3.1/../../../../pic32c/lib/thumb/v6-m/nofp\libc-musl.a(__fmt_s.o)
 .debug_loc     0x0000000000029e3e      0x12d c:/program files/microchip/xc32/v4.60/bin/bin/../../lib/gcc/pic32c/8.3.1/../../../../pic32c/lib/thumb/v6-m/nofp\libc-musl.a(__fmt_u.o)
 .debug_loc     0x0000000000029f6b      0x3be c:/program files/microchip/xc32/v4.60/bin/bin/../../lib/gcc/pic32c/8.3.1/../../../../pic32c/lib/thumb/v6-m/nofp\libc-musl.a(__fmt_x.o)
 .debug_loc     0x000000000002a329       0x8f c:/program files/microchip/xc32/v4.60/bin/bin/../../lib/gcc/pic32c/8.3.1/../../../../pic32c/lib/thumb/v6-m/nofp\libc-musl.a(toupper.o)
 .debug_loc     0x000000000002a3b8      0x1d3 c:/program files/microchip/xc32/v4.60/bin/bin/../../lib/gcc/pic32c/8.3.1/../../../../pic32c/lib/thumb/v6-m/nofp\libc-musl.a(__cvt_u.o)
 .debug_loc     0x000000000002a58b      0x176 c:/program files/microchip/xc32/v4.60/bin/bin/../../lib/gcc/pic32c/8.3.1/thumb/v6-m/nofp\libgcc.a(_muldi3.o)
 .debug_loc     0x000000000002a701      0x2e4 c:/program files/microchip/xc32/v4.60/bin/bin/../../lib/gcc/pic32c/8.3.1/thumb/v6-m/nofp\libgcc.a(_udivmoddi4.o)
 .debug_loc     0x000000000002a9e5       0x9c c:/program files/microchip/xc32/v4.60/bin/bin/../../lib/gcc/pic32c/8.3.1/thumb/v6-m/nofp\libgcc.a(bpabi.o)
 .debug_loc     0x000000000002aa81      0x4b0 c:/program files/microchip/xc32/v4.60/bin/bin/../../lib/gcc/pic32c/8.3.1/thumb/v6-m/nofp\libgcc.a(_divdi3.o)
 .debug_loc     0x000000000002af31       0x28 c:/program files/microchip/xc32/v4.60/bin/bin/../../lib/gcc/pic32c/8.3.1/../../../../pic32c/lib/thumb/v6-m/nofp\libpic32c.a(sbrk.o)
 .debug_loc     0x000000000002af59       0x74 c:/program files/microchip/xc32/v4.60/bin/bin/../../lib/gcc/pic32c/8.3.1/../../../../pic32c/lib/thumb/v6-m/nofp\libc-size-musl.a(strcpy.o)
 .debug_loc     0x000000000002afcd       0x90 c:/program files/microchip/xc32/v4.60/bin/bin/../../lib/gcc/pic32c/8.3.1/../../../../pic32c/lib/thumb/v6-m/nofp\libc-size-musl.a(stpcpy.o)
 .debug_loc     0x000000000002b05d       0x14 c:/program files/microchip/xc32/v4.60/bin/bin/../../lib/gcc/pic32c/8.3.1/../../../../pic32c/lib/thumb/v6-m/nofp\libpic32c.a(pic32_data_init_copy.o)

.debug_aranges  0x0000000000000000      0xfd0
 .debug_aranges
                0x0000000000000000       0x20 build/samd21IOT_winc1500/production/_ext/287230454/drv_spi.o
 .debug_aranges
                0x0000000000000020       0x20 build/samd21IOT_winc1500/production/_ext/224737734/wdrv_winc_gpio.o
 .debug_aranges
                0x0000000000000040       0x20 build/samd21IOT_winc1500/production/_ext/224737734/wdrv_winc_eint.o
 .debug_aranges
                0x0000000000000060       0x20 build/samd21IOT_winc1500/production/_ext/284355797/wdrv_winc_spi.o
 .debug_aranges
                0x0000000000000080       0x20 build/samd21IOT_winc1500/production/_ext/912793297/nm_common.o
 .debug_aranges
                0x00000000000000a0       0x20 build/samd21IOT_winc1500/production/_ext/881504404/m2m_wifi.o
 .debug_aranges
                0x00000000000000c0       0x20 build/samd21IOT_winc1500/production/_ext/881504404/m2m_ota.o
 .debug_aranges
                0x00000000000000e0       0x20 build/samd21IOT_winc1500/production/_ext/881504404/m2m_hif.o
 .debug_aranges
                0x0000000000000100       0x20 build/samd21IOT_winc1500/production/_ext/881504404/m2m_periph.o
 .debug_aranges
                0x0000000000000120       0x20 build/samd21IOT_winc1500/production/_ext/881504404/nmbus.o
 .debug_aranges
                0x0000000000000140       0x20 build/samd21IOT_winc1500/production/_ext/881504404/m2m_ssl.o
 .debug_aranges
                0x0000000000000160       0x20 build/samd21IOT_winc1500/production/_ext/881504404/nmspi.o
 .debug_aranges
                0x0000000000000180       0x20 build/samd21IOT_winc1500/production/_ext/881504404/nmdrv.o
 .debug_aranges
                0x00000000000001a0       0x20 build/samd21IOT_winc1500/production/_ext/881504404/nmasic.o
 .debug_aranges
                0x00000000000001c0       0x20 build/samd21IOT_winc1500/production/_ext/455027017/inet_ntop.o
 .debug_aranges
                0x00000000000001e0       0x20 build/samd21IOT_winc1500/production/_ext/455027017/inet_addr.o
 .debug_aranges
                0x0000000000000200       0x20 build/samd21IOT_winc1500/production/_ext/455027017/socket.o
 .debug_aranges
                0x0000000000000220       0x20 build/samd21IOT_winc1500/production/_ext/1637020121/flexible_flash.o
 .debug_aranges
                0x0000000000000240       0x20 build/samd21IOT_winc1500/production/_ext/1637020121/spi_flash.o
 .debug_aranges
                0x0000000000000260       0x20 build/samd21IOT_winc1500/production/_ext/469334988/wdrv_winc_osal.o
 .debug_aranges
                0x0000000000000280       0x20 build/samd21IOT_winc1500/production/_ext/1235514674/wdrv_winc.o
 .debug_aranges
                0x00000000000002a0       0x20 build/samd21IOT_winc1500/production/_ext/1235514674/wdrv_winc_host_file.o
 .debug_aranges
                0x00000000000002c0       0x20 build/samd21IOT_winc1500/production/_ext/1235514674/wdrv_winc_httpprovctx.o
 .debug_aranges
                0x00000000000002e0       0x20 build/samd21IOT_winc1500/production/_ext/1235514674/wdrv_winc_custie.o
 .debug_aranges
                0x0000000000000300       0x20 build/samd21IOT_winc1500/production/_ext/1235514674/wdrv_winc_bssctx.o
 .debug_aranges
                0x0000000000000320       0x20 build/samd21IOT_winc1500/production/_ext/1235514674/wdrv_winc_powersave.o
 .debug_aranges
                0x0000000000000340       0x20 build/samd21IOT_winc1500/production/_ext/1235514674/wdrv_winc_authctx.o
 .debug_aranges
                0x0000000000000360       0x20 build/samd21IOT_winc1500/production/_ext/1235514674/wdrv_winc_bssfind.o
 .debug_aranges
                0x0000000000000380       0x20 build/samd21IOT_winc1500/production/_ext/1235514674/wdrv_winc_socket.o
 .debug_aranges
                0x00000000000003a0       0x20 build/samd21IOT_winc1500/production/_ext/1235514674/wdrv_winc_nvm.o
 .debug_aranges
                0x00000000000003c0       0x20 build/samd21IOT_winc1500/production/_ext/1235514674/wdrv_winc_sta.o
 .debug_aranges
                0x00000000000003e0       0x20 build/samd21IOT_winc1500/production/_ext/1235514674/wdrv_winc_ssl.o
 .debug_aranges
                0x0000000000000400       0x20 build/samd21IOT_winc1500/production/_ext/1235514674/wdrv_winc_systime.o
 .debug_aranges
                0x0000000000000420       0x20 build/samd21IOT_winc1500/production/_ext/1235514674/wdrv_winc_wps.o
 .debug_aranges
                0x0000000000000440       0x20 build/samd21IOT_winc1500/production/_ext/1235514674/wdrv_winc_enterprise.o
 .debug_aranges
                0x0000000000000460       0x20 build/samd21IOT_winc1500/production/_ext/1235514674/wdrv_winc_softap.o
 .debug_aranges
                0x0000000000000480       0x20 build/samd21IOT_winc1500/production/_ext/1235514674/wdrv_winc_assoc.o
 .debug_aranges
                0x00000000000004a0       0x20 build/samd21IOT_winc1500/production/_ext/435457175/plib_clock.o
 .debug_aranges
                0x00000000000004c0       0x20 build/samd21IOT_winc1500/production/_ext/1953739970/plib_dmac.o
 .debug_aranges
                0x00000000000004e0       0x20 build/samd21IOT_winc1500/production/_ext/1876637944/plib_eic.o
 .debug_aranges
                0x0000000000000500       0x20 build/samd21IOT_winc1500/production/_ext/437606661/plib_evsys.o
 .debug_aranges
                0x0000000000000520       0x20 build/samd21IOT_winc1500/production/_ext/1954046777/plib_nvic.o
 .debug_aranges
                0x0000000000000540       0x20 build/samd21IOT_winc1500/production/_ext/975387175/plib_nvmctrl.o
 .debug_aranges
                0x0000000000000560       0x20 build/samd21IOT_winc1500/production/_ext/1954099928/plib_port.o
 .debug_aranges
                0x0000000000000580       0x20 build/samd21IOT_winc1500/production/_ext/34491124/plib_sercom2_spi_master.o
 .debug_aranges
                0x00000000000005a0       0x20 build/samd21IOT_winc1500/production/_ext/1207737362/plib_sercom5_usart.o
 .debug_aranges
                0x00000000000005c0       0x20 build/samd21IOT_winc1500/production/_ext/2138746234/plib_tc3.o
 .debug_aranges
                0x00000000000005e0       0x20 build/samd21IOT_winc1500/production/_ext/1613073709/xc32_monitor.o
 .debug_aranges
                0x0000000000000600       0x20 build/samd21IOT_winc1500/production/_ext/106321624/sys_console.o
 .debug_aranges
                0x0000000000000620       0x20 build/samd21IOT_winc1500/production/_ext/106321624/sys_console_uart.o
 .debug_aranges
                0x0000000000000640       0x20 build/samd21IOT_winc1500/production/_ext/604157148/sys_debug.o
 .debug_aranges
                0x0000000000000660       0x20 build/samd21IOT_winc1500/production/_ext/226979060/sys_dma.o
 .debug_aranges
                0x0000000000000680       0x20 build/samd21IOT_winc1500/production/_ext/55136832/sys_int.o
 .debug_aranges
                0x00000000000006a0       0x20 build/samd21IOT_winc1500/production/_ext/13306586/sys_time.o
 .debug_aranges
                0x00000000000006c0       0x20 build/samd21IOT_winc1500/production/_ext/2058341299/tasks.o
 .debug_aranges
                0x00000000000006e0       0x20 build/samd21IOT_winc1500/production/_ext/2058341299/interrupts.o
 .debug_aranges
                0x0000000000000700       0x20 build/samd21IOT_winc1500/production/_ext/2058341299/initialization.o
 .debug_aranges
                0x0000000000000720       0x28 build/samd21IOT_winc1500/production/_ext/2058341299/startup_xc32.o
 .debug_aranges
                0x0000000000000748       0x20 build/samd21IOT_winc1500/production/_ext/2058341299/libc_syscalls.o
 .debug_aranges
                0x0000000000000768       0x20 build/samd21IOT_winc1500/production/_ext/2058341299/exceptions.o
 .debug_aranges
                0x0000000000000788       0x20 build/samd21IOT_winc1500/production/_ext/1360937237/main.o
 .debug_aranges
                0x00000000000007a8       0x20 build/samd21IOT_winc1500/production/_ext/1360937237/app.o
 .debug_aranges
                0x00000000000007c8       0x20 build/samd21IOT_winc1500/production/_ext/1360937237/winc1500_tcp_server.o
 .debug_aranges
                0x00000000000007e8       0x30 c:/program files/microchip/xc32/v4.60/bin/bin/../../lib/gcc/pic32c/8.3.1/../../../../pic32c/lib/thumb/v6-m/nofp\libpic32c.a(data_init.o)
 .debug_aranges
                0x0000000000000818       0x20 c:/program files/microchip/xc32/v4.60/bin/bin/../../lib/gcc/pic32c/8.3.1/../../../../pic32c/lib/thumb/v6-m/nofp\libc-size-musl.a(memcpy.o)
 .debug_aranges
                0x0000000000000838       0x20 c:/program files/microchip/xc32/v4.60/bin/bin/../../lib/gcc/pic32c/8.3.1/../../../../pic32c/lib/thumb/v6-m/nofp\libc-size-musl.a(memset.o)
 .debug_aranges
                0x0000000000000858       0x20 c:/program files/microchip/xc32/v4.60/bin/bin/../../lib/gcc/pic32c/8.3.1/../../../../pic32c/lib/thumb/v6-m/nofp\libc-size-musl.a(strlen.o)
 .debug_aranges
                0x0000000000000878       0x20 c:/program files/microchip/xc32/v4.60/bin/bin/../../lib/gcc/pic32c/8.3.1/../../../../pic32c/lib/thumb/v6-m/nofp\libc-size-musl.a(strchr.o)
 .debug_aranges
                0x0000000000000898       0x20 c:/program files/microchip/xc32/v4.60/bin/bin/../../lib/gcc/pic32c/8.3.1/../../../../pic32c/lib/thumb/v6-m/nofp\libc-size-musl.a(strchrnul.o)
 .debug_aranges
                0x00000000000008b8       0x20 c:/program files/microchip/xc32/v4.60/bin/bin/../../lib/gcc/pic32c/8.3.1/../../../../pic32c/lib/thumb/v6-m/nofp\libc-size-musl.a(strnlen.o)
 .debug_aranges
                0x00000000000008d8       0x20 c:/program files/microchip/xc32/v4.60/bin/bin/../../lib/gcc/pic32c/8.3.1/../../../../pic32c/lib/thumb/v6-m/nofp\libc-size-musl.a(memchr.o)
 .debug_aranges
                0x00000000000008f8       0x30 c:/program files/microchip/xc32/v4.60/bin/bin/../../lib/gcc/pic32c/8.3.1/../../../../pic32c/lib/thumb/v6-m/nofp\liblmalloc-musl.a(lite_free.o)
 .debug_aranges
                0x0000000000000928       0x20 c:/program files/microchip/xc32/v4.60/bin/bin/../../lib/gcc/pic32c/8.3.1/../../../../pic32c/lib/thumb/v6-m/nofp\liblmalloc-musl.a(lite_malloc.o)
 .debug_aranges
                0x0000000000000948       0x28 c:/program files/microchip/xc32/v4.60/bin/bin/../../lib/gcc/pic32c/8.3.1/../../../../pic32c/lib/thumb/v6-m/nofp\libc-musl.a(__libc_start_main.o)
 .debug_aranges
                0x0000000000000970       0x18 c:/program files/microchip/xc32/v4.60/bin/bin/../../lib/gcc/pic32c/8.3.1/../../../../pic32c/lib/thumb/v6-m/nofp\libc-musl.a(__errno_location.o)
 .debug_aranges
                0x0000000000000988       0x18 c:/program files/microchip/xc32/v4.60/bin/bin/../../lib/gcc/pic32c/8.3.1/../../../../pic32c/lib/thumb/v6-m/nofp\libc-musl.a(libc.o)
 .debug_aranges
                0x00000000000009a0       0x20 c:/program files/microchip/xc32/v4.60/bin/bin/../../lib/gcc/pic32c/8.3.1/../../../../pic32c/lib/thumb/v6-m/nofp\libc-musl.a(expand_heap.o)
 .debug_aranges
                0x00000000000009c0       0x20 c:/program files/microchip/xc32/v4.60/bin/bin/../../lib/gcc/pic32c/8.3.1/../../../../pic32c/lib/thumb/v6-m/nofp\libc-musl.a(vsnprintf.o)
 .debug_aranges
                0x00000000000009e0       0x20 c:/program files/microchip/xc32/v4.60/bin/bin/../../lib/gcc/pic32c/8.3.1/../../../../pic32c/lib/thumb/v6-m/nofp\libc-musl.a(sprintf.o)
 .debug_aranges
                0x0000000000000a00       0x20 c:/program files/microchip/xc32/v4.60/bin/bin/../../lib/gcc/pic32c/8.3.1/../../../../pic32c/lib/thumb/v6-m/nofp\libc-musl.a(vsprintf.o)
 .debug_aranges
                0x0000000000000a20       0x20 c:/program files/microchip/xc32/v4.60/bin/bin/../../lib/gcc/pic32c/8.3.1/../../../../pic32c/lib/thumb/v6-m/nofp\libc-musl.a(gmtime.o)
 .debug_aranges
                0x0000000000000a40       0x20 c:/program files/microchip/xc32/v4.60/bin/bin/../../lib/gcc/pic32c/8.3.1/../../../../pic32c/lib/thumb/v6-m/nofp\libc-musl.a(gmtime_r.o)
 .debug_aranges
                0x0000000000000a60       0x20 c:/program files/microchip/xc32/v4.60/bin/bin/../../lib/gcc/pic32c/8.3.1/../../../../pic32c/lib/thumb/v6-m/nofp\libc-musl.a(mktime.o)
 .debug_aranges
                0x0000000000000a80       0x18 c:/program files/microchip/xc32/v4.60/bin/bin/../../lib/gcc/pic32c/8.3.1/../../../../pic32c/lib/thumb/v6-m/nofp\libc-musl.a(__environ.o)
 .debug_aranges
                0x0000000000000a98       0x28 c:/program files/microchip/xc32/v4.60/bin/bin/../../lib/gcc/pic32c/8.3.1/../../../../pic32c/lib/thumb/v6-m/nofp\libc-musl.a(vfprintf.o)
 .debug_aranges
                0x0000000000000ac0       0x20 c:/program files/microchip/xc32/v4.60/bin/bin/../../lib/gcc/pic32c/8.3.1/../../../../pic32c/lib/thumb/v6-m/nofp\libc-musl.a(__tm_to_secs.o)
 .debug_aranges
                0x0000000000000ae0       0x20 c:/program files/microchip/xc32/v4.60/bin/bin/../../lib/gcc/pic32c/8.3.1/../../../../pic32c/lib/thumb/v6-m/nofp\libc-musl.a(__year_to_secs.o)
 .debug_aranges
                0x0000000000000b00       0x20 c:/program files/microchip/xc32/v4.60/bin/bin/../../lib/gcc/pic32c/8.3.1/../../../../pic32c/lib/thumb/v6-m/nofp\libc-musl.a(__secs_to_tm.o)
 .debug_aranges
                0x0000000000000b20       0x20 c:/program files/microchip/xc32/v4.60/bin/bin/../../lib/gcc/pic32c/8.3.1/../../../../pic32c/lib/thumb/v6-m/nofp\libc-musl.a(__io_fmt_needed.o)
 .debug_aranges
                0x0000000000000b40       0x20 c:/program files/microchip/xc32/v4.60/bin/bin/../../lib/gcc/pic32c/8.3.1/../../../../pic32c/lib/thumb/v6-m/nofp\libc-musl.a(__pop_float.o)
 .debug_aranges
                0x0000000000000b60       0x20 c:/program files/microchip/xc32/v4.60/bin/bin/../../lib/gcc/pic32c/8.3.1/../../../../pic32c/lib/thumb/v6-m/nofp\libc-musl.a(__pop_int.o)
 .debug_aranges
                0x0000000000000b80       0x20 c:/program files/microchip/xc32/v4.60/bin/bin/../../lib/gcc/pic32c/8.3.1/../../../../pic32c/lib/thumb/v6-m/nofp\libc-musl.a(__pop_ptr.o)
 .debug_aranges
                0x0000000000000ba0       0x50 c:/program files/microchip/xc32/v4.60/bin/bin/../../lib/gcc/pic32c/8.3.1/../../../../pic32c/lib/thumb/v6-m/nofp\libc-musl.a(__printf_core.o)
 .debug_aranges
                0x0000000000000bf0       0x20 c:/program files/microchip/xc32/v4.60/bin/bin/../../lib/gcc/pic32c/8.3.1/../../../../pic32c/lib/thumb/v6-m/nofp\libc-musl.a(atoi.o)
 .debug_aranges
                0x0000000000000c10       0x20 c:/program files/microchip/xc32/v4.60/bin/bin/../../lib/gcc/pic32c/8.3.1/../../../../pic32c/lib/thumb/v6-m/nofp\libc-musl.a(__month_to_secs.o)
 .debug_aranges
                0x0000000000000c30       0x28 c:/program files/microchip/xc32/v4.60/bin/bin/../../lib/gcc/pic32c/8.3.1/../../../../pic32c/lib/thumb/v6-m/nofp\libc-musl.a(tolower.o)
 .debug_aranges
                0x0000000000000c58       0x20 c:/program files/microchip/xc32/v4.60/bin/bin/../../lib/gcc/pic32c/8.3.1/../../../../pic32c/lib/thumb/v6-m/nofp\libc-musl.a(__fmt_a.o)
 .debug_aranges
                0x0000000000000c78       0x20 c:/program files/microchip/xc32/v4.60/bin/bin/../../lib/gcc/pic32c/8.3.1/../../../../pic32c/lib/thumb/v6-m/nofp\libc-musl.a(__fmt_d.o)
 .debug_aranges
                0x0000000000000c98       0x20 c:/program files/microchip/xc32/v4.60/bin/bin/../../lib/gcc/pic32c/8.3.1/../../../../pic32c/lib/thumb/v6-m/nofp\libc-musl.a(__fmt_fp.o)
 .debug_aranges
                0x0000000000000cb8       0x20 c:/program files/microchip/xc32/v4.60/bin/bin/../../lib/gcc/pic32c/8.3.1/../../../../pic32c/lib/thumb/v6-m/nofp\libc-musl.a(__fmt_o.o)
 .debug_aranges
                0x0000000000000cd8       0x20 c:/program files/microchip/xc32/v4.60/bin/bin/../../lib/gcc/pic32c/8.3.1/../../../../pic32c/lib/thumb/v6-m/nofp\libc-musl.a(__fmt_s.o)
 .debug_aranges
                0x0000000000000cf8       0x20 c:/program files/microchip/xc32/v4.60/bin/bin/../../lib/gcc/pic32c/8.3.1/../../../../pic32c/lib/thumb/v6-m/nofp\libc-musl.a(__fmt_u.o)
 .debug_aranges
                0x0000000000000d18       0x20 c:/program files/microchip/xc32/v4.60/bin/bin/../../lib/gcc/pic32c/8.3.1/../../../../pic32c/lib/thumb/v6-m/nofp\libc-musl.a(__fmt_x.o)
 .debug_aranges
                0x0000000000000d38       0x28 c:/program files/microchip/xc32/v4.60/bin/bin/../../lib/gcc/pic32c/8.3.1/../../../../pic32c/lib/thumb/v6-m/nofp\libc-musl.a(toupper.o)
 .debug_aranges
                0x0000000000000d60       0x20 c:/program files/microchip/xc32/v4.60/bin/bin/../../lib/gcc/pic32c/8.3.1/../../../../pic32c/lib/thumb/v6-m/nofp\libc-musl.a(__cvt_u.o)
 .debug_aranges
                0x0000000000000d80       0x20 c:/program files/microchip/xc32/v4.60/bin/bin/../../lib/gcc/pic32c/8.3.1/thumb/v6-m/nofp\libgcc.a(_udivsi3.o)
 .debug_aranges
                0x0000000000000da0       0x20 c:/program files/microchip/xc32/v4.60/bin/bin/../../lib/gcc/pic32c/8.3.1/thumb/v6-m/nofp\libgcc.a(_divsi3.o)
 .debug_aranges
                0x0000000000000dc0       0x20 c:/program files/microchip/xc32/v4.60/bin/bin/../../lib/gcc/pic32c/8.3.1/thumb/v6-m/nofp\libgcc.a(_dvmd_tls.o)
 .debug_aranges
                0x0000000000000de0       0x20 c:/program files/microchip/xc32/v4.60/bin/bin/../../lib/gcc/pic32c/8.3.1/thumb/v6-m/nofp\libgcc.a(_aeabi_ldivmod.o)
 .debug_aranges
                0x0000000000000e00       0x20 c:/program files/microchip/xc32/v4.60/bin/bin/../../lib/gcc/pic32c/8.3.1/thumb/v6-m/nofp\libgcc.a(_aeabi_uldivmod.o)
 .debug_aranges
                0x0000000000000e20       0x20 c:/program files/microchip/xc32/v4.60/bin/bin/../../lib/gcc/pic32c/8.3.1/thumb/v6-m/nofp\libgcc.a(_muldi3.o)
 .debug_aranges
                0x0000000000000e40       0x20 c:/program files/microchip/xc32/v4.60/bin/bin/../../lib/gcc/pic32c/8.3.1/thumb/v6-m/nofp\libgcc.a(_udivmoddi4.o)
 .debug_aranges
                0x0000000000000e60       0x20 c:/program files/microchip/xc32/v4.60/bin/bin/../../lib/gcc/pic32c/8.3.1/thumb/v6-m/nofp\libgcc.a(bpabi.o)
 .debug_aranges
                0x0000000000000e80       0x20 c:/program files/microchip/xc32/v4.60/bin/bin/../../lib/gcc/pic32c/8.3.1/thumb/v6-m/nofp\libgcc.a(_lshrdi3.o)
 .debug_aranges
                0x0000000000000ea0       0x20 c:/program files/microchip/xc32/v4.60/bin/bin/../../lib/gcc/pic32c/8.3.1/thumb/v6-m/nofp\libgcc.a(_ashldi3.o)
 .debug_aranges
                0x0000000000000ec0       0x20 c:/program files/microchip/xc32/v4.60/bin/bin/../../lib/gcc/pic32c/8.3.1/thumb/v6-m/nofp\libgcc.a(_clzdi2.o)
 .debug_aranges
                0x0000000000000ee0       0x20 c:/program files/microchip/xc32/v4.60/bin/bin/../../lib/gcc/pic32c/8.3.1/thumb/v6-m/nofp\libgcc.a(_divdi3.o)
 .debug_aranges
                0x0000000000000f00       0x20 c:/program files/microchip/xc32/v4.60/bin/bin/../../lib/gcc/pic32c/8.3.1/thumb/v6-m/nofp\libgcc.a(_clzsi2.o)
 .debug_aranges
                0x0000000000000f20       0x30 c:/program files/microchip/xc32/v4.60/bin/bin/../../lib/gcc/pic32c/8.3.1/../../../../pic32c/lib/thumb/v6-m/nofp\libpic32c.a(sbrk.o)
 .debug_aranges
                0x0000000000000f50       0x20 c:/program files/microchip/xc32/v4.60/bin/bin/../../lib/gcc/pic32c/8.3.1/../../../../pic32c/lib/thumb/v6-m/nofp\libc-size-musl.a(strcpy.o)
 .debug_aranges
                0x0000000000000f70       0x20 c:/program files/microchip/xc32/v4.60/bin/bin/../../lib/gcc/pic32c/8.3.1/../../../../pic32c/lib/thumb/v6-m/nofp\libc-size-musl.a(stpcpy.o)
 .debug_aranges
                0x0000000000000f90       0x20 c:/program files/microchip/xc32/v4.60/bin/bin/../../lib/gcc/pic32c/8.3.1/../../../../pic32c/lib/thumb/v6-m/nofp\libpic32c.a(pic32_data_init_clear.o)
 .debug_aranges
                0x0000000000000fb0       0x20 c:/program files/microchip/xc32/v4.60/bin/bin/../../lib/gcc/pic32c/8.3.1/../../../../pic32c/lib/thumb/v6-m/nofp\libpic32c.a(pic32_data_init_copy.o)

.debug_ranges   0x0000000000000000     0x10d8
 .debug_ranges  0x0000000000000000      0x128 build/samd21IOT_winc1500/production/_ext/287230454/drv_spi.o
 .debug_ranges  0x0000000000000128       0x30 build/samd21IOT_winc1500/production/_ext/284355797/wdrv_winc_spi.o
 .debug_ranges  0x0000000000000158      0x108 build/samd21IOT_winc1500/production/_ext/881504404/m2m_wifi.o
 .debug_ranges  0x0000000000000260       0x18 build/samd21IOT_winc1500/production/_ext/881504404/m2m_ota.o
 .debug_ranges  0x0000000000000278       0x70 build/samd21IOT_winc1500/production/_ext/881504404/m2m_hif.o
 .debug_ranges  0x00000000000002e8       0x30 build/samd21IOT_winc1500/production/_ext/881504404/nmbus.o
 .debug_ranges  0x0000000000000318       0x58 build/samd21IOT_winc1500/production/_ext/881504404/m2m_ssl.o
 .debug_ranges  0x0000000000000370      0x1f0 build/samd21IOT_winc1500/production/_ext/881504404/nmspi.o
 .debug_ranges  0x0000000000000560       0x18 build/samd21IOT_winc1500/production/_ext/881504404/nmasic.o
 .debug_ranges  0x0000000000000578      0x140 build/samd21IOT_winc1500/production/_ext/455027017/socket.o
 .debug_ranges  0x00000000000006b8       0x18 build/samd21IOT_winc1500/production/_ext/1637020121/flexible_flash.o
 .debug_ranges  0x00000000000006d0       0x30 build/samd21IOT_winc1500/production/_ext/1637020121/spi_flash.o
 .debug_ranges  0x0000000000000700       0xc0 build/samd21IOT_winc1500/production/_ext/1235514674/wdrv_winc.o
 .debug_ranges  0x00000000000007c0       0x90 build/samd21IOT_winc1500/production/_ext/1235514674/wdrv_winc_host_file.o
 .debug_ranges  0x0000000000000850       0x18 build/samd21IOT_winc1500/production/_ext/1235514674/wdrv_winc_bssctx.o
 .debug_ranges  0x0000000000000868       0x68 build/samd21IOT_winc1500/production/_ext/1235514674/wdrv_winc_authctx.o
 .debug_ranges  0x00000000000008d0       0x18 build/samd21IOT_winc1500/production/_ext/1235514674/wdrv_winc_bssfind.o
 .debug_ranges  0x00000000000008e8       0x48 build/samd21IOT_winc1500/production/_ext/1235514674/wdrv_winc_sta.o
 .debug_ranges  0x0000000000000930       0x18 build/samd21IOT_winc1500/production/_ext/435457175/plib_clock.o
 .debug_ranges  0x0000000000000948       0x18 build/samd21IOT_winc1500/production/_ext/1953739970/plib_dmac.o
 .debug_ranges  0x0000000000000960       0x18 build/samd21IOT_winc1500/production/_ext/1954046777/plib_nvic.o
 .debug_ranges  0x0000000000000978       0x18 build/samd21IOT_winc1500/production/_ext/34491124/plib_sercom2_spi_master.o
 .debug_ranges  0x0000000000000990      0x110 build/samd21IOT_winc1500/production/_ext/1207737362/plib_sercom5_usart.o
 .debug_ranges  0x0000000000000aa0       0x18 build/samd21IOT_winc1500/production/_ext/106321624/sys_console.o
 .debug_ranges  0x0000000000000ab8      0x150 build/samd21IOT_winc1500/production/_ext/106321624/sys_console_uart.o
 .debug_ranges  0x0000000000000c08       0x18 build/samd21IOT_winc1500/production/_ext/55136832/sys_int.o
 .debug_ranges  0x0000000000000c20       0x88 build/samd21IOT_winc1500/production/_ext/13306586/sys_time.o
 .debug_ranges  0x0000000000000ca8       0x18 build/samd21IOT_winc1500/production/_ext/2058341299/startup_xc32.o
 .debug_ranges  0x0000000000000cc0       0x30 build/samd21IOT_winc1500/production/_ext/1360937237/winc1500_tcp_server.o
 .debug_ranges  0x0000000000000cf0       0x20 c:/program files/microchip/xc32/v4.60/bin/bin/../../lib/gcc/pic32c/8.3.1/../../../../pic32c/lib/thumb/v6-m/nofp\libpic32c.a(data_init.o)
 .debug_ranges  0x0000000000000d10       0x10 c:/program files/microchip/xc32/v4.60/bin/bin/../../lib/gcc/pic32c/8.3.1/../../../../pic32c/lib/thumb/v6-m/nofp\libc-size-musl.a(memcpy.o)
 .debug_ranges  0x0000000000000d20       0x10 c:/program files/microchip/xc32/v4.60/bin/bin/../../lib/gcc/pic32c/8.3.1/../../../../pic32c/lib/thumb/v6-m/nofp\libc-size-musl.a(memset.o)
 .debug_ranges  0x0000000000000d30       0x10 c:/program files/microchip/xc32/v4.60/bin/bin/../../lib/gcc/pic32c/8.3.1/../../../../pic32c/lib/thumb/v6-m/nofp\libc-size-musl.a(strlen.o)
 .debug_ranges  0x0000000000000d40       0x10 c:/program files/microchip/xc32/v4.60/bin/bin/../../lib/gcc/pic32c/8.3.1/../../../../pic32c/lib/thumb/v6-m/nofp\libc-size-musl.a(strchr.o)
 .debug_ranges  0x0000000000000d50       0x10 c:/program files/microchip/xc32/v4.60/bin/bin/../../lib/gcc/pic32c/8.3.1/../../../../pic32c/lib/thumb/v6-m/nofp\libc-size-musl.a(strchrnul.o)
 .debug_ranges  0x0000000000000d60       0x10 c:/program files/microchip/xc32/v4.60/bin/bin/../../lib/gcc/pic32c/8.3.1/../../../../pic32c/lib/thumb/v6-m/nofp\libc-size-musl.a(strnlen.o)
 .debug_ranges  0x0000000000000d70       0x10 c:/program files/microchip/xc32/v4.60/bin/bin/../../lib/gcc/pic32c/8.3.1/../../../../pic32c/lib/thumb/v6-m/nofp\libc-size-musl.a(memchr.o)
 .debug_ranges  0x0000000000000d80       0x38 c:/program files/microchip/xc32/v4.60/bin/bin/../../lib/gcc/pic32c/8.3.1/../../../../pic32c/lib/thumb/v6-m/nofp\liblmalloc-musl.a(lite_free.o)
 .debug_ranges  0x0000000000000db8       0x10 c:/program files/microchip/xc32/v4.60/bin/bin/../../lib/gcc/pic32c/8.3.1/../../../../pic32c/lib/thumb/v6-m/nofp\liblmalloc-musl.a(lite_malloc.o)
 .debug_ranges  0x0000000000000dc8       0x30 c:/program files/microchip/xc32/v4.60/bin/bin/../../lib/gcc/pic32c/8.3.1/../../../../pic32c/lib/thumb/v6-m/nofp\libc-musl.a(__libc_start_main.o)
 .debug_ranges  0x0000000000000df8       0x10 c:/program files/microchip/xc32/v4.60/bin/bin/../../lib/gcc/pic32c/8.3.1/../../../../pic32c/lib/thumb/v6-m/nofp\libc-musl.a(expand_heap.o)
 .debug_ranges  0x0000000000000e08       0x10 c:/program files/microchip/xc32/v4.60/bin/bin/../../lib/gcc/pic32c/8.3.1/../../../../pic32c/lib/thumb/v6-m/nofp\libc-musl.a(vsnprintf.o)
 .debug_ranges  0x0000000000000e18       0x10 c:/program files/microchip/xc32/v4.60/bin/bin/../../lib/gcc/pic32c/8.3.1/../../../../pic32c/lib/thumb/v6-m/nofp\libc-musl.a(sprintf.o)
 .debug_ranges  0x0000000000000e28       0x10 c:/program files/microchip/xc32/v4.60/bin/bin/../../lib/gcc/pic32c/8.3.1/../../../../pic32c/lib/thumb/v6-m/nofp\libc-musl.a(vsprintf.o)
 .debug_ranges  0x0000000000000e38       0x10 c:/program files/microchip/xc32/v4.60/bin/bin/../../lib/gcc/pic32c/8.3.1/../../../../pic32c/lib/thumb/v6-m/nofp\libc-musl.a(gmtime.o)
 .debug_ranges  0x0000000000000e48       0x10 c:/program files/microchip/xc32/v4.60/bin/bin/../../lib/gcc/pic32c/8.3.1/../../../../pic32c/lib/thumb/v6-m/nofp\libc-musl.a(gmtime_r.o)
 .debug_ranges  0x0000000000000e58       0x10 c:/program files/microchip/xc32/v4.60/bin/bin/../../lib/gcc/pic32c/8.3.1/../../../../pic32c/lib/thumb/v6-m/nofp\libc-musl.a(mktime.o)
 .debug_ranges  0x0000000000000e68       0x18 c:/program files/microchip/xc32/v4.60/bin/bin/../../lib/gcc/pic32c/8.3.1/../../../../pic32c/lib/thumb/v6-m/nofp\libc-musl.a(vfprintf.o)
 .debug_ranges  0x0000000000000e80       0x10 c:/program files/microchip/xc32/v4.60/bin/bin/../../lib/gcc/pic32c/8.3.1/../../../../pic32c/lib/thumb/v6-m/nofp\libc-musl.a(__tm_to_secs.o)
 .debug_ranges  0x0000000000000e90       0x28 c:/program files/microchip/xc32/v4.60/bin/bin/../../lib/gcc/pic32c/8.3.1/../../../../pic32c/lib/thumb/v6-m/nofp\libc-musl.a(__year_to_secs.o)
 .debug_ranges  0x0000000000000eb8       0x10 c:/program files/microchip/xc32/v4.60/bin/bin/../../lib/gcc/pic32c/8.3.1/../../../../pic32c/lib/thumb/v6-m/nofp\libc-musl.a(__secs_to_tm.o)
 .debug_ranges  0x0000000000000ec8       0x10 c:/program files/microchip/xc32/v4.60/bin/bin/../../lib/gcc/pic32c/8.3.1/../../../../pic32c/lib/thumb/v6-m/nofp\libc-musl.a(__io_fmt_needed.o)
 .debug_ranges  0x0000000000000ed8       0x10 c:/program files/microchip/xc32/v4.60/bin/bin/../../lib/gcc/pic32c/8.3.1/../../../../pic32c/lib/thumb/v6-m/nofp\libc-musl.a(__pop_float.o)
 .debug_ranges  0x0000000000000ee8       0x10 c:/program files/microchip/xc32/v4.60/bin/bin/../../lib/gcc/pic32c/8.3.1/../../../../pic32c/lib/thumb/v6-m/nofp\libc-musl.a(__pop_int.o)
 .debug_ranges  0x0000000000000ef8       0x10 c:/program files/microchip/xc32/v4.60/bin/bin/../../lib/gcc/pic32c/8.3.1/../../../../pic32c/lib/thumb/v6-m/nofp\libc-musl.a(__pop_ptr.o)
 .debug_ranges  0x0000000000000f08       0x58 c:/program files/microchip/xc32/v4.60/bin/bin/../../lib/gcc/pic32c/8.3.1/../../../../pic32c/lib/thumb/v6-m/nofp\libc-musl.a(__printf_core.o)
 .debug_ranges  0x0000000000000f60       0x10 c:/program files/microchip/xc32/v4.60/bin/bin/../../lib/gcc/pic32c/8.3.1/../../../../pic32c/lib/thumb/v6-m/nofp\libc-musl.a(atoi.o)
 .debug_ranges  0x0000000000000f70       0x10 c:/program files/microchip/xc32/v4.60/bin/bin/../../lib/gcc/pic32c/8.3.1/../../../../pic32c/lib/thumb/v6-m/nofp\libc-musl.a(__month_to_secs.o)
 .debug_ranges  0x0000000000000f80       0x18 c:/program files/microchip/xc32/v4.60/bin/bin/../../lib/gcc/pic32c/8.3.1/../../../../pic32c/lib/thumb/v6-m/nofp\libc-musl.a(tolower.o)
 .debug_ranges  0x0000000000000f98       0x10 c:/program files/microchip/xc32/v4.60/bin/bin/../../lib/gcc/pic32c/8.3.1/../../../../pic32c/lib/thumb/v6-m/nofp\libc-musl.a(__fmt_a.o)
 .debug_ranges  0x0000000000000fa8       0x10 c:/program files/microchip/xc32/v4.60/bin/bin/../../lib/gcc/pic32c/8.3.1/../../../../pic32c/lib/thumb/v6-m/nofp\libc-musl.a(__fmt_d.o)
 .debug_ranges  0x0000000000000fb8       0x10 c:/program files/microchip/xc32/v4.60/bin/bin/../../lib/gcc/pic32c/8.3.1/../../../../pic32c/lib/thumb/v6-m/nofp\libc-musl.a(__fmt_fp.o)
 .debug_ranges  0x0000000000000fc8       0x10 c:/program files/microchip/xc32/v4.60/bin/bin/../../lib/gcc/pic32c/8.3.1/../../../../pic32c/lib/thumb/v6-m/nofp\libc-musl.a(__fmt_o.o)
 .debug_ranges  0x0000000000000fd8       0x10 c:/program files/microchip/xc32/v4.60/bin/bin/../../lib/gcc/pic32c/8.3.1/../../../../pic32c/lib/thumb/v6-m/nofp\libc-musl.a(__fmt_s.o)
 .debug_ranges  0x0000000000000fe8       0x10 c:/program files/microchip/xc32/v4.60/bin/bin/../../lib/gcc/pic32c/8.3.1/../../../../pic32c/lib/thumb/v6-m/nofp\libc-musl.a(__fmt_u.o)
 .debug_ranges  0x0000000000000ff8       0x10 c:/program files/microchip/xc32/v4.60/bin/bin/../../lib/gcc/pic32c/8.3.1/../../../../pic32c/lib/thumb/v6-m/nofp\libc-musl.a(__fmt_x.o)
 .debug_ranges  0x0000000000001008       0x18 c:/program files/microchip/xc32/v4.60/bin/bin/../../lib/gcc/pic32c/8.3.1/../../../../pic32c/lib/thumb/v6-m/nofp\libc-musl.a(toupper.o)
 .debug_ranges  0x0000000000001020       0x10 c:/program files/microchip/xc32/v4.60/bin/bin/../../lib/gcc/pic32c/8.3.1/../../../../pic32c/lib/thumb/v6-m/nofp\libc-musl.a(__cvt_u.o)
 .debug_ranges  0x0000000000001030       0x28 c:/program files/microchip/xc32/v4.60/bin/bin/../../lib/gcc/pic32c/8.3.1/thumb/v6-m/nofp\libgcc.a(_muldi3.o)
 .debug_ranges  0x0000000000001058       0x20 c:/program files/microchip/xc32/v4.60/bin/bin/../../lib/gcc/pic32c/8.3.1/thumb/v6-m/nofp\libgcc.a(_divdi3.o)
 .debug_ranges  0x0000000000001078       0x20 c:/program files/microchip/xc32/v4.60/bin/bin/../../lib/gcc/pic32c/8.3.1/../../../../pic32c/lib/thumb/v6-m/nofp\libpic32c.a(sbrk.o)
 .debug_ranges  0x0000000000001098       0x10 c:/program files/microchip/xc32/v4.60/bin/bin/../../lib/gcc/pic32c/8.3.1/../../../../pic32c/lib/thumb/v6-m/nofp\libc-size-musl.a(strcpy.o)
 .debug_ranges  0x00000000000010a8       0x10 c:/program files/microchip/xc32/v4.60/bin/bin/../../lib/gcc/pic32c/8.3.1/../../../../pic32c/lib/thumb/v6-m/nofp\libc-size-musl.a(stpcpy.o)
 .debug_ranges  0x00000000000010b8       0x10 c:/program files/microchip/xc32/v4.60/bin/bin/../../lib/gcc/pic32c/8.3.1/../../../../pic32c/lib/thumb/v6-m/nofp\libpic32c.a(pic32_data_init_clear.o)
 .debug_ranges  0x00000000000010c8       0x10 c:/program files/microchip/xc32/v4.60/bin/bin/../../lib/gcc/pic32c/8.3.1/../../../../pic32c/lib/thumb/v6-m/nofp\libpic32c.a(pic32_data_init_copy.o)

.debug_line     0x0000000000000000    0x1db1b
 .debug_line    0x0000000000000000     0x1579 build/samd21IOT_winc1500/production/_ext/287230454/drv_spi.o
 .debug_line    0x0000000000001579      0x119 build/samd21IOT_winc1500/production/_ext/224737734/wdrv_winc_gpio.o
 .debug_line    0x0000000000001692      0x15d build/samd21IOT_winc1500/production/_ext/224737734/wdrv_winc_eint.o
 .debug_line    0x00000000000017ef      0x6be build/samd21IOT_winc1500/production/_ext/284355797/wdrv_winc_spi.o
 .debug_line    0x0000000000001ead      0x198 build/samd21IOT_winc1500/production/_ext/912793297/nm_common.o
 .debug_line    0x0000000000002045     0x1b7f build/samd21IOT_winc1500/production/_ext/881504404/m2m_wifi.o
 .debug_line    0x0000000000003bc4      0x8ae build/samd21IOT_winc1500/production/_ext/881504404/m2m_ota.o
 .debug_line    0x0000000000004472      0xc8b build/samd21IOT_winc1500/production/_ext/881504404/m2m_hif.o
 .debug_line    0x00000000000050fd      0x20b build/samd21IOT_winc1500/production/_ext/881504404/m2m_periph.o
 .debug_line    0x0000000000005308      0x328 build/samd21IOT_winc1500/production/_ext/881504404/nmbus.o
 .debug_line    0x0000000000005630      0x73a build/samd21IOT_winc1500/production/_ext/881504404/m2m_ssl.o
 .debug_line    0x0000000000005d6a      0xef5 build/samd21IOT_winc1500/production/_ext/881504404/nmspi.o
 .debug_line    0x0000000000006c5f      0x600 build/samd21IOT_winc1500/production/_ext/881504404/nmdrv.o
 .debug_line    0x000000000000725f      0xa63 build/samd21IOT_winc1500/production/_ext/881504404/nmasic.o
 .debug_line    0x0000000000007cc2      0x1ed build/samd21IOT_winc1500/production/_ext/455027017/inet_ntop.o
 .debug_line    0x0000000000007eaf      0x21f build/samd21IOT_winc1500/production/_ext/455027017/inet_addr.o
 .debug_line    0x00000000000080ce     0x1161 build/samd21IOT_winc1500/production/_ext/455027017/socket.o
 .debug_line    0x000000000000922f      0x1c2 build/samd21IOT_winc1500/production/_ext/1637020121/flexible_flash.o
 .debug_line    0x00000000000093f1      0x84f build/samd21IOT_winc1500/production/_ext/1637020121/spi_flash.o
 .debug_line    0x0000000000009c40      0x11f build/samd21IOT_winc1500/production/_ext/469334988/wdrv_winc_osal.o
 .debug_line    0x0000000000009d5f     0x1bbf build/samd21IOT_winc1500/production/_ext/1235514674/wdrv_winc.o
 .debug_line    0x000000000000b91e      0xebf build/samd21IOT_winc1500/production/_ext/1235514674/wdrv_winc_host_file.o
 .debug_line    0x000000000000c7dd      0x28e build/samd21IOT_winc1500/production/_ext/1235514674/wdrv_winc_httpprovctx.o
 .debug_line    0x000000000000ca6b      0x2a9 build/samd21IOT_winc1500/production/_ext/1235514674/wdrv_winc_custie.o
 .debug_line    0x000000000000cd14      0x2c9 build/samd21IOT_winc1500/production/_ext/1235514674/wdrv_winc_bssctx.o
 .debug_line    0x000000000000cfdd      0x457 build/samd21IOT_winc1500/production/_ext/1235514674/wdrv_winc_powersave.o
 .debug_line    0x000000000000d434      0x5f1 build/samd21IOT_winc1500/production/_ext/1235514674/wdrv_winc_authctx.o
 .debug_line    0x000000000000da25      0x7f7 build/samd21IOT_winc1500/production/_ext/1235514674/wdrv_winc_bssfind.o
 .debug_line    0x000000000000e21c      0xa0e build/samd21IOT_winc1500/production/_ext/1235514674/wdrv_winc_socket.o
 .debug_line    0x000000000000ec2a      0x75b build/samd21IOT_winc1500/production/_ext/1235514674/wdrv_winc_nvm.o
 .debug_line    0x000000000000f385      0x875 build/samd21IOT_winc1500/production/_ext/1235514674/wdrv_winc_sta.o
 .debug_line    0x000000000000fbfa      0x68a build/samd21IOT_winc1500/production/_ext/1235514674/wdrv_winc_ssl.o
 .debug_line    0x0000000000010284      0x57b build/samd21IOT_winc1500/production/_ext/1235514674/wdrv_winc_systime.o
 .debug_line    0x00000000000107ff      0x42c build/samd21IOT_winc1500/production/_ext/1235514674/wdrv_winc_wps.o
 .debug_line    0x0000000000010c2b      0x565 build/samd21IOT_winc1500/production/_ext/1235514674/wdrv_winc_enterprise.o
 .debug_line    0x0000000000011190      0x625 build/samd21IOT_winc1500/production/_ext/1235514674/wdrv_winc_softap.o
 .debug_line    0x00000000000117b5      0x542 build/samd21IOT_winc1500/production/_ext/1235514674/wdrv_winc_assoc.o
 .debug_line    0x0000000000011cf7      0x1ef build/samd21IOT_winc1500/production/_ext/435457175/plib_clock.o
 .debug_line    0x0000000000011ee6      0x650 build/samd21IOT_winc1500/production/_ext/1953739970/plib_dmac.o
 .debug_line    0x0000000000012536      0x26d build/samd21IOT_winc1500/production/_ext/1876637944/plib_eic.o
 .debug_line    0x00000000000127a3       0x71 build/samd21IOT_winc1500/production/_ext/437606661/plib_evsys.o
 .debug_line    0x0000000000012814      0x453 build/samd21IOT_winc1500/production/_ext/1954046777/plib_nvic.o
 .debug_line    0x0000000000012c67      0x2d8 build/samd21IOT_winc1500/production/_ext/975387175/plib_nvmctrl.o
 .debug_line    0x0000000000012f3f      0x2a5 build/samd21IOT_winc1500/production/_ext/1954099928/plib_port.o
 .debug_line    0x00000000000131e4      0x728 build/samd21IOT_winc1500/production/_ext/34491124/plib_sercom2_spi_master.o
 .debug_line    0x000000000001390c      0xbac build/samd21IOT_winc1500/production/_ext/1207737362/plib_sercom5_usart.o
 .debug_line    0x00000000000144b8      0x2aa build/samd21IOT_winc1500/production/_ext/2138746234/plib_tc3.o
 .debug_line    0x0000000000014762       0xca build/samd21IOT_winc1500/production/_ext/1613073709/xc32_monitor.o
 .debug_line    0x000000000001482c      0x5e6 build/samd21IOT_winc1500/production/_ext/106321624/sys_console.o
 .debug_line    0x0000000000014e12      0x5c8 build/samd21IOT_winc1500/production/_ext/106321624/sys_console_uart.o
 .debug_line    0x00000000000153da      0x1c2 build/samd21IOT_winc1500/production/_ext/604157148/sys_debug.o
 .debug_line    0x000000000001559c      0x150 build/samd21IOT_winc1500/production/_ext/226979060/sys_dma.o
 .debug_line    0x00000000000156ec      0x2a6 build/samd21IOT_winc1500/production/_ext/55136832/sys_int.o
 .debug_line    0x0000000000015992     0x108a build/samd21IOT_winc1500/production/_ext/13306586/sys_time.o
 .debug_line    0x0000000000016a1c      0x158 build/samd21IOT_winc1500/production/_ext/2058341299/tasks.o
 .debug_line    0x0000000000016b74      0x100 build/samd21IOT_winc1500/production/_ext/2058341299/interrupts.o
 .debug_line    0x0000000000016c74      0x77b build/samd21IOT_winc1500/production/_ext/2058341299/initialization.o
 .debug_line    0x00000000000173ef      0x162 build/samd21IOT_winc1500/production/_ext/2058341299/startup_xc32.o
 .debug_line    0x0000000000017551       0x66 build/samd21IOT_winc1500/production/_ext/2058341299/libc_syscalls.o
 .debug_line    0x00000000000175b7       0x6b build/samd21IOT_winc1500/production/_ext/2058341299/exceptions.o
 .debug_line    0x0000000000017622       0x78 build/samd21IOT_winc1500/production/_ext/1360937237/main.o
 .debug_line    0x000000000001769a      0x297 build/samd21IOT_winc1500/production/_ext/1360937237/app.o
 .debug_line    0x0000000000017931      0x47e build/samd21IOT_winc1500/production/_ext/1360937237/winc1500_tcp_server.o
 .debug_line    0x0000000000017daf       0xa5 c:/program files/microchip/xc32/v4.60/bin/bin/../../lib/gcc/pic32c/8.3.1/../../../../pic32c/lib/thumb/v6-m/nofp\libpic32c.a(data_init.o)
 .debug_line    0x0000000000017e54       0xee c:/program files/microchip/xc32/v4.60/bin/bin/../../lib/gcc/pic32c/8.3.1/../../../../pic32c/lib/thumb/v6-m/nofp\libc-size-musl.a(memcpy.o)
 .debug_line    0x0000000000017f42       0xe3 c:/program files/microchip/xc32/v4.60/bin/bin/../../lib/gcc/pic32c/8.3.1/../../../../pic32c/lib/thumb/v6-m/nofp\libc-size-musl.a(memset.o)
 .debug_line    0x0000000000018025       0xee c:/program files/microchip/xc32/v4.60/bin/bin/../../lib/gcc/pic32c/8.3.1/../../../../pic32c/lib/thumb/v6-m/nofp\libc-size-musl.a(strlen.o)
 .debug_line    0x0000000000018113       0xb2 c:/program files/microchip/xc32/v4.60/bin/bin/../../lib/gcc/pic32c/8.3.1/../../../../pic32c/lib/thumb/v6-m/nofp\libc-size-musl.a(strchr.o)
 .debug_line    0x00000000000181c5      0x19c c:/program files/microchip/xc32/v4.60/bin/bin/../../lib/gcc/pic32c/8.3.1/../../../../pic32c/lib/thumb/v6-m/nofp\libc-size-musl.a(strchrnul.o)
 .debug_line    0x0000000000018361      0x14d c:/program files/microchip/xc32/v4.60/bin/bin/../../lib/gcc/pic32c/8.3.1/../../../../pic32c/lib/thumb/v6-m/nofp\libc-size-musl.a(strnlen.o)
 .debug_line    0x00000000000184ae       0xfd c:/program files/microchip/xc32/v4.60/bin/bin/../../lib/gcc/pic32c/8.3.1/../../../../pic32c/lib/thumb/v6-m/nofp\libc-size-musl.a(memchr.o)
 .debug_line    0x00000000000185ab      0x266 c:/program files/microchip/xc32/v4.60/bin/bin/../../lib/gcc/pic32c/8.3.1/../../../../pic32c/lib/thumb/v6-m/nofp\liblmalloc-musl.a(lite_free.o)
 .debug_line    0x0000000000018811      0x1d3 c:/program files/microchip/xc32/v4.60/bin/bin/../../lib/gcc/pic32c/8.3.1/../../../../pic32c/lib/thumb/v6-m/nofp\liblmalloc-musl.a(lite_malloc.o)
 .debug_line    0x00000000000189e4      0x1bc c:/program files/microchip/xc32/v4.60/bin/bin/../../lib/gcc/pic32c/8.3.1/../../../../pic32c/lib/thumb/v6-m/nofp\libc-musl.a(__libc_start_main.o)
 .debug_line    0x0000000000018ba0       0x9a c:/program files/microchip/xc32/v4.60/bin/bin/../../lib/gcc/pic32c/8.3.1/../../../../pic32c/lib/thumb/v6-m/nofp\libc-musl.a(__errno_location.o)
 .debug_line    0x0000000000018c3a       0xb5 c:/program files/microchip/xc32/v4.60/bin/bin/../../lib/gcc/pic32c/8.3.1/../../../../pic32c/lib/thumb/v6-m/nofp\libc-musl.a(libc.o)
 .debug_line    0x0000000000018cef       0xec c:/program files/microchip/xc32/v4.60/bin/bin/../../lib/gcc/pic32c/8.3.1/../../../../pic32c/lib/thumb/v6-m/nofp\libc-musl.a(expand_heap.o)
 .debug_line    0x0000000000018ddb      0x23a c:/program files/microchip/xc32/v4.60/bin/bin/../../lib/gcc/pic32c/8.3.1/../../../../pic32c/lib/thumb/v6-m/nofp\libc-musl.a(vsnprintf.o)
 .debug_line    0x0000000000019015      0x151 c:/program files/microchip/xc32/v4.60/bin/bin/../../lib/gcc/pic32c/8.3.1/../../../../pic32c/lib/thumb/v6-m/nofp\libc-musl.a(sprintf.o)
 .debug_line    0x0000000000019166      0x146 c:/program files/microchip/xc32/v4.60/bin/bin/../../lib/gcc/pic32c/8.3.1/../../../../pic32c/lib/thumb/v6-m/nofp\libc-musl.a(vsprintf.o)
 .debug_line    0x00000000000192ac      0x130 c:/program files/microchip/xc32/v4.60/bin/bin/../../lib/gcc/pic32c/8.3.1/../../../../pic32c/lib/thumb/v6-m/nofp\libc-musl.a(gmtime.o)
 .debug_line    0x00000000000193dc      0x25c c:/program files/microchip/xc32/v4.60/bin/bin/../../lib/gcc/pic32c/8.3.1/../../../../pic32c/lib/thumb/v6-m/nofp\libc-musl.a(gmtime_r.o)
 .debug_line    0x0000000000019638      0x285 c:/program files/microchip/xc32/v4.60/bin/bin/../../lib/gcc/pic32c/8.3.1/../../../../pic32c/lib/thumb/v6-m/nofp\libc-musl.a(mktime.o)
 .debug_line    0x00000000000198bd       0xfb c:/program files/microchip/xc32/v4.60/bin/bin/../../lib/gcc/pic32c/8.3.1/../../../../pic32c/lib/thumb/v6-m/nofp\libc-musl.a(__environ.o)
 .debug_line    0x00000000000199b8      0x1fa c:/program files/microchip/xc32/v4.60/bin/bin/../../lib/gcc/pic32c/8.3.1/../../../../pic32c/lib/thumb/v6-m/nofp\libc-musl.a(vfprintf.o)
 .debug_line    0x0000000000019bb2      0x1da c:/program files/microchip/xc32/v4.60/bin/bin/../../lib/gcc/pic32c/8.3.1/../../../../pic32c/lib/thumb/v6-m/nofp\libc-musl.a(__tm_to_secs.o)
 .debug_line    0x0000000000019d8c      0x20b c:/program files/microchip/xc32/v4.60/bin/bin/../../lib/gcc/pic32c/8.3.1/../../../../pic32c/lib/thumb/v6-m/nofp\libc-musl.a(__year_to_secs.o)
 .debug_line    0x0000000000019f97      0x322 c:/program files/microchip/xc32/v4.60/bin/bin/../../lib/gcc/pic32c/8.3.1/../../../../pic32c/lib/thumb/v6-m/nofp\libc-musl.a(__secs_to_tm.o)
 .debug_line    0x000000000001a2b9       0xc2 c:/program files/microchip/xc32/v4.60/bin/bin/../../lib/gcc/pic32c/8.3.1/../../../../pic32c/lib/thumb/v6-m/nofp\libc-musl.a(__io_fmt_needed.o)
 .debug_line    0x000000000001a37b      0x166 c:/program files/microchip/xc32/v4.60/bin/bin/../../lib/gcc/pic32c/8.3.1/../../../../pic32c/lib/thumb/v6-m/nofp\libc-musl.a(__pop_float.o)
 .debug_line    0x000000000001a4e1      0x211 c:/program files/microchip/xc32/v4.60/bin/bin/../../lib/gcc/pic32c/8.3.1/../../../../pic32c/lib/thumb/v6-m/nofp\libc-musl.a(__pop_int.o)
 .debug_line    0x000000000001a6f2      0x1c8 c:/program files/microchip/xc32/v4.60/bin/bin/../../lib/gcc/pic32c/8.3.1/../../../../pic32c/lib/thumb/v6-m/nofp\libc-musl.a(__pop_ptr.o)
 .debug_line    0x000000000001a8ba      0x6c7 c:/program files/microchip/xc32/v4.60/bin/bin/../../lib/gcc/pic32c/8.3.1/../../../../pic32c/lib/thumb/v6-m/nofp\libc-musl.a(__printf_core.o)
 .debug_line    0x000000000001af81      0x173 c:/program files/microchip/xc32/v4.60/bin/bin/../../lib/gcc/pic32c/8.3.1/../../../../pic32c/lib/thumb/v6-m/nofp\libc-musl.a(atoi.o)
 .debug_line    0x000000000001b0f4       0xc6 c:/program files/microchip/xc32/v4.60/bin/bin/../../lib/gcc/pic32c/8.3.1/../../../../pic32c/lib/thumb/v6-m/nofp\libc-musl.a(__month_to_secs.o)
 .debug_line    0x000000000001b1ba      0x15c c:/program files/microchip/xc32/v4.60/bin/bin/../../lib/gcc/pic32c/8.3.1/../../../../pic32c/lib/thumb/v6-m/nofp\libc-musl.a(tolower.o)
 .debug_line    0x000000000001b316      0x646 c:/program files/microchip/xc32/v4.60/bin/bin/../../lib/gcc/pic32c/8.3.1/../../../../pic32c/lib/thumb/v6-m/nofp\libc-musl.a(__fmt_a.o)
 .debug_line    0x000000000001b95c      0x20b c:/program files/microchip/xc32/v4.60/bin/bin/../../lib/gcc/pic32c/8.3.1/../../../../pic32c/lib/thumb/v6-m/nofp\libc-musl.a(__fmt_d.o)
 .debug_line    0x000000000001bb67      0x66d c:/program files/microchip/xc32/v4.60/bin/bin/../../lib/gcc/pic32c/8.3.1/../../../../pic32c/lib/thumb/v6-m/nofp\libc-musl.a(__fmt_fp.o)
 .debug_line    0x000000000001c1d4      0x1b6 c:/program files/microchip/xc32/v4.60/bin/bin/../../lib/gcc/pic32c/8.3.1/../../../../pic32c/lib/thumb/v6-m/nofp\libc-musl.a(__fmt_o.o)
 .debug_line    0x000000000001c38a      0x204 c:/program files/microchip/xc32/v4.60/bin/bin/../../lib/gcc/pic32c/8.3.1/../../../../pic32c/lib/thumb/v6-m/nofp\libc-musl.a(__fmt_s.o)
 .debug_line    0x000000000001c58e      0x187 c:/program files/microchip/xc32/v4.60/bin/bin/../../lib/gcc/pic32c/8.3.1/../../../../pic32c/lib/thumb/v6-m/nofp\libc-musl.a(__fmt_u.o)
 .debug_line    0x000000000001c715      0x2ec c:/program files/microchip/xc32/v4.60/bin/bin/../../lib/gcc/pic32c/8.3.1/../../../../pic32c/lib/thumb/v6-m/nofp\libc-musl.a(__fmt_x.o)
 .debug_line    0x000000000001ca01      0x15c c:/program files/microchip/xc32/v4.60/bin/bin/../../lib/gcc/pic32c/8.3.1/../../../../pic32c/lib/thumb/v6-m/nofp\libc-musl.a(toupper.o)
 .debug_line    0x000000000001cb5d      0x1d7 c:/program files/microchip/xc32/v4.60/bin/bin/../../lib/gcc/pic32c/8.3.1/../../../../pic32c/lib/thumb/v6-m/nofp\libc-musl.a(__cvt_u.o)
 .debug_line    0x000000000001cd34       0xa8 c:/program files/microchip/xc32/v4.60/bin/bin/../../lib/gcc/pic32c/8.3.1/thumb/v6-m/nofp\libgcc.a(_udivsi3.o)
 .debug_line    0x000000000001cddc       0xb6 c:/program files/microchip/xc32/v4.60/bin/bin/../../lib/gcc/pic32c/8.3.1/thumb/v6-m/nofp\libgcc.a(_divsi3.o)
 .debug_line    0x000000000001ce92       0x91 c:/program files/microchip/xc32/v4.60/bin/bin/../../lib/gcc/pic32c/8.3.1/thumb/v6-m/nofp\libgcc.a(_dvmd_tls.o)
 .debug_line    0x000000000001cf23       0x9c c:/program files/microchip/xc32/v4.60/bin/bin/../../lib/gcc/pic32c/8.3.1/thumb/v6-m/nofp\libgcc.a(_aeabi_ldivmod.o)
 .debug_line    0x000000000001cfbf       0x9c c:/program files/microchip/xc32/v4.60/bin/bin/../../lib/gcc/pic32c/8.3.1/thumb/v6-m/nofp\libgcc.a(_aeabi_uldivmod.o)
 .debug_line    0x000000000001d05b       0xe7 c:/program files/microchip/xc32/v4.60/bin/bin/../../lib/gcc/pic32c/8.3.1/thumb/v6-m/nofp\libgcc.a(_muldi3.o)
 .debug_line    0x000000000001d142      0x188 c:/program files/microchip/xc32/v4.60/bin/bin/../../lib/gcc/pic32c/8.3.1/thumb/v6-m/nofp\libgcc.a(_udivmoddi4.o)
 .debug_line    0x000000000001d2ca       0xb9 c:/program files/microchip/xc32/v4.60/bin/bin/../../lib/gcc/pic32c/8.3.1/thumb/v6-m/nofp\libgcc.a(bpabi.o)
 .debug_line    0x000000000001d383       0x9c c:/program files/microchip/xc32/v4.60/bin/bin/../../lib/gcc/pic32c/8.3.1/thumb/v6-m/nofp\libgcc.a(_lshrdi3.o)
 .debug_line    0x000000000001d41f       0x9c c:/program files/microchip/xc32/v4.60/bin/bin/../../lib/gcc/pic32c/8.3.1/thumb/v6-m/nofp\libgcc.a(_ashldi3.o)
 .debug_line    0x000000000001d4bb       0x9b c:/program files/microchip/xc32/v4.60/bin/bin/../../lib/gcc/pic32c/8.3.1/thumb/v6-m/nofp\libgcc.a(_clzdi2.o)
 .debug_line    0x000000000001d556      0x1d9 c:/program files/microchip/xc32/v4.60/bin/bin/../../lib/gcc/pic32c/8.3.1/thumb/v6-m/nofp\libgcc.a(_divdi3.o)
 .debug_line    0x000000000001d72f       0xa5 c:/program files/microchip/xc32/v4.60/bin/bin/../../lib/gcc/pic32c/8.3.1/thumb/v6-m/nofp\libgcc.a(_clzsi2.o)
 .debug_line    0x000000000001d7d4       0xdd c:/program files/microchip/xc32/v4.60/bin/bin/../../lib/gcc/pic32c/8.3.1/../../../../pic32c/lib/thumb/v6-m/nofp\libpic32c.a(sbrk.o)
 .debug_line    0x000000000001d8b1       0xb2 c:/program files/microchip/xc32/v4.60/bin/bin/../../lib/gcc/pic32c/8.3.1/../../../../pic32c/lib/thumb/v6-m/nofp\libc-size-musl.a(strcpy.o)
 .debug_line    0x000000000001d963       0xc1 c:/program files/microchip/xc32/v4.60/bin/bin/../../lib/gcc/pic32c/8.3.1/../../../../pic32c/lib/thumb/v6-m/nofp\libc-size-musl.a(stpcpy.o)
 .debug_line    0x000000000001da24       0x6f c:/program files/microchip/xc32/v4.60/bin/bin/../../lib/gcc/pic32c/8.3.1/../../../../pic32c/lib/thumb/v6-m/nofp\libpic32c.a(pic32_data_init_clear.o)
 .debug_line    0x000000000001da93       0x88 c:/program files/microchip/xc32/v4.60/bin/bin/../../lib/gcc/pic32c/8.3.1/../../../../pic32c/lib/thumb/v6-m/nofp\libpic32c.a(pic32_data_init_copy.o)

.debug_str      0x0000000000000000    0x3b018
 .debug_str     0x0000000000000000     0x1e47 build/samd21IOT_winc1500/production/_ext/287230454/drv_spi.o
 .debug_str     0x0000000000001e47      0x3fd build/samd21IOT_winc1500/production/_ext/224737734/wdrv_winc_gpio.o
 .debug_str     0x0000000000002244      0x33b build/samd21IOT_winc1500/production/_ext/224737734/wdrv_winc_eint.o
 .debug_str     0x000000000000257f      0xfc2 build/samd21IOT_winc1500/production/_ext/284355797/wdrv_winc_spi.o
 .debug_str     0x0000000000003541      0x34b build/samd21IOT_winc1500/production/_ext/912793297/nm_common.o
 .debug_str     0x000000000000388c     0x302f build/samd21IOT_winc1500/production/_ext/881504404/m2m_wifi.o
 .debug_str     0x00000000000068bb     0x10ad build/samd21IOT_winc1500/production/_ext/881504404/m2m_ota.o
 .debug_str     0x0000000000007968      0x920 build/samd21IOT_winc1500/production/_ext/881504404/m2m_hif.o
 .debug_str     0x0000000000008288      0x45c build/samd21IOT_winc1500/production/_ext/881504404/m2m_periph.o
 .debug_str     0x00000000000086e4      0x52c build/samd21IOT_winc1500/production/_ext/881504404/nmbus.o
 .debug_str     0x0000000000008c10      0xa13 build/samd21IOT_winc1500/production/_ext/881504404/m2m_ssl.o
 .debug_str     0x0000000000009623      0x7d0 build/samd21IOT_winc1500/production/_ext/881504404/nmspi.o
 .debug_str     0x0000000000009df3      0x64f build/samd21IOT_winc1500/production/_ext/881504404/nmdrv.o
 .debug_str     0x000000000000a442      0x644 build/samd21IOT_winc1500/production/_ext/881504404/nmasic.o
 .debug_str     0x000000000000aa86      0x2e1 build/samd21IOT_winc1500/production/_ext/455027017/inet_ntop.o
 .debug_str     0x000000000000ad67      0x2cf build/samd21IOT_winc1500/production/_ext/455027017/inet_addr.o
 .debug_str     0x000000000000b036     0x109a build/samd21IOT_winc1500/production/_ext/455027017/socket.o
 .debug_str     0x000000000000c0d0      0x35b build/samd21IOT_winc1500/production/_ext/1637020121/flexible_flash.o
 .debug_str     0x000000000000c42b      0x566 build/samd21IOT_winc1500/production/_ext/1637020121/spi_flash.o
 .debug_str     0x000000000000c991      0x324 build/samd21IOT_winc1500/production/_ext/469334988/wdrv_winc_osal.o
 .debug_str     0x000000000000ccb5     0x38f6 build/samd21IOT_winc1500/production/_ext/1235514674/wdrv_winc.o
 .debug_str     0x00000000000105ab     0x1a2e build/samd21IOT_winc1500/production/_ext/1235514674/wdrv_winc_host_file.o
 .debug_str     0x0000000000011fd9      0x830 build/samd21IOT_winc1500/production/_ext/1235514674/wdrv_winc_httpprovctx.o
 .debug_str     0x0000000000012809      0x5e3 build/samd21IOT_winc1500/production/_ext/1235514674/wdrv_winc_custie.o
 .debug_str     0x0000000000012dec      0x7d4 build/samd21IOT_winc1500/production/_ext/1235514674/wdrv_winc_bssctx.o
 .debug_str     0x00000000000135c0     0x1832 build/samd21IOT_winc1500/production/_ext/1235514674/wdrv_winc_powersave.o
 .debug_str     0x0000000000014df2      0xba3 build/samd21IOT_winc1500/production/_ext/1235514674/wdrv_winc_authctx.o
 .debug_str     0x0000000000015995     0x1c8f build/samd21IOT_winc1500/production/_ext/1235514674/wdrv_winc_bssfind.o
 .debug_str     0x0000000000017624     0x1b1f build/samd21IOT_winc1500/production/_ext/1235514674/wdrv_winc_socket.o
 .debug_str     0x0000000000019143     0x1eb3 build/samd21IOT_winc1500/production/_ext/1235514674/wdrv_winc_nvm.o
 .debug_str     0x000000000001aff6     0x1ba9 build/samd21IOT_winc1500/production/_ext/1235514674/wdrv_winc_sta.o
 .debug_str     0x000000000001cb9f     0x1dbe build/samd21IOT_winc1500/production/_ext/1235514674/wdrv_winc_ssl.o
 .debug_str     0x000000000001e95d     0x18a4 build/samd21IOT_winc1500/production/_ext/1235514674/wdrv_winc_systime.o
 .debug_str     0x0000000000020201     0x1737 build/samd21IOT_winc1500/production/_ext/1235514674/wdrv_winc_wps.o
 .debug_str     0x0000000000021938     0x1986 build/samd21IOT_winc1500/production/_ext/1235514674/wdrv_winc_enterprise.o
 .debug_str     0x00000000000232be     0x194b build/samd21IOT_winc1500/production/_ext/1235514674/wdrv_winc_softap.o
 .debug_str     0x0000000000024c09     0x1757 build/samd21IOT_winc1500/production/_ext/1235514674/wdrv_winc_assoc.o
 .debug_str     0x0000000000026360      0x599 build/samd21IOT_winc1500/production/_ext/435457175/plib_clock.o
 .debug_str     0x00000000000268f9      0x8d4 build/samd21IOT_winc1500/production/_ext/1953739970/plib_dmac.o
 .debug_str     0x00000000000271cd      0x41a build/samd21IOT_winc1500/production/_ext/1876637944/plib_eic.o
 .debug_str     0x00000000000275e7      0x2a7 build/samd21IOT_winc1500/production/_ext/437606661/plib_evsys.o
 .debug_str     0x000000000002788e      0x5d6 build/samd21IOT_winc1500/production/_ext/1954046777/plib_nvic.o
 .debug_str     0x0000000000027e64      0x511 build/samd21IOT_winc1500/production/_ext/975387175/plib_nvmctrl.o
 .debug_str     0x0000000000028375      0x77d build/samd21IOT_winc1500/production/_ext/1954099928/plib_port.o
 .debug_str     0x0000000000028af2      0x7f7 build/samd21IOT_winc1500/production/_ext/34491124/plib_sercom2_spi_master.o
 .debug_str     0x00000000000292e9      0xd78 build/samd21IOT_winc1500/production/_ext/1207737362/plib_sercom5_usart.o
 .debug_str     0x000000000002a061      0x5a4 build/samd21IOT_winc1500/production/_ext/2138746234/plib_tc3.o
 .debug_str     0x000000000002a605      0x245 build/samd21IOT_winc1500/production/_ext/1613073709/xc32_monitor.o
 .debug_str     0x000000000002a84a      0xa2f build/samd21IOT_winc1500/production/_ext/106321624/sys_console.o
 .debug_str     0x000000000002b279      0xadb build/samd21IOT_winc1500/production/_ext/106321624/sys_console_uart.o
 .debug_str     0x000000000002bd54      0x4b6 build/samd21IOT_winc1500/production/_ext/604157148/sys_debug.o
 .debug_str     0x000000000002c20a      0x605 build/samd21IOT_winc1500/production/_ext/226979060/sys_dma.o
 .debug_str     0x000000000002c80f      0x584 build/samd21IOT_winc1500/production/_ext/55136832/sys_int.o
 .debug_str     0x000000000002cd93      0xe93 build/samd21IOT_winc1500/production/_ext/13306586/sys_time.o
 .debug_str     0x000000000002dc26      0x30a build/samd21IOT_winc1500/production/_ext/2058341299/tasks.o
 .debug_str     0x000000000002df30      0x652 build/samd21IOT_winc1500/production/_ext/2058341299/interrupts.o
 .debug_str     0x000000000002e582     0x1c37 build/samd21IOT_winc1500/production/_ext/2058341299/initialization.o
 .debug_str     0x00000000000301b9      0x320 build/samd21IOT_winc1500/production/_ext/2058341299/startup_xc32.o
 .debug_str     0x00000000000304d9      0x289 build/samd21IOT_winc1500/production/_ext/2058341299/libc_syscalls.o
 .debug_str     0x0000000000030762      0x2b4 build/samd21IOT_winc1500/production/_ext/2058341299/exceptions.o
 .debug_str     0x0000000000030a16      0x289 build/samd21IOT_winc1500/production/_ext/1360937237/main.o
 .debug_str     0x0000000000030c9f      0x807 build/samd21IOT_winc1500/production/_ext/1360937237/app.o
 .debug_str     0x00000000000314a6      0xf90 build/samd21IOT_winc1500/production/_ext/1360937237/winc1500_tcp_server.o
 .debug_str     0x0000000000032436      0x1fc c:/program files/microchip/xc32/v4.60/bin/bin/../../lib/gcc/pic32c/8.3.1/../../../../pic32c/lib/thumb/v6-m/nofp\libpic32c.a(data_init.o)
 .debug_str     0x0000000000032632      0x225 c:/program files/microchip/xc32/v4.60/bin/bin/../../lib/gcc/pic32c/8.3.1/../../../../pic32c/lib/thumb/v6-m/nofp\libc-size-musl.a(memcpy.o)
 .debug_str     0x0000000000032857      0x211 c:/program files/microchip/xc32/v4.60/bin/bin/../../lib/gcc/pic32c/8.3.1/../../../../pic32c/lib/thumb/v6-m/nofp\libc-size-musl.a(memset.o)
 .debug_str     0x0000000000032a68      0x217 c:/program files/microchip/xc32/v4.60/bin/bin/../../lib/gcc/pic32c/8.3.1/../../../../pic32c/lib/thumb/v6-m/nofp\libc-size-musl.a(strlen.o)
 .debug_str     0x0000000000032c7f      0x20b c:/program files/microchip/xc32/v4.60/bin/bin/../../lib/gcc/pic32c/8.3.1/../../../../pic32c/lib/thumb/v6-m/nofp\libc-size-musl.a(strchr.o)
 .debug_str     0x0000000000032e8a      0x296 c:/program files/microchip/xc32/v4.60/bin/bin/../../lib/gcc/pic32c/8.3.1/../../../../pic32c/lib/thumb/v6-m/nofp\libc-size-musl.a(strchrnul.o)
 .debug_str     0x0000000000033120      0x20f c:/program files/microchip/xc32/v4.60/bin/bin/../../lib/gcc/pic32c/8.3.1/../../../../pic32c/lib/thumb/v6-m/nofp\libc-size-musl.a(strnlen.o)
 .debug_str     0x000000000003332f      0x22a c:/program files/microchip/xc32/v4.60/bin/bin/../../lib/gcc/pic32c/8.3.1/../../../../pic32c/lib/thumb/v6-m/nofp\libc-size-musl.a(memchr.o)
 .debug_str     0x0000000000033559      0x301 c:/program files/microchip/xc32/v4.60/bin/bin/../../lib/gcc/pic32c/8.3.1/../../../../pic32c/lib/thumb/v6-m/nofp\liblmalloc-musl.a(lite_free.o)
 .debug_str     0x000000000003385a      0x2ff c:/program files/microchip/xc32/v4.60/bin/bin/../../lib/gcc/pic32c/8.3.1/../../../../pic32c/lib/thumb/v6-m/nofp\liblmalloc-musl.a(lite_malloc.o)
 .debug_str     0x0000000000033b59      0x3ca c:/program files/microchip/xc32/v4.60/bin/bin/../../lib/gcc/pic32c/8.3.1/../../../../pic32c/lib/thumb/v6-m/nofp\libc-musl.a(__libc_start_main.o)
 .debug_str     0x0000000000033f23      0x229 c:/program files/microchip/xc32/v4.60/bin/bin/../../lib/gcc/pic32c/8.3.1/../../../../pic32c/lib/thumb/v6-m/nofp\libc-musl.a(__errno_location.o)
 .debug_str     0x000000000003414c      0x335 c:/program files/microchip/xc32/v4.60/bin/bin/../../lib/gcc/pic32c/8.3.1/../../../../pic32c/lib/thumb/v6-m/nofp\libc-musl.a(libc.o)
 .debug_str     0x0000000000034481      0x2a5 c:/program files/microchip/xc32/v4.60/bin/bin/../../lib/gcc/pic32c/8.3.1/../../../../pic32c/lib/thumb/v6-m/nofp\libc-musl.a(expand_heap.o)
 .debug_str     0x0000000000034726      0x381 c:/program files/microchip/xc32/v4.60/bin/bin/../../lib/gcc/pic32c/8.3.1/../../../../pic32c/lib/thumb/v6-m/nofp\libc-musl.a(vsnprintf.o)
 .debug_str     0x0000000000034aa7      0x229 c:/program files/microchip/xc32/v4.60/bin/bin/../../lib/gcc/pic32c/8.3.1/../../../../pic32c/lib/thumb/v6-m/nofp\libc-musl.a(sprintf.o)
 .debug_str     0x0000000000034cd0      0x22c c:/program files/microchip/xc32/v4.60/bin/bin/../../lib/gcc/pic32c/8.3.1/../../../../pic32c/lib/thumb/v6-m/nofp\libc-musl.a(vsprintf.o)
 .debug_str     0x0000000000034efc      0x286 c:/program files/microchip/xc32/v4.60/bin/bin/../../lib/gcc/pic32c/8.3.1/../../../../pic32c/lib/thumb/v6-m/nofp\libc-musl.a(gmtime.o)
 .debug_str     0x0000000000035182      0x2ad c:/program files/microchip/xc32/v4.60/bin/bin/../../lib/gcc/pic32c/8.3.1/../../../../pic32c/lib/thumb/v6-m/nofp\libc-musl.a(gmtime_r.o)
 .debug_str     0x000000000003542f      0x2d2 c:/program files/microchip/xc32/v4.60/bin/bin/../../lib/gcc/pic32c/8.3.1/../../../../pic32c/lib/thumb/v6-m/nofp\libc-musl.a(mktime.o)
 .debug_str     0x0000000000035701      0x235 c:/program files/microchip/xc32/v4.60/bin/bin/../../lib/gcc/pic32c/8.3.1/../../../../pic32c/lib/thumb/v6-m/nofp\libc-musl.a(__environ.o)
 .debug_str     0x0000000000035936      0x37f c:/program files/microchip/xc32/v4.60/bin/bin/../../lib/gcc/pic32c/8.3.1/../../../../pic32c/lib/thumb/v6-m/nofp\libc-musl.a(vfprintf.o)
 .debug_str     0x0000000000035cb5      0x2c0 c:/program files/microchip/xc32/v4.60/bin/bin/../../lib/gcc/pic32c/8.3.1/../../../../pic32c/lib/thumb/v6-m/nofp\libc-musl.a(__tm_to_secs.o)
 .debug_str     0x0000000000035f75      0x23d c:/program files/microchip/xc32/v4.60/bin/bin/../../lib/gcc/pic32c/8.3.1/../../../../pic32c/lib/thumb/v6-m/nofp\libc-musl.a(__year_to_secs.o)
 .debug_str     0x00000000000361b2      0x313 c:/program files/microchip/xc32/v4.60/bin/bin/../../lib/gcc/pic32c/8.3.1/../../../../pic32c/lib/thumb/v6-m/nofp\libc-musl.a(__secs_to_tm.o)
 .debug_str     0x00000000000364c5      0x336 c:/program files/microchip/xc32/v4.60/bin/bin/../../lib/gcc/pic32c/8.3.1/../../../../pic32c/lib/thumb/v6-m/nofp\libc-musl.a(__io_fmt_needed.o)
 .debug_str     0x00000000000367fb      0x2c0 c:/program files/microchip/xc32/v4.60/bin/bin/../../lib/gcc/pic32c/8.3.1/../../../../pic32c/lib/thumb/v6-m/nofp\libc-musl.a(__pop_float.o)
 .debug_str     0x0000000000036abb      0x2cb c:/program files/microchip/xc32/v4.60/bin/bin/../../lib/gcc/pic32c/8.3.1/../../../../pic32c/lib/thumb/v6-m/nofp\libc-musl.a(__pop_int.o)
 .debug_str     0x0000000000036d86      0x2cd c:/program files/microchip/xc32/v4.60/bin/bin/../../lib/gcc/pic32c/8.3.1/../../../../pic32c/lib/thumb/v6-m/nofp\libc-musl.a(__pop_ptr.o)
 .debug_str     0x0000000000037053      0x3e7 c:/program files/microchip/xc32/v4.60/bin/bin/../../lib/gcc/pic32c/8.3.1/../../../../pic32c/lib/thumb/v6-m/nofp\libc-musl.a(__printf_core.o)
 .debug_str     0x000000000003743a      0x21c c:/program files/microchip/xc32/v4.60/bin/bin/../../lib/gcc/pic32c/8.3.1/../../../../pic32c/lib/thumb/v6-m/nofp\libc-musl.a(atoi.o)
 .debug_str     0x0000000000037656      0x22d c:/program files/microchip/xc32/v4.60/bin/bin/../../lib/gcc/pic32c/8.3.1/../../../../pic32c/lib/thumb/v6-m/nofp\libc-musl.a(__month_to_secs.o)
 .debug_str     0x0000000000037883      0x249 c:/program files/microchip/xc32/v4.60/bin/bin/../../lib/gcc/pic32c/8.3.1/../../../../pic32c/lib/thumb/v6-m/nofp\libc-musl.a(tolower.o)
 .debug_str     0x0000000000037acc      0x333 c:/program files/microchip/xc32/v4.60/bin/bin/../../lib/gcc/pic32c/8.3.1/../../../../pic32c/lib/thumb/v6-m/nofp\libc-musl.a(__fmt_a.o)
 .debug_str     0x0000000000037dff      0x2f5 c:/program files/microchip/xc32/v4.60/bin/bin/../../lib/gcc/pic32c/8.3.1/../../../../pic32c/lib/thumb/v6-m/nofp\libc-musl.a(__fmt_d.o)
 .debug_str     0x00000000000380f4      0x354 c:/program files/microchip/xc32/v4.60/bin/bin/../../lib/gcc/pic32c/8.3.1/../../../../pic32c/lib/thumb/v6-m/nofp\libc-musl.a(__fmt_fp.o)
 .debug_str     0x0000000000038448      0x2f5 c:/program files/microchip/xc32/v4.60/bin/bin/../../lib/gcc/pic32c/8.3.1/../../../../pic32c/lib/thumb/v6-m/nofp\libc-musl.a(__fmt_o.o)
 .debug_str     0x000000000003873d      0x2f9 c:/program files/microchip/xc32/v4.60/bin/bin/../../lib/gcc/pic32c/8.3.1/../../../../pic32c/lib/thumb/v6-m/nofp\libc-musl.a(__fmt_s.o)
 .debug_str     0x0000000000038a36      0x2f5 c:/program files/microchip/xc32/v4.60/bin/bin/../../lib/gcc/pic32c/8.3.1/../../../../pic32c/lib/thumb/v6-m/nofp\libc-musl.a(__fmt_u.o)
 .debug_str     0x0000000000038d2b      0x2f5 c:/program files/microchip/xc32/v4.60/bin/bin/../../lib/gcc/pic32c/8.3.1/../../../../pic32c/lib/thumb/v6-m/nofp\libc-musl.a(__fmt_x.o)
 .debug_str     0x0000000000039020      0x249 c:/program files/microchip/xc32/v4.60/bin/bin/../../lib/gcc/pic32c/8.3.1/../../../../pic32c/lib/thumb/v6-m/nofp\libc-musl.a(toupper.o)
 .debug_str     0x0000000000039269      0x2b1 c:/program files/microchip/xc32/v4.60/bin/bin/../../lib/gcc/pic32c/8.3.1/../../../../pic32c/lib/thumb/v6-m/nofp\libc-musl.a(__cvt_u.o)
 .debug_str     0x000000000003951a       0xd6 c:/program files/microchip/xc32/v4.60/bin/bin/../../lib/gcc/pic32c/8.3.1/thumb/v6-m/nofp\libgcc.a(_udivsi3.o)
 .debug_str     0x00000000000395f0       0xd6 c:/program files/microchip/xc32/v4.60/bin/bin/../../lib/gcc/pic32c/8.3.1/thumb/v6-m/nofp\libgcc.a(_divsi3.o)
 .debug_str     0x00000000000396c6       0xd6 c:/program files/microchip/xc32/v4.60/bin/bin/../../lib/gcc/pic32c/8.3.1/thumb/v6-m/nofp\libgcc.a(_dvmd_tls.o)
 .debug_str     0x000000000003979c       0xd6 c:/program files/microchip/xc32/v4.60/bin/bin/../../lib/gcc/pic32c/8.3.1/thumb/v6-m/nofp\libgcc.a(_aeabi_ldivmod.o)
 .debug_str     0x0000000000039872       0xd6 c:/program files/microchip/xc32/v4.60/bin/bin/../../lib/gcc/pic32c/8.3.1/thumb/v6-m/nofp\libgcc.a(_aeabi_uldivmod.o)
 .debug_str     0x0000000000039948      0x2af c:/program files/microchip/xc32/v4.60/bin/bin/../../lib/gcc/pic32c/8.3.1/thumb/v6-m/nofp\libgcc.a(_muldi3.o)
 .debug_str     0x0000000000039bf7      0x27c c:/program files/microchip/xc32/v4.60/bin/bin/../../lib/gcc/pic32c/8.3.1/thumb/v6-m/nofp\libgcc.a(_udivmoddi4.o)
 .debug_str     0x0000000000039e73      0x1f2 c:/program files/microchip/xc32/v4.60/bin/bin/../../lib/gcc/pic32c/8.3.1/thumb/v6-m/nofp\libgcc.a(bpabi.o)
 .debug_str     0x000000000003a065       0xd6 c:/program files/microchip/xc32/v4.60/bin/bin/../../lib/gcc/pic32c/8.3.1/thumb/v6-m/nofp\libgcc.a(_lshrdi3.o)
 .debug_str     0x000000000003a13b       0xd6 c:/program files/microchip/xc32/v4.60/bin/bin/../../lib/gcc/pic32c/8.3.1/thumb/v6-m/nofp\libgcc.a(_ashldi3.o)
 .debug_str     0x000000000003a211       0xd6 c:/program files/microchip/xc32/v4.60/bin/bin/../../lib/gcc/pic32c/8.3.1/thumb/v6-m/nofp\libgcc.a(_clzdi2.o)
 .debug_str     0x000000000003a2e7      0x2a9 c:/program files/microchip/xc32/v4.60/bin/bin/../../lib/gcc/pic32c/8.3.1/thumb/v6-m/nofp\libgcc.a(_divdi3.o)
 .debug_str     0x000000000003a590       0xd6 c:/program files/microchip/xc32/v4.60/bin/bin/../../lib/gcc/pic32c/8.3.1/thumb/v6-m/nofp\libgcc.a(_clzsi2.o)
 .debug_str     0x000000000003a666      0x1dc c:/program files/microchip/xc32/v4.60/bin/bin/../../lib/gcc/pic32c/8.3.1/../../../../pic32c/lib/thumb/v6-m/nofp\libpic32c.a(sbrk.o)
 .debug_str     0x000000000003a842      0x20d c:/program files/microchip/xc32/v4.60/bin/bin/../../lib/gcc/pic32c/8.3.1/../../../../pic32c/lib/thumb/v6-m/nofp\libc-size-musl.a(strcpy.o)
 .debug_str     0x000000000003aa4f      0x221 c:/program files/microchip/xc32/v4.60/bin/bin/../../lib/gcc/pic32c/8.3.1/../../../../pic32c/lib/thumb/v6-m/nofp\libc-size-musl.a(stpcpy.o)
 .debug_str     0x000000000003ac70      0x1d5 c:/program files/microchip/xc32/v4.60/bin/bin/../../lib/gcc/pic32c/8.3.1/../../../../pic32c/lib/thumb/v6-m/nofp\libpic32c.a(pic32_data_init_clear.o)
 .debug_str     0x000000000003ae45      0x1d3 c:/program files/microchip/xc32/v4.60/bin/bin/../../lib/gcc/pic32c/8.3.1/../../../../pic32c/lib/thumb/v6-m/nofp\libpic32c.a(pic32_data_init_copy.o)

.debug_frame    0x0000000000000000     0x4528
 .debug_frame   0x0000000000000000      0x250 build/samd21IOT_winc1500/production/_ext/287230454/drv_spi.o
 .debug_frame   0x0000000000000250       0x50 build/samd21IOT_winc1500/production/_ext/224737734/wdrv_winc_gpio.o
 .debug_frame   0x00000000000002a0       0x40 build/samd21IOT_winc1500/production/_ext/224737734/wdrv_winc_eint.o
 .debug_frame   0x00000000000002e0       0xa0 build/samd21IOT_winc1500/production/_ext/284355797/wdrv_winc_spi.o
 .debug_frame   0x0000000000000380       0x40 build/samd21IOT_winc1500/production/_ext/912793297/nm_common.o
 .debug_frame   0x00000000000003c0      0x808 build/samd21IOT_winc1500/production/_ext/881504404/m2m_wifi.o
 .debug_frame   0x0000000000000bc8      0x1d4 build/samd21IOT_winc1500/production/_ext/881504404/m2m_ota.o
 .debug_frame   0x0000000000000d9c      0x140 build/samd21IOT_winc1500/production/_ext/881504404/m2m_hif.o
 .debug_frame   0x0000000000000edc       0x7c build/samd21IOT_winc1500/production/_ext/881504404/m2m_periph.o
 .debug_frame   0x0000000000000f58       0xf8 build/samd21IOT_winc1500/production/_ext/881504404/nmbus.o
 .debug_frame   0x0000000000001050      0x138 build/samd21IOT_winc1500/production/_ext/881504404/m2m_ssl.o
 .debug_frame   0x0000000000001188      0x190 build/samd21IOT_winc1500/production/_ext/881504404/nmspi.o
 .debug_frame   0x0000000000001318       0xf4 build/samd21IOT_winc1500/production/_ext/881504404/nmdrv.o
 .debug_frame   0x000000000000140c      0x278 build/samd21IOT_winc1500/production/_ext/881504404/nmasic.o
 .debug_frame   0x0000000000001684       0x3c build/samd21IOT_winc1500/production/_ext/455027017/inet_ntop.o
 .debug_frame   0x00000000000016c0       0x34 build/samd21IOT_winc1500/production/_ext/455027017/inet_addr.o
 .debug_frame   0x00000000000016f4      0x2a4 build/samd21IOT_winc1500/production/_ext/455027017/socket.o
 .debug_frame   0x0000000000001998       0x3c build/samd21IOT_winc1500/production/_ext/1637020121/flexible_flash.o
 .debug_frame   0x00000000000019d4      0x138 build/samd21IOT_winc1500/production/_ext/1637020121/spi_flash.o
 .debug_frame   0x0000000000001b0c       0x28 build/samd21IOT_winc1500/production/_ext/469334988/wdrv_winc_osal.o
 .debug_frame   0x0000000000001b34      0x2b8 build/samd21IOT_winc1500/production/_ext/1235514674/wdrv_winc.o
 .debug_frame   0x0000000000001dec       0xc8 build/samd21IOT_winc1500/production/_ext/1235514674/wdrv_winc_host_file.o
 .debug_frame   0x0000000000001eb4       0x5c build/samd21IOT_winc1500/production/_ext/1235514674/wdrv_winc_httpprovctx.o
 .debug_frame   0x0000000000001f10       0x68 build/samd21IOT_winc1500/production/_ext/1235514674/wdrv_winc_custie.o
 .debug_frame   0x0000000000001f78       0xa0 build/samd21IOT_winc1500/production/_ext/1235514674/wdrv_winc_bssctx.o
 .debug_frame   0x0000000000002018       0x74 build/samd21IOT_winc1500/production/_ext/1235514674/wdrv_winc_powersave.o
 .debug_frame   0x000000000000208c       0xc4 build/samd21IOT_winc1500/production/_ext/1235514674/wdrv_winc_authctx.o
 .debug_frame   0x0000000000002150      0x108 build/samd21IOT_winc1500/production/_ext/1235514674/wdrv_winc_bssfind.o
 .debug_frame   0x0000000000002258      0x204 build/samd21IOT_winc1500/production/_ext/1235514674/wdrv_winc_socket.o
 .debug_frame   0x000000000000245c       0xbc build/samd21IOT_winc1500/production/_ext/1235514674/wdrv_winc_nvm.o
 .debug_frame   0x0000000000002518       0xa4 build/samd21IOT_winc1500/production/_ext/1235514674/wdrv_winc_sta.o
 .debug_frame   0x00000000000025bc       0xf4 build/samd21IOT_winc1500/production/_ext/1235514674/wdrv_winc_ssl.o
 .debug_frame   0x00000000000026b0       0xb0 build/samd21IOT_winc1500/production/_ext/1235514674/wdrv_winc_systime.o
 .debug_frame   0x0000000000002760       0x60 build/samd21IOT_winc1500/production/_ext/1235514674/wdrv_winc_wps.o
 .debug_frame   0x00000000000027c0       0xd4 build/samd21IOT_winc1500/production/_ext/1235514674/wdrv_winc_enterprise.o
 .debug_frame   0x0000000000002894       0x68 build/samd21IOT_winc1500/production/_ext/1235514674/wdrv_winc_softap.o
 .debug_frame   0x00000000000028fc       0x88 build/samd21IOT_winc1500/production/_ext/1235514674/wdrv_winc_assoc.o
 .debug_frame   0x0000000000002984       0x20 build/samd21IOT_winc1500/production/_ext/435457175/plib_clock.o
 .debug_frame   0x00000000000029a4      0x184 build/samd21IOT_winc1500/production/_ext/1953739970/plib_dmac.o
 .debug_frame   0x0000000000002b28       0x84 build/samd21IOT_winc1500/production/_ext/1876637944/plib_eic.o
 .debug_frame   0x0000000000002bac       0x20 build/samd21IOT_winc1500/production/_ext/437606661/plib_evsys.o
 .debug_frame   0x0000000000002bcc       0x88 build/samd21IOT_winc1500/production/_ext/1954046777/plib_nvic.o
 .debug_frame   0x0000000000002c54      0x108 build/samd21IOT_winc1500/production/_ext/975387175/plib_nvmctrl.o
 .debug_frame   0x0000000000002d5c       0xe0 build/samd21IOT_winc1500/production/_ext/1954099928/plib_port.o
 .debug_frame   0x0000000000002e3c       0xd4 build/samd21IOT_winc1500/production/_ext/34491124/plib_sercom2_spi_master.o
 .debug_frame   0x0000000000002f10      0x250 build/samd21IOT_winc1500/production/_ext/1207737362/plib_sercom5_usart.o
 .debug_frame   0x0000000000003160       0xd8 build/samd21IOT_winc1500/production/_ext/2138746234/plib_tc3.o
 .debug_frame   0x0000000000003238       0x30 build/samd21IOT_winc1500/production/_ext/1613073709/xc32_monitor.o
 .debug_frame   0x0000000000003268      0x15c build/samd21IOT_winc1500/production/_ext/106321624/sys_console.o
 .debug_frame   0x00000000000033c4       0xe8 build/samd21IOT_winc1500/production/_ext/106321624/sys_console_uart.o
 .debug_frame   0x00000000000034ac       0x70 build/samd21IOT_winc1500/production/_ext/604157148/sys_debug.o
 .debug_frame   0x000000000000351c       0x48 build/samd21IOT_winc1500/production/_ext/226979060/sys_dma.o
 .debug_frame   0x0000000000003564       0x84 build/samd21IOT_winc1500/production/_ext/55136832/sys_int.o
 .debug_frame   0x00000000000035e8      0x3a0 build/samd21IOT_winc1500/production/_ext/13306586/sys_time.o
 .debug_frame   0x0000000000003988       0x28 build/samd21IOT_winc1500/production/_ext/2058341299/tasks.o
 .debug_frame   0x00000000000039b0       0x20 build/samd21IOT_winc1500/production/_ext/2058341299/interrupts.o
 .debug_frame   0x00000000000039d0       0x2c build/samd21IOT_winc1500/production/_ext/2058341299/initialization.o
 .debug_frame   0x00000000000039fc       0x38 build/samd21IOT_winc1500/production/_ext/2058341299/startup_xc32.o
 .debug_frame   0x0000000000003a34       0x20 build/samd21IOT_winc1500/production/_ext/2058341299/libc_syscalls.o
 .debug_frame   0x0000000000003a54       0x30 build/samd21IOT_winc1500/production/_ext/2058341299/exceptions.o
 .debug_frame   0x0000000000003a84       0x28 build/samd21IOT_winc1500/production/_ext/1360937237/main.o
 .debug_frame   0x0000000000003aac       0x38 build/samd21IOT_winc1500/production/_ext/1360937237/app.o
 .debug_frame   0x0000000000003ae4       0x9c build/samd21IOT_winc1500/production/_ext/1360937237/winc1500_tcp_server.o
 .debug_frame   0x0000000000003b80       0x48 c:/program files/microchip/xc32/v4.60/bin/bin/../../lib/gcc/pic32c/8.3.1/../../../../pic32c/lib/thumb/v6-m/nofp\libpic32c.a(data_init.o)
 .debug_frame   0x0000000000003bc8       0x28 c:/program files/microchip/xc32/v4.60/bin/bin/../../lib/gcc/pic32c/8.3.1/../../../../pic32c/lib/thumb/v6-m/nofp\libc-size-musl.a(memcpy.o)
 .debug_frame   0x0000000000003bf0       0x20 c:/program files/microchip/xc32/v4.60/bin/bin/../../lib/gcc/pic32c/8.3.1/../../../../pic32c/lib/thumb/v6-m/nofp\libc-size-musl.a(memset.o)
 .debug_frame   0x0000000000003c10       0x20 c:/program files/microchip/xc32/v4.60/bin/bin/../../lib/gcc/pic32c/8.3.1/../../../../pic32c/lib/thumb/v6-m/nofp\libc-size-musl.a(strlen.o)
 .debug_frame   0x0000000000003c30       0x28 c:/program files/microchip/xc32/v4.60/bin/bin/../../lib/gcc/pic32c/8.3.1/../../../../pic32c/lib/thumb/v6-m/nofp\libc-size-musl.a(strchr.o)
 .debug_frame   0x0000000000003c58       0x2c c:/program files/microchip/xc32/v4.60/bin/bin/../../lib/gcc/pic32c/8.3.1/../../../../pic32c/lib/thumb/v6-m/nofp\libc-size-musl.a(strchrnul.o)
 .debug_frame   0x0000000000003c84       0x2c c:/program files/microchip/xc32/v4.60/bin/bin/../../lib/gcc/pic32c/8.3.1/../../../../pic32c/lib/thumb/v6-m/nofp\libc-size-musl.a(strnlen.o)
 .debug_frame   0x0000000000003cb0       0x20 c:/program files/microchip/xc32/v4.60/bin/bin/../../lib/gcc/pic32c/8.3.1/../../../../pic32c/lib/thumb/v6-m/nofp\libc-size-musl.a(memchr.o)
 .debug_frame   0x0000000000003cd0       0x64 c:/program files/microchip/xc32/v4.60/bin/bin/../../lib/gcc/pic32c/8.3.1/../../../../pic32c/lib/thumb/v6-m/nofp\liblmalloc-musl.a(lite_free.o)
 .debug_frame   0x0000000000003d34       0x30 c:/program files/microchip/xc32/v4.60/bin/bin/../../lib/gcc/pic32c/8.3.1/../../../../pic32c/lib/thumb/v6-m/nofp\liblmalloc-musl.a(lite_malloc.o)
 .debug_frame   0x0000000000003d64       0x38 c:/program files/microchip/xc32/v4.60/bin/bin/../../lib/gcc/pic32c/8.3.1/../../../../pic32c/lib/thumb/v6-m/nofp\libc-musl.a(__libc_start_main.o)
 .debug_frame   0x0000000000003d9c       0x28 c:/program files/microchip/xc32/v4.60/bin/bin/../../lib/gcc/pic32c/8.3.1/../../../../pic32c/lib/thumb/v6-m/nofp\libc-musl.a(expand_heap.o)
 .debug_frame   0x0000000000003dc4       0x34 c:/program files/microchip/xc32/v4.60/bin/bin/../../lib/gcc/pic32c/8.3.1/../../../../pic32c/lib/thumb/v6-m/nofp\libc-musl.a(vsnprintf.o)
 .debug_frame   0x0000000000003df8       0x2c c:/program files/microchip/xc32/v4.60/bin/bin/../../lib/gcc/pic32c/8.3.1/../../../../pic32c/lib/thumb/v6-m/nofp\libc-musl.a(sprintf.o)
 .debug_frame   0x0000000000003e24       0x28 c:/program files/microchip/xc32/v4.60/bin/bin/../../lib/gcc/pic32c/8.3.1/../../../../pic32c/lib/thumb/v6-m/nofp\libc-musl.a(vsprintf.o)
 .debug_frame   0x0000000000003e4c       0x28 c:/program files/microchip/xc32/v4.60/bin/bin/../../lib/gcc/pic32c/8.3.1/../../../../pic32c/lib/thumb/v6-m/nofp\libc-musl.a(gmtime.o)
 .debug_frame   0x0000000000003e74       0x2c c:/program files/microchip/xc32/v4.60/bin/bin/../../lib/gcc/pic32c/8.3.1/../../../../pic32c/lib/thumb/v6-m/nofp\libc-musl.a(gmtime_r.o)
 .debug_frame   0x0000000000003ea0       0x2c c:/program files/microchip/xc32/v4.60/bin/bin/../../lib/gcc/pic32c/8.3.1/../../../../pic32c/lib/thumb/v6-m/nofp\libc-musl.a(mktime.o)
 .debug_frame   0x0000000000003ecc       0x44 c:/program files/microchip/xc32/v4.60/bin/bin/../../lib/gcc/pic32c/8.3.1/../../../../pic32c/lib/thumb/v6-m/nofp\libc-musl.a(vfprintf.o)
 .debug_frame   0x0000000000003f10       0x30 c:/program files/microchip/xc32/v4.60/bin/bin/../../lib/gcc/pic32c/8.3.1/../../../../pic32c/lib/thumb/v6-m/nofp\libc-musl.a(__tm_to_secs.o)
 .debug_frame   0x0000000000003f40       0x34 c:/program files/microchip/xc32/v4.60/bin/bin/../../lib/gcc/pic32c/8.3.1/../../../../pic32c/lib/thumb/v6-m/nofp\libc-musl.a(__year_to_secs.o)
 .debug_frame   0x0000000000003f74       0x30 c:/program files/microchip/xc32/v4.60/bin/bin/../../lib/gcc/pic32c/8.3.1/../../../../pic32c/lib/thumb/v6-m/nofp\libc-musl.a(__secs_to_tm.o)
 .debug_frame   0x0000000000003fa4       0x28 c:/program files/microchip/xc32/v4.60/bin/bin/../../lib/gcc/pic32c/8.3.1/../../../../pic32c/lib/thumb/v6-m/nofp\libc-musl.a(__io_fmt_needed.o)
 .debug_frame   0x0000000000003fcc       0x20 c:/program files/microchip/xc32/v4.60/bin/bin/../../lib/gcc/pic32c/8.3.1/../../../../pic32c/lib/thumb/v6-m/nofp\libc-musl.a(__pop_float.o)
 .debug_frame   0x0000000000003fec       0x28 c:/program files/microchip/xc32/v4.60/bin/bin/../../lib/gcc/pic32c/8.3.1/../../../../pic32c/lib/thumb/v6-m/nofp\libc-musl.a(__pop_int.o)
 .debug_frame   0x0000000000004014       0x28 c:/program files/microchip/xc32/v4.60/bin/bin/../../lib/gcc/pic32c/8.3.1/../../../../pic32c/lib/thumb/v6-m/nofp\libc-musl.a(__pop_ptr.o)
 .debug_frame   0x000000000000403c       0xc0 c:/program files/microchip/xc32/v4.60/bin/bin/../../lib/gcc/pic32c/8.3.1/../../../../pic32c/lib/thumb/v6-m/nofp\libc-musl.a(__printf_core.o)
 .debug_frame   0x00000000000040fc       0x28 c:/program files/microchip/xc32/v4.60/bin/bin/../../lib/gcc/pic32c/8.3.1/../../../../pic32c/lib/thumb/v6-m/nofp\libc-musl.a(atoi.o)
 .debug_frame   0x0000000000004124       0x20 c:/program files/microchip/xc32/v4.60/bin/bin/../../lib/gcc/pic32c/8.3.1/../../../../pic32c/lib/thumb/v6-m/nofp\libc-musl.a(__month_to_secs.o)
 .debug_frame   0x0000000000004144       0x38 c:/program files/microchip/xc32/v4.60/bin/bin/../../lib/gcc/pic32c/8.3.1/../../../../pic32c/lib/thumb/v6-m/nofp\libc-musl.a(tolower.o)
 .debug_frame   0x000000000000417c       0x30 c:/program files/microchip/xc32/v4.60/bin/bin/../../lib/gcc/pic32c/8.3.1/../../../../pic32c/lib/thumb/v6-m/nofp\libc-musl.a(__fmt_a.o)
 .debug_frame   0x00000000000041ac       0x30 c:/program files/microchip/xc32/v4.60/bin/bin/../../lib/gcc/pic32c/8.3.1/../../../../pic32c/lib/thumb/v6-m/nofp\libc-musl.a(__fmt_d.o)
 .debug_frame   0x00000000000041dc       0x34 c:/program files/microchip/xc32/v4.60/bin/bin/../../lib/gcc/pic32c/8.3.1/../../../../pic32c/lib/thumb/v6-m/nofp\libc-musl.a(__fmt_fp.o)
 .debug_frame   0x0000000000004210       0x30 c:/program files/microchip/xc32/v4.60/bin/bin/../../lib/gcc/pic32c/8.3.1/../../../../pic32c/lib/thumb/v6-m/nofp\libc-musl.a(__fmt_o.o)
 .debug_frame   0x0000000000004240       0x30 c:/program files/microchip/xc32/v4.60/bin/bin/../../lib/gcc/pic32c/8.3.1/../../../../pic32c/lib/thumb/v6-m/nofp\libc-musl.a(__fmt_s.o)
 .debug_frame   0x0000000000004270       0x30 c:/program files/microchip/xc32/v4.60/bin/bin/../../lib/gcc/pic32c/8.3.1/../../../../pic32c/lib/thumb/v6-m/nofp\libc-musl.a(__fmt_u.o)
 .debug_frame   0x00000000000042a0       0x30 c:/program files/microchip/xc32/v4.60/bin/bin/../../lib/gcc/pic32c/8.3.1/../../../../pic32c/lib/thumb/v6-m/nofp\libc-musl.a(__fmt_x.o)
 .debug_frame   0x00000000000042d0       0x38 c:/program files/microchip/xc32/v4.60/bin/bin/../../lib/gcc/pic32c/8.3.1/../../../../pic32c/lib/thumb/v6-m/nofp\libc-musl.a(toupper.o)
 .debug_frame   0x0000000000004308       0x34 c:/program files/microchip/xc32/v4.60/bin/bin/../../lib/gcc/pic32c/8.3.1/../../../../pic32c/lib/thumb/v6-m/nofp\libc-musl.a(__cvt_u.o)
 .debug_frame   0x000000000000433c       0x20 c:/program files/microchip/xc32/v4.60/bin/bin/../../lib/gcc/pic32c/8.3.1/thumb/v6-m/nofp\libgcc.a(_udivsi3.o)
 .debug_frame   0x000000000000435c       0x20 c:/program files/microchip/xc32/v4.60/bin/bin/../../lib/gcc/pic32c/8.3.1/thumb/v6-m/nofp\libgcc.a(_divsi3.o)
 .debug_frame   0x000000000000437c       0x34 c:/program files/microchip/xc32/v4.60/bin/bin/../../lib/gcc/pic32c/8.3.1/thumb/v6-m/nofp\libgcc.a(_muldi3.o)
 .debug_frame   0x00000000000043b0       0x30 c:/program files/microchip/xc32/v4.60/bin/bin/../../lib/gcc/pic32c/8.3.1/thumb/v6-m/nofp\libgcc.a(_udivmoddi4.o)
 .debug_frame   0x00000000000043e0       0x34 c:/program files/microchip/xc32/v4.60/bin/bin/../../lib/gcc/pic32c/8.3.1/thumb/v6-m/nofp\libgcc.a(bpabi.o)
 .debug_frame   0x0000000000004414       0x30 c:/program files/microchip/xc32/v4.60/bin/bin/../../lib/gcc/pic32c/8.3.1/thumb/v6-m/nofp\libgcc.a(_divdi3.o)
 .debug_frame   0x0000000000004444       0x54 c:/program files/microchip/xc32/v4.60/bin/bin/../../lib/gcc/pic32c/8.3.1/../../../../pic32c/lib/thumb/v6-m/nofp\libpic32c.a(sbrk.o)
 .debug_frame   0x0000000000004498       0x28 c:/program files/microchip/xc32/v4.60/bin/bin/../../lib/gcc/pic32c/8.3.1/../../../../pic32c/lib/thumb/v6-m/nofp\libc-size-musl.a(strcpy.o)
 .debug_frame   0x00000000000044c0       0x20 c:/program files/microchip/xc32/v4.60/bin/bin/../../lib/gcc/pic32c/8.3.1/../../../../pic32c/lib/thumb/v6-m/nofp\libc-size-musl.a(stpcpy.o)
 .debug_frame   0x00000000000044e0       0x20 c:/program files/microchip/xc32/v4.60/bin/bin/../../lib/gcc/pic32c/8.3.1/../../../../pic32c/lib/thumb/v6-m/nofp\libpic32c.a(pic32_data_init_clear.o)
 .debug_frame   0x0000000000004500       0x28 c:/program files/microchip/xc32/v4.60/bin/bin/../../lib/gcc/pic32c/8.3.1/../../../../pic32c/lib/thumb/v6-m/nofp\libpic32c.a(pic32_data_init_copy.o)

.note.GNU-stack
                0x0000000000000000        0x0
 .note.GNU-stack
                0x0000000000000000        0x0 c:/program files/microchip/xc32/v4.60/bin/bin/../../lib/gcc/pic32c/8.3.1/../../../../pic32c/lib/thumb/v6-m/nofp\libc-size-musl.a(memcpy.o)
 .note.GNU-stack
                0x0000000000000000        0x0 c:/program files/microchip/xc32/v4.60/bin/bin/../../lib/gcc/pic32c/8.3.1/../../../../pic32c/lib/thumb/v6-m/nofp\libc-size-musl.a(memset.o)
 .note.GNU-stack
                0x0000000000000000        0x0 c:/program files/microchip/xc32/v4.60/bin/bin/../../lib/gcc/pic32c/8.3.1/../../../../pic32c/lib/thumb/v6-m/nofp\libc-size-musl.a(strlen.o)
 .note.GNU-stack
                0x0000000000000000        0x0 c:/program files/microchip/xc32/v4.60/bin/bin/../../lib/gcc/pic32c/8.3.1/../../../../pic32c/lib/thumb/v6-m/nofp\libc-size-musl.a(strchr.o)
 .note.GNU-stack
                0x0000000000000000        0x0 c:/program files/microchip/xc32/v4.60/bin/bin/../../lib/gcc/pic32c/8.3.1/../../../../pic32c/lib/thumb/v6-m/nofp\libc-size-musl.a(strchrnul.o)
 .note.GNU-stack
                0x0000000000000000        0x0 c:/program files/microchip/xc32/v4.60/bin/bin/../../lib/gcc/pic32c/8.3.1/../../../../pic32c/lib/thumb/v6-m/nofp\libc-size-musl.a(strnlen.o)
 .note.GNU-stack
                0x0000000000000000        0x0 c:/program files/microchip/xc32/v4.60/bin/bin/../../lib/gcc/pic32c/8.3.1/../../../../pic32c/lib/thumb/v6-m/nofp\libc-size-musl.a(memchr.o)
 .note.GNU-stack
                0x0000000000000000        0x0 c:/program files/microchip/xc32/v4.60/bin/bin/../../lib/gcc/pic32c/8.3.1/../../../../pic32c/lib/thumb/v6-m/nofp\liblmalloc-musl.a(lite_free.o)
 .note.GNU-stack
                0x0000000000000000        0x0 c:/program files/microchip/xc32/v4.60/bin/bin/../../lib/gcc/pic32c/8.3.1/../../../../pic32c/lib/thumb/v6-m/nofp\liblmalloc-musl.a(lite_malloc.o)
 .note.GNU-stack
                0x0000000000000000        0x0 c:/program files/microchip/xc32/v4.60/bin/bin/../../lib/gcc/pic32c/8.3.1/../../../../pic32c/lib/thumb/v6-m/nofp\libc-musl.a(__libc_start_main.o)
 .note.GNU-stack
                0x0000000000000000        0x0 c:/program files/microchip/xc32/v4.60/bin/bin/../../lib/gcc/pic32c/8.3.1/../../../../pic32c/lib/thumb/v6-m/nofp\libc-musl.a(__errno_location.o)
 .note.GNU-stack
                0x0000000000000000        0x0 c:/program files/microchip/xc32/v4.60/bin/bin/../../lib/gcc/pic32c/8.3.1/../../../../pic32c/lib/thumb/v6-m/nofp\libc-musl.a(libc.o)
 .note.GNU-stack
                0x0000000000000000        0x0 c:/program files/microchip/xc32/v4.60/bin/bin/../../lib/gcc/pic32c/8.3.1/../../../../pic32c/lib/thumb/v6-m/nofp\libc-musl.a(expand_heap.o)
 .note.GNU-stack
                0x0000000000000000        0x0 c:/program files/microchip/xc32/v4.60/bin/bin/../../lib/gcc/pic32c/8.3.1/../../../../pic32c/lib/thumb/v6-m/nofp\libc-musl.a(vsnprintf.o)
 .note.GNU-stack
                0x0000000000000000        0x0 c:/program files/microchip/xc32/v4.60/bin/bin/../../lib/gcc/pic32c/8.3.1/../../../../pic32c/lib/thumb/v6-m/nofp\libc-musl.a(sprintf.o)
 .note.GNU-stack
                0x0000000000000000        0x0 c:/program files/microchip/xc32/v4.60/bin/bin/../../lib/gcc/pic32c/8.3.1/../../../../pic32c/lib/thumb/v6-m/nofp\libc-musl.a(vsprintf.o)
 .note.GNU-stack
                0x0000000000000000        0x0 c:/program files/microchip/xc32/v4.60/bin/bin/../../lib/gcc/pic32c/8.3.1/../../../../pic32c/lib/thumb/v6-m/nofp\libc-musl.a(gmtime.o)
 .note.GNU-stack
                0x0000000000000000        0x0 c:/program files/microchip/xc32/v4.60/bin/bin/../../lib/gcc/pic32c/8.3.1/../../../../pic32c/lib/thumb/v6-m/nofp\libc-musl.a(gmtime_r.o)
 .note.GNU-stack
                0x0000000000000000        0x0 c:/program files/microchip/xc32/v4.60/bin/bin/../../lib/gcc/pic32c/8.3.1/../../../../pic32c/lib/thumb/v6-m/nofp\libc-musl.a(mktime.o)
 .note.GNU-stack
                0x0000000000000000        0x0 c:/program files/microchip/xc32/v4.60/bin/bin/../../lib/gcc/pic32c/8.3.1/../../../../pic32c/lib/thumb/v6-m/nofp\libc-musl.a(__environ.o)
 .note.GNU-stack
                0x0000000000000000        0x0 c:/program files/microchip/xc32/v4.60/bin/bin/../../lib/gcc/pic32c/8.3.1/../../../../pic32c/lib/thumb/v6-m/nofp\libc-musl.a(vfprintf.o)
 .note.GNU-stack
                0x0000000000000000        0x0 c:/program files/microchip/xc32/v4.60/bin/bin/../../lib/gcc/pic32c/8.3.1/../../../../pic32c/lib/thumb/v6-m/nofp\libc-musl.a(__tm_to_secs.o)
 .note.GNU-stack
                0x0000000000000000        0x0 c:/program files/microchip/xc32/v4.60/bin/bin/../../lib/gcc/pic32c/8.3.1/../../../../pic32c/lib/thumb/v6-m/nofp\libc-musl.a(__year_to_secs.o)
 .note.GNU-stack
                0x0000000000000000        0x0 c:/program files/microchip/xc32/v4.60/bin/bin/../../lib/gcc/pic32c/8.3.1/../../../../pic32c/lib/thumb/v6-m/nofp\libc-musl.a(__secs_to_tm.o)
 .note.GNU-stack
                0x0000000000000000        0x0 c:/program files/microchip/xc32/v4.60/bin/bin/../../lib/gcc/pic32c/8.3.1/../../../../pic32c/lib/thumb/v6-m/nofp\libc-musl.a(__io_fmt_needed.o)
 .note.GNU-stack
                0x0000000000000000        0x0 c:/program files/microchip/xc32/v4.60/bin/bin/../../lib/gcc/pic32c/8.3.1/../../../../pic32c/lib/thumb/v6-m/nofp\libc-musl.a(__pop_float.o)
 .note.GNU-stack
                0x0000000000000000        0x0 c:/program files/microchip/xc32/v4.60/bin/bin/../../lib/gcc/pic32c/8.3.1/../../../../pic32c/lib/thumb/v6-m/nofp\libc-musl.a(__pop_int.o)
 .note.GNU-stack
                0x0000000000000000        0x0 c:/program files/microchip/xc32/v4.60/bin/bin/../../lib/gcc/pic32c/8.3.1/../../../../pic32c/lib/thumb/v6-m/nofp\libc-musl.a(__pop_ptr.o)
 .note.GNU-stack
                0x0000000000000000        0x0 c:/program files/microchip/xc32/v4.60/bin/bin/../../lib/gcc/pic32c/8.3.1/../../../../pic32c/lib/thumb/v6-m/nofp\libc-musl.a(__printf_core.o)
 .note.GNU-stack
                0x0000000000000000        0x0 c:/program files/microchip/xc32/v4.60/bin/bin/../../lib/gcc/pic32c/8.3.1/../../../../pic32c/lib/thumb/v6-m/nofp\libc-musl.a(atoi.o)
 .note.GNU-stack
                0x0000000000000000        0x0 c:/program files/microchip/xc32/v4.60/bin/bin/../../lib/gcc/pic32c/8.3.1/../../../../pic32c/lib/thumb/v6-m/nofp\libc-musl.a(__month_to_secs.o)
 .note.GNU-stack
                0x0000000000000000        0x0 c:/program files/microchip/xc32/v4.60/bin/bin/../../lib/gcc/pic32c/8.3.1/../../../../pic32c/lib/thumb/v6-m/nofp\libc-musl.a(tolower.o)
 .note.GNU-stack
                0x0000000000000000        0x0 c:/program files/microchip/xc32/v4.60/bin/bin/../../lib/gcc/pic32c/8.3.1/../../../../pic32c/lib/thumb/v6-m/nofp\libc-musl.a(__fmt_a.o)
 .note.GNU-stack
                0x0000000000000000        0x0 c:/program files/microchip/xc32/v4.60/bin/bin/../../lib/gcc/pic32c/8.3.1/../../../../pic32c/lib/thumb/v6-m/nofp\libc-musl.a(__fmt_d.o)
 .note.GNU-stack
                0x0000000000000000        0x0 c:/program files/microchip/xc32/v4.60/bin/bin/../../lib/gcc/pic32c/8.3.1/../../../../pic32c/lib/thumb/v6-m/nofp\libc-musl.a(__fmt_fp.o)
 .note.GNU-stack
                0x0000000000000000        0x0 c:/program files/microchip/xc32/v4.60/bin/bin/../../lib/gcc/pic32c/8.3.1/../../../../pic32c/lib/thumb/v6-m/nofp\libc-musl.a(__fmt_o.o)
 .note.GNU-stack
                0x0000000000000000        0x0 c:/program files/microchip/xc32/v4.60/bin/bin/../../lib/gcc/pic32c/8.3.1/../../../../pic32c/lib/thumb/v6-m/nofp\libc-musl.a(__fmt_s.o)
 .note.GNU-stack
                0x0000000000000000        0x0 c:/program files/microchip/xc32/v4.60/bin/bin/../../lib/gcc/pic32c/8.3.1/../../../../pic32c/lib/thumb/v6-m/nofp\libc-musl.a(__fmt_u.o)
 .note.GNU-stack
                0x0000000000000000        0x0 c:/program files/microchip/xc32/v4.60/bin/bin/../../lib/gcc/pic32c/8.3.1/../../../../pic32c/lib/thumb/v6-m/nofp\libc-musl.a(__fmt_x.o)
 .note.GNU-stack
                0x0000000000000000        0x0 c:/program files/microchip/xc32/v4.60/bin/bin/../../lib/gcc/pic32c/8.3.1/../../../../pic32c/lib/thumb/v6-m/nofp\libc-musl.a(toupper.o)
 .note.GNU-stack
                0x0000000000000000        0x0 c:/program files/microchip/xc32/v4.60/bin/bin/../../lib/gcc/pic32c/8.3.1/../../../../pic32c/lib/thumb/v6-m/nofp\libc-musl.a(__cvt_u.o)
 .note.GNU-stack
                0x0000000000000000        0x0 c:/program files/microchip/xc32/v4.60/bin/bin/../../lib/gcc/pic32c/8.3.1/../../../../pic32c/lib/thumb/v6-m/nofp\libc-size-musl.a(strcpy.o)
 .note.GNU-stack
                0x0000000000000000        0x0 c:/program files/microchip/xc32/v4.60/bin/bin/../../lib/gcc/pic32c/8.3.1/../../../../pic32c/lib/thumb/v6-m/nofp\libc-size-musl.a(stpcpy.o)

__xc_reference_data
                0x0000000000000000       0x5c
 __xc_reference_data
                0x0000000000000000        0x8 c:/program files/microchip/xc32/v4.60/bin/bin/../../lib/gcc/pic32c/8.3.1/../../../../pic32c/lib/thumb/v6-m/nofp\libc-musl.a(vfprintf.o)
                0x0000000000000000                __vfprintf_needs_fmt
 __xc_reference_data
                0x0000000000000008       0x54 c:/program files/microchip/xc32/v4.60/bin/bin/../../lib/gcc/pic32c/8.3.1/../../../../pic32c/lib/thumb/v6-m/nofp\libc-musl.a(__io_fmt_needed.o)
                0x0000000000000008                __io_fmt_needed

.stack          0x0000000020001490      0x100
 .stack         0x0000000020001490      0x100 stack

.bss%1          0x0000000020000000      0x8c0
 .bss           0x0000000020000000      0x8c0 build/samd21IOT_winc1500/production/_ext/1207737362/plib_sercom5_usart.o

.bss%2          0x00000000200008c0      0x1b0
 .bss           0x00000000200008c0      0x1b0 build/samd21IOT_winc1500/production/_ext/1360937237/winc1500_tcp_server.o

.bss%3          0x0000000020000a70      0x110
 .bss           0x0000000020000a70      0x110 build/samd21IOT_winc1500/production/_ext/1235514674/wdrv_winc.o

.bss%4          0x0000000020000b80       0xe0
 .bss           0x0000000020000b80       0xe0 build/samd21IOT_winc1500/production/_ext/13306586/sys_time.o

.bss%5          0x0000000020000c60       0xd8
 .bss           0x0000000020000c60       0xd8 build/samd21IOT_winc1500/production/_ext/106321624/sys_console.o

.bss%6          0x0000000020000d38       0xcd
 .bss           0x0000000020000d38       0xcd build/samd21IOT_winc1500/production/_ext/455027017/socket.o
                0x0000000020000d38                gpfAppSocketCb
                0x0000000020000d3c                gu16SessionID
                0x0000000020000d40                gpfAppResolveCb
                0x0000000020000d4c                gbSocketInit
                0x0000000020000d50                gu16BufferSize
                0x0000000020000d52                gu8OpCode
                0x0000000020000d54                gastrSockets
                0x0000000020000e04                gsockerrno

.bss%7          0x0000000020000e08       0xcc
 .bss           0x0000000020000e08       0xcc build/samd21IOT_winc1500/production/_ext/2058341299/initialization.o
                0x0000000020000e08                sysObj

.bss%8          0x0000000020000ed4       0xc0
 .bss           0x0000000020000ed4       0xc0 build/samd21IOT_winc1500/production/_ext/1876637944/plib_eic.o

.bss%9          0x0000000020000f94       0x78
 .bss           0x0000000020000f94       0x78 build/samd21IOT_winc1500/production/_ext/287230454/drv_spi.o

.bss%10         0x000000002000100c       0x68
 .bss           0x000000002000100c       0x68 build/samd21IOT_winc1500/production/_ext/881504404/m2m_ota.o

.bss%11         0x0000000020001078       0x60
 .bss           0x0000000020001078       0x60 build/samd21IOT_winc1500/production/_ext/1953739970/plib_dmac.o

.bss%12         0x00000000200010d8       0x50
 .bss           0x00000000200010d8       0x50 c:/program files/microchip/xc32/v4.60/bin/bin/../../lib/gcc/pic32c/8.3.1/../../../../pic32c/lib/thumb/v6-m/nofp\libc-musl.a(libc.o)
                0x00000000200010d8                __progname_full
                0x00000000200010d8                program_invocation_name
                0x00000000200010dc                program_invocation_short_name
                0x00000000200010dc                __progname
                0x00000000200010e0                __sysinfo
                0x00000000200010e4                __hwcap
                0x00000000200010e8                __libc

.bss%13         0x0000000020001128       0x2d
 .bss           0x0000000020001128       0x2d build/samd21IOT_winc1500/production/_ext/34491124/plib_sercom2_spi_master.o

.bss%14         0x0000000020001158       0x2c
 .bss           0x0000000020001158       0x2c c:/program files/microchip/xc32/v4.60/bin/bin/../../lib/gcc/pic32c/8.3.1/../../../../pic32c/lib/thumb/v6-m/nofp\libc-musl.a(gmtime.o)

.bss%15         0x0000000020001184       0x29
 .bss           0x0000000020001184       0x29 build/samd21IOT_winc1500/production/_ext/881504404/m2m_hif.o
                0x0000000020001184                gstrHifCxt

.bss%16         0x00000000200011b0       0x28
 .bss           0x00000000200011b0       0x28 build/samd21IOT_winc1500/production/_ext/881504404/m2m_wifi.o

.bss%17         0x00000000200011d8       0x1d
 .bss           0x00000000200011d8       0x1d build/samd21IOT_winc1500/production/_ext/284355797/wdrv_winc_spi.o

.bss%18         0x00000000200011f8       0x1c
 .bss           0x00000000200011f8       0x1c c:/program files/microchip/xc32/v4.60/bin/bin/../../lib/gcc/pic32c/8.3.1/thumb/v6-m/nofp/crtbegin.o

.bss%19         0x0000000020001214        0xc
 .bss           0x0000000020001214        0xc build/samd21IOT_winc1500/production/_ext/1360937237/app.o
                0x0000000020001214                appData

.bss%20         0x0000000020001220        0xc
 .bss           0x0000000020001220        0xc c:/program files/microchip/xc32/v4.60/bin/bin/../../lib/gcc/pic32c/8.3.1/../../../../pic32c/lib/thumb/v6-m/nofp\libpic32c.a(sbrk.o)
                0x0000000020001224                _maxbrk
                0x0000000020001228                _minbrk

.bss%21         0x000000002000122c        0x8
 .bss           0x000000002000122c        0x8 build/samd21IOT_winc1500/production/_ext/881504404/m2m_ssl.o

.bss%22         0x0000000020001234        0x8
 .bss           0x0000000020001234        0x8 build/samd21IOT_winc1500/production/_ext/2138746234/plib_tc3.o

.bss%23         0x000000002000123c        0x8
 .bss           0x000000002000123c        0x8 build/samd21IOT_winc1500/production/_ext/106321624/sys_console_uart.o

.bss%24         0x0000000020001244        0x8
 .bss           0x0000000020001244        0x8 build/samd21IOT_winc1500/production/_ext/604157148/sys_debug.o
                0x0000000020001244                gblErrLvl

.bss%25         0x0000000020001074        0x4
 .bss           0x0000000020001074        0x4 build/samd21IOT_winc1500/production/_ext/881504404/nmasic.o

.bss%26         0x000000002000124c        0x4
 .bss           0x000000002000124c        0x4 build/samd21IOT_winc1500/production/_ext/1637020121/spi_flash.o

.bss%27         0x0000000020001250        0x4
 .bss           0x0000000020001250        0x4 c:/program files/microchip/xc32/v4.60/bin/bin/../../lib/gcc/pic32c/8.3.1/../../../../pic32c/lib/thumb/v6-m/nofp\libpic32c.a(data_init.o)

.bss%28         0x0000000020001254        0x4
 .bss           0x0000000020001254        0x4 c:/program files/microchip/xc32/v4.60/bin/bin/../../lib/gcc/pic32c/8.3.1/../../../../pic32c/lib/thumb/v6-m/nofp\liblmalloc-musl.a(lite_free.o)
                0x0000000020001254                __freelist

.bss%29         0x0000000020001258        0x4
 .bss           0x0000000020001258        0x4 c:/program files/microchip/xc32/v4.60/bin/bin/../../lib/gcc/pic32c/8.3.1/../../../../pic32c/lib/thumb/v6-m/nofp\libc-musl.a(__errno_location.o)
                0x0000000020001258                __errno_val

.bss%30         0x000000002000125c        0x4
 .bss           0x000000002000125c        0x4 c:/program files/microchip/xc32/v4.60/bin/bin/../../lib/gcc/pic32c/8.3.1/../../../../pic32c/lib/thumb/v6-m/nofp\libc-musl.a(__environ.o)
                0x000000002000125c                __environ
                0x000000002000125c                environ
                0x000000002000125c                ___environ
                0x000000002000125c                _environ

.bss%31         0x0000000020000e05        0x2
 .bss           0x0000000020000e05        0x2 build/samd21IOT_winc1500/production/_ext/881504404/nmspi.o

.bss%z1         0x0000000000000000        0x0
 .bss           0x0000000000000000        0x0 c:/program files/microchip/xc32/v4.60/bin/bin/../../lib/gcc/pic32c/8.3.1/../../../../pic32c/lib/thumb/v6-m/nofp\libpic32c.a(pic32_data_init_copy.o)

.bss%z2         0x0000000000000000        0x0
 .bss           0x0000000000000000        0x0 c:/program files/microchip/xc32/v4.60/bin/bin/../../lib/gcc/pic32c/8.3.1/../../../../pic32c/lib/thumb/v6-m/nofp\libpic32c.a(pic32_data_init_clear.o)

.bss%z3         0x0000000000000000        0x0
 .bss           0x0000000000000000        0x0 c:/program files/microchip/xc32/v4.60/bin/bin/../../lib/gcc/pic32c/8.3.1/thumb/v6-m/nofp/crtn.o

.bss%z4         0x0000000000000000        0x0
 .bss           0x0000000000000000        0x0 c:/program files/microchip/xc32/v4.60/bin/bin/../../lib/gcc/pic32c/8.3.1/thumb/v6-m/nofp/crtend.o

.bss%z5         0x0000000000000000        0x0
 .bss           0x0000000000000000        0x0 c:/program files/microchip/xc32/v4.60/bin/bin/../../lib/gcc/pic32c/8.3.1/../../../../pic32c/lib/thumb/v6-m/nofp\libc-size-musl.a(stpcpy.o)

.bss%z6         0x0000000000000000        0x0
 .bss           0x0000000000000000        0x0 c:/program files/microchip/xc32/v4.60/bin/bin/../../lib/gcc/pic32c/8.3.1/../../../../pic32c/lib/thumb/v6-m/nofp\libc-size-musl.a(strcpy.o)

.bss%z7         0x0000000000000000        0x0
 .bss           0x0000000000000000        0x0 c:/program files/microchip/xc32/v4.60/bin/bin/../../lib/gcc/pic32c/8.3.1/thumb/v6-m/nofp\libgcc.a(_clzsi2.o)

.bss%z8         0x0000000000000000        0x0
 .bss           0x0000000000000000        0x0 c:/program files/microchip/xc32/v4.60/bin/bin/../../lib/gcc/pic32c/8.3.1/thumb/v6-m/nofp\libgcc.a(_divdi3.o)

.bss%z9         0x0000000000000000        0x0
 .bss           0x0000000000000000        0x0 c:/program files/microchip/xc32/v4.60/bin/bin/../../lib/gcc/pic32c/8.3.1/thumb/v6-m/nofp\libgcc.a(_clzdi2.o)

.bss%z10        0x0000000000000000        0x0
 .bss           0x0000000000000000        0x0 c:/program files/microchip/xc32/v4.60/bin/bin/../../lib/gcc/pic32c/8.3.1/thumb/v6-m/nofp\libgcc.a(_ashldi3.o)

.bss%z11        0x0000000000000000        0x0
 .bss           0x0000000000000000        0x0 c:/program files/microchip/xc32/v4.60/bin/bin/../../lib/gcc/pic32c/8.3.1/thumb/v6-m/nofp\libgcc.a(_lshrdi3.o)

.bss%z12        0x0000000000000000        0x0
 .bss           0x0000000000000000        0x0 c:/program files/microchip/xc32/v4.60/bin/bin/../../lib/gcc/pic32c/8.3.1/thumb/v6-m/nofp\libgcc.a(bpabi.o)

.bss%z13        0x0000000000000000        0x0
 .bss           0x0000000000000000        0x0 c:/program files/microchip/xc32/v4.60/bin/bin/../../lib/gcc/pic32c/8.3.1/thumb/v6-m/nofp\libgcc.a(_udivmoddi4.o)

.bss%z14        0x0000000000000000        0x0
 .bss           0x0000000000000000        0x0 c:/program files/microchip/xc32/v4.60/bin/bin/../../lib/gcc/pic32c/8.3.1/thumb/v6-m/nofp\libgcc.a(_muldi3.o)

.bss%z15        0x0000000000000000        0x0
 .bss           0x0000000000000000        0x0 c:/program files/microchip/xc32/v4.60/bin/bin/../../lib/gcc/pic32c/8.3.1/thumb/v6-m/nofp\libgcc.a(_aeabi_uldivmod.o)

.bss%z16        0x0000000000000000        0x0
 .bss           0x0000000000000000        0x0 c:/program files/microchip/xc32/v4.60/bin/bin/../../lib/gcc/pic32c/8.3.1/thumb/v6-m/nofp\libgcc.a(_aeabi_ldivmod.o)

.bss%z17        0x0000000000000000        0x0
 .bss           0x0000000000000000        0x0 c:/program files/microchip/xc32/v4.60/bin/bin/../../lib/gcc/pic32c/8.3.1/thumb/v6-m/nofp\libgcc.a(_dvmd_tls.o)

.bss%z18        0x0000000000000000        0x0
 .bss           0x0000000000000000        0x0 c:/program files/microchip/xc32/v4.60/bin/bin/../../lib/gcc/pic32c/8.3.1/thumb/v6-m/nofp\libgcc.a(_divsi3.o)

.bss%z19        0x0000000000000000        0x0
 .bss           0x0000000000000000        0x0 c:/program files/microchip/xc32/v4.60/bin/bin/../../lib/gcc/pic32c/8.3.1/thumb/v6-m/nofp\libgcc.a(_udivsi3.o)

.bss%z20        0x0000000000000000        0x0
 .bss           0x0000000000000000        0x0 c:/program files/microchip/xc32/v4.60/bin/bin/../../lib/gcc/pic32c/8.3.1/../../../../pic32c/lib/thumb/v6-m/nofp\libc-musl.a(__cvt_u.o)

.bss%z21        0x0000000000000000        0x0
 .bss           0x0000000000000000        0x0 c:/program files/microchip/xc32/v4.60/bin/bin/../../lib/gcc/pic32c/8.3.1/../../../../pic32c/lib/thumb/v6-m/nofp\libc-musl.a(toupper.o)

.bss%z22        0x0000000000000000        0x0
 .bss           0x0000000000000000        0x0 c:/program files/microchip/xc32/v4.60/bin/bin/../../lib/gcc/pic32c/8.3.1/../../../../pic32c/lib/thumb/v6-m/nofp\libc-musl.a(__fmt_x.o)

.bss%z23        0x0000000000000000        0x0
 .bss           0x0000000000000000        0x0 c:/program files/microchip/xc32/v4.60/bin/bin/../../lib/gcc/pic32c/8.3.1/../../../../pic32c/lib/thumb/v6-m/nofp\libc-musl.a(__fmt_u.o)

.bss%z24        0x0000000000000000        0x0
 .bss           0x0000000000000000        0x0 c:/program files/microchip/xc32/v4.60/bin/bin/../../lib/gcc/pic32c/8.3.1/../../../../pic32c/lib/thumb/v6-m/nofp\libc-musl.a(__fmt_s.o)

.bss%z25        0x0000000000000000        0x0
 .bss           0x0000000000000000        0x0 c:/program files/microchip/xc32/v4.60/bin/bin/../../lib/gcc/pic32c/8.3.1/../../../../pic32c/lib/thumb/v6-m/nofp\libc-musl.a(__fmt_o.o)

.bss%z26        0x0000000000000000        0x0
 .bss           0x0000000000000000        0x0 c:/program files/microchip/xc32/v4.60/bin/bin/../../lib/gcc/pic32c/8.3.1/../../../../pic32c/lib/thumb/v6-m/nofp\libc-musl.a(__fmt_fp.o)

.bss%z27        0x0000000000000000        0x0
 .bss           0x0000000000000000        0x0 c:/program files/microchip/xc32/v4.60/bin/bin/../../lib/gcc/pic32c/8.3.1/../../../../pic32c/lib/thumb/v6-m/nofp\libc-musl.a(__fmt_d.o)

.bss%z28        0x0000000000000000        0x0
 .bss           0x0000000000000000        0x0 c:/program files/microchip/xc32/v4.60/bin/bin/../../lib/gcc/pic32c/8.3.1/../../../../pic32c/lib/thumb/v6-m/nofp\libc-musl.a(__fmt_a.o)

.bss%z29        0x0000000000000000        0x0
 .bss           0x0000000000000000        0x0 c:/program files/microchip/xc32/v4.60/bin/bin/../../lib/gcc/pic32c/8.3.1/../../../../pic32c/lib/thumb/v6-m/nofp\libc-musl.a(tolower.o)

.bss%z30        0x0000000000000000        0x0
 .bss           0x0000000000000000        0x0 c:/program files/microchip/xc32/v4.60/bin/bin/../../lib/gcc/pic32c/8.3.1/../../../../pic32c/lib/thumb/v6-m/nofp\libc-musl.a(__month_to_secs.o)

.bss%z31        0x0000000000000000        0x0
 .bss           0x0000000000000000        0x0 c:/program files/microchip/xc32/v4.60/bin/bin/../../lib/gcc/pic32c/8.3.1/../../../../pic32c/lib/thumb/v6-m/nofp\libc-musl.a(atoi.o)

.bss%z32        0x0000000000000000        0x0
 .bss           0x0000000000000000        0x0 c:/program files/microchip/xc32/v4.60/bin/bin/../../lib/gcc/pic32c/8.3.1/../../../../pic32c/lib/thumb/v6-m/nofp\libc-musl.a(__printf_core.o)

.bss%z33        0x0000000000000000        0x0
 .bss           0x0000000000000000        0x0 c:/program files/microchip/xc32/v4.60/bin/bin/../../lib/gcc/pic32c/8.3.1/../../../../pic32c/lib/thumb/v6-m/nofp\libc-musl.a(__pop_ptr.o)

.bss%z34        0x0000000000000000        0x0
 .bss           0x0000000000000000        0x0 c:/program files/microchip/xc32/v4.60/bin/bin/../../lib/gcc/pic32c/8.3.1/../../../../pic32c/lib/thumb/v6-m/nofp\libc-musl.a(__pop_int.o)

.bss%z35        0x0000000000000000        0x0
 .bss           0x0000000000000000        0x0 c:/program files/microchip/xc32/v4.60/bin/bin/../../lib/gcc/pic32c/8.3.1/../../../../pic32c/lib/thumb/v6-m/nofp\libc-musl.a(__pop_float.o)

.bss%z36        0x0000000000000000        0x0
 .bss           0x0000000000000000        0x0 c:/program files/microchip/xc32/v4.60/bin/bin/../../lib/gcc/pic32c/8.3.1/../../../../pic32c/lib/thumb/v6-m/nofp\libc-musl.a(__io_fmt_needed.o)

.bss%z37        0x0000000000000000        0x0
 .bss           0x0000000000000000        0x0 c:/program files/microchip/xc32/v4.60/bin/bin/../../lib/gcc/pic32c/8.3.1/../../../../pic32c/lib/thumb/v6-m/nofp\libc-musl.a(__secs_to_tm.o)

.bss%z38        0x0000000000000000        0x0
 .bss           0x0000000000000000        0x0 c:/program files/microchip/xc32/v4.60/bin/bin/../../lib/gcc/pic32c/8.3.1/../../../../pic32c/lib/thumb/v6-m/nofp\libc-musl.a(__year_to_secs.o)

.bss%z39        0x0000000000000000        0x0
 .bss           0x0000000000000000        0x0 c:/program files/microchip/xc32/v4.60/bin/bin/../../lib/gcc/pic32c/8.3.1/../../../../pic32c/lib/thumb/v6-m/nofp\libc-musl.a(__tm_to_secs.o)

.bss%z40        0x0000000000000000        0x0
 .bss           0x0000000000000000        0x0 c:/program files/microchip/xc32/v4.60/bin/bin/../../lib/gcc/pic32c/8.3.1/../../../../pic32c/lib/thumb/v6-m/nofp\libc-musl.a(vfprintf.o)

.bss%z41        0x0000000000000000        0x0
 .bss           0x0000000000000000        0x0 c:/program files/microchip/xc32/v4.60/bin/bin/../../lib/gcc/pic32c/8.3.1/../../../../pic32c/lib/thumb/v6-m/nofp\libc-musl.a(mktime.o)

.bss%z42        0x0000000000000000        0x0
 .bss           0x0000000000000000        0x0 c:/program files/microchip/xc32/v4.60/bin/bin/../../lib/gcc/pic32c/8.3.1/../../../../pic32c/lib/thumb/v6-m/nofp\libc-musl.a(gmtime_r.o)

.bss%z43        0x0000000000000000        0x0
 .bss           0x0000000000000000        0x0 c:/program files/microchip/xc32/v4.60/bin/bin/../../lib/gcc/pic32c/8.3.1/../../../../pic32c/lib/thumb/v6-m/nofp\libc-musl.a(vsprintf.o)

.bss%z44        0x0000000000000000        0x0
 .bss           0x0000000000000000        0x0 c:/program files/microchip/xc32/v4.60/bin/bin/../../lib/gcc/pic32c/8.3.1/../../../../pic32c/lib/thumb/v6-m/nofp\libc-musl.a(sprintf.o)

.bss%z45        0x0000000000000000        0x0
 .bss           0x0000000000000000        0x0 c:/program files/microchip/xc32/v4.60/bin/bin/../../lib/gcc/pic32c/8.3.1/../../../../pic32c/lib/thumb/v6-m/nofp\libc-musl.a(vsnprintf.o)

.bss%z46        0x0000000000000000        0x0
 .bss           0x0000000000000000        0x0 c:/program files/microchip/xc32/v4.60/bin/bin/../../lib/gcc/pic32c/8.3.1/../../../../pic32c/lib/thumb/v6-m/nofp\libc-musl.a(expand_heap.o)

.bss%z47        0x0000000000000000        0x0
 .bss           0x0000000000000000        0x0 c:/program files/microchip/xc32/v4.60/bin/bin/../../lib/gcc/pic32c/8.3.1/../../../../pic32c/lib/thumb/v6-m/nofp\libc-musl.a(__libc_start_main.o)

.bss%z48        0x0000000000000000        0x0
 .bss           0x0000000000000000        0x0 c:/program files/microchip/xc32/v4.60/bin/bin/../../lib/gcc/pic32c/8.3.1/../../../../pic32c/lib/thumb/v6-m/nofp\liblmalloc-musl.a(lite_malloc.o)

.bss%z49        0x0000000000000000        0x0
 .bss           0x0000000000000000        0x0 c:/program files/microchip/xc32/v4.60/bin/bin/../../lib/gcc/pic32c/8.3.1/../../../../pic32c/lib/thumb/v6-m/nofp\libc-size-musl.a(memchr.o)

.bss%z50        0x0000000000000000        0x0
 .bss           0x0000000000000000        0x0 c:/program files/microchip/xc32/v4.60/bin/bin/../../lib/gcc/pic32c/8.3.1/../../../../pic32c/lib/thumb/v6-m/nofp\libc-size-musl.a(strnlen.o)

.bss%z51        0x0000000000000000        0x0
 .bss           0x0000000000000000        0x0 c:/program files/microchip/xc32/v4.60/bin/bin/../../lib/gcc/pic32c/8.3.1/../../../../pic32c/lib/thumb/v6-m/nofp\libc-size-musl.a(strchrnul.o)

.bss%z52        0x0000000000000000        0x0
 .bss           0x0000000000000000        0x0 c:/program files/microchip/xc32/v4.60/bin/bin/../../lib/gcc/pic32c/8.3.1/../../../../pic32c/lib/thumb/v6-m/nofp\libc-size-musl.a(strchr.o)

.bss%z53        0x0000000000000000        0x0
 .bss           0x0000000000000000        0x0 c:/program files/microchip/xc32/v4.60/bin/bin/../../lib/gcc/pic32c/8.3.1/../../../../pic32c/lib/thumb/v6-m/nofp\libc-size-musl.a(strlen.o)

.bss%z54        0x0000000000000000        0x0
 .bss           0x0000000000000000        0x0 c:/program files/microchip/xc32/v4.60/bin/bin/../../lib/gcc/pic32c/8.3.1/../../../../pic32c/lib/thumb/v6-m/nofp\libc-size-musl.a(memset.o)

.bss%z55        0x0000000000000000        0x0
 .bss           0x0000000000000000        0x0 c:/program files/microchip/xc32/v4.60/bin/bin/../../lib/gcc/pic32c/8.3.1/../../../../pic32c/lib/thumb/v6-m/nofp\libc-size-musl.a(memcpy.o)

.bss%z56        0x0000000000000000        0x0
 .bss           0x0000000000000000        0x0 build/samd21IOT_winc1500/production/_ext/1360937237/main.o

.bss%z57        0x0000000000000000        0x0
 .bss           0x0000000000000000        0x0 build/samd21IOT_winc1500/production/_ext/2058341299/exceptions.o

.bss%z58        0x0000000000000000        0x0
 .bss           0x0000000000000000        0x0 build/samd21IOT_winc1500/production/_ext/2058341299/libc_syscalls.o

.bss%z59        0x0000000000000000        0x0
 .bss           0x0000000000000000        0x0 build/samd21IOT_winc1500/production/_ext/2058341299/startup_xc32.o

.bss%z60        0x0000000000000000        0x0
 .bss           0x0000000000000000        0x0 build/samd21IOT_winc1500/production/_ext/2058341299/interrupts.o

.bss%z61        0x0000000000000000        0x0
 .bss           0x0000000000000000        0x0 build/samd21IOT_winc1500/production/_ext/2058341299/tasks.o

.bss%z62        0x0000000000000000        0x0
 .bss           0x0000000000000000        0x0 build/samd21IOT_winc1500/production/_ext/55136832/sys_int.o

.bss%z63        0x0000000000000000        0x0
 .bss           0x0000000000000000        0x0 build/samd21IOT_winc1500/production/_ext/226979060/sys_dma.o

.bss%z64        0x0000000000000000        0x0
 .bss           0x0000000000000000        0x0 build/samd21IOT_winc1500/production/_ext/1613073709/xc32_monitor.o

.bss%z65        0x0000000000000000        0x0
 .bss           0x0000000000000000        0x0 build/samd21IOT_winc1500/production/_ext/1954099928/plib_port.o

.bss%z66        0x0000000000000000        0x0
 .bss           0x0000000000000000        0x0 build/samd21IOT_winc1500/production/_ext/975387175/plib_nvmctrl.o

.bss%z67        0x0000000000000000        0x0
 .bss           0x0000000000000000        0x0 build/samd21IOT_winc1500/production/_ext/1954046777/plib_nvic.o

.bss%z68        0x0000000000000000        0x0
 .bss           0x0000000000000000        0x0 build/samd21IOT_winc1500/production/_ext/437606661/plib_evsys.o

.bss%z69        0x0000000000000000        0x0
 .bss           0x0000000000000000        0x0 build/samd21IOT_winc1500/production/_ext/435457175/plib_clock.o

.bss%z70        0x0000000000000000        0x0
 .bss           0x0000000000000000        0x0 build/samd21IOT_winc1500/production/_ext/1235514674/wdrv_winc_assoc.o

.bss%z71        0x0000000000000000        0x0
 .bss           0x0000000000000000        0x0 build/samd21IOT_winc1500/production/_ext/1235514674/wdrv_winc_softap.o

.bss%z72        0x0000000000000000        0x0
 .bss           0x0000000000000000        0x0 build/samd21IOT_winc1500/production/_ext/1235514674/wdrv_winc_enterprise.o

.bss%z73        0x0000000000000000        0x0
 .bss           0x0000000000000000        0x0 build/samd21IOT_winc1500/production/_ext/1235514674/wdrv_winc_wps.o

.bss%z74        0x0000000000000000        0x0
 .bss           0x0000000000000000        0x0 build/samd21IOT_winc1500/production/_ext/1235514674/wdrv_winc_systime.o

.bss%z75        0x0000000000000000        0x0
 .bss           0x0000000000000000        0x0 build/samd21IOT_winc1500/production/_ext/1235514674/wdrv_winc_ssl.o

.bss%z76        0x0000000000000000        0x0
 .bss           0x0000000000000000        0x0 build/samd21IOT_winc1500/production/_ext/1235514674/wdrv_winc_sta.o

.bss%z77        0x0000000000000000        0x0
 .bss           0x0000000000000000        0x0 build/samd21IOT_winc1500/production/_ext/1235514674/wdrv_winc_nvm.o

.bss%z78        0x0000000000000000        0x0
 .bss           0x0000000000000000        0x0 build/samd21IOT_winc1500/production/_ext/1235514674/wdrv_winc_socket.o

.bss%z79        0x0000000000000000        0x0
 .bss           0x0000000000000000        0x0 build/samd21IOT_winc1500/production/_ext/1235514674/wdrv_winc_bssfind.o

.bss%z80        0x0000000000000000        0x0
 .bss           0x0000000000000000        0x0 build/samd21IOT_winc1500/production/_ext/1235514674/wdrv_winc_authctx.o

.bss%z81        0x0000000000000000        0x0
 .bss           0x0000000000000000        0x0 build/samd21IOT_winc1500/production/_ext/1235514674/wdrv_winc_powersave.o

.bss%z82        0x0000000000000000        0x0
 .bss           0x0000000000000000        0x0 build/samd21IOT_winc1500/production/_ext/1235514674/wdrv_winc_bssctx.o

.bss%z83        0x0000000000000000        0x0
 .bss           0x0000000000000000        0x0 build/samd21IOT_winc1500/production/_ext/1235514674/wdrv_winc_custie.o

.bss%z84        0x0000000000000000        0x0
 .bss           0x0000000000000000        0x0 build/samd21IOT_winc1500/production/_ext/1235514674/wdrv_winc_httpprovctx.o

.bss%z85        0x0000000000000000        0x0
 .bss           0x0000000000000000        0x0 build/samd21IOT_winc1500/production/_ext/1235514674/wdrv_winc_host_file.o

.bss%z86        0x0000000000000000        0x0
 .bss           0x0000000000000000        0x0 build/samd21IOT_winc1500/production/_ext/469334988/wdrv_winc_osal.o

.bss%z87        0x0000000000000000        0x0
 .bss           0x0000000000000000        0x0 build/samd21IOT_winc1500/production/_ext/1637020121/flexible_flash.o

.bss%z88        0x0000000000000000        0x0
 .bss           0x0000000000000000        0x0 build/samd21IOT_winc1500/production/_ext/455027017/inet_addr.o

.bss%z89        0x0000000000000000        0x0
 .bss           0x0000000000000000        0x0 build/samd21IOT_winc1500/production/_ext/455027017/inet_ntop.o

.bss%z90        0x0000000000000000        0x0
 .bss           0x0000000000000000        0x0 build/samd21IOT_winc1500/production/_ext/881504404/nmdrv.o

.bss%z91        0x0000000000000000        0x0
 .bss           0x0000000000000000        0x0 build/samd21IOT_winc1500/production/_ext/881504404/nmbus.o

.bss%z92        0x0000000000000000        0x0
 .bss           0x0000000000000000        0x0 build/samd21IOT_winc1500/production/_ext/881504404/m2m_periph.o

.bss%z93        0x0000000000000000        0x0
 .bss           0x0000000000000000        0x0 build/samd21IOT_winc1500/production/_ext/912793297/nm_common.o

.bss%z94        0x0000000000000000        0x0
 .bss           0x0000000000000000        0x0 build/samd21IOT_winc1500/production/_ext/224737734/wdrv_winc_eint.o

.bss%z95        0x0000000000000000        0x0
 .bss           0x0000000000000000        0x0 build/samd21IOT_winc1500/production/_ext/224737734/wdrv_winc_gpio.o

.bss%z96        0x0000000000000000        0x0
 .bss           0x0000000000000000        0x0 c:/program files/microchip/xc32/v4.60/bin/bin/../../lib/gcc/pic32c/8.3.1/thumb/v6-m/nofp/crti.o

.data%32        0x0000000020001260        0x4
 .data          0x0000000020001260        0x4 c:/program files/microchip/xc32/v4.60/bin/bin/../../lib/gcc/pic32c/8.3.1/thumb/v6-m/nofp/crtbegin.o
                0x0000000020001260                __dso_handle

.data%33        0x0000000020001264        0x4
 .data          0x0000000020001264        0x4 build/samd21IOT_winc1500/production/_ext/881504404/m2m_wifi.o

.data%34        0x0000000020001268        0x4
 .data          0x0000000020001268        0x4 c:/program files/microchip/xc32/v4.60/bin/bin/../../lib/gcc/pic32c/8.3.1/../../../../pic32c/lib/thumb/v6-m/nofp\liblmalloc-musl.a(lite_malloc.o)

.eh_frame%35    0x000000002000126c        0x4
 .eh_frame      0x000000002000126c        0x4 c:/program files/microchip/xc32/v4.60/bin/bin/../../lib/gcc/pic32c/8.3.1/thumb/v6-m/nofp/crtend.o

.data%36        0x0000000020001270        0x2
 .data          0x0000000020001270        0x2 build/samd21IOT_winc1500/production/_ext/881504404/nmbus.o
                0x0000000020001270                egstrNmBusCapabilities

.data%37        0x0000000020001156        0x2
 .data          0x0000000020001156        0x2 build/samd21IOT_winc1500/production/_ext/13306586/sys_time.o

.data%38        0x00000000200011ad        0x2
 .data          0x00000000200011ad        0x2 build/samd21IOT_winc1500/production/_ext/1360937237/winc1500_tcp_server.o

.data%39        0x0000000020000e07        0x1
 .data          0x0000000020000e07        0x1 build/samd21IOT_winc1500/production/_ext/881504404/m2m_ota.o

.data%40        0x0000000020001155        0x1
 .data          0x0000000020001155        0x1 build/samd21IOT_winc1500/production/_ext/881504404/m2m_ssl.o

.data%z97       0x0000000000000000        0x0
 .data          0x0000000000000000        0x0 c:/program files/microchip/xc32/v4.60/bin/bin/../../lib/gcc/pic32c/8.3.1/../../../../pic32c/lib/thumb/v6-m/nofp\libpic32c.a(pic32_data_init_copy.o)

.data%z98       0x0000000000000000        0x0
 .data          0x0000000000000000        0x0 c:/program files/microchip/xc32/v4.60/bin/bin/../../lib/gcc/pic32c/8.3.1/../../../../pic32c/lib/thumb/v6-m/nofp\libpic32c.a(pic32_data_init_clear.o)

.data%z99       0x0000000000000000        0x0
 .data          0x0000000000000000        0x0 c:/program files/microchip/xc32/v4.60/bin/bin/../../lib/gcc/pic32c/8.3.1/thumb/v6-m/nofp/crtn.o

.data%z100      0x0000000000000000        0x0
 .data          0x0000000000000000        0x0 c:/program files/microchip/xc32/v4.60/bin/bin/../../lib/gcc/pic32c/8.3.1/thumb/v6-m/nofp/crtend.o

.data%z101      0x0000000000000000        0x0
 .data          0x0000000000000000        0x0 c:/program files/microchip/xc32/v4.60/bin/bin/../../lib/gcc/pic32c/8.3.1/../../../../pic32c/lib/thumb/v6-m/nofp\libc-size-musl.a(stpcpy.o)

.data%z102      0x0000000000000000        0x0
 .data          0x0000000000000000        0x0 c:/program files/microchip/xc32/v4.60/bin/bin/../../lib/gcc/pic32c/8.3.1/../../../../pic32c/lib/thumb/v6-m/nofp\libc-size-musl.a(strcpy.o)

.data%z103      0x0000000000000000        0x0
 .data          0x0000000000000000        0x0 c:/program files/microchip/xc32/v4.60/bin/bin/../../lib/gcc/pic32c/8.3.1/../../../../pic32c/lib/thumb/v6-m/nofp\libpic32c.a(sbrk.o)

.data%z104      0x0000000000000000        0x0
 .data          0x0000000000000000        0x0 c:/program files/microchip/xc32/v4.60/bin/bin/../../lib/gcc/pic32c/8.3.1/thumb/v6-m/nofp\libgcc.a(_clzsi2.o)

.data%z105      0x0000000000000000        0x0
 .data          0x0000000000000000        0x0 c:/program files/microchip/xc32/v4.60/bin/bin/../../lib/gcc/pic32c/8.3.1/thumb/v6-m/nofp\libgcc.a(_divdi3.o)

.data%z106      0x0000000000000000        0x0
 .data          0x0000000000000000        0x0 c:/program files/microchip/xc32/v4.60/bin/bin/../../lib/gcc/pic32c/8.3.1/thumb/v6-m/nofp\libgcc.a(_clzdi2.o)

.data%z107      0x0000000000000000        0x0
 .data          0x0000000000000000        0x0 c:/program files/microchip/xc32/v4.60/bin/bin/../../lib/gcc/pic32c/8.3.1/thumb/v6-m/nofp\libgcc.a(_ashldi3.o)

.data%z108      0x0000000000000000        0x0
 .data          0x0000000000000000        0x0 c:/program files/microchip/xc32/v4.60/bin/bin/../../lib/gcc/pic32c/8.3.1/thumb/v6-m/nofp\libgcc.a(_lshrdi3.o)

.data%z109      0x0000000000000000        0x0
 .data          0x0000000000000000        0x0 c:/program files/microchip/xc32/v4.60/bin/bin/../../lib/gcc/pic32c/8.3.1/thumb/v6-m/nofp\libgcc.a(bpabi.o)

.data%z110      0x0000000000000000        0x0
 .data          0x0000000000000000        0x0 c:/program files/microchip/xc32/v4.60/bin/bin/../../lib/gcc/pic32c/8.3.1/thumb/v6-m/nofp\libgcc.a(_udivmoddi4.o)

.data%z111      0x0000000000000000        0x0
 .data          0x0000000000000000        0x0 c:/program files/microchip/xc32/v4.60/bin/bin/../../lib/gcc/pic32c/8.3.1/thumb/v6-m/nofp\libgcc.a(_muldi3.o)

.data%z112      0x0000000000000000        0x0
 .data          0x0000000000000000        0x0 c:/program files/microchip/xc32/v4.60/bin/bin/../../lib/gcc/pic32c/8.3.1/thumb/v6-m/nofp\libgcc.a(_aeabi_uldivmod.o)

.data%z113      0x0000000000000000        0x0
 .data          0x0000000000000000        0x0 c:/program files/microchip/xc32/v4.60/bin/bin/../../lib/gcc/pic32c/8.3.1/thumb/v6-m/nofp\libgcc.a(_aeabi_ldivmod.o)

.data%z114      0x0000000000000000        0x0
 .data          0x0000000000000000        0x0 c:/program files/microchip/xc32/v4.60/bin/bin/../../lib/gcc/pic32c/8.3.1/thumb/v6-m/nofp\libgcc.a(_dvmd_tls.o)

.data%z115      0x0000000000000000        0x0
 .data          0x0000000000000000        0x0 c:/program files/microchip/xc32/v4.60/bin/bin/../../lib/gcc/pic32c/8.3.1/thumb/v6-m/nofp\libgcc.a(_divsi3.o)

.data%z116      0x0000000000000000        0x0
 .data          0x0000000000000000        0x0 c:/program files/microchip/xc32/v4.60/bin/bin/../../lib/gcc/pic32c/8.3.1/thumb/v6-m/nofp\libgcc.a(_udivsi3.o)

.data%z117      0x0000000000000000        0x0
 .data          0x0000000000000000        0x0 c:/program files/microchip/xc32/v4.60/bin/bin/../../lib/gcc/pic32c/8.3.1/../../../../pic32c/lib/thumb/v6-m/nofp\libc-musl.a(__cvt_u.o)

.data%z118      0x0000000000000000        0x0
 .data          0x0000000000000000        0x0 c:/program files/microchip/xc32/v4.60/bin/bin/../../lib/gcc/pic32c/8.3.1/../../../../pic32c/lib/thumb/v6-m/nofp\libc-musl.a(toupper.o)

.data%z119      0x0000000000000000        0x0
 .data          0x0000000000000000        0x0 c:/program files/microchip/xc32/v4.60/bin/bin/../../lib/gcc/pic32c/8.3.1/../../../../pic32c/lib/thumb/v6-m/nofp\libc-musl.a(__fmt_x.o)

.data%z120      0x0000000000000000        0x0
 .data          0x0000000000000000        0x0 c:/program files/microchip/xc32/v4.60/bin/bin/../../lib/gcc/pic32c/8.3.1/../../../../pic32c/lib/thumb/v6-m/nofp\libc-musl.a(__fmt_u.o)

.data%z121      0x0000000000000000        0x0
 .data          0x0000000000000000        0x0 c:/program files/microchip/xc32/v4.60/bin/bin/../../lib/gcc/pic32c/8.3.1/../../../../pic32c/lib/thumb/v6-m/nofp\libc-musl.a(__fmt_s.o)

.data%z122      0x0000000000000000        0x0
 .data          0x0000000000000000        0x0 c:/program files/microchip/xc32/v4.60/bin/bin/../../lib/gcc/pic32c/8.3.1/../../../../pic32c/lib/thumb/v6-m/nofp\libc-musl.a(__fmt_o.o)

.data%z123      0x0000000000000000        0x0
 .data          0x0000000000000000        0x0 c:/program files/microchip/xc32/v4.60/bin/bin/../../lib/gcc/pic32c/8.3.1/../../../../pic32c/lib/thumb/v6-m/nofp\libc-musl.a(__fmt_fp.o)

.data%z124      0x0000000000000000        0x0
 .data          0x0000000000000000        0x0 c:/program files/microchip/xc32/v4.60/bin/bin/../../lib/gcc/pic32c/8.3.1/../../../../pic32c/lib/thumb/v6-m/nofp\libc-musl.a(__fmt_d.o)

.data%z125      0x0000000000000000        0x0
 .data          0x0000000000000000        0x0 c:/program files/microchip/xc32/v4.60/bin/bin/../../lib/gcc/pic32c/8.3.1/../../../../pic32c/lib/thumb/v6-m/nofp\libc-musl.a(__fmt_a.o)

.data%z126      0x0000000000000000        0x0
 .data          0x0000000000000000        0x0 c:/program files/microchip/xc32/v4.60/bin/bin/../../lib/gcc/pic32c/8.3.1/../../../../pic32c/lib/thumb/v6-m/nofp\libc-musl.a(tolower.o)

.data%z127      0x0000000000000000        0x0
 .data          0x0000000000000000        0x0 c:/program files/microchip/xc32/v4.60/bin/bin/../../lib/gcc/pic32c/8.3.1/../../../../pic32c/lib/thumb/v6-m/nofp\libc-musl.a(__month_to_secs.o)

.data%z128      0x0000000000000000        0x0
 .data          0x0000000000000000        0x0 c:/program files/microchip/xc32/v4.60/bin/bin/../../lib/gcc/pic32c/8.3.1/../../../../pic32c/lib/thumb/v6-m/nofp\libc-musl.a(atoi.o)

.data%z129      0x0000000000000000        0x0
 .data          0x0000000000000000        0x0 c:/program files/microchip/xc32/v4.60/bin/bin/../../lib/gcc/pic32c/8.3.1/../../../../pic32c/lib/thumb/v6-m/nofp\libc-musl.a(__printf_core.o)

.data%z130      0x0000000000000000        0x0
 .data          0x0000000000000000        0x0 c:/program files/microchip/xc32/v4.60/bin/bin/../../lib/gcc/pic32c/8.3.1/../../../../pic32c/lib/thumb/v6-m/nofp\libc-musl.a(__pop_ptr.o)

.data%z131      0x0000000000000000        0x0
 .data          0x0000000000000000        0x0 c:/program files/microchip/xc32/v4.60/bin/bin/../../lib/gcc/pic32c/8.3.1/../../../../pic32c/lib/thumb/v6-m/nofp\libc-musl.a(__pop_int.o)

.data%z132      0x0000000000000000        0x0
 .data          0x0000000000000000        0x0 c:/program files/microchip/xc32/v4.60/bin/bin/../../lib/gcc/pic32c/8.3.1/../../../../pic32c/lib/thumb/v6-m/nofp\libc-musl.a(__pop_float.o)

.data%z133      0x0000000000000000        0x0
 .data          0x0000000000000000        0x0 c:/program files/microchip/xc32/v4.60/bin/bin/../../lib/gcc/pic32c/8.3.1/../../../../pic32c/lib/thumb/v6-m/nofp\libc-musl.a(__io_fmt_needed.o)

.data%z134      0x0000000000000000        0x0
 .data          0x0000000000000000        0x0 c:/program files/microchip/xc32/v4.60/bin/bin/../../lib/gcc/pic32c/8.3.1/../../../../pic32c/lib/thumb/v6-m/nofp\libc-musl.a(__secs_to_tm.o)

.data%z135      0x0000000000000000        0x0
 .data          0x0000000000000000        0x0 c:/program files/microchip/xc32/v4.60/bin/bin/../../lib/gcc/pic32c/8.3.1/../../../../pic32c/lib/thumb/v6-m/nofp\libc-musl.a(__year_to_secs.o)

.data%z136      0x0000000000000000        0x0
 .data          0x0000000000000000        0x0 c:/program files/microchip/xc32/v4.60/bin/bin/../../lib/gcc/pic32c/8.3.1/../../../../pic32c/lib/thumb/v6-m/nofp\libc-musl.a(__tm_to_secs.o)

.data%z137      0x0000000000000000        0x0
 .data          0x0000000000000000        0x0 c:/program files/microchip/xc32/v4.60/bin/bin/../../lib/gcc/pic32c/8.3.1/../../../../pic32c/lib/thumb/v6-m/nofp\libc-musl.a(vfprintf.o)

.data%z138      0x0000000000000000        0x0
 .data          0x0000000000000000        0x0 c:/program files/microchip/xc32/v4.60/bin/bin/../../lib/gcc/pic32c/8.3.1/../../../../pic32c/lib/thumb/v6-m/nofp\libc-musl.a(__environ.o)

.data%z139      0x0000000000000000        0x0
 .data          0x0000000000000000        0x0 c:/program files/microchip/xc32/v4.60/bin/bin/../../lib/gcc/pic32c/8.3.1/../../../../pic32c/lib/thumb/v6-m/nofp\libc-musl.a(mktime.o)

.data%z140      0x0000000000000000        0x0
 .data          0x0000000000000000        0x0 c:/program files/microchip/xc32/v4.60/bin/bin/../../lib/gcc/pic32c/8.3.1/../../../../pic32c/lib/thumb/v6-m/nofp\libc-musl.a(gmtime_r.o)

.data%z141      0x0000000000000000        0x0
 .data          0x0000000000000000        0x0 c:/program files/microchip/xc32/v4.60/bin/bin/../../lib/gcc/pic32c/8.3.1/../../../../pic32c/lib/thumb/v6-m/nofp\libc-musl.a(gmtime.o)

.data%z142      0x0000000000000000        0x0
 .data          0x0000000000000000        0x0 c:/program files/microchip/xc32/v4.60/bin/bin/../../lib/gcc/pic32c/8.3.1/../../../../pic32c/lib/thumb/v6-m/nofp\libc-musl.a(vsprintf.o)

.data%z143      0x0000000000000000        0x0
 .data          0x0000000000000000        0x0 c:/program files/microchip/xc32/v4.60/bin/bin/../../lib/gcc/pic32c/8.3.1/../../../../pic32c/lib/thumb/v6-m/nofp\libc-musl.a(sprintf.o)

.data%z144      0x0000000000000000        0x0
 .data          0x0000000000000000        0x0 c:/program files/microchip/xc32/v4.60/bin/bin/../../lib/gcc/pic32c/8.3.1/../../../../pic32c/lib/thumb/v6-m/nofp\libc-musl.a(vsnprintf.o)

.data%z145      0x0000000000000000        0x0
 .data          0x0000000000000000        0x0 c:/program files/microchip/xc32/v4.60/bin/bin/../../lib/gcc/pic32c/8.3.1/../../../../pic32c/lib/thumb/v6-m/nofp\libc-musl.a(expand_heap.o)

.data%z146      0x0000000000000000        0x0
 .data          0x0000000000000000        0x0 c:/program files/microchip/xc32/v4.60/bin/bin/../../lib/gcc/pic32c/8.3.1/../../../../pic32c/lib/thumb/v6-m/nofp\libc-musl.a(libc.o)

.data%z147      0x0000000000000000        0x0
 .data          0x0000000000000000        0x0 c:/program files/microchip/xc32/v4.60/bin/bin/../../lib/gcc/pic32c/8.3.1/../../../../pic32c/lib/thumb/v6-m/nofp\libc-musl.a(__errno_location.o)

.data%z148      0x0000000000000000        0x0
 .data          0x0000000000000000        0x0 c:/program files/microchip/xc32/v4.60/bin/bin/../../lib/gcc/pic32c/8.3.1/../../../../pic32c/lib/thumb/v6-m/nofp\libc-musl.a(__libc_start_main.o)

.data%z149      0x0000000000000000        0x0
 .data          0x0000000000000000        0x0 c:/program files/microchip/xc32/v4.60/bin/bin/../../lib/gcc/pic32c/8.3.1/../../../../pic32c/lib/thumb/v6-m/nofp\liblmalloc-musl.a(lite_free.o)

.data%z150      0x0000000000000000        0x0
 .data          0x0000000000000000        0x0 c:/program files/microchip/xc32/v4.60/bin/bin/../../lib/gcc/pic32c/8.3.1/../../../../pic32c/lib/thumb/v6-m/nofp\libc-size-musl.a(memchr.o)

.data%z151      0x0000000000000000        0x0
 .data          0x0000000000000000        0x0 c:/program files/microchip/xc32/v4.60/bin/bin/../../lib/gcc/pic32c/8.3.1/../../../../pic32c/lib/thumb/v6-m/nofp\libc-size-musl.a(strnlen.o)

.data%z152      0x0000000000000000        0x0
 .data          0x0000000000000000        0x0 c:/program files/microchip/xc32/v4.60/bin/bin/../../lib/gcc/pic32c/8.3.1/../../../../pic32c/lib/thumb/v6-m/nofp\libc-size-musl.a(strchrnul.o)

.data%z153      0x0000000000000000        0x0
 .data          0x0000000000000000        0x0 c:/program files/microchip/xc32/v4.60/bin/bin/../../lib/gcc/pic32c/8.3.1/../../../../pic32c/lib/thumb/v6-m/nofp\libc-size-musl.a(strchr.o)

.data%z154      0x0000000000000000        0x0
 .data          0x0000000000000000        0x0 c:/program files/microchip/xc32/v4.60/bin/bin/../../lib/gcc/pic32c/8.3.1/../../../../pic32c/lib/thumb/v6-m/nofp\libc-size-musl.a(strlen.o)

.data%z155      0x0000000000000000        0x0
 .data          0x0000000000000000        0x0 c:/program files/microchip/xc32/v4.60/bin/bin/../../lib/gcc/pic32c/8.3.1/../../../../pic32c/lib/thumb/v6-m/nofp\libc-size-musl.a(memset.o)

.data%z156      0x0000000000000000        0x0
 .data          0x0000000000000000        0x0 c:/program files/microchip/xc32/v4.60/bin/bin/../../lib/gcc/pic32c/8.3.1/../../../../pic32c/lib/thumb/v6-m/nofp\libc-size-musl.a(memcpy.o)

.data%z157      0x0000000000000000        0x0
 .data          0x0000000000000000        0x0 c:/program files/microchip/xc32/v4.60/bin/bin/../../lib/gcc/pic32c/8.3.1/../../../../pic32c/lib/thumb/v6-m/nofp\libpic32c.a(data_init.o)

.data%z158      0x0000000000000000        0x0
 .data          0x0000000000000000        0x0 build/samd21IOT_winc1500/production/_ext/1360937237/app.o

.data%z159      0x0000000000000000        0x0
 .data          0x0000000000000000        0x0 build/samd21IOT_winc1500/production/_ext/1360937237/main.o

.data%z160      0x0000000000000000        0x0
 .data          0x0000000000000000        0x0 build/samd21IOT_winc1500/production/_ext/2058341299/exceptions.o

.data%z161      0x0000000000000000        0x0
 .data          0x0000000000000000        0x0 build/samd21IOT_winc1500/production/_ext/2058341299/libc_syscalls.o

.data%z162      0x0000000000000000        0x0
 .data          0x0000000000000000        0x0 build/samd21IOT_winc1500/production/_ext/2058341299/startup_xc32.o

.data%z163      0x0000000000000000        0x0
 .data          0x0000000000000000        0x0 build/samd21IOT_winc1500/production/_ext/2058341299/initialization.o

.data%z164      0x0000000000000000        0x0
 .data          0x0000000000000000        0x0 build/samd21IOT_winc1500/production/_ext/2058341299/interrupts.o

.data%z165      0x0000000000000000        0x0
 .data          0x0000000000000000        0x0 build/samd21IOT_winc1500/production/_ext/2058341299/tasks.o

.data%z166      0x0000000000000000        0x0
 .data          0x0000000000000000        0x0 build/samd21IOT_winc1500/production/_ext/55136832/sys_int.o

.data%z167      0x0000000000000000        0x0
 .data          0x0000000000000000        0x0 build/samd21IOT_winc1500/production/_ext/226979060/sys_dma.o

.data%z168      0x0000000000000000        0x0
 .data          0x0000000000000000        0x0 build/samd21IOT_winc1500/production/_ext/604157148/sys_debug.o

.data%z169      0x0000000000000000        0x0
 .data          0x0000000000000000        0x0 build/samd21IOT_winc1500/production/_ext/106321624/sys_console_uart.o

.data%z170      0x0000000000000000        0x0
 .data          0x0000000000000000        0x0 build/samd21IOT_winc1500/production/_ext/106321624/sys_console.o

.data%z171      0x0000000000000000        0x0
 .data          0x0000000000000000        0x0 build/samd21IOT_winc1500/production/_ext/1613073709/xc32_monitor.o

.data%z172      0x0000000000000000        0x0
 .data          0x0000000000000000        0x0 build/samd21IOT_winc1500/production/_ext/2138746234/plib_tc3.o

.data%z173      0x0000000000000000        0x0
 .data          0x0000000000000000        0x0 build/samd21IOT_winc1500/production/_ext/1207737362/plib_sercom5_usart.o

.data%z174      0x0000000000000000        0x0
 .data          0x0000000000000000        0x0 build/samd21IOT_winc1500/production/_ext/34491124/plib_sercom2_spi_master.o

.data%z175      0x0000000000000000        0x0
 .data          0x0000000000000000        0x0 build/samd21IOT_winc1500/production/_ext/1954099928/plib_port.o

.data%z176      0x0000000000000000        0x0
 .data          0x0000000000000000        0x0 build/samd21IOT_winc1500/production/_ext/975387175/plib_nvmctrl.o

.data%z177      0x0000000000000000        0x0
 .data          0x0000000000000000        0x0 build/samd21IOT_winc1500/production/_ext/1954046777/plib_nvic.o

.data%z178      0x0000000000000000        0x0
 .data          0x0000000000000000        0x0 build/samd21IOT_winc1500/production/_ext/437606661/plib_evsys.o

.data%z179      0x0000000000000000        0x0
 .data          0x0000000000000000        0x0 build/samd21IOT_winc1500/production/_ext/1876637944/plib_eic.o

.data%z180      0x0000000000000000        0x0
 .data          0x0000000000000000        0x0 build/samd21IOT_winc1500/production/_ext/1953739970/plib_dmac.o

.data%z181      0x0000000000000000        0x0
 .data          0x0000000000000000        0x0 build/samd21IOT_winc1500/production/_ext/435457175/plib_clock.o

.data%z182      0x0000000000000000        0x0
 .data          0x0000000000000000        0x0 build/samd21IOT_winc1500/production/_ext/1235514674/wdrv_winc_assoc.o

.data%z183      0x0000000000000000        0x0
 .data          0x0000000000000000        0x0 build/samd21IOT_winc1500/production/_ext/1235514674/wdrv_winc_softap.o

.data%z184      0x0000000000000000        0x0
 .data          0x0000000000000000        0x0 build/samd21IOT_winc1500/production/_ext/1235514674/wdrv_winc_enterprise.o

.data%z185      0x0000000000000000        0x0
 .data          0x0000000000000000        0x0 build/samd21IOT_winc1500/production/_ext/1235514674/wdrv_winc_wps.o

.data%z186      0x0000000000000000        0x0
 .data          0x0000000000000000        0x0 build/samd21IOT_winc1500/production/_ext/1235514674/wdrv_winc_systime.o

.data%z187      0x0000000000000000        0x0
 .data          0x0000000000000000        0x0 build/samd21IOT_winc1500/production/_ext/1235514674/wdrv_winc_ssl.o

.data%z188      0x0000000000000000        0x0
 .data          0x0000000000000000        0x0 build/samd21IOT_winc1500/production/_ext/1235514674/wdrv_winc_sta.o

.data%z189      0x0000000000000000        0x0
 .data          0x0000000000000000        0x0 build/samd21IOT_winc1500/production/_ext/1235514674/wdrv_winc_nvm.o

.data%z190      0x0000000000000000        0x0
 .data          0x0000000000000000        0x0 build/samd21IOT_winc1500/production/_ext/1235514674/wdrv_winc_socket.o

.data%z191      0x0000000000000000        0x0
 .data          0x0000000000000000        0x0 build/samd21IOT_winc1500/production/_ext/1235514674/wdrv_winc_bssfind.o

.data%z192      0x0000000000000000        0x0
 .data          0x0000000000000000        0x0 build/samd21IOT_winc1500/production/_ext/1235514674/wdrv_winc_authctx.o

.data%z193      0x0000000000000000        0x0
 .data          0x0000000000000000        0x0 build/samd21IOT_winc1500/production/_ext/1235514674/wdrv_winc_powersave.o

.data%z194      0x0000000000000000        0x0
 .data          0x0000000000000000        0x0 build/samd21IOT_winc1500/production/_ext/1235514674/wdrv_winc_bssctx.o

.data%z195      0x0000000000000000        0x0
 .data          0x0000000000000000        0x0 build/samd21IOT_winc1500/production/_ext/1235514674/wdrv_winc_custie.o

.data%z196      0x0000000000000000        0x0
 .data          0x0000000000000000        0x0 build/samd21IOT_winc1500/production/_ext/1235514674/wdrv_winc_httpprovctx.o

.data%z197      0x0000000000000000        0x0
 .data          0x0000000000000000        0x0 build/samd21IOT_winc1500/production/_ext/1235514674/wdrv_winc_host_file.o

.data%z198      0x0000000000000000        0x0
 .data          0x0000000000000000        0x0 build/samd21IOT_winc1500/production/_ext/1235514674/wdrv_winc.o

.data%z199      0x0000000000000000        0x0
 .data          0x0000000000000000        0x0 build/samd21IOT_winc1500/production/_ext/469334988/wdrv_winc_osal.o

.data%z200      0x0000000000000000        0x0
 .data          0x0000000000000000        0x0 build/samd21IOT_winc1500/production/_ext/1637020121/spi_flash.o

.data%z201      0x0000000000000000        0x0
 .data          0x0000000000000000        0x0 build/samd21IOT_winc1500/production/_ext/1637020121/flexible_flash.o

.data%z202      0x0000000000000000        0x0
 .data          0x0000000000000000        0x0 build/samd21IOT_winc1500/production/_ext/455027017/socket.o

.data%z203      0x0000000000000000        0x0
 .data          0x0000000000000000        0x0 build/samd21IOT_winc1500/production/_ext/455027017/inet_addr.o

.data%z204      0x0000000000000000        0x0
 .data          0x0000000000000000        0x0 build/samd21IOT_winc1500/production/_ext/455027017/inet_ntop.o

.data%z205      0x0000000000000000        0x0
 .data          0x0000000000000000        0x0 build/samd21IOT_winc1500/production/_ext/881504404/nmasic.o

.data%z206      0x0000000000000000        0x0
 .data          0x0000000000000000        0x0 build/samd21IOT_winc1500/production/_ext/881504404/nmdrv.o

.data%z207      0x0000000000000000        0x0
 .data          0x0000000000000000        0x0 build/samd21IOT_winc1500/production/_ext/881504404/nmspi.o

.data%z208      0x0000000000000000        0x0
 .data          0x0000000000000000        0x0 build/samd21IOT_winc1500/production/_ext/881504404/m2m_periph.o

.data%z209      0x0000000000000000        0x0
 .data          0x0000000000000000        0x0 build/samd21IOT_winc1500/production/_ext/881504404/m2m_hif.o

.data%z210      0x0000000000000000        0x0
 .data          0x0000000000000000        0x0 build/samd21IOT_winc1500/production/_ext/912793297/nm_common.o

.data%z211      0x0000000000000000        0x0
 .data          0x0000000000000000        0x0 build/samd21IOT_winc1500/production/_ext/284355797/wdrv_winc_spi.o

.data%z212      0x0000000000000000        0x0
 .data          0x0000000000000000        0x0 build/samd21IOT_winc1500/production/_ext/224737734/wdrv_winc_eint.o

.data%z213      0x0000000000000000        0x0
 .data          0x0000000000000000        0x0 build/samd21IOT_winc1500/production/_ext/224737734/wdrv_winc_gpio.o

.data%z214      0x0000000000000000        0x0
 .data          0x0000000000000000        0x0 build/samd21IOT_winc1500/production/_ext/287230454/drv_spi.o

.eh_frame%z215  0x0000000000000000        0x0
 .eh_frame      0x0000000000000000        0x0 c:/program files/microchip/xc32/v4.60/bin/bin/../../lib/gcc/pic32c/8.3.1/thumb/v6-m/nofp/crtbegin.o

.data%z216      0x0000000000000000        0x0
 .data          0x0000000000000000        0x0 c:/program files/microchip/xc32/v4.60/bin/bin/../../lib/gcc/pic32c/8.3.1/thumb/v6-m/nofp/crti.o

.text%41        0x00000000000000e0     0x1910
 .text          0x00000000000000e0     0x1910 build/samd21IOT_winc1500/production/_ext/881504404/m2m_wifi.o
                0x000000000000062c                m2m_wifi_download_mode
                0x000000000000064c                m2m_wifi_send_crl
                0x000000000000066c                m2m_wifi_init_hold
                0x0000000000000684                m2m_wifi_init_start
                0x00000000000007ec                m2m_wifi_init
                0x0000000000000802                m2m_wifi_deinit
                0x0000000000000820                m2m_wifi_handle_events
                0x0000000000000828                m2m_wifi_delete_sc
                0x0000000000000854                m2m_wifi_default_connect
                0x000000000000086e                m2m_wifi_connect_open
                0x000000000000089e                m2m_wifi_connect_wep
                0x00000000000008a4                m2m_wifi_connect_psk
                0x00000000000009b8                m2m_wifi_1x_set_option
                0x0000000000000af4                m2m_wifi_1x_get_option
                0x0000000000000bc0                m2m_wifi_connect_1x_mschap2
                0x0000000000000cf4                m2m_wifi_connect_1x_tls
                0x0000000000000eb4                m2m_wifi_connect_sc
                0x0000000000000f9c                m2m_wifi_connect
                0x0000000000000fb2                m2m_wifi_disconnect
                0x0000000000000fcc                m2m_wifi_set_mac_address
                0x0000000000000ff2                m2m_wifi_set_static_ip
                0x000000000000100e                m2m_wifi_enable_dhcp
                0x000000000000102c                m2m_wifi_set_lsn_int
                0x0000000000001048                m2m_wifi_set_cust_InfoElement
                0x000000000000107a                m2m_wifi_set_scan_options
                0x0000000000001140                m2m_wifi_set_stop_scan_on_first
                0x000000000000119c                m2m_wifi_set_scan_region
                0x00000000000011ba                m2m_wifi_request_scan
                0x0000000000001204                m2m_wifi_request_scan_passive
                0x0000000000001250                m2m_wifi_request_scan_ssid_list
                0x00000000000012d8                m2m_wifi_wps
                0x0000000000001310                m2m_wifi_wps_disable
                0x000000000000132a                m2m_wifi_req_client_ctrl
                0x0000000000001348                m2m_wifi_req_server_init
                0x0000000000001368                m2m_wifi_p2p
                0x00000000000013b8                m2m_wifi_p2p_disconnect
                0x00000000000013d2                m2m_wifi_enable_ap_ext
                0x0000000000001400                m2m_wifi_enable_ap
                0x0000000000001438                m2m_wifi_set_gains
                0x000000000000145e                m2m_wifi_disable_ap
                0x0000000000001478                m2m_wifi_req_curr_rssi
                0x0000000000001492                m2m_wifi_send_ethernet_pkt
                0x00000000000014c8                m2m_wifi_get_otp_mac_address
                0x00000000000014ea                m2m_wifi_get_mac_address
                0x0000000000001508                m2m_wifi_req_scan_result
                0x0000000000001526                m2m_wifi_get_num_ap_found
                0x0000000000001534                m2m_wifi_get_sleep_mode
                0x000000000000153c                m2m_wifi_set_sleep_mode
                0x0000000000001584                m2m_wifi_request_sleep
                0x00000000000015b2                m2m_wifi_set_device_name
                0x00000000000015e2                m2m_wifi_configure_sntp
                0x000000000000161e                m2m_wifi_get_chipId
                0x0000000000001626                m2m_wifi_get_firmware_version
                0x0000000000001644                m2m_wifi_start_provision_mode_ext
                0x00000000000016d4                m2m_wifi_start_provision_mode
                0x0000000000001714                m2m_wifi_stop_provision_mode
                0x000000000000172e                m2m_wifi_get_connection_info
                0x0000000000001748                m2m_wifi_set_system_time
                0x0000000000001766                m2m_wifi_get_system_time
                0x0000000000001780                m2m_wifi_enable_sntp
                0x000000000000179e                m2m_wifi_set_power_profile
                0x00000000000017bc                m2m_wifi_set_tx_power
                0x00000000000017da                m2m_wifi_set_gain_table_idx
                0x00000000000017f8                m2m_wifi_enable_firmware_logs
                0x0000000000001816                m2m_wifi_set_battery_voltage
                0x0000000000001836                m2m_wifi_prng_get_random_bytes
                0x0000000000001890                m2m_wifi_conf_auto_rate
                0x00000000000018ac                m2m_wifi_enable_mac_mcast
                0x000000000000190c                m2m_wifi_set_receive_buffer
                0x0000000000001944                m2m_wifi_reinit_hold
                0x0000000000001952                m2m_wifi_reinit
                0x0000000000001968                m2m_wifi_reinit_start
                0x0000000000001970                m2m_wifi_get_state
                0x000000000000197c                m2m_wifi_enable_roaming
                0x00000000000019aa                m2m_wifi_disable_roaming
                0x00000000000019c8                m2m_wifi_enable_XO_during_sleep

.text%42        0x00000000000019f0      0xf54
 .text          0x00000000000019f0      0xf54 build/samd21IOT_winc1500/production/_ext/1235514674/wdrv_winc.o
                0x0000000000002148                WDRV_WINC_Initialize
                0x000000000000219c                WDRV_WINC_Deinitialize
                0x00000000000021ec                WDRV_WINC_Reinitialize
                0x00000000000021ee                WDRV_WINC_Status
                0x000000000000220a                WDRV_WINC_StatusExt
                0x0000000000002232                WDRV_WINC_Tasks
                0x00000000000024e8                WDRV_WINC_Open
                0x0000000000002634                WDRV_WINC_Close
                0x0000000000002658                WDRV_WINC_MulticastMACFilterAdd
                0x000000000000267e                WDRV_WINC_MulticastMACFilterRemove
                0x00000000000026a4                WDRV_WINC_EthernetAddressGet
                0x00000000000026d2                WDRV_WINC_OperatingModeGet
                0x00000000000026fa                WDRV_WINC_UserHandleSet
                0x000000000000271e                WDRV_WINC_UserHandleGet
                0x0000000000002740                WDRV_WINC_InfoDriverVersionGet
                0x0000000000002778                WDRV_WINC_InfoDeviceFirmwareVersionGet
                0x00000000000027f8                WDRV_WINC_InfoDeviceIDGet
                0x0000000000002812                WDRV_WINC_InfoDeviceMACAddressGet
                0x0000000000002862                WDRV_WINC_InfoDeviceNameSet
                0x000000000000289a                WDRV_WINC_GainTableIndexSet
                0x00000000000028be                WDRV_WINC_AutoRateSelectTransmitRate
                0x000000000000292c                WDRV_WINC_ISR

.text%43        0x0000000000002944      0xf4c
 .text          0x0000000000002944      0xf4c build/samd21IOT_winc1500/production/_ext/455027017/socket.o
                0x0000000000002de8                socketInit
                0x0000000000002e20                socketDeinit
                0x0000000000002e48                registerSocketCallback
                0x0000000000002e54                registerSocketEventCallback
                0x0000000000002e60                registerSocketResolveCallback
                0x0000000000002e6c                socket
                0x0000000000002ff0                bind
                0x0000000000003078                listen
                0x00000000000030cc                accept
                0x00000000000030f4                connect
                0x0000000000003180                secure
                0x0000000000003218                send
                0x00000000000032bc                sendto
                0x000000000000335c                recv
                0x0000000000003404                shutdown
                0x0000000000003494                recvfrom
                0x0000000000003534                gethostbyname
                0x0000000000003562                setsockopt
                0x00000000000036f8                getsockopt
                0x00000000000036fe                m2m_ping_req
                0x0000000000003748                set_alpn_list
                0x00000000000037ec                get_alpn_index
                0x0000000000003828                sslEnableCertExpirationCheck
                0x0000000000003846                IsSocketReady
                0x0000000000003854                get_error_detail

.text%44        0x0000000000003890      0xe34
 .text          0x0000000000003890      0xe34 build/samd21IOT_winc1500/production/_ext/287230454/drv_spi.o
                0x0000000000003f64                DRV_SPI_Initialize
                0x0000000000004048                DRV_SPI_Status
                0x0000000000004078                DRV_SPI_Open
                0x00000000000041b0                DRV_SPI_Close
                0x00000000000042c4                DRV_SPI_TransferEventHandlerSet
                0x0000000000004328                DRV_SPI_TransferSetup
                0x0000000000004356                DRV_SPI_WriteReadTransferAdd
                0x0000000000004564                DRV_SPI_WriteTransferAdd
                0x0000000000004576                DRV_SPI_ReadTransferAdd
                0x000000000000458c                DRV_SPI_TransferStatusGet
                0x0000000000004604                DRV_SPI_Lock

.text%45        0x00000000000046c4      0xab0
 .text          0x00000000000046c4      0xab0 build/samd21IOT_winc1500/production/_ext/13306586/sys_time.o
                0x0000000000004ac8                SYS_TIME_Initialize
                0x0000000000004b80                SYS_TIME_Deinitialize
                0x0000000000004bb0                SYS_TIME_Status
                0x0000000000004bc8                SYS_TIME_FrequencyGet
                0x0000000000004bd4                SYS_TIME_Counter64Get
                0x0000000000004c04                SYS_TIME_CounterGet
                0x0000000000004c0c                SYS_TIME_CounterSet
                0x0000000000004c28                SYS_TIME_CountToUS
                0x0000000000004c64                SYS_TIME_CountToMS
                0x0000000000004c84                SYS_TIME_USToCount
                0x0000000000004ca8                SYS_TIME_MSToCount
                0x0000000000004cc8                SYS_TIME_TimerCreate
                0x0000000000004ce8                SYS_TIME_TimerReload
                0x0000000000004d84                SYS_TIME_TimerDestroy
                0x0000000000004eac                SYS_TIME_TimerStart
                0x0000000000004f0c                SYS_TIME_TimerStop
                0x0000000000004f4c                SYS_TIME_TimerCounterGet
                0x0000000000004fd4                SYS_TIME_TimerPeriodHasExpired
                0x0000000000004ffe                SYS_TIME_DelayUS
                0x0000000000005054                SYS_TIME_DelayMS
                0x00000000000050a8                SYS_TIME_DelayIsComplete
                0x00000000000050c0                SYS_TIME_CallbackRegisterUS
                0x000000000000511c                SYS_TIME_CallbackRegisterMS

.text%46        0x0000000000005174      0xa38
 .text          0x0000000000005174      0xa38 build/samd21IOT_winc1500/production/_ext/881504404/nmspi.o
                0x000000000000550e                nm_spi_reset
                0x0000000000005548                nm_spi_lock_init
                0x0000000000005554                nm_spi_deinit
                0x0000000000005564                nm_spi_read_reg_with_ret
                0x000000000000566c                nm_spi_read_reg
                0x0000000000005680                nm_spi_write_reg
                0x000000000000575c                nm_spi_init
                0x0000000000005878                nm_spi_read_block
                0x000000000000597c                nm_spi_write_block

.text%47        0x0000000000005bac      0x890
 .text          0x0000000000005bac      0x890 build/samd21IOT_winc1500/production/_ext/881504404/nmasic.o
                0x0000000000005bac                chip_apply_conf
                0x0000000000005bdc                chip_idle
                0x0000000000005c04                enable_interrupts
                0x0000000000005c58                cpu_start
                0x0000000000005d04                nmi_get_chipid
                0x0000000000005dd0                nmi_get_rfrevid
                0x0000000000005df0                restore_pmu_settings_after_global_reset
                0x0000000000005e18                nmi_update_pll
                0x0000000000005e40                nmi_set_sys_clk_src_to_xo
                0x0000000000005e60                chip_sleep
                0x0000000000005ebc                chip_wake
                0x0000000000005f50                cpu_halt
                0x0000000000005fbc                chip_reset
                0x0000000000005fd4                wait_for_bootrom
                0x00000000000060fc                wait_for_firmware_start
                0x00000000000061c4                chip_deinit
                0x0000000000006224                set_gpio_dir
                0x0000000000006260                set_gpio_val
                0x000000000000629c                get_gpio_val
                0x00000000000062c4                pullup_ctrl
                0x000000000000632c                nmi_get_otp_mac_address
                0x00000000000063e0                nmi_get_mac_address

.text%48        0x000000000000643c      0x850
 .text          0x000000000000643c      0x850 build/samd21IOT_winc1500/production/_ext/881504404/m2m_hif.o
                0x0000000000006470                hif_chip_wake
                0x00000000000064ac                hif_set_sleep_mode
                0x00000000000064b8                hif_get_sleep_mode
                0x00000000000064c4                hif_chip_sleep_sc
                0x00000000000064e0                hif_chip_sleep
                0x0000000000006514                hif_deinit
                0x0000000000006530                hif_send
                0x00000000000067bc                hif_handle_isr
                0x0000000000006b1c                hif_receive
                0x0000000000006be8                hif_register_cb
                0x0000000000006c5c                hif_init

.text%49        0x0000000000006c8c      0x74c
 .text          0x0000000000006c8c      0x74c build/samd21IOT_winc1500/production/_ext/1637020121/spi_flash.o
                0x0000000000006f70                spi_flash_enable
                0x0000000000007054                spi_flash_read
                0x00000000000070e8                spi_flash_write
                0x000000000000718c                spi_flash_erase
                0x00000000000072d0                spi_flash_get_size

.text%50        0x00000000000073d8      0x6f8
 .text          0x00000000000073d8      0x6f8 build/samd21IOT_winc1500/production/_ext/1207737362/plib_sercom5_usart.o
                0x00000000000073f4                SERCOM5_USART_Initialize
                0x0000000000007480                SERCOM5_USART_FrequencyGet
                0x0000000000007488                SERCOM5_USART_SerialSetup
                0x00000000000075a4                SERCOM5_USART_Enable
                0x00000000000075c4                SERCOM5_USART_Disable
                0x00000000000075e4                SERCOM5_USART_ErrorGet
                0x00000000000075f4                SERCOM5_USART_Read
                0x0000000000007688                SERCOM5_USART_ReadCountGet
                0x00000000000076a4                SERCOM5_USART_ReadFreeBufferCountGet
                0x00000000000076b8                SERCOM5_USART_ReadBufferSizeGet
                0x00000000000076c4                SERCOM5_USART_ReadNotificationEnable
                0x00000000000076dc                SERCOM5_USART_ReadThresholdSet
                0x00000000000076ec                SERCOM5_USART_ReadCallbackRegister
                0x00000000000076f8                SERCOM5_USART_TransmitComplete
                0x0000000000007708                SERCOM5_USART_WriteCountGet
                0x0000000000007710                SERCOM5_USART_Write
                0x0000000000007814                SERCOM5_USART_WriteFreeBufferCountGet
                0x0000000000007828                SERCOM5_USART_WriteBufferSizeGet
                0x0000000000007834                SERCOM5_USART_WriteNotificationEnable
                0x0000000000007848                SERCOM5_USART_WriteThresholdSet
                0x0000000000007858                SERCOM5_USART_WriteCallbackRegister
                0x0000000000007a7c                SERCOM5_USART_InterruptHandler

.rodata.str1.4%51
                0x0000000000007ad0      0x664
 .rodata.str1.4
                0x0000000000007ad0      0x664 build/samd21IOT_winc1500/production/_ext/881504404/nmspi.o

.text%52        0x0000000000008134      0x654
 .text          0x0000000000008134      0x654 build/samd21IOT_winc1500/production/_ext/881504404/m2m_ota.o
                0x00000000000082c4                m2m_ota_host_file_get_id
                0x00000000000082d0                m2m_ota_init
                0x0000000000008304                m2m_ota_notif_set_url
                0x0000000000008328                m2m_ota_notif_check_for_update
                0x0000000000008342                m2m_ota_notif_sched
                0x000000000000835c                m2m_ota_start_update
                0x00000000000083ec                m2m_ota_rollback
                0x0000000000008406                m2m_ota_abort
                0x0000000000008420                m2m_ota_switch_firmware
                0x000000000000843a                m2m_ota_get_firmware_version
                0x0000000000008458                m2m_ota_host_file_get
                0x00000000000084f0                m2m_ota_host_file_read_hif
                0x0000000000008548                m2m_ota_host_file_read_spi
                0x000000000000862c                m2m_ota_host_file_erase
                0x0000000000008674                m2m_ota_set_ssl_option
                0x0000000000008708                m2m_ota_get_ssl_option

.text%53        0x0000000000008788      0x5d0
 .text          0x0000000000008788      0x5d0 build/samd21IOT_winc1500/production/_ext/881504404/m2m_ssl.o
                0x00000000000088b4                m2m_ssl_init
                0x00000000000088fc                m2m_ssl_handshake_rsp
                0x0000000000008916                m2m_ssl_send_certs_to_winc
                0x0000000000008a70                m2m_ssl_retrieve_next_for_verifying
                0x0000000000008c78                m2m_ssl_retrieve_cert
                0x0000000000008c9a                m2m_ssl_retrieve_hash
                0x0000000000008cf8                m2m_ssl_stop_retrieving
                0x0000000000008d24                m2m_ssl_stop_processing_certs
                0x0000000000008d2c                m2m_ssl_ecc_process_done
                0x0000000000008d38                m2m_ssl_set_active_ciphersuites

.text.__fmt_fp%54
                0x0000000000008d58      0x4c0
 .text.__fmt_fp
                0x0000000000008d58      0x4c0 c:/program files/microchip/xc32/v4.60/bin/bin/../../lib/gcc/pic32c/8.3.1/../../../../pic32c/lib/thumb/v6-m/nofp\libc-musl.a(__fmt_fp.o)
                0x0000000000008d58                __fmt_f_needed
                0x0000000000008d58                __fmt_fp

.text%55        0x0000000000009218      0x484
 .text          0x0000000000009218      0x484 build/samd21IOT_winc1500/production/_ext/1235514674/wdrv_winc_socket.o
                0x000000000000926a                WDRV_WINC_IPAddressSet
                0x00000000000092aa                WDRV_WINC_IPAddressGet
                0x00000000000092da                WDRV_WINC_IPDNSServerAddressSet
                0x0000000000009312                WDRV_WINC_IPDefaultGatewaySet
                0x000000000000934a                WDRV_WINC_IPUseDHCPSet
                0x0000000000009384                WDRV_WINC_IPUseDHCPGet
                0x00000000000093ac                WDRV_WINC_IPDHCPServerConfigure
                0x00000000000093e0                WDRV_WINC_IPLinkActive
                0x00000000000093fa                WDRV_WINC_ICMPEchoRequest
                0x0000000000009448                WDRV_WINC_OTAUpdateFromURL
                0x0000000000009498                WDRV_WINC_OTAUpdateAbort
                0x00000000000094ce                WDRV_WINC_OTASSLServerAuthModeSet
                0x0000000000009514                WDRV_WINC_OTASSLServerAuthModeIsEnabled
                0x0000000000009552                WDRV_WINC_OTASSLSNISet
                0x00000000000095c4                WDRV_WINC_OTASSLSNIIsEnabled
                0x0000000000009602                WDRV_WINC_RollbackActiveFirmwareImage
                0x000000000000963a                WDRV_WINC_SwitchActiveFirmwareImage
                0x0000000000009672                WDRV_WINC_SocketRegisterEventCallback
                0x0000000000009686                WDRV_WINC_SocketRegisterResolverCallback

.text.__fmt_a%56
                0x000000000000969c      0x484
 .text.__fmt_a  0x000000000000969c      0x484 c:/program files/microchip/xc32/v4.60/bin/bin/../../lib/gcc/pic32c/8.3.1/../../../../pic32c/lib/thumb/v6-m/nofp\libc-musl.a(__fmt_a.o)
                0x000000000000969c                __fmt_a_needed
                0x000000000000969c                __fmt_a

.text%57        0x0000000000009b20      0x444
 .text          0x0000000000009b20      0x444 build/samd21IOT_winc1500/production/_ext/1235514674/wdrv_winc_host_file.o
                0x0000000000009b20                WDRV_WINC_HostFileDownload
                0x0000000000009bc4                WDRV_WINC_HostFileRead
                0x0000000000009d18                WDRV_WINC_HostFileErase
                0x0000000000009dc8                WDRV_WINC_HostFileFindByID
                0x0000000000009ecc                WDRV_WINC_HostFileGetSize
                0x0000000000009f0e                WDRV_WINC_HostFileUpdateReadBuffer

.text%58        0x0000000000009f64      0x428
 .text          0x0000000000009f64      0x428 build/samd21IOT_winc1500/production/_ext/1360937237/winc1500_tcp_server.o
                0x000000000000a1f4                APP_ExampleInitialize
                0x000000000000a24c                APP_ExampleTasks

.text%59        0x000000000000a38c      0x40c
 .text          0x000000000000a38c      0x40c build/samd21IOT_winc1500/production/_ext/881504404/nmdrv.o
                0x000000000000a38c                nm_get_firmware_info
                0x000000000000a43c                nm_get_firmware_full_info
                0x000000000000a508                nm_get_ota_firmware_info
                0x000000000000a5d4                nm_drv_init_download_mode
                0x000000000000a644                nm_drv_init_hold
                0x000000000000a6b4                nm_drv_init_start
                0x000000000000a710                nm_drv_init
                0x000000000000a726                nm_drv_deinit

.text%60        0x000000000000a798      0x40c
 .text          0x000000000000a798      0x40c build/samd21IOT_winc1500/production/_ext/34491124/plib_sercom2_spi_master.o
                0x000000000000a798                SERCOM2_SPI_Initialize
                0x000000000000a7d4                SERCOM2_SPI_TransferSetup
                0x000000000000a874                SERCOM2_SPI_CallbackRegister
                0x000000000000a880                SERCOM2_SPI_IsBusy
                0x000000000000a8a8                SERCOM2_SPI_IsTransmitterBusy
                0x000000000000a8bc                SERCOM2_SPI_WriteRead
                0x000000000000aa34                SERCOM2_SPI_Write
                0x000000000000aa40                SERCOM2_SPI_Read
                0x000000000000aa50                SERCOM2_SPI_InterruptHandler

.text%61        0x000000000000aba4      0x3fc
 .text          0x000000000000aba4      0x3fc build/samd21IOT_winc1500/production/_ext/1953739970/plib_dmac.o
                0x000000000000aba4                DMAC_Initialize
                0x000000000000ac18                DMAC_ChannelTransfer
                0x000000000000acd8                DMAC_ChannelIsBusy
                0x000000000000ad0c                DMAC_ChannelTransferStatusGet
                0x000000000000ad34                DMAC_ChannelDisable
                0x000000000000ad70                DMAC_ChannelGetTransferredCount
                0x000000000000ad88                DMAC_ChannelSuspend
                0x000000000000adb0                DMAC_ChannelResume
                0x000000000000add8                DMAC_ChannelCallbackRegister
                0x000000000000ade8                DMAC_ChannelSettingsGet
                0x000000000000adfc                DMAC_ChannelSettingsSet
                0x000000000000ae3c                DMAC_CRCDisable
                0x000000000000ae50                DMAC_ChannelCRCSetup
                0x000000000000ae90                DMAC_CRCRead
                0x000000000000ae9c                DMAC_CRCCalculate
                0x000000000000af24                DMAC_InterruptHandler

.text%62        0x000000000000afa0      0x3ae
 .text          0x000000000000afa0      0x3ae build/samd21IOT_winc1500/production/_ext/1235514674/wdrv_winc_sta.o
                0x000000000000b010                WDRV_WINC_BSSConnect
                0x000000000000b25e                WDRV_WINC_BSSReconnect
                0x000000000000b2b8                WDRV_WINC_BSSDisconnect
                0x000000000000b304                WDRV_WINC_BSSRoamingConfigure

.text%63        0x000000000000b34e      0x392
 .text          0x000000000000b34e      0x392 build/samd21IOT_winc1500/production/_ext/1235514674/wdrv_winc_bssfind.o
                0x000000000000b34e                WDRV_WINC_BSSFindFirst
                0x000000000000b472                WDRV_WINC_BSSFindNext
                0x000000000000b4d6                WDRV_WINC_BSSFindReset
                0x000000000000b52c                WDRV_WINC_BSSFindGetInfo
                0x000000000000b56e                WDRV_WINC_BSSFindSetScanParameters
                0x000000000000b5fa                WDRV_WINC_BSSFindSetRSSIThreshold
                0x000000000000b628                WDRV_WINC_BSSFindSetEnabledChannels
                0x000000000000b656                WDRV_WINC_BSSFindSetScanMatchMode
                0x000000000000b694                WDRV_WINC_BSSFindGetNumBSSResults
                0x000000000000b6c2                WDRV_WINC_BSSFindInProgress

.rodata.str1.4%64
                0x000000000000b6e0      0x37c
 .rodata.str1.4
                0x000000000000b6e0      0x37c build/samd21IOT_winc1500/production/_ext/881504404/m2m_hif.o

.rodata.str1.4%65
                0x000000000000ba5c      0x35c
 .rodata.str1.4
                0x000000000000ba5c      0x35c build/samd21IOT_winc1500/production/_ext/881504404/m2m_wifi.o

.text.__printf_core%66
                0x000000000000bdb8      0x33c
 .text.__printf_core
                0x000000000000bdb8      0x33c c:/program files/microchip/xc32/v4.60/bin/bin/../../lib/gcc/pic32c/8.3.1/../../../../pic32c/lib/thumb/v6-m/nofp\libc-musl.a(__printf_core.o)
                0x000000000000bdb8                __printf_core

.text%67        0x000000000000c0f4      0x32c
 .text          0x000000000000c0f4      0x32c build/samd21IOT_winc1500/production/_ext/1235514674/wdrv_winc_nvm.o
                0x000000000000c264                WDRV_WINC_NVMEraseSector
                0x000000000000c2f8                WDRV_WINC_NVMWrite
                0x000000000000c390                WDRV_WINC_NVMRead

.text%68        0x000000000000c420      0x324
 .text          0x000000000000c420      0x324 build/samd21IOT_winc1500/production/_ext/106321624/sys_console.o
                0x000000000000c420                SYS_CONSOLE_Initialize
                0x000000000000c474                SYS_CONSOLE_Status
                0x000000000000c4d4                SYS_CONSOLE_HandleGet
                0x000000000000c4dc                SYS_CONSOLE_DeviceGet
                0x000000000000c4f8                SYS_CONSOLE_Tasks
                0x000000000000c520                SYS_CONSOLE_Read
                0x000000000000c558                SYS_CONSOLE_ReadFreeBufferCountGet
                0x000000000000c590                SYS_CONSOLE_ReadCountGet
                0x000000000000c5c8                SYS_CONSOLE_Write
                0x000000000000c600                SYS_CONSOLE_WriteFreeBufferCountGet
                0x000000000000c638                SYS_CONSOLE_WriteCountGet
                0x000000000000c670                SYS_CONSOLE_Print
                0x000000000000c6dc                SYS_CONSOLE_Message
                0x000000000000c710                SYS_CONSOLE_Flush

.text%69        0x000000000000c744      0x314
 .text          0x000000000000c744      0x314 build/samd21IOT_winc1500/production/_ext/1235514674/wdrv_winc_ssl.o
                0x000000000000c744                WDRV_WINC_SSLCTXDefault
                0x000000000000c754                WDRV_WINC_SSLCTXCipherSuitesSet
                0x000000000000c7c4                WDRV_WINC_SSLCTXCipherSuitesGet
                0x000000000000c818                WDRV_WINC_SSLActiveCipherSuitesSet
                0x000000000000c852                WDRV_WINC_SSLECCReqCallbackSet
                0x000000000000c878                WDRV_WINC_SSLECCHandShakeRsp
                0x000000000000c99c                WDRV_WINC_SSLRetrieveCert
                0x000000000000ca0e                WDRV_WINC_SSLRetrieveHash
                0x000000000000ca3c                WDRV_WINC_SSLStopRetrieveCert

.text%70        0x000000000000ca58      0x2e4
 .text          0x000000000000ca58      0x2e4 build/samd21IOT_winc1500/production/_ext/1235514674/wdrv_winc_authctx.o
                0x000000000000ca58                WDRV_WINC_AuthCtxIsValid
                0x000000000000ca7a                WDRV_WINC_AuthCtxSetDefaults
                0x000000000000ca8e                WDRV_WINC_AuthCtxSetOneTimeUse
                0x000000000000ca9c                WDRV_WINC_AuthCtxSetOpen
                0x000000000000caac                WDRV_WINC_AuthCtxSetWPA
                0x000000000000caec                WDRV_WINC_AuthCtxSetWPAEnterpriseMSCHAPv2
                0x000000000000cb9e                WDRV_WINC_AuthCtxSetWPAEnterpriseTLS

.rodata.str1.4%71
                0x000000000000cd3c      0x2c4
 .rodata.str1.4
                0x000000000000cd3c      0x2c4 build/samd21IOT_winc1500/production/_ext/1360937237/winc1500_tcp_server.o

.text%72        0x000000000000d000      0x248
 .text          0x000000000000d000      0x248 build/samd21IOT_winc1500/production/_ext/1235514674/wdrv_winc_softap.o
                0x000000000000d000                WDRV_WINC_APStart
                0x000000000000d19e                WDRV_WINC_APStop
                0x000000000000d208                WDRV_WINC_APSetCustIE

.dinit%73       0x000000000000d248      0x200
 .dinit         0x000000000000d248      0x200 data_init

.text%74        0x000000000000d448      0x1de
 .text          0x000000000000d448      0x1de build/samd21IOT_winc1500/production/_ext/1235514674/wdrv_winc_enterprise.o
                0x000000000000d448                WDRV_WINC_EntSec802_1XServerAuthSet
                0x000000000000d47a                WDRV_WINC_EntSec802_1XServerAuthGet
                0x000000000000d4b0                WDRV_WINC_EntSec802_1XRootCertHashSet
                0x000000000000d4e0                WDRV_WINC_EntSec802_1XRootCertHashGet
                0x000000000000d520                WDRV_WINC_EntSec802_1XCertExpCheckSet
                0x000000000000d572                WDRV_WINC_EntSec802_1XCertExpCheckGet
                0x000000000000d5c2                WDRV_WINC_EntSec802_1XSessionCacheSet
                0x000000000000d5f0                WDRV_WINC_EntSec802_1XSessionCache

.text.__secs_to_tm%75
                0x000000000000d628      0x1dc
 .text.__secs_to_tm
                0x000000000000d628      0x1dc c:/program files/microchip/xc32/v4.60/bin/bin/../../lib/gcc/pic32c/8.3.1/../../../../pic32c/lib/thumb/v6-m/nofp\libc-musl.a(__secs_to_tm.o)
                0x000000000000d628                __secs_to_tm

.text.__aeabi_dadd%76
                0x000000000000d804      0x1c8
 .text.__aeabi_dadd
                0x000000000000d804      0x1c8 c:/program files/microchip/xc32/v4.60/bin/bin/../../lib/gcc/pic32c/8.3.1/../../../../pic32c/lib/thumb/v6-m/nofp\libm-fast-emfloat.a(__aeabi_dadd.o)
                0x000000000000d804                __aeabi_dadd
                0x000000000000d80a                .L__aeabi_dadd_fast_entry

.text%77        0x000000000000d9cc      0x1bc
 .text          0x000000000000d9cc      0x1bc build/samd21IOT_winc1500/production/_ext/284355797/wdrv_winc_spi.o
                0x000000000000d9fc                WDRV_WINC_SPISend
                0x000000000000da3c                WDRV_WINC_SPIReceive
                0x000000000000da8c                WDRV_WINC_SPIOpen
                0x000000000000db2c                WDRV_WINC_SPIInitialize
                0x000000000000db4c                WDRV_WINC_SPIDeinitialize

.text%78        0x000000000000db88      0x19c
 .text          0x000000000000db88      0x19c build/samd21IOT_winc1500/production/_ext/1235514674/wdrv_winc_systime.o
                0x000000000000db88                WDRV_WINC_LocalTimeToUTC
                0x000000000000dc0c                WDRV_WINC_UTCToLocalTime
                0x000000000000dc4c                WDRV_WINC_SystemTimeSNTPClientEnable
                0x000000000000dca4                WDRV_WINC_SystemTimeSNTPClientDisable
                0x000000000000dcc8                WDRV_WINC_SystemTimeSetCurrent
                0x000000000000dcf4                WDRV_WINC_SystemTimeGetCurrent

.text%79        0x000000000000dd24      0x198
 .text          0x000000000000dd24      0x198 build/samd21IOT_winc1500/production/_ext/1235514674/wdrv_winc_assoc.o
                0x000000000000dd24                WDRV_WINC_AssocSSIDGet
                0x000000000000dd80                WDRV_WINC_AssocPeerAddressGet
                0x000000000000dddc                WDRV_WINC_AssocAuthTypeGet
                0x000000000000de32                WDRV_WINC_AssocRSSIGet
                0x000000000000de92                WDRV_WINC_AssocDisconnect

.text.__aeabi_dmul_aux%80
                0x000000000000debc      0x18a
 .text.__aeabi_dmul_aux
                0x000000000000debc      0x18a c:/program files/microchip/xc32/v4.60/bin/bin/../../lib/gcc/pic32c/8.3.1/../../../../pic32c/lib/thumb/v6-m/nofp\libm-fast-emfloat.a(__aeabi_dmul_aux.o)
                0x000000000000debc                __aeabi_dmul_aux
                0x000000000000def4                __aeabi_dmul

.text%81        0x000000000000e046      0x174
 .text          0x000000000000e046      0x174 build/samd21IOT_winc1500/production/_ext/1235514674/wdrv_winc_bssctx.o
                0x000000000000e046                WDRV_WINC_BSSCtxIsValid
                0x000000000000e09c                WDRV_WINC_BSSCtxSetDefaults
                0x000000000000e0cc                WDRV_WINC_BSSCtxSetSSID
                0x000000000000e118                WDRV_WINC_BSSCtxSetBSSID
                0x000000000000e164                WDRV_WINC_BSSCtxSetChannel
                0x000000000000e194                WDRV_WINC_BSSCtxSetSSIDVisibility

.text%82        0x000000000000e1bc      0x164
 .text          0x000000000000e1bc      0x164 build/samd21IOT_winc1500/production/_ext/106321624/sys_console_uart.o
                0x000000000000e1bc                Console_UART_Initialize
                0x000000000000e1d4                Console_UART_Read
                0x000000000000e20c                Console_UART_Flush
                0x000000000000e210                Console_UART_Status
                0x000000000000e224                Console_UART_Tasks
                0x000000000000e226                Console_UART_WriteCountGet
                0x000000000000e258                Console_UART_WriteFreeBufferCountGet
                0x000000000000e288                Console_UART_Write
                0x000000000000e2c0                Console_UART_ReadFreeBufferCountGet
                0x000000000000e2f0                Console_UART_ReadCountGet

.text%83        0x000000000000e320      0x160
 .text          0x000000000000e320      0x160 build/samd21IOT_winc1500/production/_ext/975387175/plib_nvmctrl.o
                0x000000000000e320                NVMCTRL_Initialize
                0x000000000000e32c                NVMCTRL_CacheInvalidate
                0x000000000000e33c                NVMCTRL_Read
                0x000000000000e34c                NVMCTRL_PageBufferWrite
                0x000000000000e360                NVMCTRL_PageBufferCommit
                0x000000000000e378                NVMCTRL_PageWrite
                0x000000000000e3a0                NVMCTRL_RowErase
                0x000000000000e3b8                NVMCTRL_USER_ROW_PageWrite
                0x000000000000e3f0                NVMCTRL_USER_ROW_RowErase
                0x000000000000e41c                NVMCTRL_ErrorGet
                0x000000000000e434                NVMCTRL_IsBusy
                0x000000000000e448                NVMCTRL_RegionLock
                0x000000000000e45c                NVMCTRL_RegionUnlock
                0x000000000000e470                NVMCTRL_SecurityBitSet

.text%84        0x000000000000e480      0x148
 .text          0x000000000000e480      0x148 build/samd21IOT_winc1500/production/_ext/1235514674/wdrv_winc_wps.o
                0x000000000000e480                WDRV_WINC_WPSEnrolleeDiscoveryStartPIN
                0x000000000000e570                WDRV_WINC_WPSEnrolleeDiscoveryStartPBC
                0x000000000000e5a4                WDRV_WINC_WPSEnrolleeDiscoveryStop

.text%85        0x000000000000e5c8      0x140
 .text          0x000000000000e5c8      0x140 build/samd21IOT_winc1500/production/_ext/2138746234/plib_tc3.o
                0x000000000000e5c8                TC3_TimerInitialize
                0x000000000000e608                TC3_TimerStart
                0x000000000000e620                TC3_TimerStop
                0x000000000000e638                TC3_TimerFrequencyGet
                0x000000000000e640                TC3_TimerCommandSet
                0x000000000000e658                TC3_Timer16bitCounterGet
                0x000000000000e678                TC3_Timer16bitCounterSet
                0x000000000000e68c                TC3_Timer16bitPeriodSet
                0x000000000000e6a0                TC3_Timer16bitPeriodGet
                0x000000000000e6c0                TC3_Timer16bitCompareSet
                0x000000000000e6d4                TC3_TimerCallbackRegister
                0x000000000000e6e0                TC3_TimerInterruptHandler

.rodata%86      0x000000000000e708      0x134
 .rodata        0x000000000000e708      0x134 build/samd21IOT_winc1500/production/_ext/881504404/nmspi.o

.text.__fmt_x%87
                0x000000000000e83c      0x132
 .text.__fmt_x  0x000000000000e83c      0x132 c:/program files/microchip/xc32/v4.60/bin/bin/../../lib/gcc/pic32c/8.3.1/../../../../pic32c/lib/thumb/v6-m/nofp\libc-musl.a(__fmt_x.o)
                0x000000000000e83c                __fmt_x_needed
                0x000000000000e83c                __fmt_x

.text%88        0x000000000000e96e      0x130
 .text          0x000000000000e96e      0x130 c:/program files/microchip/xc32/v4.60/bin/bin/../../lib/gcc/pic32c/8.3.1/thumb/v6-m/nofp\libgcc.a(_divdi3.o)
                0x000000000000e96e                __divdi3

.text%89        0x000000000000eaa0      0x12c
 .text          0x000000000000eaa0      0x12c build/samd21IOT_winc1500/production/_ext/1876637944/plib_eic.o
                0x000000000000eaa0                EIC_Initialize
                0x000000000000eb24                EIC_InterruptEnable
                0x000000000000eb34                EIC_InterruptDisable
                0x000000000000eb44                EIC_CallbackRegister
                0x000000000000eb6c                EIC_InterruptHandler

.rodata.str1.4%90
                0x000000000000ebcc      0x124
 .rodata.str1.4
                0x000000000000ebcc      0x124 build/samd21IOT_winc1500/production/_ext/881504404/nmasic.o

.text%91        0x000000000000ecf0      0x110
 .text          0x000000000000ecf0      0x110 build/samd21IOT_winc1500/production/_ext/1235514674/wdrv_winc_custie.o
                0x000000000000ecf0                WDRV_WINC_CustIEStoreCtxSetStorage
                0x000000000000ed1e                WDRV_WINC_CustIEStoreCtxAddIE
                0x000000000000ed84                WDRV_WINC_CustIEStoreCtxRemoveIE

.text%92        0x000000000000ee00      0x110
 .text          0x000000000000ee00      0x110 build/samd21IOT_winc1500/production/_ext/1954099928/plib_port.o
                0x000000000000ee00                PORT_Initialize
                0x000000000000ee58                PORT_GroupRead
                0x000000000000ee5c                PORT_GroupWrite
                0x000000000000ee68                PORT_GroupLatchRead
                0x000000000000ee6c                PORT_GroupSet
                0x000000000000ee70                PORT_GroupClear
                0x000000000000ee74                PORT_GroupToggle
                0x000000000000ee78                PORT_GroupInputEnable
                0x000000000000eea2                PORT_GroupOutputEnable
                0x000000000000eea6                PORT_PinPeripheralFunctionConfig
                0x000000000000eef0                PORT_PinGPIOConfig

.rodata.str1.4%93
                0x000000000000ef10      0x10c
 .rodata.str1.4
                0x000000000000ef10      0x10c build/samd21IOT_winc1500/production/_ext/287230454/drv_spi.o

.rodata%94      0x000000000000f01c      0x100
 .rodata        0x000000000000f01c      0x100 build/samd21IOT_winc1500/production/_ext/2058341299/initialization.o

.text.__year_to_secs%95
                0x000000000000f11c      0x100
 .text.__year_to_secs
                0x000000000000f11c      0x100 c:/program files/microchip/xc32/v4.60/bin/bin/../../lib/gcc/pic32c/8.3.1/../../../../pic32c/lib/thumb/v6-m/nofp\libc-musl.a(__year_to_secs.o)
                0x000000000000f11c                __year_to_secs

.text%96        0x000000000000f21c       0xf8
 .text          0x000000000000f21c       0xf8 build/samd21IOT_winc1500/production/_ext/1235514674/wdrv_winc_powersave.o
                0x000000000000f21c                WDRV_WINC_PowerSaveSetMode
                0x000000000000f256                WDRV_WINC_PowerSaveGetMode
                0x000000000000f278                WDRV_WINC_PowerSaveSetBeaconInterval
                0x000000000000f2f0                WDRV_WINC_PowerSaveManualSleep

.text%97        0x000000000000f314       0xf8
 .text          0x000000000000f314       0xf8 build/samd21IOT_winc1500/production/_ext/1954046777/plib_nvic.o
                0x000000000000f314                NVIC_Initialize
                0x000000000000f388                NVIC_INT_Enable
                0x000000000000f390                NVIC_INT_Disable
                0x000000000000f3a2                NVIC_INT_Restore
                0x000000000000f3b6                NVIC_INT_SourceDisable
                0x000000000000f3f0                NVIC_INT_SourceRestore

.rodata.str1.4%98
                0x000000000000f40c       0xf0
 .rodata.str1.4
                0x000000000000f40c       0xf0 build/samd21IOT_winc1500/production/_ext/455027017/socket.o

.rodata%99      0x000000000000f4fc       0xec
 .rodata        0x000000000000f4fc       0xec build/samd21IOT_winc1500/production/_ext/1235514674/wdrv_winc.o

.text%100       0x000000000000f5e8       0xe8
 .text          0x000000000000f5e8       0xe8 build/samd21IOT_winc1500/production/_ext/881504404/nmbus.o
                0x000000000000f5e8                nm_bus_iface_init
                0x000000000000f5f8                nm_bus_iface_deinit
                0x000000000000f5fc                nm_bus_reset
                0x000000000000f604                nm_bus_iface_reconfigure
                0x000000000000f608                nm_read_reg
                0x000000000000f610                nm_read_reg_with_ret
                0x000000000000f618                nm_write_reg
                0x000000000000f620                nm_read_block
                0x000000000000f678                nm_write_block

.text%101       0x000000000000f6d0       0xe2
 .text          0x000000000000f6d0       0xe2 c:/program files/microchip/xc32/v4.60/bin/bin/../../lib/gcc/pic32c/8.3.1/thumb/v6-m/nofp\libgcc.a(_udivmoddi4.o)
                0x000000000000f6d0                __udivmoddi4

.rodata.str1.4%102
                0x000000000000f7b4       0xdc
 .rodata.str1.4
                0x000000000000f7b4       0xdc build/samd21IOT_winc1500/production/_ext/881504404/m2m_ssl.o

.text%103       0x000000000000f890       0xdc
 .text          0x000000000000f890       0xdc build/samd21IOT_winc1500/production/_ext/455027017/inet_addr.o
                0x000000000000f890                inet_addr

.rodata.str1.4%104
                0x000000000000f96c       0xd4
 .rodata.str1.4
                0x000000000000f96c       0xd4 build/samd21IOT_winc1500/production/_ext/881504404/m2m_ota.o

.rodata.str1.4%105
                0x000000000000fa40       0xd4
 .rodata.str1.4
                0x000000000000fa40       0xd4 build/samd21IOT_winc1500/production/_ext/881504404/nmdrv.o

.text.__aeabi_ddiv%106
                0x000000000000fb14       0xc4
 .text.__aeabi_ddiv
                0x000000000000fb14       0xc4 c:/program files/microchip/xc32/v4.60/bin/bin/../../lib/gcc/pic32c/8.3.1/../../../../pic32c/lib/thumb/v6-m/nofp\libm-fast-emfloat.a(__aeabi_ddiv.o)
                0x000000000000fb14                __aeabi_ddiv

.text%107       0x000000000000fbd8       0xc0
 .text          0x000000000000fbd8       0xc0 build/samd21IOT_winc1500/production/_ext/455027017/inet_ntop.o
                0x000000000000fbd8                inet_ntop

.text.__pop_int%108
                0x000000000000fc98       0xbe
 .text.__pop_int
                0x000000000000fc98       0xbe c:/program files/microchip/xc32/v4.60/bin/bin/../../lib/gcc/pic32c/8.3.1/../../../../pic32c/lib/thumb/v6-m/nofp\libc-musl.a(__pop_int.o)
                0x000000000000fc98                __pop_int_needed
                0x000000000000fc98                __pop_int

.text.floor%109
                0x000000000000fd58       0xb4
 .text.floor    0x000000000000fd58       0xb4 c:/program files/microchip/xc32/v4.60/bin/bin/../../lib/gcc/pic32c/8.3.1/../../../../pic32c/lib/thumb/v6-m/nofp\libm-fast-emfloat.a(floor.o)
                0x000000000000fd58                floor

.text.__fmt_d%110
                0x000000000000fe0c       0xb2
 .text.__fmt_d  0x000000000000fe0c       0xb2 c:/program files/microchip/xc32/v4.60/bin/bin/../../lib/gcc/pic32c/8.3.1/../../../../pic32c/lib/thumb/v6-m/nofp\libc-musl.a(__fmt_d.o)
                0x000000000000fe0c                __fmt_d
                0x000000000000fe0c                __fmt_d_needed

.text%111       0x000000000000fec0       0xa8
 .text          0x000000000000fec0       0xa8 c:/program files/microchip/xc32/v4.60/bin/bin/../../lib/gcc/pic32c/8.3.1/thumb/v6-m/nofp\libgcc.a(_divsi3.o)
                0x000000000000fec0                __divsi3
                0x000000000000fec0                __aeabi_idiv
                0x000000000000ff54                __aeabi_idivmod

.text%112       0x000000000000ff68       0xa4
 .text          0x000000000000ff68       0xa4 build/samd21IOT_winc1500/production/_ext/435457175/plib_clock.o
                0x000000000000ff68                CLOCK_Initialize

.text.__tm_to_secs%113
                0x000000000001000c       0xa0
 .text.__tm_to_secs
                0x000000000001000c       0xa0 c:/program files/microchip/xc32/v4.60/bin/bin/../../lib/gcc/pic32c/8.3.1/../../../../pic32c/lib/thumb/v6-m/nofp\libc-musl.a(__tm_to_secs.o)
                0x000000000001000c                __tm_to_secs

.text%114       0x00000000000100ac       0x9c
 .text          0x00000000000100ac       0x9c build/samd21IOT_winc1500/production/_ext/1637020121/flexible_flash.o
                0x00000000000100ac                spi_flexible_flash_find_section

.text%115       0x0000000000010148       0x8c
 .text          0x0000000000010148       0x8c c:/program files/microchip/xc32/v4.60/bin/bin/../../lib/gcc/pic32c/8.3.1/thumb/v6-m/nofp\libgcc.a(_udivsi3.o)
                0x0000000000010148                __aeabi_uidiv
                0x0000000000010148                __udivsi3
                0x00000000000101c0                __aeabi_uidivmod

.text.__simple_search_fl%116
                0x00000000000101d4       0x80
 .text.__simple_search_fl
                0x00000000000101d4       0x80 c:/program files/microchip/xc32/v4.60/bin/bin/../../lib/gcc/pic32c/8.3.1/../../../../pic32c/lib/thumb/v6-m/nofp\liblmalloc-musl.a(lite_free.o)
                0x00000000000101d4                __simple_search_fl

.text%117       0x0000000000010254       0x7c
 .text          0x0000000000010254       0x7c build/samd21IOT_winc1500/production/_ext/2058341299/initialization.o
                0x0000000000010254                SYS_Initialize

.text.__pad%118
                0x00000000000102d0       0x7a
 .text.__pad    0x00000000000102d0       0x7a c:/program files/microchip/xc32/v4.60/bin/bin/../../lib/gcc/pic32c/8.3.1/../../../../pic32c/lib/thumb/v6-m/nofp\libc-musl.a(__printf_core.o)
                0x00000000000102d0                __pad

.text.__cvt_u%119
                0x000000000001034a       0x76
 .text.__cvt_u  0x000000000001034a       0x76 c:/program files/microchip/xc32/v4.60/bin/bin/../../lib/gcc/pic32c/8.3.1/../../../../pic32c/lib/thumb/v6-m/nofp\libc-musl.a(__cvt_u.o)
                0x000000000001034a                __cvt_u

.rodata.str1.4%120
                0x00000000000103c0       0x74
 .rodata.str1.4
                0x00000000000103c0       0x74 build/samd21IOT_winc1500/production/_ext/1637020121/spi_flash.o

.rodata.str1.4%121
                0x0000000000010434       0x74
 .rodata.str1.4
                0x0000000000010434       0x74 build/samd21IOT_winc1500/production/_ext/1235514674/wdrv_winc.o

.text%122       0x00000000000104a8       0x70
 .text          0x00000000000104a8       0x70 build/samd21IOT_winc1500/production/_ext/55136832/sys_int.o
                0x00000000000104a8                SYS_INT_Enable
                0x00000000000104b0                SYS_INT_Disable
                0x00000000000104b8                SYS_INT_Restore
                0x00000000000104c0                SYS_INT_SourceDisable
                0x00000000000104fc                SYS_INT_SourceRestore

.text.__fmt_o%123
                0x0000000000010518       0x6e
 .text.__fmt_o  0x0000000000010518       0x6e c:/program files/microchip/xc32/v4.60/bin/bin/../../lib/gcc/pic32c/8.3.1/../../../../pic32c/lib/thumb/v6-m/nofp\libc-musl.a(__fmt_o.o)
                0x0000000000010518                __fmt_o
                0x0000000000010518                __fmt_o_needed

.text%124       0x0000000000010588       0x6c
 .text          0x0000000000010588       0x6c build/samd21IOT_winc1500/production/_ext/1360937237/app.o
                0x0000000000010588                APP_Initialize
                0x0000000000010594                APP_Tasks

.text%125       0x00000000000105f4       0x6a
 .text          0x00000000000105f4       0x6a build/samd21IOT_winc1500/production/_ext/1235514674/wdrv_winc_httpprovctx.o
                0x00000000000105f4                WDRV_WINC_HTTPProvCtxSetDefaults
                0x000000000001060a                WDRV_WINC_HTTPProvCtxSetDomainName
                0x0000000000010642                WDRV_WINC_HTTPProvCtxSetURLWildcard
                0x0000000000010650                WDRV_WINC_HTTPProvCtxSetConnectCallback

.text%126       0x000000000001065e       0x68
 .text          0x000000000001065e       0x68 build/samd21IOT_winc1500/production/_ext/881504404/m2m_periph.o
                0x000000000001065e                m2m_periph_gpio_set_dir
                0x000000000001067e                m2m_periph_gpio_set_val
                0x000000000001069e                m2m_periph_gpio_get_val
                0x00000000000106be                m2m_periph_pullup_ctrl

.text.__pop_ptr%127
                0x00000000000106c6       0x68
 .text.__pop_ptr
                0x00000000000106c6       0x68 c:/program files/microchip/xc32/v4.60/bin/bin/../../lib/gcc/pic32c/8.3.1/../../../../pic32c/lib/thumb/v6-m/nofp\libc-musl.a(__pop_ptr.o)
                0x00000000000106c6                __pop_ptr
                0x00000000000106c6                __pop_ptr_needed

.text.__simple_malloc%128
                0x0000000000010730       0x64
 .text.__simple_malloc
                0x0000000000010730       0x64 c:/program files/microchip/xc32/v4.60/bin/bin/../../lib/gcc/pic32c/8.3.1/../../../../pic32c/lib/thumb/v6-m/nofp\liblmalloc-musl.a(lite_malloc.o)
                0x0000000000010730                __malloc0
                0x0000000000010730                __simple_malloc
                0x0000000000010730                malloc

.text.vsnprintf%129
                0x0000000000010794       0x64
 .text.vsnprintf
                0x0000000000010794       0x64 c:/program files/microchip/xc32/v4.60/bin/bin/../../lib/gcc/pic32c/8.3.1/../../../../pic32c/lib/thumb/v6-m/nofp\libc-musl.a(vsnprintf.o)
                0x0000000000010794                vsnprintf

.text%130       0x00000000000107f8       0x60
 .text          0x00000000000107f8       0x60 build/samd21IOT_winc1500/production/_ext/604157148/sys_debug.o
                0x00000000000107f8                SYS_DEBUG_Initialize
                0x0000000000010810                SYS_DEBUG_ConsoleInstanceGet
                0x000000000001081c                SYS_DEBUG_Status
                0x0000000000010828                SYS_DEBUG_ErrorLevelSet
                0x0000000000010834                SYS_DEBUG_ErrorLevelGet
                0x0000000000010840                SYS_DEBUG_Redirect

.text.__strchrnul%131
                0x0000000000010858       0x60
 .text.__strchrnul
                0x0000000000010858       0x60 c:/program files/microchip/xc32/v4.60/bin/bin/../../lib/gcc/pic32c/8.3.1/../../../../pic32c/lib/thumb/v6-m/nofp\libc-size-musl.a(strchrnul.o)
                0x0000000000010858                strchrnul
                0x0000000000010858                __strchrnul

.text.__libc_start_init%132
                0x00000000000108b8       0x5c
 .text.__libc_start_init
                0x00000000000108b8       0x5c c:/program files/microchip/xc32/v4.60/bin/bin/../../lib/gcc/pic32c/8.3.1/../../../../pic32c/lib/thumb/v6-m/nofp\libc-musl.a(__libc_start_main.o)
                0x00000000000108b8                __libc_init_array

.rodata%133     0x0000000000010914       0x58
 .rodata        0x0000000000010914       0x58 build/samd21IOT_winc1500/production/_ext/1235514674/wdrv_winc_ssl.o

.text.__fmt_u%134
                0x000000000001096c       0x56
 .text.__fmt_u  0x000000000001096c       0x56 c:/program files/microchip/xc32/v4.60/bin/bin/../../lib/gcc/pic32c/8.3.1/../../../../pic32c/lib/thumb/v6-m/nofp\libc-musl.a(__fmt_u.o)
                0x000000000001096c                __fmt_u_needed
                0x000000000001096c                __fmt_u

.text.__fmt_s%135
                0x00000000000109c4       0x50
 .text.__fmt_s  0x00000000000109c4       0x50 c:/program files/microchip/xc32/v4.60/bin/bin/../../lib/gcc/pic32c/8.3.1/../../../../pic32c/lib/thumb/v6-m/nofp\libc-musl.a(__fmt_s.o)
                0x00000000000109c4                __fmt_s
                0x00000000000109c4                __fmt_0_needed
                0x00000000000109c4                __fmt_s_needed

.text._sbrk%136
                0x0000000000010a14       0x50
 .text._sbrk    0x0000000000010a14       0x50 c:/program files/microchip/xc32/v4.60/bin/bin/../../lib/gcc/pic32c/8.3.1/../../../../pic32c/lib/thumb/v6-m/nofp\libpic32c.a(sbrk.o)
                0x0000000000010a14                _sbrk

.text%137       0x0000000000010a64       0x48
 .text          0x0000000000010a64       0x48 c:/program files/microchip/xc32/v4.60/bin/bin/../../lib/gcc/pic32c/8.3.1/thumb/v6-m/nofp/crtbegin.o

.text.Reset_Handler%138
                0x0000000000010aac       0x48
 .text.Reset_Handler
                0x0000000000010aac       0x48 build/samd21IOT_winc1500/production/_ext/2058341299/startup_xc32.o
                0x0000000000010aac                Reset_Handler

.text.mktime%139
                0x0000000000010af4       0x48
 .text.mktime   0x0000000000010af4       0x48 c:/program files/microchip/xc32/v4.60/bin/bin/../../lib/gcc/pic32c/8.3.1/../../../../pic32c/lib/thumb/v6-m/nofp\libc-musl.a(mktime.o)
                0x0000000000010af4                mktime

.text%140       0x0000000000010b3c       0x48
 .text          0x0000000000010b3c       0x48 c:/program files/microchip/xc32/v4.60/bin/bin/../../lib/gcc/pic32c/8.3.1/thumb/v6-m/nofp\libgcc.a(_aeabi_ldivmod.o)
                0x0000000000010b3c                __aeabi_ldivmod

.text%141       0x0000000000010b84       0x44
 .text          0x0000000000010b84       0x44 build/samd21IOT_winc1500/production/_ext/226979060/sys_dma.o
                0x0000000000010b84                SYS_DMA_AddressingModeSetup
                0x0000000000010ba8                SYS_DMA_DataWidthSetup

.text.__aeabi_dcmple%142
                0x0000000000010bc8       0x44
 .text.__aeabi_dcmple
                0x0000000000010bc8       0x44 c:/program files/microchip/xc32/v4.60/bin/bin/../../lib/gcc/pic32c/8.3.1/../../../../pic32c/lib/thumb/v6-m/nofp\libm-fast-emfloat.a(__aeabi_dcmple.o)
                0x0000000000010bc8                __aeabi_dcmple

.text%143       0x0000000000010c0c       0x44
 .text          0x0000000000010c0c       0x44 c:/program files/microchip/xc32/v4.60/bin/bin/../../lib/gcc/pic32c/8.3.1/thumb/v6-m/nofp\libgcc.a(_muldi3.o)
                0x0000000000010c0c                __muldi3
                0x0000000000010c0c                __aeabi_lmul

.text%144       0x0000000000010c50       0x40
 .text          0x0000000000010c50       0x40 build/samd21IOT_winc1500/production/_ext/224737734/wdrv_winc_gpio.o
                0x0000000000010c50                WDRV_WINC_GPIOResetAssert
                0x0000000000010c60                WDRV_WINC_GPIOResetDeassert
                0x0000000000010c70                WDRV_WINC_GPIOChipEnableAssert
                0x0000000000010c80                WDRV_WINC_GPIOChipEnableDeassert

.text.__simple_free%145
                0x0000000000010c90       0x40
 .text.__simple_free
                0x0000000000010c90       0x40 c:/program files/microchip/xc32/v4.60/bin/bin/../../lib/gcc/pic32c/8.3.1/../../../../pic32c/lib/thumb/v6-m/nofp\liblmalloc-musl.a(lite_free.o)
                0x0000000000010c90                __simple_free
                0x0000000000010c90                free
                0x0000000000010c90                __free0

.text.atoi%146  0x0000000000010cd0       0x40
 .text.atoi     0x0000000000010cd0       0x40 c:/program files/microchip/xc32/v4.60/bin/bin/../../lib/gcc/pic32c/8.3.1/../../../../pic32c/lib/thumb/v6-m/nofp\libc-musl.a(atoi.o)
                0x0000000000010cd0                atoi

.text%147       0x0000000000010d10       0x40
 .text          0x0000000000010d10       0x40 c:/program files/microchip/xc32/v4.60/bin/bin/../../lib/gcc/pic32c/8.3.1/thumb/v6-m/nofp\libgcc.a(_aeabi_uldivmod.o)
                0x0000000000010d10                __aeabi_uldivmod

.text.__aeabi_dcmpgt%148
                0x0000000000010d50       0x3e
 .text.__aeabi_dcmpgt
                0x0000000000010d50       0x3e c:/program files/microchip/xc32/v4.60/bin/bin/../../lib/gcc/pic32c/8.3.1/../../../../pic32c/lib/thumb/v6-m/nofp\libm-fast-emfloat.a(__aeabi_dcmpgt.o)
                0x0000000000010d50                __aeabi_dcmpgt

.text.__aeabi_dcmplt%149
                0x0000000000010d8e       0x3e
 .text.__aeabi_dcmplt
                0x0000000000010d8e       0x3e c:/program files/microchip/xc32/v4.60/bin/bin/../../lib/gcc/pic32c/8.3.1/../../../../pic32c/lib/thumb/v6-m/nofp\libm-fast-emfloat.a(__aeabi_dcmplt.o)
                0x0000000000010d8e                __aeabi_dcmplt

.text%150       0x0000000000010dcc       0x3c
 .text          0x0000000000010dcc       0x3c c:/program files/microchip/xc32/v4.60/bin/bin/../../lib/gcc/pic32c/8.3.1/thumb/v6-m/nofp\libgcc.a(_clzsi2.o)
                0x0000000000010dcc                __clzsi2

.text.__pic32c_data_initialization%151
                0x0000000000010e08       0x38
 .text.__pic32c_data_initialization
                0x0000000000010e08       0x38 c:/program files/microchip/xc32/v4.60/bin/bin/../../lib/gcc/pic32c/8.3.1/../../../../pic32c/lib/thumb/v6-m/nofp\libpic32c.a(data_init.o)
                0x0000000000010e08                __pic32c_data_initialization

.rodata.str1.4%152
                0x0000000000010e40       0x34
 .rodata.str1.4
                0x0000000000010e40       0x34 build/samd21IOT_winc1500/production/_ext/1235514674/wdrv_winc_socket.o

.text.__gmtime_r%153
                0x0000000000010e74       0x34
 .text.__gmtime_r
                0x0000000000010e74       0x34 c:/program files/microchip/xc32/v4.60/bin/bin/../../lib/gcc/pic32c/8.3.1/../../../../pic32c/lib/thumb/v6-m/nofp\libc-musl.a(gmtime_r.o)
                0x0000000000010e74                __gmtime_r
                0x0000000000010e74                gmtime_r

.text.__fmt_state%154
                0x0000000000010ea8       0x34
 .text.__fmt_state
                0x0000000000010ea8       0x34 c:/program files/microchip/xc32/v4.60/bin/bin/../../lib/gcc/pic32c/8.3.1/../../../../pic32c/lib/thumb/v6-m/nofp\libc-musl.a(__printf_core.o)
                0x0000000000010ea8                __fmt_state

.text.__aeabi_d2iz%155
                0x0000000000010edc       0x34
 .text.__aeabi_d2iz
                0x0000000000010edc       0x34 c:/program files/microchip/xc32/v4.60/bin/bin/../../lib/gcc/pic32c/8.3.1/../../../../pic32c/lib/thumb/v6-m/nofp\libm-fast-emfloat.a(__aeabi_d2iz.o)
                0x0000000000010edc                __aeabi_d2iz

.text%156       0x0000000000010f10       0x34
 .text          0x0000000000010f10       0x34 c:/program files/microchip/xc32/v4.60/bin/bin/../../lib/gcc/pic32c/8.3.1/thumb/v6-m/nofp\libgcc.a(bpabi.o)
                0x0000000000010f10                __gnu_ldivmod_helper

.text._sbrk_init%157
                0x0000000000010f44       0x34
 .text._sbrk_init
                0x0000000000010f44       0x34 c:/program files/microchip/xc32/v4.60/bin/bin/../../lib/gcc/pic32c/8.3.1/../../../../pic32c/lib/thumb/v6-m/nofp\libpic32c.a(sbrk.o)

.rodata.str1.4%158
                0x0000000000010f78       0x30
 .rodata.str1.4
                0x0000000000010f78       0x30 build/samd21IOT_winc1500/production/_ext/284355797/wdrv_winc_spi.o

.rodata%159     0x0000000000010fa8       0x30
 .rodata        0x0000000000010fa8       0x30 c:/program files/microchip/xc32/v4.60/bin/bin/../../lib/gcc/pic32c/8.3.1/../../../../pic32c/lib/thumb/v6-m/nofp\libc-musl.a(__month_to_secs.o)

.text%160       0x0000000000010fd8       0x2e
 .text          0x0000000000010fd8       0x2e build/samd21IOT_winc1500/production/_ext/912793297/nm_common.o
                0x0000000000010fd8                nm_sleep
                0x0000000000010fe0                nm_reset

.text.__aeabi_dcmpeq%161
                0x0000000000011006       0x2e
 .text.__aeabi_dcmpeq
                0x0000000000011006       0x2e c:/program files/microchip/xc32/v4.60/bin/bin/../../lib/gcc/pic32c/8.3.1/../../../../pic32c/lib/thumb/v6-m/nofp\libm-fast-emfloat.a(__aeabi_dcmpeq.o)
                0x0000000000011006                __aeabi_dcmpeq

.text.__aeabi_d2uiz%162
                0x0000000000011034       0x2e
 .text.__aeabi_d2uiz
                0x0000000000011034       0x2e c:/program files/microchip/xc32/v4.60/bin/bin/../../lib/gcc/pic32c/8.3.1/../../../../pic32c/lib/thumb/v6-m/nofp\libm-fast-emfloat.a(__aeabi_d2uiz.o)
                0x0000000000011034                __aeabi_d2uiz
                0x0000000000011038                .L__aeabi_d2uiz_fast_entry

.rodata%163     0x0000000000011064       0x2c
 .rodata        0x0000000000011064       0x2c build/samd21IOT_winc1500/production/_ext/106321624/sys_console_uart.o
                0x0000000000011064                sysConsoleUARTDevDesc

.text.__pop_float%164
                0x0000000000011090       0x2a
 .text.__pop_float
                0x0000000000011090       0x2a c:/program files/microchip/xc32/v4.60/bin/bin/../../lib/gcc/pic32c/8.3.1/../../../../pic32c/lib/thumb/v6-m/nofp\libc-musl.a(__pop_float.o)
                0x0000000000011090                __pop_float_needed
                0x0000000000011090                __pop_float

.text.__string_out%165
                0x00000000000110ba       0x2a
 .text.__string_out
                0x00000000000110ba       0x2a c:/program files/microchip/xc32/v4.60/bin/bin/../../lib/gcc/pic32c/8.3.1/../../../../pic32c/lib/thumb/v6-m/nofp\libc-musl.a(__printf_core.o)
                0x00000000000110ba                __out

.text%166       0x00000000000110e4       0x28
 .text          0x00000000000110e4       0x28 build/samd21IOT_winc1500/production/_ext/224737734/wdrv_winc_eint.o
                0x00000000000110e4                WDRV_WINC_INTInitialize
                0x0000000000011100                WDRV_WINC_INTDeinitialize

.rodata%167     0x000000000001110c       0x28
 .rodata        0x000000000001110c       0x28 build/samd21IOT_winc1500/production/_ext/1235514674/wdrv_winc_authctx.o

.text%168       0x0000000000011134       0x22
 .text          0x0000000000011134       0x22 build/samd21IOT_winc1500/production/_ext/469334988/wdrv_winc_osal.o
                0x0000000000011134                WDRV_MSDelay

.rodata%169     0x0000000000011158       0x20
 .rodata        0x0000000000011158       0x20 build/samd21IOT_winc1500/production/_ext/881504404/m2m_hif.o

.rodata.str1.4%170
                0x0000000000011178       0x20
 .rodata.str1.4
                0x0000000000011178       0x20 build/samd21IOT_winc1500/production/_ext/1235514674/wdrv_winc_nvm.o

.rodata%171     0x0000000000011198       0x20
 .rodata        0x0000000000011198       0x20 build/samd21IOT_winc1500/production/_ext/1360937237/winc1500_tcp_server.o

.text.memchr%172
                0x00000000000111b8       0x20
 .text.memchr   0x00000000000111b8       0x20 c:/program files/microchip/xc32/v4.60/bin/bin/../../lib/gcc/pic32c/8.3.1/../../../../pic32c/lib/thumb/v6-m/nofp\libc-size-musl.a(memchr.o)
                0x00000000000111b8                memchr

.text.__month_to_secs%173
                0x00000000000111d8       0x20
 .text.__month_to_secs
                0x00000000000111d8       0x20 c:/program files/microchip/xc32/v4.60/bin/bin/../../lib/gcc/pic32c/8.3.1/../../../../pic32c/lib/thumb/v6-m/nofp\libc-musl.a(__month_to_secs.o)
                0x00000000000111d8                __month_to_secs

.text._get_heap_left_space%174
                0x00000000000111f8       0x20
 .text._get_heap_left_space
                0x00000000000111f8       0x20 c:/program files/microchip/xc32/v4.60/bin/bin/../../lib/gcc/pic32c/8.3.1/../../../../pic32c/lib/thumb/v6-m/nofp\libpic32c.a(sbrk.o)
                0x00000000000111f8                _get_heap_left_space

.text.__dinit_copy%175
                0x0000000000011218       0x1e
 .text.__dinit_copy
                0x0000000000011218       0x1e c:/program files/microchip/xc32/v4.60/bin/bin/../../lib/gcc/pic32c/8.3.1/../../../../pic32c/lib/thumb/v6-m/nofp\libpic32c.a(pic32_data_init_copy.o)
                0x0000000000011218                __dinit_copy_needed
                0x0000000000011218                __dinit_copy

.text.__init_search_fl%176
                0x0000000000011238       0x1c
 .text.__init_search_fl
                0x0000000000011238       0x1c c:/program files/microchip/xc32/v4.60/bin/bin/../../lib/gcc/pic32c/8.3.1/../../../../pic32c/lib/thumb/v6-m/nofp\liblmalloc-musl.a(lite_free.o)
                0x0000000000011238                __init_search_fl

.rodata%177     0x0000000000011254       0x18
 .rodata        0x0000000000011254       0x18 build/samd21IOT_winc1500/production/_ext/1235514674/wdrv_winc_nvm.o

.text.strlen%178
                0x000000000001126c       0x18
 .text.strlen   0x000000000001126c       0x18 c:/program files/microchip/xc32/v4.60/bin/bin/../../lib/gcc/pic32c/8.3.1/../../../../pic32c/lib/thumb/v6-m/nofp\libc-size-musl.a(strlen.o)
                0x000000000001126c                strlen

.text.strnlen%179
                0x0000000000011284       0x18
 .text.strnlen  0x0000000000011284       0x18 c:/program files/microchip/xc32/v4.60/bin/bin/../../lib/gcc/pic32c/8.3.1/../../../../pic32c/lib/thumb/v6-m/nofp\libc-size-musl.a(strnlen.o)
                0x0000000000011284                strnlen

.text.vfprintf%180
                0x000000000001129c       0x18
 .text.vfprintf
                0x000000000001129c       0x18 c:/program files/microchip/xc32/v4.60/bin/bin/../../lib/gcc/pic32c/8.3.1/../../../../pic32c/lib/thumb/v6-m/nofp\libc-musl.a(vfprintf.o)
                0x000000000001129c                vfprintf

.text%181       0x00000000000112b4       0x18
 .text          0x00000000000112b4       0x18 c:/program files/microchip/xc32/v4.60/bin/bin/../../lib/gcc/pic32c/8.3.1/thumb/v6-m/nofp\libgcc.a(_lshrdi3.o)
                0x00000000000112b4                __lshrdi3
                0x00000000000112b4                __aeabi_llsr

.text%182       0x00000000000112cc       0x18
 .text          0x00000000000112cc       0x18 c:/program files/microchip/xc32/v4.60/bin/bin/../../lib/gcc/pic32c/8.3.1/thumb/v6-m/nofp\libgcc.a(_ashldi3.o)
                0x00000000000112cc                __aeabi_llsl
                0x00000000000112cc                __ashldi3

.text%183       0x00000000000112e4       0x18
 .text          0x00000000000112e4       0x18 c:/program files/microchip/xc32/v4.60/bin/bin/../../lib/gcc/pic32c/8.3.1/thumb/v6-m/nofp\libgcc.a(_clzdi2.o)
                0x00000000000112e4                __clzdi2

.text.__expand_heap%184
                0x00000000000112fc       0x16
 .text.__expand_heap
                0x00000000000112fc       0x16 c:/program files/microchip/xc32/v4.60/bin/bin/../../lib/gcc/pic32c/8.3.1/../../../../pic32c/lib/thumb/v6-m/nofp\libc-musl.a(expand_heap.o)
                0x00000000000112fc                __expand_heap

.text.sprintf%185
                0x0000000000011312       0x16
 .text.sprintf  0x0000000000011312       0x16 c:/program files/microchip/xc32/v4.60/bin/bin/../../lib/gcc/pic32c/8.3.1/../../../../pic32c/lib/thumb/v6-m/nofp\libc-musl.a(sprintf.o)
                0x0000000000011312                sprintf

.rodata%186     0x0000000000011328       0x16
 .rodata        0x0000000000011328       0x16 c:/program files/microchip/xc32/v4.60/bin/bin/../../lib/gcc/pic32c/8.3.1/../../../../pic32c/lib/thumb/v6-m/nofp\libc-musl.a(__printf_core.o)

.text%187       0x0000000000011340       0x14
 .text          0x0000000000011340       0x14 build/samd21IOT_winc1500/production/_ext/2058341299/tasks.o
                0x0000000000011340                SYS_Tasks

.rodata%188     0x0000000000011354       0x14
 .rodata        0x0000000000011354       0x14 c:/program files/microchip/xc32/v4.60/bin/bin/../../lib/gcc/pic32c/8.3.1/../../../../pic32c/lib/thumb/v6-m/nofp\libpic32c.a(data_init.o)

.text.memcpy%189
                0x0000000000011368       0x14
 .text.memcpy   0x0000000000011368       0x14 c:/program files/microchip/xc32/v4.60/bin/bin/../../lib/gcc/pic32c/8.3.1/../../../../pic32c/lib/thumb/v6-m/nofp\libc-size-musl.a(memcpy.o)
                0x0000000000011368                memcpy

.text.memset%190
                0x000000000001137c       0x14
 .text.memset   0x000000000001137c       0x14 c:/program files/microchip/xc32/v4.60/bin/bin/../../lib/gcc/pic32c/8.3.1/../../../../pic32c/lib/thumb/v6-m/nofp\libc-size-musl.a(memset.o)
                0x000000000001137c                memset

.text.strchr%191
                0x0000000000011390       0x14
 .text.strchr   0x0000000000011390       0x14 c:/program files/microchip/xc32/v4.60/bin/bin/../../lib/gcc/pic32c/8.3.1/../../../../pic32c/lib/thumb/v6-m/nofp\libc-size-musl.a(strchr.o)
                0x0000000000011390                strchr

.text.vsprintf%192
                0x00000000000113a4       0x14
 .text.vsprintf
                0x00000000000113a4       0x14 c:/program files/microchip/xc32/v4.60/bin/bin/../../lib/gcc/pic32c/8.3.1/../../../../pic32c/lib/thumb/v6-m/nofp\libc-musl.a(vsprintf.o)
                0x00000000000113a4                vsprintf

.text.stpcpy%193
                0x00000000000113b8       0x14
 .text.stpcpy   0x00000000000113b8       0x14 c:/program files/microchip/xc32/v4.60/bin/bin/../../lib/gcc/pic32c/8.3.1/../../../../pic32c/lib/thumb/v6-m/nofp\libc-size-musl.a(stpcpy.o)
                0x00000000000113b8                __stpcpy
                0x00000000000113b8                stpcpy

.text.__dinit_clear%194
                0x00000000000113cc       0x12
 .text.__dinit_clear
                0x00000000000113cc       0x12 c:/program files/microchip/xc32/v4.60/bin/bin/../../lib/gcc/pic32c/8.3.1/../../../../pic32c/lib/thumb/v6-m/nofp\libpic32c.a(pic32_data_init_clear.o)
                0x00000000000113cc                __dinit_clear
                0x00000000000113cc                __dinit_clear_needed

.text.gmtime%195
                0x00000000000113e0       0x10
 .text.gmtime   0x00000000000113e0       0x10 c:/program files/microchip/xc32/v4.60/bin/bin/../../lib/gcc/pic32c/8.3.1/../../../../pic32c/lib/thumb/v6-m/nofp\libc-musl.a(gmtime.o)
                0x00000000000113e0                gmtime

.rodata.str1.1%196
                0x00000000000113f0       0x10
 .rodata.str1.1
                0x00000000000113f0       0x10 c:/program files/microchip/xc32/v4.60/bin/bin/../../lib/gcc/pic32c/8.3.1/../../../../pic32c/lib/thumb/v6-m/nofp\libc-musl.a(__fmt_a.o)

.rodata.str1.1%197
                0x0000000000011400       0x10
 .rodata.str1.1
                0x0000000000011400       0x10 c:/program files/microchip/xc32/v4.60/bin/bin/../../lib/gcc/pic32c/8.3.1/../../../../pic32c/lib/thumb/v6-m/nofp\libc-musl.a(__fmt_fp.o)

.text.fma%198   0x0000000000011410       0x10
 .text.fma      0x0000000000011410       0x10 c:/program files/microchip/xc32/v4.60/bin/bin/../../lib/gcc/pic32c/8.3.1/../../../../pic32c/lib/thumb/v6-m/nofp\libm-fast-emfloat.a(fma.o)
                0x0000000000011410                fma

.text.__aeabi_dsub%199
                0x0000000000011420       0x10
 .text.__aeabi_dsub
                0x0000000000011420       0x10 c:/program files/microchip/xc32/v4.60/bin/bin/../../lib/gcc/pic32c/8.3.1/../../../../pic32c/lib/thumb/v6-m/nofp\libm-fast-emfloat.a(__aeabi_dsub.o)
                0x0000000000011420                __aeabi_dsub

.text%200       0x0000000000011430        0xe
 .text          0x0000000000011430        0xe build/samd21IOT_winc1500/production/_ext/1360937237/main.o
                0x0000000000011430                main

.text.tolower%201
                0x000000000001143e        0xe
 .text.tolower  0x000000000001143e        0xe c:/program files/microchip/xc32/v4.60/bin/bin/../../lib/gcc/pic32c/8.3.1/../../../../pic32c/lib/thumb/v6-m/nofp\libc-musl.a(tolower.o)
                0x000000000001143e                tolower

.text.toupper%202
                0x000000000001144c        0xe
 .text.toupper  0x000000000001144c        0xe c:/program files/microchip/xc32/v4.60/bin/bin/../../lib/gcc/pic32c/8.3.1/../../../../pic32c/lib/thumb/v6-m/nofp\libc-musl.a(toupper.o)
                0x000000000001144c                toupper

.text%203       0x000000000001145a        0xc
 .text          0x000000000001145a        0xc build/samd21IOT_winc1500/production/_ext/1613073709/xc32_monitor.o
                0x000000000001145a                read
                0x0000000000011460                write

.rodata%204     0x0000000000011466        0xc
 .rodata        0x0000000000011466        0xc c:/program files/microchip/xc32/v4.60/bin/bin/../../lib/gcc/pic32c/8.3.1/../../../../pic32c/lib/thumb/v6-m/nofp\libc-musl.a(__secs_to_tm.o)

.text.strcpy%205
                0x0000000000011472        0xc
 .text.strcpy   0x0000000000011472        0xc c:/program files/microchip/xc32/v4.60/bin/bin/../../lib/gcc/pic32c/8.3.1/../../../../pic32c/lib/thumb/v6-m/nofp\libc-size-musl.a(strcpy.o)
                0x0000000000011472                strcpy

.rodata.str1.4%206
                0x0000000000011480        0x8
 .rodata.str1.4
                0x0000000000011480        0x8 build/samd21IOT_winc1500/production/_ext/1235514674/wdrv_winc_wps.o

.rodata.str1.1%207
                0x0000000000011488        0x8
 .rodata.str1.1
                0x0000000000011488        0x8 c:/program files/microchip/xc32/v4.60/bin/bin/../../lib/gcc/pic32c/8.3.1/../../../../pic32c/lib/thumb/v6-m/nofp\libc-musl.a(__printf_core.o)

.text.__tolower_l%208
                0x0000000000011490        0x8
 .text.__tolower_l
                0x0000000000011490        0x8 c:/program files/microchip/xc32/v4.60/bin/bin/../../lib/gcc/pic32c/8.3.1/../../../../pic32c/lib/thumb/v6-m/nofp\libc-musl.a(tolower.o)
                0x0000000000011490                tolower_l
                0x0000000000011490                __tolower_l

.text.__toupper_l%209
                0x0000000000011498        0x8
 .text.__toupper_l
                0x0000000000011498        0x8 c:/program files/microchip/xc32/v4.60/bin/bin/../../lib/gcc/pic32c/8.3.1/../../../../pic32c/lib/thumb/v6-m/nofp\libc-musl.a(toupper.o)
                0x0000000000011498                __toupper_l
                0x0000000000011498                toupper_l

.rodata.str1.1%210
                0x00000000000114a0        0x7
 .rodata.str1.1
                0x00000000000114a0        0x7 c:/program files/microchip/xc32/v4.60/bin/bin/../../lib/gcc/pic32c/8.3.1/../../../../pic32c/lib/thumb/v6-m/nofp\libc-musl.a(__fmt_s.o)

.text%211       0x00000000000114a8        0x4
 .text          0x00000000000114a8        0x4 build/samd21IOT_winc1500/production/_ext/2058341299/exceptions.o
                0x00000000000114a8                NonMaskableInt_Handler
                0x00000000000114aa                HardFault_Handler

.text.__dummy_decompress%212
                0x00000000000114ac        0x4
 .text.__dummy_decompress
                0x00000000000114ac        0x4 c:/program files/microchip/xc32/v4.60/bin/bin/../../lib/gcc/pic32c/8.3.1/../../../../pic32c/lib/thumb/v6-m/nofp\libpic32c.a(data_init.o)
                0x00000000000114ac                __dinit_decompress
                0x00000000000114ac                __dinit_copy_val_data
                0x00000000000114ac                __dinit_copy_emb

.rodata.str1.1%213
                0x00000000000114b0        0x4
 .rodata.str1.1
                0x00000000000114b0        0x4 c:/program files/microchip/xc32/v4.60/bin/bin/../../lib/gcc/pic32c/8.3.1/../../../../pic32c/lib/thumb/v6-m/nofp\libc-musl.a(gmtime_r.o)

.rodata.str1.1%214
                0x00000000000114b4        0x4
 .rodata.str1.1
                0x00000000000114b4        0x4 c:/program files/microchip/xc32/v4.60/bin/bin/../../lib/gcc/pic32c/8.3.1/../../../../pic32c/lib/thumb/v6-m/nofp\libc-musl.a(mktime.o)

.text.__dummy_fmt3%215
                0x00000000000114b8        0x4
 .text.__dummy_fmt3
                0x00000000000114b8        0x4 c:/program files/microchip/xc32/v4.60/bin/bin/../../lib/gcc/pic32c/8.3.1/../../../../pic32c/lib/thumb/v6-m/nofp\libc-musl.a(__printf_core.o)

.text.__dummy_fmt4%216
                0x00000000000114bc        0x4
 .text.__dummy_fmt4
                0x00000000000114bc        0x4 c:/program files/microchip/xc32/v4.60/bin/bin/../../lib/gcc/pic32c/8.3.1/../../../../pic32c/lib/thumb/v6-m/nofp\libc-musl.a(__printf_core.o)

.text.__dummy_fmts%217
                0x00000000000114c0        0x4
 .text.__dummy_fmts
                0x00000000000114c0        0x4 c:/program files/microchip/xc32/v4.60/bin/bin/../../lib/gcc/pic32c/8.3.1/../../../../pic32c/lib/thumb/v6-m/nofp\libc-musl.a(__printf_core.o)

.text%218       0x00000000000114c4        0x4
 .text          0x00000000000114c4        0x4 c:/program files/microchip/xc32/v4.60/bin/bin/../../lib/gcc/pic32c/8.3.1/thumb/v6-m/nofp\libgcc.a(_dvmd_tls.o)
                0x00000000000114c4                __aeabi_idiv0
                0x00000000000114c4                __aeabi_ldiv0

.text%219       0x000000000000d626        0x2
 .text          0x000000000000d626        0x2 build/samd21IOT_winc1500/production/_ext/437606661/plib_evsys.o
                0x000000000000d626                EVSYS_Initialize

.text%220       0x000000000000e1ba        0x2
 .text          0x000000000000e1ba        0x2 build/samd21IOT_winc1500/production/_ext/2058341299/interrupts.o
                0x000000000000e1ba                SVCall_Handler
                0x000000000000e1ba                AC_Handler
                0x000000000000e1ba                SysTick_Handler
                0x000000000000e1ba                PendSV_Handler
                0x000000000000e1ba                SERCOM1_Handler
                0x000000000000e1ba                ADC_Handler
                0x000000000000e1ba                TCC1_Handler
                0x000000000000e1ba                TCC0_Handler
                0x000000000000e1ba                RTC_Handler
                0x000000000000e1ba                WDT_Handler
                0x000000000000e1ba                TC4_Handler
                0x000000000000e1ba                USB_Handler
                0x000000000000e1ba                Dummy_Handler
                0x000000000000e1ba                PM_Handler
                0x000000000000e1ba                TCC2_Handler
                0x000000000000e1ba                EVSYS_Handler
                0x000000000000e1ba                SERCOM3_Handler
                0x000000000000e1ba                SERCOM4_Handler
                0x000000000000e1ba                I2S_Handler
                0x000000000000e1ba                NVMCTRL_Handler
                0x000000000000e1ba                SERCOM0_Handler
                0x000000000000e1ba                DAC_Handler
                0x000000000000e1ba                PTC_Handler
                0x000000000000e1ba                TC5_Handler
                0x000000000000e1ba                SYSCTRL_Handler

.text%221       0x000000000000ea9e        0x2
 .text          0x000000000000ea9e        0x2 build/samd21IOT_winc1500/production/_ext/2058341299/startup_xc32.o
                0x000000000000ea9e                _on_reset
                0x000000000000ea9e                _on_bootstrap
                0x000000000000ea9e                __xc32_on_reset
                0x000000000000ea9e                Dummy_App_Func
                0x000000000000ea9e                __xc32_on_bootstrap

.text%222       0x000000000000f7b2        0x2
 .text          0x000000000000f7b2        0x2 build/samd21IOT_winc1500/production/_ext/2058341299/libc_syscalls.o
                0x000000000000f7b2                _exit

.text.__dummy_init_tls%223
                0x000000000000fd56        0x2
 .text.__dummy_init_tls
                0x000000000000fd56        0x2 c:/program files/microchip/xc32/v4.60/bin/bin/../../lib/gcc/pic32c/8.3.1/../../../../pic32c/lib/thumb/v6-m/nofp\libpic32c.a(data_init.o)
                0x000000000000fd56                xc32_init_tls

.text.__dummy%224
                0x000000000000febe        0x2
 .text.__dummy  0x000000000000febe        0x2 c:/program files/microchip/xc32/v4.60/bin/bin/../../lib/gcc/pic32c/8.3.1/../../../../pic32c/lib/thumb/v6-m/nofp\libc-musl.a(__libc_start_main.o)
                0x000000000000febe                __init_stdio
                0x000000000000febe                __init_host

.text%z217      0x0000000000000000        0x0
 .text          0x0000000000000000        0x0 c:/program files/microchip/xc32/v4.60/bin/bin/../../lib/gcc/pic32c/8.3.1/../../../../pic32c/lib/thumb/v6-m/nofp\libpic32c.a(pic32_data_init_copy.o)

.text%z218      0x0000000000000000        0x0
 .text          0x0000000000000000        0x0 c:/program files/microchip/xc32/v4.60/bin/bin/../../lib/gcc/pic32c/8.3.1/../../../../pic32c/lib/thumb/v6-m/nofp\libpic32c.a(pic32_data_init_clear.o)

.text%z219      0x0000000000000000        0x0
 .text          0x0000000000000000        0x0 c:/program files/microchip/xc32/v4.60/bin/bin/../../lib/gcc/pic32c/8.3.1/thumb/v6-m/nofp/crtn.o

.text%z220      0x0000000000000000        0x0
 .text          0x0000000000000000        0x0 c:/program files/microchip/xc32/v4.60/bin/bin/../../lib/gcc/pic32c/8.3.1/thumb/v6-m/nofp/crtend.o

.text%z221      0x0000000000000000        0x0
 .text          0x0000000000000000        0x0 c:/program files/microchip/xc32/v4.60/bin/bin/../../lib/gcc/pic32c/8.3.1/../../../../pic32c/lib/thumb/v6-m/nofp\libc-size-musl.a(stpcpy.o)

.text%z222      0x0000000000000000        0x0
 .text          0x0000000000000000        0x0 c:/program files/microchip/xc32/v4.60/bin/bin/../../lib/gcc/pic32c/8.3.1/../../../../pic32c/lib/thumb/v6-m/nofp\libc-size-musl.a(strcpy.o)

.text%z223      0x0000000000000000        0x0
 .text          0x0000000000000000        0x0 c:/program files/microchip/xc32/v4.60/bin/bin/../../lib/gcc/pic32c/8.3.1/../../../../pic32c/lib/thumb/v6-m/nofp\libpic32c.a(sbrk.o)

.text%z224      0x0000000000000000        0x0
 .text          0x0000000000000000        0x0 c:/program files/microchip/xc32/v4.60/bin/bin/../../lib/gcc/pic32c/8.3.1/../../../../pic32c/lib/thumb/v6-m/nofp\libc-musl.a(__cvt_u.o)

.text%z225      0x0000000000000000        0x0
 .text          0x0000000000000000        0x0 c:/program files/microchip/xc32/v4.60/bin/bin/../../lib/gcc/pic32c/8.3.1/../../../../pic32c/lib/thumb/v6-m/nofp\libc-musl.a(toupper.o)

.text%z226      0x0000000000000000        0x0
 .text          0x0000000000000000        0x0 c:/program files/microchip/xc32/v4.60/bin/bin/../../lib/gcc/pic32c/8.3.1/../../../../pic32c/lib/thumb/v6-m/nofp\libc-musl.a(__fmt_x.o)

.text%z227      0x0000000000000000        0x0
 .text          0x0000000000000000        0x0 c:/program files/microchip/xc32/v4.60/bin/bin/../../lib/gcc/pic32c/8.3.1/../../../../pic32c/lib/thumb/v6-m/nofp\libc-musl.a(__fmt_u.o)

.text%z228      0x0000000000000000        0x0
 .text          0x0000000000000000        0x0 c:/program files/microchip/xc32/v4.60/bin/bin/../../lib/gcc/pic32c/8.3.1/../../../../pic32c/lib/thumb/v6-m/nofp\libc-musl.a(__fmt_s.o)

.text%z229      0x0000000000000000        0x0
 .text          0x0000000000000000        0x0 c:/program files/microchip/xc32/v4.60/bin/bin/../../lib/gcc/pic32c/8.3.1/../../../../pic32c/lib/thumb/v6-m/nofp\libc-musl.a(__fmt_o.o)

.text%z230      0x0000000000000000        0x0
 .text          0x0000000000000000        0x0 c:/program files/microchip/xc32/v4.60/bin/bin/../../lib/gcc/pic32c/8.3.1/../../../../pic32c/lib/thumb/v6-m/nofp\libc-musl.a(__fmt_fp.o)

.text%z231      0x0000000000000000        0x0
 .text          0x0000000000000000        0x0 c:/program files/microchip/xc32/v4.60/bin/bin/../../lib/gcc/pic32c/8.3.1/../../../../pic32c/lib/thumb/v6-m/nofp\libc-musl.a(__fmt_d.o)

.text%z232      0x0000000000000000        0x0
 .text          0x0000000000000000        0x0 c:/program files/microchip/xc32/v4.60/bin/bin/../../lib/gcc/pic32c/8.3.1/../../../../pic32c/lib/thumb/v6-m/nofp\libc-musl.a(__fmt_a.o)

.text%z233      0x0000000000000000        0x0
 .text          0x0000000000000000        0x0 c:/program files/microchip/xc32/v4.60/bin/bin/../../lib/gcc/pic32c/8.3.1/../../../../pic32c/lib/thumb/v6-m/nofp\libc-musl.a(tolower.o)

.text%z234      0x0000000000000000        0x0
 .text          0x0000000000000000        0x0 c:/program files/microchip/xc32/v4.60/bin/bin/../../lib/gcc/pic32c/8.3.1/../../../../pic32c/lib/thumb/v6-m/nofp\libc-musl.a(__month_to_secs.o)

.text%z235      0x0000000000000000        0x0
 .text          0x0000000000000000        0x0 c:/program files/microchip/xc32/v4.60/bin/bin/../../lib/gcc/pic32c/8.3.1/../../../../pic32c/lib/thumb/v6-m/nofp\libc-musl.a(atoi.o)

.text%z236      0x0000000000000000        0x0
 .text          0x0000000000000000        0x0 c:/program files/microchip/xc32/v4.60/bin/bin/../../lib/gcc/pic32c/8.3.1/../../../../pic32c/lib/thumb/v6-m/nofp\libc-musl.a(__printf_core.o)

.text%z237      0x0000000000000000        0x0
 .text          0x0000000000000000        0x0 c:/program files/microchip/xc32/v4.60/bin/bin/../../lib/gcc/pic32c/8.3.1/../../../../pic32c/lib/thumb/v6-m/nofp\libc-musl.a(__pop_ptr.o)

.text%z238      0x0000000000000000        0x0
 .text          0x0000000000000000        0x0 c:/program files/microchip/xc32/v4.60/bin/bin/../../lib/gcc/pic32c/8.3.1/../../../../pic32c/lib/thumb/v6-m/nofp\libc-musl.a(__pop_int.o)

.text%z239      0x0000000000000000        0x0
 .text          0x0000000000000000        0x0 c:/program files/microchip/xc32/v4.60/bin/bin/../../lib/gcc/pic32c/8.3.1/../../../../pic32c/lib/thumb/v6-m/nofp\libc-musl.a(__pop_float.o)

.text%z240      0x0000000000000000        0x0
 .text          0x0000000000000000        0x0 c:/program files/microchip/xc32/v4.60/bin/bin/../../lib/gcc/pic32c/8.3.1/../../../../pic32c/lib/thumb/v6-m/nofp\libc-musl.a(__io_fmt_needed.o)

.text%z241      0x0000000000000000        0x0
 .text          0x0000000000000000        0x0 c:/program files/microchip/xc32/v4.60/bin/bin/../../lib/gcc/pic32c/8.3.1/../../../../pic32c/lib/thumb/v6-m/nofp\libc-musl.a(__secs_to_tm.o)

.text%z242      0x0000000000000000        0x0
 .text          0x0000000000000000        0x0 c:/program files/microchip/xc32/v4.60/bin/bin/../../lib/gcc/pic32c/8.3.1/../../../../pic32c/lib/thumb/v6-m/nofp\libc-musl.a(__year_to_secs.o)

.text%z243      0x0000000000000000        0x0
 .text          0x0000000000000000        0x0 c:/program files/microchip/xc32/v4.60/bin/bin/../../lib/gcc/pic32c/8.3.1/../../../../pic32c/lib/thumb/v6-m/nofp\libc-musl.a(__tm_to_secs.o)

.text%z244      0x0000000000000000        0x0
 .text          0x0000000000000000        0x0 c:/program files/microchip/xc32/v4.60/bin/bin/../../lib/gcc/pic32c/8.3.1/../../../../pic32c/lib/thumb/v6-m/nofp\libc-musl.a(vfprintf.o)

.text%z245      0x0000000000000000        0x0
 .text          0x0000000000000000        0x0 c:/program files/microchip/xc32/v4.60/bin/bin/../../lib/gcc/pic32c/8.3.1/../../../../pic32c/lib/thumb/v6-m/nofp\libc-musl.a(__environ.o)

.text%z246      0x0000000000000000        0x0
 .text          0x0000000000000000        0x0 c:/program files/microchip/xc32/v4.60/bin/bin/../../lib/gcc/pic32c/8.3.1/../../../../pic32c/lib/thumb/v6-m/nofp\libc-musl.a(mktime.o)

.text%z247      0x0000000000000000        0x0
 .text          0x0000000000000000        0x0 c:/program files/microchip/xc32/v4.60/bin/bin/../../lib/gcc/pic32c/8.3.1/../../../../pic32c/lib/thumb/v6-m/nofp\libc-musl.a(gmtime_r.o)

.text%z248      0x0000000000000000        0x0
 .text          0x0000000000000000        0x0 c:/program files/microchip/xc32/v4.60/bin/bin/../../lib/gcc/pic32c/8.3.1/../../../../pic32c/lib/thumb/v6-m/nofp\libc-musl.a(gmtime.o)

.text%z249      0x0000000000000000        0x0
 .text          0x0000000000000000        0x0 c:/program files/microchip/xc32/v4.60/bin/bin/../../lib/gcc/pic32c/8.3.1/../../../../pic32c/lib/thumb/v6-m/nofp\libc-musl.a(vsprintf.o)

.text%z250      0x0000000000000000        0x0
 .text          0x0000000000000000        0x0 c:/program files/microchip/xc32/v4.60/bin/bin/../../lib/gcc/pic32c/8.3.1/../../../../pic32c/lib/thumb/v6-m/nofp\libc-musl.a(sprintf.o)

.text%z251      0x0000000000000000        0x0
 .text          0x0000000000000000        0x0 c:/program files/microchip/xc32/v4.60/bin/bin/../../lib/gcc/pic32c/8.3.1/../../../../pic32c/lib/thumb/v6-m/nofp\libc-musl.a(vsnprintf.o)

.text%z252      0x0000000000000000        0x0
 .text          0x0000000000000000        0x0 c:/program files/microchip/xc32/v4.60/bin/bin/../../lib/gcc/pic32c/8.3.1/../../../../pic32c/lib/thumb/v6-m/nofp\libc-musl.a(expand_heap.o)

.text%z253      0x0000000000000000        0x0
 .text          0x0000000000000000        0x0 c:/program files/microchip/xc32/v4.60/bin/bin/../../lib/gcc/pic32c/8.3.1/../../../../pic32c/lib/thumb/v6-m/nofp\libc-musl.a(libc.o)

.text%z254      0x0000000000000000        0x0
 .text          0x0000000000000000        0x0 c:/program files/microchip/xc32/v4.60/bin/bin/../../lib/gcc/pic32c/8.3.1/../../../../pic32c/lib/thumb/v6-m/nofp\libc-musl.a(__errno_location.o)

.text%z255      0x0000000000000000        0x0
 .text          0x0000000000000000        0x0 c:/program files/microchip/xc32/v4.60/bin/bin/../../lib/gcc/pic32c/8.3.1/../../../../pic32c/lib/thumb/v6-m/nofp\libc-musl.a(__libc_start_main.o)

.text%z256      0x0000000000000000        0x0
 .text          0x0000000000000000        0x0 c:/program files/microchip/xc32/v4.60/bin/bin/../../lib/gcc/pic32c/8.3.1/../../../../pic32c/lib/thumb/v6-m/nofp\liblmalloc-musl.a(lite_malloc.o)

.text%z257      0x0000000000000000        0x0
 .text          0x0000000000000000        0x0 c:/program files/microchip/xc32/v4.60/bin/bin/../../lib/gcc/pic32c/8.3.1/../../../../pic32c/lib/thumb/v6-m/nofp\liblmalloc-musl.a(lite_free.o)

.text%z258      0x0000000000000000        0x0
 .text          0x0000000000000000        0x0 c:/program files/microchip/xc32/v4.60/bin/bin/../../lib/gcc/pic32c/8.3.1/../../../../pic32c/lib/thumb/v6-m/nofp\libc-size-musl.a(memchr.o)

.text%z259      0x0000000000000000        0x0
 .text          0x0000000000000000        0x0 c:/program files/microchip/xc32/v4.60/bin/bin/../../lib/gcc/pic32c/8.3.1/../../../../pic32c/lib/thumb/v6-m/nofp\libc-size-musl.a(strnlen.o)

.text%z260      0x0000000000000000        0x0
 .text          0x0000000000000000        0x0 c:/program files/microchip/xc32/v4.60/bin/bin/../../lib/gcc/pic32c/8.3.1/../../../../pic32c/lib/thumb/v6-m/nofp\libc-size-musl.a(strchrnul.o)

.text%z261      0x0000000000000000        0x0
 .text          0x0000000000000000        0x0 c:/program files/microchip/xc32/v4.60/bin/bin/../../lib/gcc/pic32c/8.3.1/../../../../pic32c/lib/thumb/v6-m/nofp\libc-size-musl.a(strchr.o)

.text%z262      0x0000000000000000        0x0
 .text          0x0000000000000000        0x0 c:/program files/microchip/xc32/v4.60/bin/bin/../../lib/gcc/pic32c/8.3.1/../../../../pic32c/lib/thumb/v6-m/nofp\libc-size-musl.a(strlen.o)

.text%z263      0x0000000000000000        0x0
 .text          0x0000000000000000        0x0 c:/program files/microchip/xc32/v4.60/bin/bin/../../lib/gcc/pic32c/8.3.1/../../../../pic32c/lib/thumb/v6-m/nofp\libc-size-musl.a(memset.o)

.text%z264      0x0000000000000000        0x0
 .text          0x0000000000000000        0x0 c:/program files/microchip/xc32/v4.60/bin/bin/../../lib/gcc/pic32c/8.3.1/../../../../pic32c/lib/thumb/v6-m/nofp\libc-size-musl.a(memcpy.o)

.text%z265      0x0000000000000000        0x0
 .text          0x0000000000000000        0x0 c:/program files/microchip/xc32/v4.60/bin/bin/../../lib/gcc/pic32c/8.3.1/../../../../pic32c/lib/thumb/v6-m/nofp\libpic32c.a(data_init.o)

.rodata%225     0x00000000000114a7        0x1
 .rodata        0x00000000000114a7        0x1 build/samd21IOT_winc1500/production/_ext/1235514674/wdrv_winc_socket.o

.text%z266      0x0000000000000000        0x0
 .text          0x0000000000000000        0x0 c:/program files/microchip/xc32/v4.60/bin/bin/../../lib/gcc/pic32c/8.3.1/thumb/v6-m/nofp/crti.o
